Certificate:
    Data:
        Version: 3 (0x2)
        Serial Number: 65278 (0xfefe)
        Signature Algorithm: sha256WithRSAEncryption
        Issuer: CN=web-platform-tests
        Validity
            Not Before: Mar 22 16:49:45 2017 GMT
            Not After : Apr 21 16:49:45 2017 GMT
        Subject: CN=web-platform-tests
        Subject Public Key Info:
            Public Key Algorithm: rsaEncryption
            RSA Public Key: (2048 bit)
                Modulus (2048 bit):
                    00:d9:21:52:23:45:b0:bf:b3:a8:65:b3:50:ea:06:
                    4a:58:dc:0e:d6:04:ef:66:29:89:3e:29:f9:87:21:
                    19:86:32:23:10:c9:f9:64:83:1b:f0:60:8f:8a:f1:
                    09:11:01:bd:18:11:4e:f6:bd:ac:65:e7:19:45:97:
                    ac:e7:58:d3:7c:c4:79:04:47:04:89:d1:6c:96:f2:
                    61:74:da:91:af:e9:bd:3e:5a:01:3b:b6:b0:29:91:
                    68:f4:9f:7a:99:50:87:c2:fe:c0:94:3b:53:d7:16:
                    a4:dd:67:ef:56:50:3a:5d:e1:e7:11:b4:94:d0:e8:
                    f7:97:f4:65:8b:51:82:e0:af:c1:ab:59:5d:6a:29:
                    88:07:76:15:bf:ca:d1:21:a2:72:c8:f0:5f:80:36:
                    45:4d:b0:d8:f3:82:ec:82:49:f0:dd:1b:5f:58:c7:
                    57:e2:d2:65:3a:26:07:4c:2b:aa:41:a0:a3:b9:48:
                    62:75:19:d8:ab:a4:0e:64:38:b6:a5:96:a7:85:64:
                    02:97:f5:23:1b:e8:5a:47:b8:41:bb:9d:77:9c:06:
                    b0:ef:ef:47:45:3a:df:2e:20:ce:b2:54:f0:dd:7e:
                    4c:52:15:e5:38:54:dc:89:f8:f8:e6:82:5b:75:c2:
                    0c:cc:41:80:f5:e4:0a:d7:80:eb:03:b6:1c:b8:68:
                    de:03
                Exponent: 65537 (0x10001)
        X509v3 extensions:
            X509v3 Basic Constraints: 
                CA:TRUE
            X509v3 Subject Key Identifier: 
                10:16:98:57:52:0C:20:38:0B:A4:5F:76:6B:E0:09:07:44:01:00:C0
            X509v3 Authority Key Identifier: 
                keyid:10:16:98:57:52:0C:20:38:0B:A4:5F:76:6B:E0:09:07:44:01:00:C0
                DirName:/CN=web-platform-tests
                serial:FE:FE

            X509v3 Key Usage: 
                Certificate Sign
            X509v3 Extended Key Usage: 
                TLS Web Server Authentication
    Signature Algorithm: sha256WithRSAEncryption
        d7:6c:3b:bc:33:ea:b2:0b:fc:57:a0:87:af:3c:a0:84:b0:18:
        75:f4:81:c2:32:0b:71:a6:9f:5d:a1:4f:41:ee:95:be:b5:d4:
        8a:c4:a2:77:63:f8:0a:74:ed:4a:f9:9a:f1:74:ed:7c:0d:52:
        cc:d2:ff:25:d1:dc:81:dc:89:5b:1a:13:bf:d7:fd:1a:bf:dd:
        ac:1d:09:69:1e:66:31:d2:38:f9:53:9f:ce:0d:c7:63:8c:46:
        42:08:92:cb:e4:a9:bc:95:79:6b:04:7a:94:b0:c1:b4:8a:2a:
        8c:51:61:43:90:59:2f:b2:79:9b:45:ce:b3:e9:9c:61:18:f2:
        d1:90:97:c8:7c:db:a9:bf:6f:e4:b3:85:27:4c:c6:a1:da:cf:
        0d:43:af:25:83:0d:e5:fb:f7:de:54:3d:ac:f9:55:bf:f4:ed:
        91:ef:4f:1d:68:7a:e3:e1:b8:a6:39:35:88:f1:d4:35:33:8f:
        82:a0:08:63:c7:b9:b5:37:d2:4c:df:eb:4b:07:40:00:18:90:
        01:38:55:d6:64:c3:a3:c1:53:17:94:da:ed:b8:02:65:a5:c8:
        36:27:d8:e1:0a:8c:8a:f3:09:2f:5e:0b:01:d0:7e:6e:da:cd:
        13:1c:58:0a:7b:a3:47:74:0a:68:32:f5:e3:0f:15:2d:46:57:
        a1:6b:f3:82
-----BEGIN CERTIFICATE-----
MIIDUzCCAjugAwIBAgIDAP7+MA0GCSqGSIb3DQEBCwUAMB0xGzAZBgNVBAMMEndl
Yi1wbGF0Zm9ybS10ZXN0czAeFw0xNzAzMjIxNjQ5NDVaFw0xNzA0MjExNjQ5NDVa
MB0xGzAZBgNVBAMMEndlYi1wbGF0Zm9ybS10ZXN0czCCASIwDQYJKoZIhvcNAQEB
BQADggEPADCCAQoCggEBANkhUiNFsL+zqGWzUOoGSljcDtYE72YpiT4p+YchGYYy
IxDJ+WSDG/Bgj4rxCREBvRgRTva9rGXnGUWXrOdY03zEeQRHBInRbJbyYXTaka/p
vT5aATu2sCmRaPSfeplQh8L+wJQ7U9cWpN1n71ZQOl3h5xG0lNDo95f0ZYtRguCv
watZXWopiAd2Fb/K0SGicsjwX4A2RU2w2POC7IJJ8N0bX1jHV+LSZTomB0wrqkGg
o7lIYnUZ2KukDmQ4tqWWp4VkApf1IxvoWke4Qbudd5wGsO/vR0U63y4gzrJU8N1+
TFIV5ThU3In4+OaCW3XCDMxBgPXkCteA6wO2HLho3gMCAwEAAaOBmzCBmDAMBgNV
HRMEBTADAQH/MB0GA1UdDgQWBBQQFphXUgwgOAukX3Zr4AkHRAEAwDBHBgNVHSME
QDA+gBQQFphXUgwgOAukX3Zr4AkHRAEAwKEhpB8wHTEbMBkGA1UEAwwSd2ViLXBs
YXRmb3JtLXRlc3RzggMA/v4wCwYDVR0PBAQDAgIEMBMGA1UdJQQMMAoGCCsGAQUF
BwMBMA0GCSqGSIb3DQEBCwUAA4IBAQDXbDu8M+qyC/xXoIevPKCEsBh19IHCMgtx
pp9doU9B7pW+tdSKxKJ3Y/gKdO1K+ZrxdO18DVLM0v8l0dyB3IlbGhO/1/0av92s
HQlpHmYx0jj5U5/ODcdjjEZCCJLL5Km8lXlrBHqUsMG0iiqMUWFDkFkvsnmbRc6z
6ZxhGPLRkJfIfNupv2/ks4UnTMah2s8NQ68lgw3l+/feVD2s+VW/9O2R708daHrj
4bimOTWI8dQ1M4+CoAhjx7m1N9JM3+tLB0AAGJABOFXWZMOjwVMXlNrtuAJlpcg2
J9jhCoyK8wkvXgsB0H5u2s0THFgKe6NHdApoMvXjDxUtRleha/OC
-----END CERTIFICATE-----
