Certificate:
    Data:
        Version: 3 (0x2)
        Serial Number: 8520248 (0x820238)
        Signature Algorithm: sha256WithRSAEncryption
        Issuer: CN=web-platform-tests
        Validity
            Not Before: Jun 30 06:45:36 2016 GMT
            Not After : Jul 30 06:45:36 2016 GMT
        Subject: CN=localhost
        Subject Public Key Info:
            Public Key Algorithm: rsaEncryption
            RSA Public Key: (2048 bit)
                Modulus (2048 bit):
                    00:d3:0b:38:a2:c4:8d:78:fa:eb:c9:de:c5:23:d4:
                    d6:54:39:ea:b5:fa:af:dd:0d:db:9c:44:cb:9d:1f:
                    be:e8:9b:01:fc:26:92:64:ac:62:69:ba:77:66:4c:
                    cf:82:87:c9:97:eb:3c:ef:96:89:0f:5e:f4:8d:03:
                    5a:22:45:82:86:e6:97:0a:0f:92:43:42:7b:ba:30:
                    f5:69:22:b2:81:9f:d1:9f:8c:e5:f8:81:34:44:de:
                    c4:d3:64:64:54:5a:81:d8:7b:97:50:12:40:c6:5d:
                    b2:e3:61:5e:a0:e2:8b:93:17:8c:e6:37:8a:c5:0a:
                    b1:14:35:b3:9e:f5:0e:0f:b1:a4:08:94:64:5b:34:
                    6e:1f:5d:ab:68:f8:05:bc:9e:f3:9d:36:5b:f7:49:
                    fb:45:cd:43:37:ad:de:cc:6e:fe:1e:d9:95:86:4f:
                    eb:3a:71:58:80:b8:24:39:a4:e5:30:47:d8:c8:8b:
                    74:2b:b0:36:d6:1b:1a:93:24:d6:fd:c8:3e:81:f5:
                    fc:37:6b:af:70:9d:a6:4f:96:37:ac:ff:c8:10:50:
                    4c:68:22:2e:0d:fc:f5:58:10:6b:19:b3:f0:07:b7:
                    41:f4:a3:91:40:96:3e:17:2b:a6:68:d1:79:06:25:
                    44:45:b7:8a:48:9c:13:fc:f1:d7:d0:04:c0:a1:70:
                    d3:51
                Exponent: 65537 (0x10001)
        X509v3 extensions:
            X509v3 Basic Constraints: 
                CA:FALSE
            X509v3 Subject Key Identifier: 
                08:5C:1A:E2:46:32:A0:FE:12:5C:EF:AE:46:EA:1E:4C:7C:33:38:66
            X509v3 Authority Key Identifier: 
                keyid:BF:E0:6C:A6:B2:1C:ED:B6:5A:DB:83:D6:8E:88:98:F2:42:5F:1F:AC

            X509v3 Key Usage: 
                Digital Signature, Non Repudiation, Key Encipherment
            X509v3 Extended Key Usage: 
                TLS Web Server Authentication
            X509v3 Subject Alternative Name: 
                DNS:localhost, DNS:www.localhost, DNS:xn--n8j6ds53lwwkrqhv28a.localhost, DNS:xn--lve-6lad.localhost, DNS:www2.localhost, DNS:www1.localhost
    Signature Algorithm: sha256WithRSAEncryption
        0f:2c:e2:88:04:93:1c:b0:86:c7:55:bd:4e:89:77:c3:cc:a6:
        4a:68:da:b9:26:2f:16:f4:ec:5a:ec:6c:60:62:e6:5e:7b:a6:
        2a:92:6a:d5:fc:b6:3e:7f:a1:4b:b7:c2:81:39:ab:66:fd:95:
        05:e9:41:2f:75:75:70:6c:6e:ce:1d:f2:25:2c:98:49:43:4c:
        21:6e:33:9e:ae:34:4c:42:2c:17:fa:cf:d1:fb:35:7e:ac:b7:
        f4:d4:8c:a4:ce:75:19:e0:35:ad:66:8f:c3:c6:7d:2f:cb:af:
        ee:94:ae:12:b6:17:3d:52:60:a9:1b:a9:91:4c:ce:ee:d1:02:
        ac:a5:5a:c5:75:65:e6:7f:60:45:77:b9:6d:32:e1:90:0b:5d:
        d4:67:bd:05:27:82:3b:bb:b1:db:19:b1:84:72:56:17:73:67:
        a8:b5:13:ba:76:a1:b6:0b:27:20:96:f4:9f:ee:88:db:a0:fb:
        47:36:4d:21:04:48:28:44:73:7e:22:a4:90:92:b2:54:90:b3:
        3b:97:c9:79:f8:d6:0f:8a:b3:16:46:b3:b6:b8:13:b9:a4:c7:
        37:e7:e9:82:b5:49:07:45:3b:06:51:32:6c:54:95:c7:57:fc:
        12:d4:e0:9e:c0:93:4b:a3:6d:0d:73:8f:78:d8:14:b3:5c:75:
        e5:b5:60:b9
-----BEGIN CERTIFICATE-----
MIIDoDCCAoigAwIBAgIEAIICODANBgkqhkiG9w0BAQsFADAdMRswGQYDVQQDDBJ3
ZWItcGxhdGZvcm0tdGVzdHMwHhcNMTYwNjMwMDY0NTM2WhcNMTYwNzMwMDY0NTM2
WjAUMRIwEAYDVQQDDAlsb2NhbGhvc3QwggEiMA0GCSqGSIb3DQEBAQUAA4IBDwAw
ggEKAoIBAQDTCziixI14+uvJ3sUj1NZUOeq1+q/dDducRMudH77omwH8JpJkrGJp
undmTM+Ch8mX6zzvlokPXvSNA1oiRYKG5pcKD5JDQnu6MPVpIrKBn9GfjOX4gTRE
3sTTZGRUWoHYe5dQEkDGXbLjYV6g4ouTF4zmN4rFCrEUNbOe9Q4PsaQIlGRbNG4f
Xato+AW8nvOdNlv3SftFzUM3rd7Mbv4e2ZWGT+s6cViAuCQ5pOUwR9jIi3QrsDbW
GxqTJNb9yD6B9fw3a69wnaZPljes/8gQUExoIi4N/PVYEGsZs/AHt0H0o5FAlj4X
K6Zo0XkGJURFt4pInBP88dfQBMChcNNRAgMBAAGjgfAwge0wCQYDVR0TBAIwADAd
BgNVHQ4EFgQUCFwa4kYyoP4SXO+uRuoeTHwzOGYwHwYDVR0jBBgwFoAUv+BsprIc
7bZa24PWjoiY8kJfH6wwCwYDVR0PBAQDAgXgMBMGA1UdJQQMMAoGCCsGAQUFBwMB
MH4GA1UdEQR3MHWCCWxvY2FsaG9zdIINd3d3LmxvY2FsaG9zdIIheG4tLW44ajZk
czUzbHd3a3JxaHYyOGEubG9jYWxob3N0ghZ4bi0tbHZlLTZsYWQubG9jYWxob3N0
gg53d3cyLmxvY2FsaG9zdIIOd3d3MS5sb2NhbGhvc3QwDQYJKoZIhvcNAQELBQAD
ggEBAA8s4ogEkxywhsdVvU6Jd8PMpkpo2rkmLxb07FrsbGBi5l57piqSatX8tj5/
oUu3woE5q2b9lQXpQS91dXBsbs4d8iUsmElDTCFuM56uNExCLBf6z9H7NX6st/TU
jKTOdRngNa1mj8PGfS/Lr+6UrhK2Fz1SYKkbqZFMzu7RAqylWsV1ZeZ/YEV3uW0y
4ZALXdRnvQUngju7sdsZsYRyVhdzZ6i1E7p2obYLJyCW9J/uiNug+0c2TSEESChE
c34ipJCSslSQszuXyXn41g+KsxZGs7a4E7mkxzfn6YK1SQdFOwZRMmxUlcdX/BLU
4J7Ak0ujbQ1zj3jYFLNcdeW1YLk=
-----END CERTIFICATE-----
