Certificate:
    Data:
        Version: 3 (0x2)
        Serial Number:
            3c:e5:fc:81:88:59:a8:50:16:c1:7f:d7:e5:2a:e5:96:7f:c2:f6:f5
    Signature Algorithm: sha256WithRSAEncryption
        Issuer: CN=Root
        Validity
            Not Before: Oct  5 12:00:00 2021 GMT
            Not After : Oct  5 12:00:00 2022 GMT
        Subject: CN=Root
        Subject Public Key Info:
            Public Key Algorithm: rsaEncryption
                RSA Public-Key: (2048 bit)
                Modulus:
                    00:cc:7a:cf:ec:bd:a0:01:c3:26:51:d8:28:ae:80:
                    b6:0b:d2:76:d7:04:86:18:ac:fd:f2:8f:64:e7:92:
                    d6:d0:42:32:4f:cd:d0:4d:d0:ac:71:9a:73:80:0a:
                    04:70:20:a3:2f:a0:9b:f4:3e:19:cf:69:54:b5:be:
                    85:dd:6e:b2:0b:14:df:27:bf:2c:a1:bb:b2:a7:23:
                    0c:fb:ae:78:69:6b:1a:6e:7c:38:7f:15:5d:e5:cf:
                    27:32:56:2a:f1:87:fe:3a:16:73:e6:dd:83:f2:f2:
                    ae:31:c8:93:d2:49:b7:b1:71:f5:55:de:bb:85:cd:
                    cb:19:74:1d:61:49:da:83:44:ec:4c:5e:aa:d5:8b:
                    32:1a:db:77:d5:b1:83:8c:00:b9:55:b7:64:78:5c:
                    87:c9:68:58:bd:de:af:50:e2:bb:bd:32:cd:fa:3d:
                    df:3b:3d:93:10:16:b6:6d:90:1d:d7:7d:e9:ea:7e:
                    1e:2e:c8:10:a4:14:ad:62:72:af:65:95:1f:a7:6e:
                    81:84:9f:df:85:4e:c0:3e:7f:8c:02:0a:f0:65:58:
                    84:7c:6a:e1:53:af:3c:f1:7a:b9:33:c8:e7:f9:ed:
                    92:46:00:50:62:f0:89:41:57:1e:81:d1:04:12:b3:
                    fc:25:60:17:5c:0b:eb:a9:46:4a:03:39:16:11:4d:
                    e1:7b
                Exponent: 65537 (0x10001)
        X509v3 extensions:
            X509v3 Subject Key Identifier: 
                B6:C2:EF:9F:D1:29:CB:0F:89:8C:4C:52:D4:BD:40:B7:11:B7:71:DD
            X509v3 Authority Key Identifier: 
                keyid:B6:C2:EF:9F:D1:29:CB:0F:89:8C:4C:52:D4:BD:40:B7:11:B7:71:DD

            Authority Information Access: 
                CA Issuers - URI:http://url-for-aia/Root.cer

            X509v3 CRL Distribution Points: 

                Full Name:
                  URI:http://url-for-crl/Root.crl

            X509v3 Key Usage: critical
                Certificate Sign, CRL Sign
            X509v3 Basic Constraints: critical
                CA:TRUE
    Signature Algorithm: sha256WithRSAEncryption
         3a:c4:f6:50:32:77:14:e2:a8:69:9b:ad:85:a0:fa:95:08:d2:
         22:cb:d3:aa:53:94:e5:1f:92:fa:d5:7b:c8:a5:b6:13:15:42:
         42:2c:ce:48:e9:f1:55:c7:cd:f4:29:b6:46:e9:08:81:8c:83:
         82:c5:d4:f7:1e:90:3c:2d:78:39:7f:be:e8:30:5e:f7:d4:72:
         e4:db:0a:09:49:c0:ce:83:66:c0:16:73:f4:cf:67:ad:74:e3:
         10:60:72:16:77:4a:c8:08:88:93:62:c0:4a:23:0b:74:3e:63:
         98:9c:54:1d:34:d5:b6:da:bc:7c:5a:f2:68:22:e2:d9:15:12:
         84:04:f6:3e:b3:ac:97:bc:b4:54:93:3c:d4:0b:25:e4:c1:34:
         5a:98:bc:aa:de:78:bb:12:3f:33:82:a2:bf:5f:82:e6:9e:ad:
         85:21:21:d9:9d:41:5e:4f:72:a3:16:8d:7d:b4:1d:26:d8:77:
         d8:29:22:13:a2:f6:d7:9f:1c:60:2f:17:9e:fd:f4:63:a3:c6:
         ed:e3:47:43:b7:73:39:82:97:18:fa:4b:db:2e:ac:d3:7b:54:
         cd:f8:d0:eb:70:13:03:8a:4b:9b:90:62:4e:b0:34:22:49:ec:
         78:2a:47:97:60:13:03:23:ed:09:ff:a8:00:59:6a:2c:d1:2e:
         d0:93:0b:59
-----BEGIN CERTIFICATE-----
MIIDeDCCAmCgAwIBAgIUPOX8gYhZqFAWwX/X5Srlln/C9vUwDQYJKoZIhvcNAQEL
BQAwDzENMAsGA1UEAwwEUm9vdDAeFw0yMTEwMDUxMjAwMDBaFw0yMjEwMDUxMjAw
MDBaMA8xDTALBgNVBAMMBFJvb3QwggEiMA0GCSqGSIb3DQEBAQUAA4IBDwAwggEK
AoIBAQDMes/svaABwyZR2CiugLYL0nbXBIYYrP3yj2TnktbQQjJPzdBN0KxxmnOA
CgRwIKMvoJv0PhnPaVS1voXdbrILFN8nvyyhu7KnIwz7rnhpaxpufDh/FV3lzycy
Virxh/46FnPm3YPy8q4xyJPSSbexcfVV3ruFzcsZdB1hSdqDROxMXqrVizIa23fV
sYOMALlVt2R4XIfJaFi93q9Q4ru9Ms36Pd87PZMQFrZtkB3Xfenqfh4uyBCkFK1i
cq9llR+nboGEn9+FTsA+f4wCCvBlWIR8auFTrzzxerkzyOf57ZJGAFBi8IlBVx6B
0QQSs/wlYBdcC+upRkoDORYRTeF7AgMBAAGjgcswgcgwHQYDVR0OBBYEFLbC75/R
KcsPiYxMUtS9QLcRt3HdMB8GA1UdIwQYMBaAFLbC75/RKcsPiYxMUtS9QLcRt3Hd
MDcGCCsGAQUFBwEBBCswKTAnBggrBgEFBQcwAoYbaHR0cDovL3VybC1mb3ItYWlh
L1Jvb3QuY2VyMCwGA1UdHwQlMCMwIaAfoB2GG2h0dHA6Ly91cmwtZm9yLWNybC9S
b290LmNybDAOBgNVHQ8BAf8EBAMCAQYwDwYDVR0TAQH/BAUwAwEB/zANBgkqhkiG
9w0BAQsFAAOCAQEAOsT2UDJ3FOKoaZuthaD6lQjSIsvTqlOU5R+S+tV7yKW2ExVC
QizOSOnxVcfN9Cm2RukIgYyDgsXU9x6QPC14OX++6DBe99Ry5NsKCUnAzoNmwBZz
9M9nrXTjEGByFndKyAiIk2LASiMLdD5jmJxUHTTVttq8fFryaCLi2RUShAT2PrOs
l7y0VJM81Asl5ME0Wpi8qt54uxI/M4Kiv1+C5p6thSEh2Z1BXk9yoxaNfbQdJth3
2CkiE6L2158cYC8Xnv30Y6PG7eNHQ7dzOYKXGPpL2y6s03tUzfjQ63ATA4pLm5Bi
TrA0IknseCpHl2ATAyPtCf+oAFlqLNEu0JMLWQ==
-----END CERTIFICATE-----
