__ZN7WebCore7RunLoop21initializeMainRunLoopEv
__ZN3WTF14ThreadSpecificIN7WebCore7RunLoop6HolderEEcvPS3_Ev
__ZN7WebCore7RunLoopC1Ev
__ZN7WebCore7RunLoopC2Ev
__ZN7WebCore19ResourceRequestBase25setDefaultTimeoutIntervalEd
__ZN3WTF6StringC1EPK10__CFString
__ZN3WTF6StringC2EPK10__CFString
__ZN7WebCore22systemMarketingVersionEv
__ZN3WTF6StringC1EP8NSString
__ZN3WTF6StringC2EP8NSString
__ZN7WebCore21memoryPressureHandlerEv
__ZN7WebCore21MemoryPressureHandler7installEv
_stringIsCaseInsensitiveEqualToString
__ZN7WebCore7RunLoop4mainEv
__ZN7WebCore7RunLoop9TimerBaseC2EPS0_
__ZN7WebCore14SQLiteDatabaseC1Ev
__ZN7WebCore12UTF8EncodingEv
__ZN7WebCore31atomicCanonicalTextEncodingNameEPKc
__ZN7WebCore15TextCodecLatin121registerEncodingNamesEPFvPKcS2_E
__ZN7WebCoreL24addToTextEncodingNameMapEPKcS1_
__ZN3WTF9HashTableIPKcNS_12KeyValuePairIS2_S2_EENS_24KeyValuePairKeyExtractorIS4_EEN7WebCore20TextEncodingNameHashENS_18HashMapValueTraitsINS_10HashTraitsIS2_EESB_EESB_E16lookupForWritingINS_22IdentityHashTranslatorIS8_EES2_EENSt3__14pairIPS4_bEERKT0_
__ZN3WTF9HashTableIPKcNS_12KeyValuePairIS2_S2_EENS_24KeyValuePairKeyExtractorIS4_EEN7WebCore20TextEncodingNameHashENS_18HashMapValueTraitsINS_10HashTraitsIS2_EESB_EESB_E3addINS_17HashMapTranslatorISC_S8_EES2_S2_EENS_18HashTableAddResultINS_17HashTableIteratorIS2_S4_S6_S8_SC_SB_EEEERKT0_RKT1_
__ZN3WTF9HashTableIPKcNS_12KeyValuePairIS2_S2_EENS_24KeyValuePairKeyExtractorIS4_EEN7WebCore20TextEncodingNameHashENS_18HashMapValueTraitsINS_10HashTraitsIS2_EESB_EESB_E6lookupINS_22IdentityHashTranslatorIS8_EES2_EEPS4_RKT0_
__ZN3WTF9HashTableIPKcNS_12KeyValuePairIS2_S2_EENS_24KeyValuePairKeyExtractorIS4_EEN7WebCore20TextEncodingNameHashENS_18HashMapValueTraitsINS_10HashTraitsIS2_EESB_EESB_E6shrinkEv
__ZN7WebCore15TextCodecLatin114registerCodecsEPFvPKcPFN3WTF10PassOwnPtrINS_9TextCodecEEERKNS_12TextEncodingEPKvESB_E
__ZN7WebCoreL17addToTextCodecMapEPKcPFN3WTF10PassOwnPtrINS_9TextCodecEEERKNS_12TextEncodingEPKvESA_
__ZN7WebCore13TextCodecUTF821registerEncodingNamesEPFvPKcS2_E
__ZN7WebCore13TextCodecUTF814registerCodecsEPFvPKcPFN3WTF10PassOwnPtrINS_9TextCodecEEERKNS_12TextEncodingEPKvESB_E
__ZN3WTF9HashTableIPKcNS_12KeyValuePairIS2_N7WebCore16TextCodecFactoryEEENS_24KeyValuePairKeyExtractorIS6_EENS_7PtrHashIS2_EENS_18HashMapValueTraitsINS_10HashTraitsIS2_EENSC_IS5_EEEESD_E16lookupForWritingINS_22IdentityHashTranslatorISA_EES2_EENSt3__14pairIPS6_bEERKT0_
__ZN3WTF9HashTableIPKcNS_12KeyValuePairIS2_N7WebCore16TextCodecFactoryEEENS_24KeyValuePairKeyExtractorIS6_EENS_7PtrHashIS2_EENS_18HashMapValueTraitsINS_10HashTraitsIS2_EENSC_IS5_EEEESD_E3addINS_17HashMapTranslatorISF_SA_EES2_S5_EENS_18HashTableAddResultINS_17HashTableIteratorIS2_S6_S8_SA_SF_SD_EEEERKT0_RKT1_
__ZN3WTF9HashTableIPKcNS_12KeyValuePairIS2_N7WebCore16TextCodecFactoryEEENS_24KeyValuePairKeyExtractorIS6_EENS_7PtrHashIS2_EENS_18HashMapValueTraitsINS_10HashTraitsIS2_EENSC_IS5_EEEESD_E6lookupINS_22IdentityHashTranslatorISA_EES2_EEPS6_RKT0_
__ZN3WTF9HashTableIPKcNS_12KeyValuePairIS2_N7WebCore16TextCodecFactoryEEENS_24KeyValuePairKeyExtractorIS6_EENS_7PtrHashIS2_EENS_18HashMapValueTraitsINS_10HashTraitsIS2_EENSC_IS5_EEEESD_E6rehashEi
__ZN7WebCore14TextCodecUTF1621registerEncodingNamesEPFvPKcS2_E
__ZN7WebCore14TextCodecUTF1614registerCodecsEPFvPKcPFN3WTF10PassOwnPtrINS_9TextCodecEEERKNS_12TextEncodingEPKvESB_E
__ZN7WebCore20TextCodecUserDefined21registerEncodingNamesEPFvPKcS2_E
__ZN7WebCore20TextCodecUserDefined14registerCodecsEPFvPKcPFN3WTF10PassOwnPtrINS_9TextCodecEEERKNS_12TextEncodingEPKvESB_E
__ZN7WebCore37shouldShowBackslashAsCurrencySymbolInEPKc
__ZN7WebCore25addLanguageChangeObserverEPvPFvS0_E
__ZN7WebCore12IconDatabaseC1Ev
__ZN7WebCore12IconDatabaseC2Ev
__ZN7WebCore9TimerBaseC2Ev
__ZN7WebCore18makeAllDirectoriesERKN3WTF6StringE
__ZN7WebCore24fileSystemRepresentationERKN3WTF6StringE
__ZNK3WTF6String14createCFStringEv
__ZN3WTF10StringImpl14createCFStringEv
__ZN7WebCore12IconDatabase9setClientEPNS_18IconDatabaseClientE
__ZN7WebCore12IconDatabase20delayDatabaseCleanupEv
__ZN7WebCore12IconDatabase10setEnabledEb
__ZN7WebCore13directoryNameERKN3WTF6StringE
__ZN7WebCore24pathByAppendingComponentERKN3WTF6StringES3_
__ZN3WTF24StringWrapperCFAllocatorL6retainEPKv
__ZN3WTFplINS_6StringEPKcS1_EENS_12StringAppendINS4_IT_T0_EET1_EERKS7_S8_
__ZN3WTF24StringWrapperCFAllocatorL8allocateElmPv
__ZNK3WTF12StringAppendINS0_INS_6StringEPKcEES1_EcvS1_Ev
__ZN3WTF24StringWrapperCFAllocatorL10deallocateEPvS1_
__ZN3WTF13tryMakeStringINS_12StringAppendINS_6StringEPKcEES2_EENS_10PassRefPtrINS_10StringImplEEET_T0_
__ZN7WebCore10fileExistsERKN3WTF6StringE
__ZN7WebCore15pathGetFileNameERKN3WTF6StringE
__ZN7WebCore12IconDatabase4openERKN3WTF6StringES4_
__ZNK7WebCore12IconDatabase6isOpenEv
__ZN7WebCore21setGlobalIconDatabaseEPNS_16IconDatabaseBaseE
__ZN7WebCore14SQLiteDatabase4openERKN3WTF6StringEb
__ZN7WebCore14SQLiteDatabase5closeEv
__ZN7WebCore16SQLiteFileSystem12openDatabaseERKN3WTF6StringEPP7sqlite3b
__ZN7WebCore12IconDatabase27iconDatabaseSyncThreadStartEPv
__ZN7WebCore12IconDatabase22iconDatabaseSyncThreadEv
__ZNK3WTF12StringAppendINS_6StringEPKcEcvS1_Ev
__ZN3WTF13tryMakeStringINS_6StringEPKcEENS_10PassRefPtrINS_10StringImplEEET_T0_
__ZN7WebCore15SQLiteStatementC1ERNS_14SQLiteDatabaseERKN3WTF6StringE
__ZN7WebCore15SQLiteStatement14executeCommandEv
__ZN7WebCore15SQLiteStatement7prepareEv
__ZN7WebCore14SQLiteDatabase13isInterruptedEv
__ZN7WebCore14SQLiteDatabase22updateLastChangesCountEv
__ZN7WebCore15SQLiteStatementD1Ev
__ZNK7WebCore12IconDatabase24shouldStopThreadActivityEv
__ZN7WebCore14SQLiteDatabase11tableExistsERKN3WTF6StringE
__ZN7WebCore12IconDatabase25performOpenInitializationEv
__ZNK3WTF12StringAppendINS0_IPKcNS_6StringEEES2_EcvS3_Ev
__ZN7WebCoreL21databaseVersionNumberERNS_14SQLiteDatabaseE
__ZN3WTF13tryMakeStringINS_12StringAppendIPKcNS_6StringEEES3_EENS_10PassRefPtrINS_10StringImplEEET_T0_
__ZN7WebCore15SQLiteStatement12getColumnIntEi
__ZN7WebCore15SQLiteStatement14prepareAndStepEv
__ZN7WebCore15SQLiteStatement4stepEv
__ZN7WebCore15SQLiteStatement13getColumnTextEi
__ZN7WebCore20canExcludeFromBackupEv
__ZN7WebCore12IconDatabase21wasExcludedFromBackupEv
__ZN7WebCore12IconDatabase16performURLImportEv
__ZN7WebCore13listDirectoryERKN3WTF6StringES3_
__ZN3WTF6VectorINS_6StringELm0ENS_15CrashOnOverflowEE15reserveCapacityEm
__ZN3WTF9HashTableINS_6StringENS_12KeyValuePairIS1_PN7WebCore13PageURLRecordEEENS_24KeyValuePairKeyExtractorIS6_EENS_10StringHashENS_18HashMapValueTraitsINS_10HashTraitsIS1_EENSB_IS5_EEEESC_E16lookupForWritingINS_22IdentityHashTranslatorIS9_EES1_EENSt3__14pairIPS6_bEERKT0_
__ZN3WTF9HashTableINS_6StringENS_12KeyValuePairIS1_PN7WebCore13PageURLRecordEEENS_24KeyValuePairKeyExtractorIS6_EENS_10StringHashENS_18HashMapValueTraitsINS_10HashTraitsIS1_EENSB_IS5_EEEESC_E3addINS_17HashMapTranslatorISE_S9_EES1_S5_EENS_18HashTableAddResultINS_17HashTableIteratorIS1_S6_S8_S9_SE_SC_EEEERKT0_RKT1_
__ZN3WTF9HashTableINS_6StringENS_12KeyValuePairIS1_PN7WebCore13PageURLRecordEEENS_24KeyValuePairKeyExtractorIS6_EENS_10StringHashENS_18HashMapValueTraitsINS_10HashTraitsIS1_EENSB_IS5_EEEESC_E6lookupINS_22IdentityHashTranslatorIS9_EES1_EEPS6_RKT0_
__ZN3WTF9HashTableINS_6StringENS_12KeyValuePairIS1_PN7WebCore13PageURLRecordEEENS_24KeyValuePairKeyExtractorIS6_EENS_10StringHashENS_18HashMapValueTraitsINS_10HashTraitsIS1_EENSB_IS5_EEEESC_E6rehashEi
__ZN7WebCore19documentCanHaveIconERKN3WTF6StringE
__ZN7WebCore10protocolIsERKN3WTF6StringEPKc
__ZN7WebCore13PageURLRecordC1ERKN3WTF6StringE
__ZN7WebCore12IconDatabase21getOrCreateIconRecordERKN3WTF6StringE
__ZN7WebCore10IconRecordC1ERKN3WTF6StringE
__ZN3WTF9HashTableINS_6StringENS_12KeyValuePairIS1_PN7WebCore10IconRecordEEENS_24KeyValuePairKeyExtractorIS6_EENS_10StringHashENS_18HashMapValueTraitsINS_10HashTraitsIS1_EENSB_IS5_EEEESC_E16lookupForWritingINS_22IdentityHashTranslatorIS9_EES1_EENSt3__14pairIPS6_bEERKT0_
__ZN3WTF9HashTableINS_6StringENS_12KeyValuePairIS1_PN7WebCore10IconRecordEEENS_24KeyValuePairKeyExtractorIS6_EENS_10StringHashENS_18HashMapValueTraitsINS_10HashTraitsIS1_EENSB_IS5_EEEESC_E3addINS_17HashMapTranslatorISE_S9_EES1_S5_EENS_18HashTableAddResultINS_17HashTableIteratorIS1_S6_S8_S9_SE_SC_EEEERKT0_RKT1_
__ZN3WTF9HashTableINS_6StringENS_12KeyValuePairIS1_PN7WebCore10IconRecordEEENS_24KeyValuePairKeyExtractorIS6_EENS_10StringHashENS_18HashMapValueTraitsINS_10HashTraitsIS1_EENSB_IS5_EEEESC_E6lookupINS_22IdentityHashTranslatorIS9_EES1_EEPS6_RKT0_
__ZN3WTF9HashTableINS_6StringENS_12KeyValuePairIS1_PN7WebCore10IconRecordEEENS_24KeyValuePairKeyExtractorIS6_EENS_10StringHashENS_18HashMapValueTraitsINS_10HashTraitsIS1_EENSB_IS5_EEEESC_E6rehashEi
__ZN7WebCore13PageURLRecord13setIconRecordEN3WTF10PassRefPtrINS_10IconRecordEEE
__ZN3WTF9HashTableINS_6StringES1_NS_17IdentityExtractorENS_10StringHashENS_10HashTraitsIS1_EES5_E3addINS_22IdentityHashTranslatorIS3_EES1_S1_EENS_18HashTableAddResultINS_17HashTableIteratorIS1_S1_S2_S3_S5_S5_EEEERKT0_RKT1_
__ZN3WTF9HashTableINS_6StringES1_NS_17IdentityExtractorENS_10StringHashENS_10HashTraitsIS1_EES5_E6rehashEi
__ZN3WTF9HashTableINS_6StringES1_NS_17IdentityExtractorENS_10StringHashENS_10HashTraitsIS1_EES5_E16lookupForWritingINS_22IdentityHashTranslatorIS3_EES1_EENSt3__14pairIPS1_bEERKT0_
__ZN3WTF9HashTableINS_6StringES1_NS_17IdentityExtractorENS_10StringHashENS_10HashTraitsIS1_EES5_E6lookupINS_22IdentityHashTranslatorIS3_EES1_EEPS1_RKT0_
__ZN3WTF6VectorINS_6StringELm0ENS_15CrashOnOverflowEE11appendRangeINS_29HashTableConstIteratorAdapterINS_9HashTableIS1_S1_NS_17IdentityExtractorENS_10StringHashENS_10HashTraitsIS1_EESA_EES1_EEEEvT_SD_
__ZN7WebCore12IconDatabase40performPendingRetainAndReleaseOperationsEv
__ZN7WebCore12IconDatabase18syncThreadMainLoopEv
__ZN7WebCore12IconDatabase15writeToDatabaseEv
__ZN3WTF6VectorIN7WebCore12IconSnapshotELm0ENS_15CrashOnOverflowEE11appendRangeINS_23HashTableValuesIteratorINS_9HashTableINS_6StringENS_12KeyValuePairIS8_S2_EENS_24KeyValuePairKeyExtractorISA_EENS_10StringHashENS_18HashMapValueTraitsINS_10HashTraitsIS8_EENSF_IS2_EEEESG_EES8_S2_EEEEvT_SL_
__ZN3WTF6VectorIN7WebCore15PageURLSnapshotELm0ENS_15CrashOnOverflowEE11appendRangeINS_23HashTableValuesIteratorINS_9HashTableINS_6StringENS_12KeyValuePairIS8_S2_EENS_24KeyValuePairKeyExtractorISA_EENS_10StringHashENS_18HashMapValueTraitsINS_10HashTraitsIS8_EENSF_IS2_EEEESG_EES8_S2_EEEEvT_SL_
__ZN7WebCore17SQLiteTransactionC1ERNS_14SQLiteDatabaseEb
__ZN7WebCore17SQLiteTransaction5beginEv
__ZN7WebCore14SQLiteDatabase14executeCommandERKN3WTF6StringE
__ZN7WebCore17SQLiteTransaction6commitEv
__ZN7WebCore17SQLiteTransactionD1Ev
__ZN7WebCore12IconDatabase16readFromDatabaseEv
__ZN7WebCore4Font29setDefaultTypesettingFeaturesEj
__ZN3WTF10StringImplcvP8NSStringEv
__ZN7WebCore22userPreferredLanguagesEv
__ZN7WebCore30platformUserPreferredLanguagesEv
__ZN3WTF6VectorINS_6StringELm0ENS_15CrashOnOverflowEE14shrinkCapacityEm
__ZN3WTF6VectorINS_6StringELm0ENS_15CrashOnOverflowEE14expandCapacityEmPKS1_
__ZN3WTF6VectorINS_6StringELm0ENS_15CrashOnOverflowEEC2ERKS3_
__ZN7WebCore19ResourceRequestBase22defaultTimeoutIntervalEv
__ZN7WebCore14SchemeRegistry40setDomainRelaxationForbiddenForURLSchemeEbRKN3WTF6StringE
__ZN7WebCore14SchemeRegistry62registerURLSchemeAsAllowingLocalStorageAccessInPrivateBrowsingERKN3WTF6StringE
__ZN3WTF9HashTableINS_6StringES1_NS_17IdentityExtractorENS_15CaseFoldingHashENS_10HashTraitsIS1_EES5_E3addINS_22IdentityHashTranslatorIS3_EES1_S1_EENS_18HashTableAddResultINS_17HashTableIteratorIS1_S1_S2_S3_S5_S5_EEEERKT0_RKT1_
__ZN3WTF9HashTableINS_6StringES1_NS_17IdentityExtractorENS_15CaseFoldingHashENS_10HashTraitsIS1_EES5_E6rehashEi
__ZN3WTF15CaseFoldingHash4hashEPNS_10StringImplE
__ZN3WTF12StringHasher28addCharactersAssumingAlignedIhXadL_ZNS_15CaseFoldingHash8foldCaseIhEEtT_EEEEvPKS4_j
__ZN7WebCore14SchemeRegistry58registerURLSchemeAsAllowingDatabaseAccessInPrivateBrowsingERKN3WTF6StringE
__ZN7WebCore7IntSizeC1ERK6CGSize
__ZN7WebCore11URLWithDataEP6NSDataP5NSURL
__ZN7WebCore42URLByTruncatingOneCharacterBeforeComponentEP5NSURLl
__ZN7WebCore16isUserVisibleURLEP8NSString
__ZN7WebCore12IconDatabase20retainIconForPageURLERKN3WTF6StringE
__ZNK7WebCore12IconDatabase9isEnabledEv
__ZN3WTF9HashTableINS_6StringENS_12KeyValuePairIS1_jEENS_24KeyValuePairKeyExtractorIS3_EENS_10StringHashENS_18HashMapValueTraitsINS_10HashTraitsIS1_EENS8_IjEEEES9_E16lookupForWritingINS_22IdentityHashTranslatorIS6_EES1_EENSt3__14pairIPS3_bEERKT0_
__ZN3WTF9HashTableINS_6StringENS_12KeyValuePairIS1_jEENS_24KeyValuePairKeyExtractorIS3_EENS_10StringHashENS_18HashMapValueTraitsINS_10HashTraitsIS1_EENS8_IjEEEES9_E3addINS_17HashMapTranslatorISB_S6_EES1_jEENS_18HashTableAddResultINS_17HashTableIteratorIS1_S3_S5_S6_SB_S9_EEEERKT0_RKT1_
__ZN3WTF9HashTableINS_6StringENS_12KeyValuePairIS1_jEENS_24KeyValuePairKeyExtractorIS3_EENS_10StringHashENS_18HashMapValueTraitsINS_10HashTraitsIS1_EENS8_IjEEEES9_E6lookupINS_22IdentityHashTranslatorIS6_EES1_EEPS3_RKT0_
__ZN3WTF9HashTableINS_6StringENS_12KeyValuePairIS1_jEENS_24KeyValuePairKeyExtractorIS3_EENS_10StringHashENS_18HashMapValueTraitsINS_10HashTraitsIS1_EENS8_IjEEEES9_E6rehashEi
__ZN7WebCore24disableSuddenTerminationEv
__ZN7WebCore17userVisibleStringEP5NSURL
__ZN7WebCore15originalURLDataEP5NSURL
__ZN7WebCoreL12mapHostNamesEP8NSStringa
_hasCaseInsensitivePrefix
__ZN7WebCoreL29collectRangesThatNeedEncodingEP8NSString8_NSRangePv
__ZN7WebCoreL20mapHostNameWithRangeEP8NSString8_NSRangeaa
__ZN7WebCore12IconDatabase25synchronousIconForPageURLERKN3WTF6StringERKNS_7IntSizeE
__ZN7WebCore12IconDatabase27performRetainIconForPageURLERKN3WTF6StringEi
__ZN7WebCore10IconRecord15imageDataStatusEv
__ZN3WTF9HashTableIPN7WebCore10IconRecordES3_NS_17IdentityExtractorENS_7PtrHashIS3_EENS_10HashTraitsIS3_EES8_E3addINS_22IdentityHashTranslatorIS6_EES3_S3_EENS_18HashTableAddResultINS_17HashTableIteratorIS3_S3_S4_S6_S8_S8_EEEERKT0_RKT1_
__ZN3WTF9HashTableIPN7WebCore10IconRecordES3_NS_17IdentityExtractorENS_7PtrHashIS3_EENS_10HashTraitsIS3_EES8_E6rehashEi
__ZN3WTF6VectorIPN7WebCore10IconRecordELm0ENS_15CrashOnOverflowEE14expandCapacityEmPKS3_
__ZN3WTF6VectorIPN7WebCore10IconRecordELm0ENS_15CrashOnOverflowEE15reserveCapacityEm
__ZN7WebCore12IconDatabase37getImageDataForIconURLFromSQLDatabaseERKN3WTF6StringE
__ZN7WebCore20readySQLiteStatementERN3WTF6OwnPtrINS_15SQLiteStatementEEERNS_14SQLiteDatabaseERKNS0_6StringE
__ZN3WTF9HashTableIPN7WebCore10IconRecordES3_NS_17IdentityExtractorENS_7PtrHashIS3_EENS_10HashTraitsIS3_EES8_E16lookupForWritingINS_22IdentityHashTranslatorIS6_EES3_EENSt3__14pairIPS3_bEERKT0_
__ZN3WTF9HashTableIPN7WebCore10IconRecordES3_NS_17IdentityExtractorENS_7PtrHashIS3_EENS_10HashTraitsIS3_EES8_E6lookupINS_22IdentityHashTranslatorIS6_EES3_EEPS3_RKT0_
__ZN7WebCore15SQLiteStatement8bindTextEiRKN3WTF6StringE
__ZN7WebCore15SQLiteStatement21getColumnBlobAsVectorEiRN3WTF6VectorIcLm0ENS1_15CrashOnOverflowEEE
__ZN3WTF6VectorIcLm0ENS_15CrashOnOverflowEE15reserveCapacityEm
__ZN7WebCore12SharedBufferC1EPKci
__ZN7WebCore12SharedBuffer6appendEPKcj
__ZN7WebCore12SharedBuffer25maybeTransferPlatformDataEv
__ZN7WebCore15SQLiteStatement5resetEv
__ZN7WebCore10IconRecord12setImageDataEN3WTF10PassRefPtrINS_12SharedBufferEEE
__ZN7WebCore11BitmapImageC1EPNS_13ImageObserverE
__ZN7WebCore5ImageC2EPNS_13ImageObserverE
__ZN7WebCore11ImageSourceC1ENS0_11AlphaOptionENS0_26GammaAndColorProfileOptionE
__ZN7WebCore5Image7setDataEN3WTF10PassRefPtrINS_12SharedBufferEEEb
__ZNK7WebCore12SharedBuffer4sizeEv
__ZNK7WebCore12SharedBuffer15hasPlatformDataEv
__ZN7WebCore11BitmapImage11dataChangedEb
__ZN7WebCore11BitmapImage22invalidatePlatformDataEv
__ZN7WebCore11ImageSource7setDataEPNS_12SharedBufferEb
__ZN7WebCore12SharedBuffer12createCFDataEv
+[WebCoreSharedBufferData initialize]
_WebCoreObjCFinalizeOnMainThread
-[WebCoreSharedBufferData .cxx_construct]
-[WebCoreSharedBufferData initWithSharedBuffer:]
-[WebCoreSharedBufferData length]
__ZN7WebCore11BitmapImage15isSizeAvailableEv
__ZN7WebCore11ImageSource15isSizeAvailableEv
-[WebCoreSharedBufferData bytes]
__ZNK7WebCore12SharedBuffer4dataEv
__ZNK7WebCore12SharedBuffer6bufferEv
__ZNK7WebCore11ImageSource33bytesDecodedToDeterminePropertiesEv
__ZN3WTF7HashSetIPN7WebCore10IconRecordENS_7PtrHashIS3_EENS_10HashTraitsIS3_EEE6removeERKS3_
__ZN3WTF7HashSetINS_6StringENS_10StringHashENS_10HashTraitsIS1_EEE6removeERKS1_
__ZN7WebCore15SQLiteStatement9isExpiredEv
__ZN3WTF6VectorIPcLm0ENS_15CrashOnOverflowEE14expandCapacityEmPKS1_
__ZN3WTF6VectorIPcLm0ENS_15CrashOnOverflowEE15reserveCapacityEm
__ZN7WebCore9fontCacheEv
__ZN7WebCore16FontPlatformDataC1EP6NSFontfbbbNS_15FontOrientationENS_16FontWidthVariantE
__ZN7WebCore16FontPlatformDataC2EP6NSFontfbbbNS_15FontOrientationENS_16FontWidthVariantE
__ZN7WebCore23enableSuddenTerminationEv
__ZN7WebCore4FontC1ERKNS_16FontPlatformDataEbNS_17FontSmoothingModeE
__ZN7WebCore4FontC2ERKNS_16FontPlatformDataEbNS_17FontSmoothingModeE
__ZN7WebCore10FontGlyphsC1ERKNS_16FontPlatformDataE
__ZN7WebCore10FontGlyphsC2ERKNS_16FontPlatformDataE
__ZN7WebCore9FontCache10generationEv
__ZN7WebCore9FontCache17getCachedFontDataEPKNS_16FontPlatformDataENS0_12ShouldRetainE
__ZN7WebCore14SimpleFontDataC1ERKNS_16FontPlatformDataEbbb
__ZN7WebCore16FontPlatformDataC1ERKS0_
__ZN7WebCore16FontPlatformData16platformDataInitERKS0_
__ZN7WebCore14SimpleFontData12platformInitEv
__ZN7WebCore17GlyphPageTreeNode7getRootEj
__ZN7WebCore17GlyphPageTreeNode8getChildEPKNS_8FontDataEj
__ZNK7WebCore14SimpleFontData12isCustomFontEv
__ZN3WTF9HashTableIPKN7WebCore8FontDataENS_12KeyValuePairIS4_NS_6OwnPtrINS1_17GlyphPageTreeNodeEEEEENS_24KeyValuePairKeyExtractorIS9_EENS_7PtrHashIS4_EENS_18HashMapValueTraitsINS_10HashTraitsIS4_EENSF_IS8_EEEESG_E16lookupForWritingINS_22IdentityHashTranslatorISD_EES4_EENSt3__14pairIPS9_bEERKT0_
__ZN3WTF9HashTableIPKN7WebCore8FontDataENS_12KeyValuePairIS4_NS_6OwnPtrINS1_17GlyphPageTreeNodeEEEEENS_24KeyValuePairKeyExtractorIS9_EENS_7PtrHashIS4_EENS_18HashMapValueTraitsINS_10HashTraitsIS4_EENSF_IS8_EEEESG_E3addINS_17HashMapTranslatorISI_SD_EES4_NS_10PassOwnPtrIS7_EEEENS_18HashTableAddResultINS_17HashTableIteratorIS4_S9_SB_SD_SI_SG_EEEERKT0_RKT1_
__ZN3WTF9HashTableIPKN7WebCore8FontDataENS_12KeyValuePairIS4_NS_6OwnPtrINS1_17GlyphPageTreeNodeEEEEENS_24KeyValuePairKeyExtractorIS9_EENS_7PtrHashIS4_EENS_18HashMapValueTraitsINS_10HashTraitsIS4_EENSF_IS8_EEEESG_E6lookupINS_22IdentityHashTranslatorISD_EES4_EEPS9_RKT0_
__ZN3WTF9HashTableIPKN7WebCore8FontDataENS_12KeyValuePairIS4_NS_6OwnPtrINS1_17GlyphPageTreeNodeEEEEENS_24KeyValuePairKeyExtractorIS9_EENS_7PtrHashIS4_EENS_18HashMapValueTraitsINS_10HashTraitsIS4_EENSF_IS8_EEEESG_E6rehashEi
__ZN3WTF6OwnPtrIN7WebCore17GlyphPageTreeNodeEEaSERKNS_10PassOwnPtrIS2_EE
__ZN3WTF10PassOwnPtrIN7WebCore17GlyphPageTreeNodeEED2Ev
__ZN7WebCore17GlyphPageTreeNode14initializePageEPKNS_8FontDataEj
__ZNK7WebCore14SimpleFontData11isSegmentedEv
__ZN7WebCore9GlyphPage30mayUseMixedFontDataWhenFillingEPKtjPKNS_14SimpleFontDataE
__ZN7WebCore9GlyphPage4fillEjjPtjPKNS_14SimpleFontDataE
__ZNK7WebCore16FontPlatformData6ctFontEv
__ZN7WebCoreL33cascadeToLastResortFontDescriptorEv
__ZN7WebCore9FloatRectC1ERK6CGRect
__ZN7WebCore10FloatPointC1ERK7CGPoint
__ZN7WebCore9FloatSizeC1ERK6CGSize
__ZNK7WebCore9FloatRectcv6CGRectEv
__ZN7WebCore14SimpleFontData17platformGlyphInitEv
__ZN7WebCore15GlyphMetricsMapIfE18locatePageSlowCaseEj
__ZNK7WebCore14SimpleFontData21platformWidthForGlyphEt
__ZN7WebCore14SimpleFontData14determinePitchEv
__ZN7WebCore14SimpleFontData21platformCharWidthInitEv
__ZN7WebCore14SimpleFontData14initCharWidthsEv
__ZN7WebCore16FontPlatformDataC1EfbbNS_15FontOrientationENS_16FontWidthVariantE
__ZNK7WebCore16FontPlatformData15platformIsEqualERKS0_
__ZN7WebCore16FontPlatformDataaSERKS0_
__ZN7WebCore16FontPlatformData18platformDataAssignERKS0_
__ZN7WebCore14fontTranscoderEv
__ZN7WebCore14FontTranscoderC2Ev
__ZN3WTF9HashTableINS_12AtomicStringENS_12KeyValuePairIS1_N7WebCore14FontTranscoder13ConverterTypeEEENS_24KeyValuePairKeyExtractorIS6_EENS_16AtomicStringHashENS_18HashMapValueTraitsINS_10HashTraitsIS1_EENSB_IS5_EEEESC_E3addINS_17HashMapTranslatorISE_S9_EES1_S5_EENS_18HashTableAddResultINS_17HashTableIteratorIS1_S6_S8_S9_SE_SC_EEEERKT0_RKT1_
__ZN3WTF9HashTableINS_12AtomicStringENS_12KeyValuePairIS1_N7WebCore14FontTranscoder13ConverterTypeEEENS_24KeyValuePairKeyExtractorIS6_EENS_16AtomicStringHashENS_18HashMapValueTraitsINS_10HashTraitsIS1_EENSB_IS5_EEEESC_E4findINS_22IdentityHashTranslatorIS9_EES1_EENS_17HashTableIteratorIS1_S6_S8_S9_SE_SC_EERKT0_
__ZN3WTF9HashTableINS_12AtomicStringENS_12KeyValuePairIS1_N7WebCore14FontTranscoder13ConverterTypeEEENS_24KeyValuePairKeyExtractorIS6_EENS_16AtomicStringHashENS_18HashMapValueTraitsINS_10HashTraitsIS1_EENSB_IS5_EEEESC_E6rehashEi
__ZN3WTF9HashTableINS_12AtomicStringENS_12KeyValuePairIS1_N7WebCore14FontTranscoder13ConverterTypeEEENS_24KeyValuePairKeyExtractorIS6_EENS_16AtomicStringHashENS_18HashMapValueTraitsINS_10HashTraitsIS1_EENSB_IS5_EEEESC_E8reinsertERS6_
__ZNK7WebCore14FontTranscoder16needsTranscodingERKNS_15FontDescriptionEPKNS_12TextEncodingE
__ZN7WebCore16FontPlatformDataD1Ev
__ZN7WebCore16FontPlatformDataD2Ev
__ZNK7WebCore4Font5widthERKNS_7TextRunEPN3WTF7HashSetIPKNS_14SimpleFontDataENS4_7PtrHashIS8_EENS4_10HashTraitsIS8_EEEEPNS_13GlyphOverflowE
__ZN7WebCore4Font22characterRangeCodePathEPKtj
__ZN7WebCore4Font36canReturnFallbackFontsForComplexTextEv
__ZNK7WebCore4Font23floatWidthForSimpleTextERKNS_7TextRunEPN3WTF7HashSetIPKNS_14SimpleFontDataENS4_7PtrHashIS8_EENS4_10HashTraitsIS8_EEEEPNS_13GlyphOverflowE
__ZN7WebCore13WidthIteratorC1EPKNS_4FontERKNS_7TextRunEPN3WTF7HashSetIPKNS_14SimpleFontDataENS7_7PtrHashISB_EENS7_10HashTraitsISB_EEEEbb
__ZN7WebCore13WidthIteratorC2EPKNS_4FontERKNS_7TextRunEPN3WTF7HashSetIPKNS_14SimpleFontDataENS7_7PtrHashISB_EENS7_10HashTraitsISB_EEEEbb
__ZN7WebCore13WidthIterator7advanceEiPNS_11GlyphBufferE
__ZN7WebCore30SurrogatePairAwareTextIteratorC1EPKtiii
__ZN7WebCore13WidthIterator15advanceInternalINS_30SurrogatePairAwareTextIteratorEEEjRT_PNS_11GlyphBufferE
__ZNK7WebCore10FontGlyphs17realizeFontDataAtERKNS_15FontDescriptionEj
__ZNK7WebCore14SimpleFontData20fontDataForCharacterEi
__ZNK7WebCore10FontGlyphs28glyphDataAndPageForCharacterERKNS_15FontDescriptionEibNS_15FontDataVariantE
__ZN7WebCore11GlyphBuffer3addEtPKNS_14SimpleFontDataEfPKNS_9FloatSizeE
__ZN7WebCoreL19applyFontTransformsEPNS_11GlyphBufferEbRiPKNS_14SimpleFontDataEjRN3WTF6VectorINSt3__14pairIiNS_42OriginalAdvancesForCharacterTreatedAsSpaceEEELm64ENS6_15CrashOnOverflowEEE
__ZN7WebCore10FontGlyphs15releaseFontDataEv
__ZN7WebCore9FontCache15releaseFontDataEPKNS_14SimpleFontDataE
__ZN3WTF9HashTableIN7WebCore16FontPlatformDataENS_12KeyValuePairIS2_NSt3__14pairINS_6RefPtrINS1_14SimpleFontDataEEEjEEEENS_24KeyValuePairKeyExtractorISA_EENS1_20FontDataCacheKeyHashENS_18HashMapValueTraitsINS1_22FontDataCacheKeyTraitsENS_10HashTraitsIS9_EEEESF_E13isEmptyBucketERKSA_
__ZN3WTF9HashTableIN7WebCore16FontPlatformDataENS_12KeyValuePairIS2_NSt3__14pairINS_6RefPtrINS1_14SimpleFontDataEEEjEEEENS_24KeyValuePairKeyExtractorISA_EENS1_20FontDataCacheKeyHashENS_18HashMapValueTraitsINS1_22FontDataCacheKeyTraitsENS_10HashTraitsIS9_EEEESF_E16lookupForWritingINS_22IdentityHashTranslatorISD_EES2_EENS5_IPSA_bEERKT0_
__ZN3WTF9HashTableIN7WebCore16FontPlatformDataENS_12KeyValuePairIS2_NSt3__14pairINS_6RefPtrINS1_14SimpleFontDataEEEjEEEENS_24KeyValuePairKeyExtractorISA_EENS1_20FontDataCacheKeyHashENS_18HashMapValueTraitsINS1_22FontDataCacheKeyTraitsENS_10HashTraitsIS9_EEEESF_E3addINS_17HashMapTranslatorISI_SD_EES2_S9_EENS_18HashTableAddResultINS_17HashTableIteratorIS2_SA_SC_SD_SI_SF_EEEERKT0_RKT1_
__ZN3WTF9HashTableIN7WebCore16FontPlatformDataENS_12KeyValuePairIS2_NSt3__14pairINS_6RefPtrINS1_14SimpleFontDataEEEjEEEENS_24KeyValuePairKeyExtractorISA_EENS1_20FontDataCacheKeyHashENS_18HashMapValueTraitsINS1_22FontDataCacheKeyTraitsENS_10HashTraitsIS9_EEEESF_E6lookupINS_22IdentityHashTranslatorISD_EES2_EEPSA_RKT0_
__ZN3WTF9HashTableIN7WebCore16FontPlatformDataENS_12KeyValuePairIS2_NSt3__14pairINS_6RefPtrINS1_14SimpleFontDataEEEjEEEENS_24KeyValuePairKeyExtractorISA_EENS1_20FontDataCacheKeyHashENS_18HashMapValueTraitsINS1_22FontDataCacheKeyTraitsENS_10HashTraitsIS9_EEEESF_E6rehashEi
__ZN3WTF9HashTableIN7WebCore16FontPlatformDataENS_12KeyValuePairIS2_NSt3__14pairINS_6RefPtrINS1_14SimpleFontDataEEEjEEEENS_24KeyValuePairKeyExtractorISA_EENS1_20FontDataCacheKeyHashENS_18HashMapValueTraitsINS1_22FontDataCacheKeyTraitsENS_10HashTraitsIS9_EEEESF_E6removeEPSA_
__ZN3WTF21ListHashSetTranslatorINS_7PtrHashINS_6RefPtrIN7WebCore14SimpleFontDataEEEEEE9translateINS_15ListHashSetNodeIS5_Lm256EEES5_PNS_24ListHashSetNodeAllocatorIS5_Lm256EEEEEvRPT_RKT0_RKT1_
__ZN7WebCore9FontCache29purgeInactiveFontDataIfNeededEv
__ZN3WTF11ListHashSetINS_6RefPtrIN7WebCore14SimpleFontDataEEELm256ENS_7PtrHashIS4_EEE6removeENS_19ListHashSetIteratorIS4_Lm256ES6_EE
__ZN3WTF9HashTableIPNS_15ListHashSetNodeINS_6RefPtrIN7WebCore14SimpleFontDataEEELm256EEES7_NS_17IdentityExtractorENS_28ListHashSetNodeHashFunctionsINS_7PtrHashIS5_EEEENS_10HashTraitsIS7_EESE_E16lookupForWritingINS_22IdentityHashTranslatorISC_EES7_EENSt3__14pairIPS7_bEERKT0_
__ZN3WTF9HashTableIPNS_15ListHashSetNodeINS_6RefPtrIN7WebCore14SimpleFontDataEEELm256EEES7_NS_17IdentityExtractorENS_28ListHashSetNodeHashFunctionsINS_7PtrHashIS5_EEEENS_10HashTraitsIS7_EESE_E3addINS_21ListHashSetTranslatorISB_EES5_PNS_24ListHashSetNodeAllocatorIS5_Lm256EEEEENS_18HashTableAddResultINS_17HashTableIteratorIS7_S7_S8_SC_SE_SE_EEEERKT0_RKT1_
__ZN3WTF9HashTableIPNS_15ListHashSetNodeINS_6RefPtrIN7WebCore14SimpleFontDataEEELm256EEES7_NS_17IdentityExtractorENS_28ListHashSetNodeHashFunctionsINS_7PtrHashIS5_EEEENS_10HashTraitsIS7_EESE_E6lookupINS_21ListHashSetTranslatorISB_EES5_EEPS7_RKT0_
__ZN3WTF9HashTableIPNS_15ListHashSetNodeINS_6RefPtrIN7WebCore14SimpleFontDataEEELm256EEES7_NS_17IdentityExtractorENS_28ListHashSetNodeHashFunctionsINS_7PtrHashIS5_EEEENS_10HashTraitsIS7_EESE_E6lookupINS_22IdentityHashTranslatorISC_EES7_EEPS7_RKT0_
__ZN3WTF9HashTableIPNS_15ListHashSetNodeINS_6RefPtrIN7WebCore14SimpleFontDataEEELm256EEES7_NS_17IdentityExtractorENS_28ListHashSetNodeHashFunctionsINS_7PtrHashIS5_EEEENS_10HashTraitsIS7_EESE_E6rehashEi
__ZN3WTF9HashTableIPNS_15ListHashSetNodeINS_6RefPtrIN7WebCore14SimpleFontDataEEELm256EEES7_NS_17IdentityExtractorENS_28ListHashSetNodeHashFunctionsINS_7PtrHashIS5_EEEENS_10HashTraitsIS7_EESE_E6removeERKS7_
__ZN7WebCore4FontC1Ev
__ZN7WebCore4FontaSERKS0_
__ZN3WTF6VectorINS_12AtomicStringELm1ENS_15CrashOnOverflowEEaSERKS3_
__ZN3WTF6RefPtrIN7WebCore19FontFeatureSettingsEEaSERKS3_
__ZN7WebCore15StringTruncator14centerTruncateERKN3WTF6StringEfRKNS_4FontENS0_24EnableRoundingHacksOrNotE
__ZN7WebCoreL14truncateStringERKN3WTF6StringEfRKNS_4FontEPFjS3_jjPtEb
__ZN7WebCore22URLWithUserTypedStringEP8NSStringP5NSURL
__ZN3WTF9HashTableIiNS_12KeyValuePairIiPN7WebCore17GlyphPageTreeNodeEEENS_24KeyValuePairKeyExtractorIS5_EENS_7IntHashIjEENS_18HashMapValueTraitsINS_10HashTraitsIiEENSB_IS4_EEEESC_E16lookupForWritingINS_22IdentityHashTranslatorIS9_EEiEENSt3__14pairIPS5_bEERKT0_
__ZN3WTF9HashTableIiNS_12KeyValuePairIiPN7WebCore17GlyphPageTreeNodeEEENS_24KeyValuePairKeyExtractorIS5_EENS_7IntHashIjEENS_18HashMapValueTraitsINS_10HashTraitsIiEENSB_IS4_EEEESC_E3addINS_17HashMapTranslatorISE_S9_EEiS4_EENS_18HashTableAddResultINS_17HashTableIteratorIiS5_S7_S9_SE_SC_EEEERKT0_RKT1_
__ZN3WTF9HashTableIiNS_12KeyValuePairIiPN7WebCore17GlyphPageTreeNodeEEENS_24KeyValuePairKeyExtractorIS5_EENS_7IntHashIjEENS_18HashMapValueTraitsINS_10HashTraitsIiEENSB_IS4_EEEESC_E3addINS_22IdentityHashTranslatorIS9_EEiS5_EENS_18HashTableAddResultINS_17HashTableIteratorIiS5_S7_S9_SE_SC_EEEERKT0_RKT1_
__ZN3WTF9HashTableIiNS_12KeyValuePairIiPN7WebCore17GlyphPageTreeNodeEEENS_24KeyValuePairKeyExtractorIS5_EENS_7IntHashIjEENS_18HashMapValueTraitsINS_10HashTraitsIiEENSB_IS4_EEEESC_E6lookupINS_22IdentityHashTranslatorIS9_EEiEEPS5_RKT0_
__ZN3WTF9HashTableIiNS_12KeyValuePairIiPN7WebCore17GlyphPageTreeNodeEEENS_24KeyValuePairKeyExtractorIS5_EENS_7IntHashIjEENS_18HashMapValueTraitsINS_10HashTraitsIiEENSB_IS4_EEEESC_EaSERKSF_
__ZN7WebCore15defaultLanguageEv
__ZN7WebCore10FontGlyphsD2Ev
__ZN3WTF6OwnPtrIN7WebCore17GlyphPageTreeNodeEED2Ev
__ZN7WebCoreL22centerTruncateToBufferERKN3WTF6StringEjjPt
__ZN7WebCore31NonSharedCharacterBreakIteratorC1EPKti
__ZN7WebCore31NonSharedCharacterBreakIteratorC2EPKti
__ZN7WebCore24currentTextBreakLocaleIDEv
__ZN7WebCoreL21topLanguagePreferenceEv
__ZN7WebCore18textBreakFollowingEPNS_17TextBreakIteratorEi
__ZN7WebCore11isTextBreakEPNS_17TextBreakIteratorEi
__ZN7WebCore31NonSharedCharacterBreakIteratorD1Ev
__ZN7WebCore11getURLBytesEPK7__CFURLRN3WTF7CStringE
__ZN7WebCore4KURL10invalidateEv
__ZN7WebCore4KURLC1ERKS0_RKN3WTF6StringE
__ZN7WebCore4KURL4initERKS0_RKN3WTF6StringERKNS_12TextEncodingE
__ZNK3WTF6String17containsOnlyASCIIEv
__ZN7WebCore4KURL5parseEPKcPKN3WTF6StringE
__ZN7WebCore13HTTPHeaderMapC1Ev
__ZN7WebCore13HTTPHeaderMapD1Ev
__ZNK7WebCore15ResourceRequest12nsURLRequestENS_20HTTPBodyUpdatePolicyE
__ZNK7WebCore19ResourceRequestBase21updatePlatformRequestENS_20HTTPBodyUpdatePolicyE
__ZN7WebCore15ResourceRequest23doUpdatePlatformRequestEv
__ZNK7WebCore19ResourceRequestBase6isNullEv
__ZNK7WebCore19ResourceRequestBase3urlEv
__ZNK7WebCore4KURLcvP5NSURLEv
__ZNK7WebCore4KURL11createCFURLEv
__ZNK7WebCore4KURL12copyToBufferERN3WTF6VectorIcLm512ENS1_15CrashOnOverflowEEE
__ZN7WebCore21createCFURLFromBufferEPKcmPK7__CFURL
__ZN7WebCore15ResourceRequest21httpPipeliningEnabledEv
__ZNK7WebCore19ResourceRequestBase11cachePolicyEv
__ZNK7WebCore19ResourceRequestBase15timeoutIntervalEv
__ZNK7WebCore19ResourceRequestBase20firstPartyForCookiesEv
__ZNK7WebCore19ResourceRequestBase10httpMethodEv
__ZNK7WebCore19ResourceRequestBase12allowCookiesEv
__ZNK7WebCore19ResourceRequestBase16httpHeaderFieldsEv
__ZNK7WebCore4KURL11isLocalFileEv
__ZN7WebCore11getURLBytesEPK7__CFURLRN3WTF6VectorIcLm512ENS3_15CrashOnOverflowEEE
__ZNK7WebCore7RunLoop9TimerBase8isActiveEv
__ZN7WebCore7RunLoop9TimerBase5startEdb
__ZN7WebCore12IconDatabase20allowDatabaseCleanupEv
__ZN7WebCore9PageGroup26setShouldTrackVisitedLinksEb
__ZN7WebCore9PageGroup21removeAllVisitedLinksEv
__ZN7WebCore4Page21removeAllVisitedLinksEv
__ZN7WebCore9pageCacheEv
__ZN7WebCore9PageCache33markPagesForVistedLinkStyleRecalcEv
__ZNK7WebCore4Font24floatWidthForComplexTextERKNS_7TextRunEPN3WTF7HashSetIPKNS_14SimpleFontDataENS4_7PtrHashIS8_EENS4_10HashTraitsIS8_EEEEPNS_13GlyphOverflowE
__ZN7WebCore21ComplexTextControllerC1EPKNS_4FontERKNS_7TextRunEbPN3WTF7HashSetIPKNS_14SimpleFontDataENS7_7PtrHashISB_EENS7_10HashTraitsISB_EEEEb
__ZN7WebCore21ComplexTextControllerC2EPKNS_4FontERKNS_7TextRunEbPN3WTF7HashSetIPKNS_14SimpleFontDataENS7_7PtrHashISB_EENS7_10HashTraitsISB_EEEEb
__ZN7WebCore21ComplexTextController22collectComplexTextRunsEv
__ZN7WebCoreL35advanceByCombiningCharacterSequenceERPKtS1_RiRj
__ZNK7WebCore4Font37fontDataForCombiningCharacterSequenceEPKtmNS_15FontDataVariantE
__ZN7WebCore21ComplexTextController35collectComplexTextRunsForCharactersEPKtjjPKNS_14SimpleFontDataE
__ZNK7WebCore14SimpleFontData21getCFStringAttributesEjNS_15FontOrientationE
__ZN3WTF9HashTableIjNS_12KeyValuePairIjNS_9RetainPtrIPK14__CFDictionaryEEEENS_24KeyValuePairKeyExtractorIS7_EENS_7IntHashIjEENS_18HashMapValueTraitsINS_10HashTraitsIjEENSD_IS6_EEEESE_E16lookupForWritingINS_22IdentityHashTranslatorISB_EEjEENSt3__14pairIPS7_bEERKT0_
__ZN3WTF9HashTableIjNS_12KeyValuePairIjNS_9RetainPtrIPK14__CFDictionaryEEEENS_24KeyValuePairKeyExtractorIS7_EENS_7IntHashIjEENS_18HashMapValueTraitsINS_10HashTraitsIjEENSD_IS6_EEEESE_E3addINS_17HashMapTranslatorISG_SB_EEjS6_EENS_18HashTableAddResultINS_17HashTableIteratorIjS7_S9_SB_SG_SE_EEEERKT0_RKT1_
__ZN3WTF9HashTableIjNS_12KeyValuePairIjNS_9RetainPtrIPK14__CFDictionaryEEEENS_24KeyValuePairKeyExtractorIS7_EENS_7IntHashIjEENS_18HashMapValueTraitsINS_10HashTraitsIjEENSD_IS6_EEEESE_E6lookupINS_22IdentityHashTranslatorISB_EEjEEPS7_RKT0_
__ZN3WTF9HashTableIjNS_12KeyValuePairIjNS_9RetainPtrIPK14__CFDictionaryEEEENS_24KeyValuePairKeyExtractorIS7_EENS_7IntHashIjEENS_18HashMapValueTraitsINS_10HashTraitsIjEENSD_IS6_EEEESE_E6rehashEi
__ZNK7WebCore16FontPlatformData15allowsLigaturesEv
__ZN7WebCoreL26provideStringAndAttributesElPlPPK14__CFDictionaryPv
__ZN3WTF6VectorINS_9RetainPtrIPK8__CTLineEELm0ENS_15CrashOnOverflowEE15reserveCapacityEm
__ZN7WebCore21ComplexTextController14ComplexTextRunC2EPK7__CTRunPKNS_14SimpleFontDataEPKtjm7CFRange
__ZN7WebCore21ComplexTextController23adjustGlyphsAndAdvancesEv
__ZNK7WebCore16FontPlatformData19roundsGlyphAdvancesEv
__ZNK7WebCore14SimpleFontData22platformBoundsForGlyphEt
__ZN3WTF6OwnPtrIN7WebCore15GlyphMetricsMapINS1_9FloatRectEEEEaSERKNS_10PassOwnPtrIS4_EE
__ZN3WTF10PassOwnPtrIN7WebCore15GlyphMetricsMapINS1_9FloatRectEEEED2Ev
__ZN7WebCore15GlyphMetricsMapINS_9FloatRectEE18locatePageSlowCaseEj
__ZN7WebCore21ComplexTextControllerD2Ev
__ZN3WTF6VectorINS_6RefPtrIN7WebCore21ComplexTextController14ComplexTextRunEEELm16ENS_15CrashOnOverflowEED2Ev
__ZN7WebCore21ComplexTextController14ComplexTextRunD2Ev
__ZN7WebCore15GraphicsContextC1EP9CGContext
__ZN7WebCore15GraphicsContext12platformInitEP9CGContext
__ZN7WebCore15GraphicsContext19setPaintingDisabledEb
__ZNK7WebCore15GraphicsContext9fillColorEv
__ZNK7WebCore15GraphicsContext14fillColorSpaceEv
__ZNK7WebCore15GraphicsContext16paintingDisabledEv
__ZN7WebCore13cachedCGColorERKNS_5ColorENS_10ColorSpaceE
__ZNK7WebCore5Color7getRGBAERdS1_S1_S1_
__ZN7WebCore22deviceRGBColorSpaceRefEv
__ZNK7WebCore15GraphicsContext11strokeColorEv
__ZNK7WebCore15GraphicsContext16strokeColorSpaceEv
__ZN7WebCore8makeRGBAEiiii
__ZN7WebCore15GraphicsContext12setFillColorERKNS_5ColorENS_10ColorSpaceE
__ZN7WebCore15GraphicsContext20setPlatformFillColorERKNS_5ColorENS_10ColorSpaceE
__ZNK7WebCore4Font8drawTextEPNS_15GraphicsContextERKNS_7TextRunERKNS_10FloatPointEiiNS0_24CustomFontNotReadyActionE
__ZNK7WebCore4Font15drawComplexTextEPNS_15GraphicsContextERKNS_7TextRunERKNS_10FloatPointEii
__ZNK7WebCore4Font34getGlyphsAndAdvancesForComplexTextERKNS_7TextRunEiiRNS_11GlyphBufferENS0_20ForTextEmphasisOrNotE
__ZN7WebCore21ComplexTextController7advanceEjPNS_11GlyphBufferENS_19GlyphIterationStyleEPN3WTF7HashSetIPKNS_14SimpleFontDataENS4_7PtrHashIS8_EENS4_10HashTraitsIS8_EEEE
__ZN7WebCore21ComplexTextController17indexOfCurrentRunERj
__ZN7WebCore11GlyphBuffer3addEtPKNS_14SimpleFontDataENS_18GlyphBufferAdvanceE
__ZNK7WebCore4Font15drawGlyphBufferEPNS_15GraphicsContextERKNS_7TextRunERKNS_11GlyphBufferERKNS_10FloatPointE
__ZNK7WebCore4Font10drawGlyphsEPNS_15GraphicsContextEPKNS_14SimpleFontDataERKNS_11GlyphBufferEiiRKNS_10FloatPointE
__ZNK7WebCore15GraphicsContext15platformContextEv
__ZN7WebCore4Font18shouldUseSmoothingEv
__ZNK7WebCore15GraphicsContext27shouldSubpixelQuantizeFontsEv
__ZNK7WebCore15GraphicsContext9getShadowERNS_9FloatSizeERfRNS_5ColorERNS_10ColorSpaceE
__ZNK7WebCore15GraphicsContext6getCTMENS0_18IncludeDeviceScaleE
__ZN7WebCore15AffineTransformC1ERK17CGAffineTransform
__ZN7WebCore15AffineTransform9setMatrixEdddddd
__ZNK7WebCore15GraphicsContext15textDrawingModeEv
__ZN7WebCoreL22showGlyphsWithAdvancesERKNS_10FloatPointEPKNS_14SimpleFontDataEP9CGContextPKtPK6CGSizem
__ZN7WebCore15GraphicsContextD1Ev
__ZN7WebCore15GraphicsContext15platformDestroyEv
__ZN7WebCore20GraphicsContextStateD2Ev
__ZN7WebCore23dataForURLComponentTypeEP5NSURLl
__ZN7WebCore14decodeHostNameEP8NSString
__ZN7WebCore10IconRecord5imageERKNS_7IntSizeE
__ZN7WebCore11BitmapImage15getCGImageArrayEv
__ZN7WebCore11BitmapImage10frameCountEv
__ZNK7WebCore11ImageSource10frameCountEv
__ZN7WebCore11BitmapImage12frameAtIndexEm
__ZN7WebCore11BitmapImage10cacheFrameEm
__ZN7WebCore11ImageSource18createFrameAtIndexEm
__ZN7WebCore11BitmapImage18checkForSolidColorEv
__ZNK7WebCore11ImageSource18orientationAtIndexEm
__ZN7WebCore11ImageSource22frameIsCompleteAtIndexEm
__ZN7WebCore11ImageSource15repetitionCountEv
__ZN7WebCore11ImageSource20frameHasAlphaAtIndexEm
__ZNK7WebCore11ImageSource17frameBytesAtIndexEm
__ZNK7WebCore11ImageSource16frameSizeAtIndexEmNS_27RespectImageOrientationEnumE
__ZN7WebCore12IconDatabase24getOrCreatePageURLRecordERKN3WTF6StringE
__ZN3WTF6VectorIN7WebCore9FrameDataELm1ENS_15CrashOnOverflowEE15reserveCapacityEm
__ZN7WebCore4Font21setShouldUseSmoothingEb
__ZN7WebCore15StringTruncator13rightTruncateERKN3WTF6StringEfRKNS_4FontENS0_24EnableRoundingHacksOrNotE
__ZN7WebCoreL21rightTruncateToBufferERKN3WTF6StringEjjPt
__ZN3WTF9HashTableIiNS_12KeyValuePairIiNS_6OwnPtrIN7WebCore15GlyphMetricsMapINS3_9FloatRectEE16GlyphMetricsPageEEEEENS_24KeyValuePairKeyExtractorIS9_EENS_7IntHashIjEENS_18HashMapValueTraitsINS_10HashTraitsIiEENSF_IS8_EEEESG_E16lookupForWritingINS_22IdentityHashTranslatorISD_EEiEENSt3__14pairIPS9_bEERKT0_
__ZN3WTF9HashTableIiNS_12KeyValuePairIiNS_6OwnPtrIN7WebCore15GlyphMetricsMapINS3_9FloatRectEE16GlyphMetricsPageEEEEENS_24KeyValuePairKeyExtractorIS9_EENS_7IntHashIjEENS_18HashMapValueTraitsINS_10HashTraitsIiEENSF_IS8_EEEESG_E3addINS_17HashMapTranslatorISI_SD_EEiNS_10PassOwnPtrIS7_EEEENS_18HashTableAddResultINS_17HashTableIteratorIiS9_SB_SD_SI_SG_EEEERKT0_RKT1_
__ZN3WTF9HashTableIiNS_12KeyValuePairIiNS_6OwnPtrIN7WebCore15GlyphMetricsMapINS3_9FloatRectEE16GlyphMetricsPageEEEEENS_24KeyValuePairKeyExtractorIS9_EENS_7IntHashIjEENS_18HashMapValueTraitsINS_10HashTraitsIiEENSF_IS8_EEEESG_E6lookupINS_22IdentityHashTranslatorISD_EEiEEPS9_RKT0_
__ZN3WTF9HashTableIiNS_12KeyValuePairIiNS_6OwnPtrIN7WebCore15GlyphMetricsMapINS3_9FloatRectEE16GlyphMetricsPageEEEEENS_24KeyValuePairKeyExtractorIS9_EENS_7IntHashIjEENS_18HashMapValueTraitsINS_10HashTraitsIiEENSF_IS8_EEEESG_E6rehashEi
__ZN7WebCore10WidthCache11addSlowCaseERKNS_7TextRunEf
__ZN3WTF9HashTableIjNS_12KeyValuePairIjfEENS_24KeyValuePairKeyExtractorIS2_EENS_7IntHashIjEENS_18HashMapValueTraitsINS_29UnsignedWithZeroKeyHashTraitsIjEENS_10HashTraitsIfEEEES9_E16lookupForWritingINS_22IdentityHashTranslatorIS6_EEjEENSt3__14pairIPS2_bEERKT0_
__ZN3WTF9HashTableIjNS_12KeyValuePairIjfEENS_24KeyValuePairKeyExtractorIS2_EENS_7IntHashIjEENS_18HashMapValueTraitsINS_29UnsignedWithZeroKeyHashTraitsIjEENS_10HashTraitsIfEEEES9_E3addINS_17HashMapTranslatorISC_S6_EEjfEENS_18HashTableAddResultINS_17HashTableIteratorIjS2_S4_S6_SC_S9_EEEERKT0_RKT1_
__ZN3WTF9HashTableIjNS_12KeyValuePairIjfEENS_24KeyValuePairKeyExtractorIS2_EENS_7IntHashIjEENS_18HashMapValueTraitsINS_29UnsignedWithZeroKeyHashTraitsIjEENS_10HashTraitsIfEEEES9_E6lookupINS_22IdentityHashTranslatorIS6_EEjEEPS2_RKT0_
__ZN3WTF9HashTableIjNS_12KeyValuePairIjfEENS_24KeyValuePairKeyExtractorIS2_EENS_7IntHashIjEENS_18HashMapValueTraitsINS_29UnsignedWithZeroKeyHashTraitsIjEENS_10HashTraitsIfEEEES9_E6rehashEi
__ZN7WebCore11memoryCacheEv
__ZN7WebCore11MemoryCache13setCapacitiesEjjj
__ZN7WebCore11MemoryCache5pruneEv
__ZN7WebCore9PageCache11setCapacityEi
__ZN7WebCoreL15performWorkItemEPv
__ZN7WebCore17FinishedURLImport11performWorkEv
__ZN7WebCore17FinishedURLImportD0Ev
__ZN7WebCore12IconDatabase38notifyPendingLoadDecisionsOnMainThreadEPv
__ZN7WebCore12IconDatabase26notifyPendingLoadDecisionsEv
__ZN7WebCore12IconDatabase43performScheduleOrDeferSyncTimerOnMainThreadEPv
__ZN7WebCore9TimerBase5startEdd
__ZN7WebCore9TimerBase15setNextFireTimeEd
__ZN3WTF14ThreadSpecificIN7WebCore16ThreadGlobalDataEEcvPS2_Ev
__ZN7WebCore16ThreadGlobalDataC1Ev
__ZN7WebCore16ThreadGlobalDataC2Ev
__ZN7WebCore31CachedResourceRequestInitiatorsC1Ev
__ZN3WTF10PassOwnPtrIN7WebCore31CachedResourceRequestInitiatorsEED2Ev
__ZN7WebCore10EventNamesC1Ev
__ZN7WebCore10EventNamesC2Ev
__ZN7WebCore12ThreadTimersC1Ev
__ZN7WebCore12ThreadTimers14setSharedTimerEPNS_11SharedTimerE
__ZN7WebCore21MainThreadSharedTimer16setFiredFunctionEPFvvE
__ZN7WebCore27setSharedTimerFiredFunctionEPFvvE
__ZN7WebCore21MainThreadSharedTimer4stopEv
__ZN7WebCore15stopSharedTimerEv
__ZN7WebCore28ThreadLocalInspectorCountersC1Ev
__ZN3WTF14ThreadSpecificINS_13WTFThreadDataEEcvPS1_Ev
__ZNK7WebCore9TimerBase15alignedFireTimeEd
__ZN7WebCore9TimerBase18updateHeapIfNeededEd
__ZNK7WebCore9TimerBase20hasValidHeapPositionEv
__ZN3WTF6VectorIPN7WebCore9TimerBaseELm0ENS_15CrashOnOverflowEE14expandCapacityEmPKS3_
__ZN3WTF6VectorIPN7WebCore9TimerBaseELm0ENS_15CrashOnOverflowEE15reserveCapacityEm
__ZNSt3__116__push_heap_backIRN7WebCore25TimerHeapLessThanFunctionENS1_17TimerHeapIteratorEEEvT0_S5_T_NS_15iterator_traitsIS5_E15difference_typeE
__ZN7WebCore12ThreadTimers17updateSharedTimerEv
__ZN7WebCore21MainThreadSharedTimer15setFireIntervalEd
__ZN7WebCore26setSharedTimerFireIntervalEd
__ZN7WebCore34ImportedIconDataForPageURLWorkItem11performWorkEv
__ZN7WebCore34ImportedIconDataForPageURLWorkItemD0Ev
__ZN7WebCore7RunLoop7currentEv
____ZN7WebCore21MemoryPressureHandler7installEv_block_invoke
__ZN7WebCore11toUserSpaceERK6CGRectP8NSWindow
__ZN7WebCore7RunLoop9TimerBase10timerFiredEP16__CFRunLoopTimerPv
__ZN7WebCore7RunLoop9TimerBase4stopEv
__ZN7WebCore11BitmapImage24getFirstCGImageRefOfSizeERKNS_7IntSizeE
__ZN7WebCore11ImageSource20frameDurationAtIndexEm
__ZN7WebCore11BitmapImage13getCGImageRefEv
__ZN7WebCoreL10timerFiredEP16__CFRunLoopTimerPv
__ZN7WebCore12ThreadTimers16sharedTimerFiredEv
__ZN7WebCore12ThreadTimers24sharedTimerFiredInternalEv
__ZN7WebCore9TimerBase13heapDeleteMinEv
__ZN7WebCore9TimerBase10heapPopMinEv
__ZN7WebCore5TimerINS_12IconDatabaseEE5firedEv
__ZN7WebCore12IconDatabase14syncTimerFiredEPNS_5TimerIS0_EE
__ZN7WebCore8IntPointC1ERK7CGPoint
__ZN7WebCore14SQLiteDatabase14clearAllTablesEv
__ZN7WebCore15SQLiteStatement17returnTextResultsEiRN3WTF6VectorINS1_6StringELm0ENS1_15CrashOnOverflowEEE
__ZN7WebCore14SQLiteDatabase9lastErrorEv
__ZN7WebCoreL20createDatabaseTablesERNS_14SQLiteDatabaseE
__ZN3WTFplINS_6StringEEENS_12StringAppendIS1_T_EERKS1_S3_
__ZN3WTFplINS_6StringES1_PKcEENS_12StringAppendINS4_IT_T0_EET1_EERKS7_S8_
__ZNK3WTF12StringAppendINS0_INS_6StringES1_EEPKcEcvS1_Ev
__ZN3WTF13tryMakeStringINS_12StringAppendINS_6StringES2_EEPKcEENS_10PassRefPtrINS_10StringImplEEET_T0_
__ZN7WebCore17excludeFromBackupERKN3WTF6StringE
__ZN7WebCore9pathAsURLERKN3WTF6StringE
__ZN7WebCore12IconDatabase24setWasExcludedFromBackupEv
__ZN7WebCore7RunLoop8dispatchERKN3WTF8FunctionIFvvEEE
__ZN3WTF5DequeINS_8FunctionIFvvEEELm0EE14expandCapacityEv
__ZN7WebCore7RunLoop6wakeUpEv
__ZN7WebCore15ResourceRequest23doUpdateResourceRequestEv
__ZN7WebCore4KURLC1EP5NSURL
__ZN7WebCore4KURLC2EP5NSURL
__ZN7WebCore7RunLoop11performWorkEPv
__ZN7WebCore7RunLoop11performWorkEv
__ZN7WebCore15ResourceRequest13partitionNameERKN3WTF6StringE
__ZN7WebCore28topPrivatelyControlledDomainERKN3WTF6StringE
__ZN7WebCore19ResourceRequestBase50setResponseContentDispositionEncodingFallbackArrayERKN3WTF6StringES4_S4_
__ZN3WTF12AtomicString3addEPK10__CFString
__ZN3WTF17HashMapTranslatorINS_18HashMapValueTraitsINS_10HashTraitsINS_12AtomicStringEEENS2_INS_6StringEEEEENS_15CaseFoldingHashEE9translateINS_12KeyValuePairIS3_S5_EES3_S5_EEvRT_RKT0_RKT1_
__ZN7WebCore12IconDatabase21releaseIconForPageURLERKN3WTF6StringE
__ZN7WebCore5Image12supportsTypeERKN3WTF6StringE
__ZN7WebCore16MIMETypeRegistry32isSupportedImageResourceMIMETypeERKN3WTF6StringE
__ZN7WebCoreL26initializeMIMETypeRegistryEv
__ZN7WebCore14ArchiveFactory29registerKnownArchiveMIMETypesEv
__ZN7WebCore16MIMETypeRegistry29getSupportedNonImageMIMETypesEv
__ZN7WebCoreL16archiveMIMETypesEv
__ZN3WTF9HashTableINS_6StringENS_12KeyValuePairIS1_PFNS_10PassRefPtrIN7WebCore7ArchiveEEERKNS4_4KURLEPNS4_12SharedBufferEEEENS_24KeyValuePairKeyExtractorISE_EENS_15CaseFoldingHashENS_18HashMapValueTraitsINS_10HashTraitsIS1_EENSJ_ISD_EEEESK_E16lookupForWritingINS_22IdentityHashTranslatorISH_EES1_EENSt3__14pairIPSE_bEERKT0_
__ZN3WTF9HashTableINS_6StringENS_12KeyValuePairIS1_PFNS_10PassRefPtrIN7WebCore7ArchiveEEERKNS4_4KURLEPNS4_12SharedBufferEEEENS_24KeyValuePairKeyExtractorISE_EENS_15CaseFoldingHashENS_18HashMapValueTraitsINS_10HashTraitsIS1_EENSJ_ISD_EEEESK_E3addINS_17HashMapTranslatorISM_SH_EES1_SD_EENS_18HashTableAddResultINS_17HashTableIteratorIS1_SE_SG_SH_SM_SK_EEEERKT0_RKT1_
__ZN3WTF9HashTableINS_6StringENS_12KeyValuePairIS1_PFNS_10PassRefPtrIN7WebCore7ArchiveEEERKNS4_4KURLEPNS4_12SharedBufferEEEENS_24KeyValuePairKeyExtractorISE_EENS_15CaseFoldingHashENS_18HashMapValueTraitsINS_10HashTraitsIS1_EENSJ_ISD_EEEESK_E6rehashEi
__ZN7WebCore26MIMETypeForImageSourceTypeERKN3WTF6StringE
__ZN7WebCore15visitedLinkHashERKN3WTF6StringE
__ZN7WebCore6Cursor8fromTypeENS0_4TypeE
__ZNK7WebCore6Cursor14platformCursorEv
__ZNK7WebCore6Cursor20ensurePlatformCursorEv
__ZN7WebCore6CursoraSERKS0_
__ZN7WebCore6CursorD1Ev
__ZN7WebCore12IconDatabase33synchronousLoadDecisionForIconURLERKN3WTF6StringEPNS_14DocumentLoaderE
__ZN7WebCore12IconDatabase20setIconURLForPageURLERKN3WTF6StringES4_
__ZNK7WebCore13PageURLRecord8snapshotEb
__ZN3WTF9HashTableINS_6StringENS_12KeyValuePairIS1_N7WebCore15PageURLSnapshotEEENS_24KeyValuePairKeyExtractorIS5_EENS_10StringHashENS_18HashMapValueTraitsINS_10HashTraitsIS1_EENSA_IS4_EEEESB_E15deallocateTableEPS5_i
__ZN3WTF9HashTableINS_6StringENS_12KeyValuePairIS1_N7WebCore15PageURLSnapshotEEENS_24KeyValuePairKeyExtractorIS5_EENS_10StringHashENS_18HashMapValueTraitsINS_10HashTraitsIS1_EENSA_IS4_EEEESB_E16lookupForWritingINS_22IdentityHashTranslatorIS8_EES1_EENSt3__14pairIPS5_bEERKT0_
__ZN3WTF9HashTableINS_6StringENS_12KeyValuePairIS1_N7WebCore15PageURLSnapshotEEENS_24KeyValuePairKeyExtractorIS5_EENS_10StringHashENS_18HashMapValueTraitsINS_10HashTraitsIS1_EENSA_IS4_EEEESB_E3addINS_17HashMapTranslatorISD_S8_EES1_S4_EENS_18HashTableAddResultINS_17HashTableIteratorIS1_S5_S7_S8_SD_SB_EEEERKT0_RKT1_
__ZN3WTF9HashTableINS_6StringENS_12KeyValuePairIS1_N7WebCore15PageURLSnapshotEEENS_24KeyValuePairKeyExtractorIS5_EENS_10StringHashENS_18HashMapValueTraitsINS_10HashTraitsIS1_EENSA_IS4_EEEESB_E6lookupINS_22IdentityHashTranslatorIS8_EES1_EEPS5_RKT0_
__ZN3WTF9HashTableINS_6StringENS_12KeyValuePairIS1_N7WebCore15PageURLSnapshotEEENS_24KeyValuePairKeyExtractorIS5_EENS_10StringHashENS_18HashMapValueTraitsINS_10HashTraitsIS1_EENSA_IS4_EEEESB_E6rehashEi
__ZN3WTF17GenericHashTraitsIN7WebCore15PageURLSnapshotEE5storeERKS2_RS2_
__ZN3WTF6VectorIN7WebCore15PageURLSnapshotELm0ENS_15CrashOnOverflowEE14expandCapacityEmPKS2_
__ZN3WTF6VectorIN7WebCore15PageURLSnapshotELm0ENS_15CrashOnOverflowEE15reserveCapacityEm
__ZN3WTF11VectorMoverILb0EN7WebCore15PageURLSnapshotEE4moveEPKS2_S5_PS2_
__ZN7WebCore12IconDatabase34getIconIDForIconURLFromSQLDatabaseERKN3WTF6StringE
__ZN7WebCore12IconDatabase23addIconURLToSQLDatabaseERKN3WTF6StringE
__ZN7WebCore14SQLiteDatabase15lastInsertRowIDEv
__ZN7WebCore15SQLiteStatement9bindInt64Eix
__ZN7WebCore12IconDatabase32setIconIDForPageURLInSQLDatabaseExRKN3WTF6StringE
__ZN7WebCore12IconDatabase24checkForDanglingPageURLsEb
__ZN7WebCore15SQLiteStatement23returnsAtLeastOneResultEv
__ZN7WebCore12SharedBufferC1EPKhi
__ZN7WebCore12IconDatabase21setIconDataForIconURLEN3WTF10PassRefPtrINS_12SharedBufferEEERKNS1_6StringE
__ZNK7WebCore12SharedBuffer4copyEv
__ZN7WebCore11BitmapImageD0Ev
__ZN7WebCore11BitmapImageD2Ev
__ZN7WebCore11BitmapImage13stopAnimationEv
__ZN7WebCore11ImageSourceD1Ev
__ZN7WebCore5ImageD2Ev
__ZN7WebCore12SharedBufferD1Ev
__ZN7WebCore12SharedBufferD2Ev
__ZN7WebCore12SharedBuffer5clearEv
__ZN7WebCore12SharedBuffer17clearPlatformDataEv
__ZNK7WebCore10IconRecord8snapshotEb
__ZN3WTF9HashTableINS_6StringENS_12KeyValuePairIS1_N7WebCore12IconSnapshotEEENS_24KeyValuePairKeyExtractorIS5_EENS_10StringHashENS_18HashMapValueTraitsINS_10HashTraitsIS1_EENSA_IS4_EEEESB_E15deallocateTableEPS5_i
__ZN3WTF9HashTableINS_6StringENS_12KeyValuePairIS1_N7WebCore12IconSnapshotEEENS_24KeyValuePairKeyExtractorIS5_EENS_10StringHashENS_18HashMapValueTraitsINS_10HashTraitsIS1_EENSA_IS4_EEEESB_E16lookupForWritingINS_22IdentityHashTranslatorIS8_EES1_EENSt3__14pairIPS5_bEERKT0_
__ZN3WTF9HashTableINS_6StringENS_12KeyValuePairIS1_N7WebCore12IconSnapshotEEENS_24KeyValuePairKeyExtractorIS5_EENS_10StringHashENS_18HashMapValueTraitsINS_10HashTraitsIS1_EENSA_IS4_EEEESB_E3addINS_17HashMapTranslatorISD_S8_EES1_S4_EENS_18HashTableAddResultINS_17HashTableIteratorIS1_S5_S7_S8_SD_SB_EEEERKT0_RKT1_
__ZN3WTF9HashTableINS_6StringENS_12KeyValuePairIS1_N7WebCore12IconSnapshotEEENS_24KeyValuePairKeyExtractorIS5_EENS_10StringHashENS_18HashMapValueTraitsINS_10HashTraitsIS1_EENSA_IS4_EEEESB_E6lookupINS_22IdentityHashTranslatorIS8_EES1_EEPS5_RKT0_
__ZN3WTF9HashTableINS_6StringENS_12KeyValuePairIS1_N7WebCore12IconSnapshotEEENS_24KeyValuePairKeyExtractorIS5_EENS_10StringHashENS_18HashMapValueTraitsINS_10HashTraitsIS1_EENSA_IS4_EEEESB_E6rehashEi
__ZN3WTF17GenericHashTraitsIN7WebCore12IconSnapshotEE5storeERKS2_RS2_
__ZN7WebCore20builtInPDFPluginNameEv
__ZN7WebCore15localizedStringEPKc
__ZN7WebCore26pdfDocumentTypeDescriptionEv
__ZN7WebCore33postScriptDocumentTypeDescriptionEv
__ZN7WebCore19applicationIsSafariEv
__ZN7WebCore14SecurityOrigin6createERKN3WTF6StringES4_i
__ZN7WebCore24decodeURLEscapeSequencesERKN3WTF6StringE
__ZN7WebCore21decodeEscapeSequencesINS_17URLEscapeSequenceEEEN3WTF6StringERKS3_RKNS_12TextEncodingE
__ZN3WTFplINS_12StringAppendINS_6StringEPKcEES2_S4_EENS1_INS1_IT_T0_EET1_EERKS8_S9_
__ZN3WTFplINS_12StringAppendINS1_INS_6StringEPKcEES2_EES4_S2_EENS1_INS1_IT_T0_EET1_EERKS9_SA_
__ZN3WTFplINS_12StringAppendINS1_INS1_INS_6StringEPKcEES2_EES4_EES2_S4_EENS1_INS1_IT_T0_EET1_EERKSA_SB_
__ZNK3WTF12StringAppendINS0_INS0_INS0_INS0_INS_6StringEPKcEES1_EES3_EES1_EES3_EcvS1_Ev
__ZN3WTF13tryMakeStringINS_12StringAppendINS1_INS1_INS1_INS_6StringEPKcEES2_EES4_EES2_EES4_EENS_10PassRefPtrINS_10StringImplEEET_T0_
__ZN3WTF12StringAppendINS0_INS0_INS0_INS_6StringEPKcEES1_EES3_EES1_E7writeToEPh
__ZN3WTF12StringAppendINS0_INS_6StringEPKcEES1_E7writeToEPh
__ZN7WebCore14SecurityOrigin6createERKNS_4KURLE
__ZNK7WebCore4KURL10protocolIsEPKc
__ZNK7WebCore4KURL4hostEv
__ZNK7WebCore4KURL8protocolEv
__ZN7WebCore14SchemeRegistry30shouldTreatURLSchemeAsNoAccessERKN3WTF6StringE
__ZN7WebCoreL24schemesWithUniqueOriginsEv
__ZNK3WTF7HashSetINS_6StringENS_15CaseFoldingHashENS_10HashTraitsIS1_EEE8containsERKS1_
__ZN7WebCore14SecurityOriginC2ERKNS_4KURLE
__ZNK7WebCore4KURL4portEv
__ZN7WebCore24isDefaultPortForProtocolEtRKN3WTF6StringE
__ZN3WTF9HashTableINS_6StringENS_12KeyValuePairIS1_jEENS_24KeyValuePairKeyExtractorIS3_EENS_15CaseFoldingHashENS_18HashMapValueTraitsINS_10HashTraitsIS1_EENS8_IjEEEES9_E16lookupForWritingINS_22IdentityHashTranslatorIS6_EES1_EENSt3__14pairIPS3_bEERKT0_
__ZN3WTF9HashTableINS_6StringENS_12KeyValuePairIS1_jEENS_24KeyValuePairKeyExtractorIS3_EENS_15CaseFoldingHashENS_18HashMapValueTraitsINS_10HashTraitsIS1_EENS8_IjEEEES9_E3addINS_17HashMapTranslatorISB_S6_EES1_jEENS_18HashTableAddResultINS_17HashTableIteratorIS1_S3_S5_S6_SB_S9_EEEERKT0_RKT1_
__ZN3WTF9HashTableINS_6StringENS_12KeyValuePairIS1_jEENS_24KeyValuePairKeyExtractorIS3_EENS_15CaseFoldingHashENS_18HashMapValueTraitsINS_10HashTraitsIS1_EENS8_IjEEEES9_E6rehashEi
__ZN7WebCore14SchemeRegistry27shouldTreatURLSchemeAsLocalERKN3WTF6StringE
__ZN7WebCoreL15localURLSchemesEv
__ZN7WebCore10StorageMap6createEj
__ZNK7WebCore14SecurityOrigin18databaseIdentifierEv
__ZN3WTF13StringBuilder6appendERKNS_6StringE
__ZN7WebCore17encodeForFileNameERKN3WTF6StringE
__ZN7WebCore15SQLiteStatement22isColumnDeclaredAsBlobEi
__ZN7WebCore15SQLiteStatement21getColumnBlobAsStringEi
__ZN7WebCore10StorageMap11importItemsERKN3WTF7HashMapINS1_6StringES3_NS1_10StringHashENS1_10HashTraitsIS3_EES6_EE
__ZN3WTF9HashTableINS_6StringENS_12KeyValuePairIS1_S1_EENS_24KeyValuePairKeyExtractorIS3_EENS_10StringHashENS_18HashMapValueTraitsINS_10HashTraitsIS1_EES9_EES9_E15deallocateTableEPS3_i
__ZN3WTF9HashTableINS_6StringENS_12KeyValuePairIS1_S1_EENS_24KeyValuePairKeyExtractorIS3_EENS_10StringHashENS_18HashMapValueTraitsINS_10HashTraitsIS1_EES9_EES9_E16lookupForWritingINS_22IdentityHashTranslatorIS6_EES1_EENSt3__14pairIPS3_bEERKT0_
__ZN3WTF9HashTableINS_6StringENS_12KeyValuePairIS1_S1_EENS_24KeyValuePairKeyExtractorIS3_EENS_10StringHashENS_18HashMapValueTraitsINS_10HashTraitsIS1_EES9_EES9_E34removeWithoutEntryConsistencyCheckENS_17HashTableIteratorIS1_S3_S5_S6_SA_S9_EE
__ZN3WTF9HashTableINS_6StringENS_12KeyValuePairIS1_S1_EENS_24KeyValuePairKeyExtractorIS3_EENS_10StringHashENS_18HashMapValueTraitsINS_10HashTraitsIS1_EES9_EES9_E3addINS_17HashMapTranslatorISA_S6_EES1_S1_EENS_18HashTableAddResultINS_17HashTableIteratorIS1_S3_S5_S6_SA_S9_EEEERKT0_RKT1_
__ZN3WTF9HashTableINS_6StringENS_12KeyValuePairIS1_S1_EENS_24KeyValuePairKeyExtractorIS3_EENS_10StringHashENS_18HashMapValueTraitsINS_10HashTraitsIS1_EES9_EES9_E3addINS_22IdentityHashTranslatorIS6_EES1_S3_EENS_18HashTableAddResultINS_17HashTableIteratorIS1_S3_S5_S6_SA_S9_EEEERKT0_RKT1_
__ZN3WTF9HashTableINS_6StringENS_12KeyValuePairIS1_S1_EENS_24KeyValuePairKeyExtractorIS3_EENS_10StringHashENS_18HashMapValueTraitsINS_10HashTraitsIS1_EES9_EES9_E6lookupINS_22IdentityHashTranslatorIS6_EES1_EEPS3_RKT0_
__ZN3WTF9HashTableINS_6StringENS_12KeyValuePairIS1_S1_EENS_24KeyValuePairKeyExtractorIS3_EENS_10StringHashENS_18HashMapValueTraitsINS_10HashTraitsIS1_EES9_EES9_E6rehashEi
__ZN3WTF9HashTableINS_6StringENS_12KeyValuePairIS1_S1_EENS_24KeyValuePairKeyExtractorIS3_EENS_10StringHashENS_18HashMapValueTraitsINS_10HashTraitsIS1_EES9_EES9_EaSERKSB_
__ZN3WTF17HashMapTranslatorINS_18HashMapValueTraitsINS_10HashTraitsINS_6StringEEES4_EENS_10StringHashEE9translateINS_12KeyValuePairIS3_S3_EES3_S3_EEvRT_RKT0_RKT1_
__ZN7WebCore10StorageMap7setItemERKN3WTF6StringES4_RS2_Rb
__ZN3WTF6VectorIN7WebCore12IconSnapshotELm0ENS_15CrashOnOverflowEE14expandCapacityEmPKS2_
__ZN3WTF6VectorIN7WebCore12IconSnapshotELm0ENS_15CrashOnOverflowEE15reserveCapacityEm
__ZN7WebCore12IconDatabase30writeIconSnapshotToSQLDatabaseERKNS_12IconSnapshotE
__ZN7WebCore15SQLiteStatement14getColumnInt64Ei
__ZN7WebCore15SQLiteStatement8bindBlobEiPKvi
__ZN3WTF6VectorIN7WebCore12IconSnapshotELm0ENS_15CrashOnOverflowEE6shrinkEm
__ZN7WebCore15SQLiteStatement8bindBlobEiRKN3WTF6StringE
__ZNK7WebCore4KURL17lastPathComponentEv
__ZN7WebCore13ResourceErrorC1EP7NSError
__ZN7WebCore13ResourceErrorC2EP7NSError
__ZNK7WebCore17ResourceErrorBase8lazyInitEv
__ZN7WebCore13ResourceError16platformLazyInitEv
__ZNK7WebCore4KURL12baseAsStringEv
__ZNK7WebCore4KURL14fileSystemPathEv
__ZN7WebCore21setPlatformStrategiesEPNS_18PlatformStrategiesE
__ZN3WTF6VectorIcLm0ENS_15CrashOnOverflowEE14expandCapacityEmPKc
__ZN7WebCore10StorageMap10removeItemERKN3WTF6StringERS2_
__ZN3WTF7HashMapINS_6StringES1_NS_10StringHashENS_10HashTraitsIS1_EES4_E4takeERKS1_
__ZN3WTF13hashTableSwapINS_6StringEN7WebCore15PageURLSnapshotEEEvRNS_12KeyValuePairIT_T0_EES8_
__ZNK7WebCore14SecurityOrigin5equalEPKS0_
__ZN7WebCore30SurrogatePairAwareTextIterator15consumeSlowCaseERiRj
__ZN7WebCore9FontCache27systemFallbackForCharactersERKNS_15FontDescriptionEPKNS_14SimpleFontDataEbPKti
__ZN7WebCore4Font22isCJKIdeographOrSymbolEi
__ZN3WTF9HashTableIiNS_12KeyValuePairIiNS_6OwnPtrIN7WebCore15GlyphMetricsMapIfE16GlyphMetricsPageEEEEENS_24KeyValuePairKeyExtractorIS8_EENS_7IntHashIjEENS_18HashMapValueTraitsINS_10HashTraitsIiEENSE_IS7_EEEESF_E16lookupForWritingINS_22IdentityHashTranslatorISC_EEiEENSt3__14pairIPS8_bEERKT0_
__ZN3WTF9HashTableIiNS_12KeyValuePairIiNS_6OwnPtrIN7WebCore15GlyphMetricsMapIfE16GlyphMetricsPageEEEEENS_24KeyValuePairKeyExtractorIS8_EENS_7IntHashIjEENS_18HashMapValueTraitsINS_10HashTraitsIiEENSE_IS7_EEEESF_E3addINS_17HashMapTranslatorISH_SC_EEiNS_10PassOwnPtrIS6_EEEENS_18HashTableAddResultINS_17HashTableIteratorIiS8_SA_SC_SH_SF_EEEERKT0_RKT1_
__ZN3WTF9HashTableIiNS_12KeyValuePairIiNS_6OwnPtrIN7WebCore15GlyphMetricsMapIfE16GlyphMetricsPageEEEEENS_24KeyValuePairKeyExtractorIS8_EENS_7IntHashIjEENS_18HashMapValueTraitsINS_10HashTraitsIiEENSE_IS7_EEEESF_E6lookupINS_22IdentityHashTranslatorISC_EEiEEPS8_RKT0_
__ZN3WTF9HashTableIiNS_12KeyValuePairIiNS_6OwnPtrIN7WebCore15GlyphMetricsMapIfE16GlyphMetricsPageEEEEENS_24KeyValuePairKeyExtractorIS8_EENS_7IntHashIjEENS_18HashMapValueTraitsINS_10HashTraitsIiEENSE_IS7_EEEESF_E6rehashEi
__ZN3WTF9HashTableIPKN7WebCore14SimpleFontDataES4_NS_17IdentityExtractorENS_7PtrHashIS4_EENS_10HashTraitsIS4_EES9_E3addINS_22IdentityHashTranslatorIS7_EES4_S4_EENS_18HashTableAddResultINS_17HashTableIteratorIS4_S4_S5_S7_S9_S9_EEEERKT0_RKT1_
__ZN3WTF9HashTableIPKN7WebCore14SimpleFontDataES4_NS_17IdentityExtractorENS_7PtrHashIS4_EENS_10HashTraitsIS4_EES9_E6rehashEi
__ZN7WebCore21ComplexTextController14ComplexTextRun17setIsNonMonotonicEv
__ZN7WebCore7RunLoop37setUseApplicationRunLoopOnMainRunLoopEv
__ZN7WebCore21ResourceLoadSchedulerC2Ev
__ZN7WebCore43initializeMaximumHTTPConnectionCountPerHostEv
__ZN7WebCore9PageGroup9pageGroupERKN3WTF6StringE
__ZN3WTF9HashTableINS_6StringENS_12KeyValuePairIS1_PN7WebCore9PageGroupEEENS_24KeyValuePairKeyExtractorIS6_EENS_10StringHashENS_18HashMapValueTraitsINS_10HashTraitsIS1_EENSB_IS5_EEEESC_E16lookupForWritingINS_22IdentityHashTranslatorIS9_EES1_EENSt3__14pairIPS6_bEERKT0_
__ZN3WTF9HashTableINS_6StringENS_12KeyValuePairIS1_PN7WebCore9PageGroupEEENS_24KeyValuePairKeyExtractorIS6_EENS_10StringHashENS_18HashMapValueTraitsINS_10HashTraitsIS1_EENSB_IS5_EEEESC_E3addINS_17HashMapTranslatorISE_S9_EES1_S5_EENS_18HashTableAddResultINS_17HashTableIteratorIS1_S6_S8_S9_SE_SC_EEEERKT0_RKT1_
__ZN3WTF9HashTableINS_6StringENS_12KeyValuePairIS1_PN7WebCore9PageGroupEEENS_24KeyValuePairKeyExtractorIS6_EENS_10StringHashENS_18HashMapValueTraitsINS_10HashTraitsIS1_EENSB_IS5_EEEESC_E6lookupINS_22IdentityHashTranslatorIS9_EES1_EEPS6_RKT0_
__ZN3WTF9HashTableINS_6StringENS_12KeyValuePairIS1_PN7WebCore9PageGroupEEENS_24KeyValuePairKeyExtractorIS6_EENS_10StringHashENS_18HashMapValueTraitsINS_10HashTraitsIS1_EENSB_IS5_EEEESC_E6rehashEi
__ZN7WebCore13GroupSettingsC1Ev
__ZN7WebCore10WidthCache14SmallStringKeyC2IKtEEPT_t
__ZN3WTF9HashTableIN7WebCore10WidthCache14SmallStringKeyENS_12KeyValuePairIS3_fEENS_24KeyValuePairKeyExtractorIS5_EENS2_18SmallStringKeyHashENS_18HashMapValueTraitsINS2_24SmallStringKeyHashTraitsENS_10HashTraitsIfEEEESA_E16lookupForWritingINS_22IdentityHashTranslatorIS8_EES3_EENSt3__14pairIPS5_bEERKT0_
__ZN3WTF9HashTableIN7WebCore10WidthCache14SmallStringKeyENS_12KeyValuePairIS3_fEENS_24KeyValuePairKeyExtractorIS5_EENS2_18SmallStringKeyHashENS_18HashMapValueTraitsINS2_24SmallStringKeyHashTraitsENS_10HashTraitsIfEEEESA_E3addINS_17HashMapTranslatorISD_S8_EES3_fEENS_18HashTableAddResultINS_17HashTableIteratorIS3_S5_S7_S8_SD_SA_EEEERKT0_RKT1_
__ZN3WTF9HashTableIN7WebCore10WidthCache14SmallStringKeyENS_12KeyValuePairIS3_fEENS_24KeyValuePairKeyExtractorIS5_EENS2_18SmallStringKeyHashENS_18HashMapValueTraitsINS2_24SmallStringKeyHashTraitsENS_10HashTraitsIfEEEESA_E6lookupINS_22IdentityHashTranslatorIS8_EES3_EEPS5_RKT0_
__ZN3WTF9HashTableIN7WebCore10WidthCache14SmallStringKeyENS_12KeyValuePairIS3_fEENS_24KeyValuePairKeyExtractorIS5_EENS2_18SmallStringKeyHashENS_18HashMapValueTraitsINS2_24SmallStringKeyHashTraitsENS_10HashTraitsIfEEEESA_E6rehashEi
__ZN7WebCore20ResourceResponseBaseC2Ev
__ZNK7WebCore20ResourceResponseBase3urlEv
__ZN7WebCore16ResourceResponse16platformLazyInitENS_20ResourceResponseBase9InitLevelE
__ZNK7WebCore16ResourceResponse13nsURLResponseEv
__ZNK7WebCore14SecurityOrigin20isSameSchemeHostPortEPKS0_
__ZNK7WebCore10StorageMap6lengthEv
__ZN7WebCore12IconDatabase28performReleaseIconForPageURLERKN3WTF6StringEi
__ZN3WTF6VectorIcLm512ENS_15CrashOnOverflowEE15reserveCapacityEm
__ZN7WebCore15DatabaseManager7managerEv
__ZN7WebCore18platformStrategiesEv
__ZN7WebCore16DatabaseStrategy17getDatabaseServerEv
__ZN7WebCore15DatabaseManager10initializeERKN3WTF6StringE
__ZN7WebCore14DatabaseServer10initializeERKN3WTF6StringE
__ZN7WebCore15DatabaseTracker17initializeTrackerERKN3WTF6StringE
__ZN7WebCore15DatabaseTracker24setDatabaseDirectoryPathERKN3WTF6StringE
__ZN7WebCore15DatabaseManager9setClientEPNS_21DatabaseManagerClientE
__ZN7WebCore14DatabaseServer9setClientEPNS_21DatabaseManagerClientE
__ZN7WebCore15DatabaseTracker7trackerEv
__ZN7WebCore15DatabaseTracker9setClientEPNS_21DatabaseManagerClientE
__ZN7WebCore12cacheStorageEv
__ZN7WebCore23ApplicationCacheStorage17setCacheDirectoryERKN3WTF6StringE
__ZN7WebCore11MemoryCache24pruneDeadResourcesToSizeEj
__ZN7WebCore11MemoryCache18pruneLiveResourcesEv
__ZN7WebCore30overrideUserPreferredLanguagesERKN3WTF6VectorINS0_6StringELm0ENS0_15CrashOnOverflowEEE
__ZN3WTF6VectorINS_6StringELm0ENS_15CrashOnOverflowEEaSERKS3_
__ZN7WebCore8Settings29setDefaultMinDOMTimerIntervalEd
__ZN7WebCore4Page11PageClientsC1Ev
__ZN7WebCore4PageC1ERNS0_11PageClientsE
__ZN7WebCore4PageC2ERNS0_11PageClientsE
__ZN7WebCore6Chrome6createEPNS_4PageEPNS_12ChromeClientE
__ZN7WebCore19DragCaretController6createEv
__ZN7WebCore14DragController6createEPNS_4PageEPNS_10DragClientE
__ZN7WebCore15FocusController6createEPNS_4PageE
__ZN7WebCore21ContextMenuController6createEPNS_4PageEPNS_17ContextMenuClientE
__ZN7WebCore13HitTestResultC1Ev
__ZN7WebCore15HitTestLocationC1Ev
__ZN7WebCore19InspectorController6createEPNS_4PageEPNS_15InspectorClientE
__ZN7WebCore19InspectorControllerC2EPNS_4PageEPNS_15InspectorClientE
__ZN7WebCore19InstrumentingAgentsC1Ev
__ZN7WebCore21InjectedScriptManager13createForPageEv
__ZN7WebCore18InjectedScriptHost6createEv
__ZN7WebCore19InspectorObjectBaseC2Ev
__ZN7WebCore16InspectorOverlayC1EPNS_4PageEPNS_15InspectorClientE
__ZN7WebCore14InspectorAgentC1EPNS_4PageEPNS_21InjectedScriptManagerEPNS_19InstrumentingAgentsEPNS_23InspectorCompositeStateE
__ZN7WebCore27InspectorBaseAgentInterfaceC2ERKN3WTF6StringEPNS_19InstrumentingAgentsEPNS_23InspectorCompositeStateE
__ZN7WebCore23InspectorCompositeState16createAgentStateERKN3WTF6StringE
__ZN7WebCore19InspectorObjectBase9setObjectERKN3WTF6StringENS1_10PassRefPtrINS_15InspectorObjectEEE
__ZN3WTF9HashTableINS_6StringENS_12KeyValuePairIS1_NS_6RefPtrIN7WebCore14InspectorValueEEEEENS_24KeyValuePairKeyExtractorIS7_EENS_10StringHashENS_18HashMapValueTraitsINS_10HashTraitsIS1_EENSC_IS6_EEEESD_E15deallocateTableEPS7_i
__ZN3WTF9HashTableINS_6StringENS_12KeyValuePairIS1_NS_6RefPtrIN7WebCore14InspectorValueEEEEENS_24KeyValuePairKeyExtractorIS7_EENS_10StringHashENS_18HashMapValueTraitsINS_10HashTraitsIS1_EENSC_IS6_EEEESD_E16lookupForWritingINS_22IdentityHashTranslatorISA_EES1_EENSt3__14pairIPS7_bEERKT0_
__ZN3WTF9HashTableINS_6StringENS_12KeyValuePairIS1_NS_6RefPtrIN7WebCore14InspectorValueEEEEENS_24KeyValuePairKeyExtractorIS7_EENS_10StringHashENS_18HashMapValueTraitsINS_10HashTraitsIS1_EENSC_IS6_EEEESD_E3addINS_17HashMapTranslatorISF_SA_EES1_NS_10PassRefPtrIS5_EEEENS_18HashTableAddResultINS_17HashTableIteratorIS1_S7_S9_SA_SF_SD_EEEERKT0_RKT1_
__ZN3WTF9HashTableINS_6StringENS_12KeyValuePairIS1_NS_6RefPtrIN7WebCore14InspectorValueEEEEENS_24KeyValuePairKeyExtractorIS7_EENS_10StringHashENS_18HashMapValueTraitsINS_10HashTraitsIS1_EENSC_IS6_EEEESD_E6lookupINS_22IdentityHashTranslatorISA_EES1_EEPS7_RKT0_
__ZN3WTF9HashTableINS_6StringENS_12KeyValuePairIS1_NS_6RefPtrIN7WebCore14InspectorValueEEEEENS_24KeyValuePairKeyExtractorIS7_EENS_10StringHashENS_18HashMapValueTraitsINS_10HashTraitsIS1_EENSC_IS6_EEEESD_E6rehashEi
__ZN3WTF9HashTableINS_6StringENS_12KeyValuePairIS1_NS_6RefPtrIN7WebCore14InspectorValueEEEEENS_24KeyValuePairKeyExtractorIS7_EENS_10StringHashENS_18HashMapValueTraitsINS_10HashTraitsIS1_EENSC_IS6_EEEESD_E6removeEPS7_
__ZN3WTF9HashTableINS_6StringENS_12KeyValuePairIS1_NS_6OwnPtrIN7WebCore14InspectorStateEEEEENS_24KeyValuePairKeyExtractorIS7_EENS_10StringHashENS_18HashMapValueTraitsINS_10HashTraitsIS1_EENSC_IS6_EEEESD_E16lookupForWritingINS_22IdentityHashTranslatorISA_EES1_EENSt3__14pairIPS7_bEERKT0_
__ZN3WTF9HashTableINS_6StringENS_12KeyValuePairIS1_NS_6OwnPtrIN7WebCore14InspectorStateEEEEENS_24KeyValuePairKeyExtractorIS7_EENS_10StringHashENS_18HashMapValueTraitsINS_10HashTraitsIS1_EENSC_IS6_EEEESD_E3addINS_17HashMapTranslatorISF_SA_EES1_NS_10PassOwnPtrIS5_EEEENS_18HashTableAddResultINS_17HashTableIteratorIS1_S7_S9_SA_SF_SD_EEEERKT0_RKT1_
__ZN3WTF9HashTableINS_6StringENS_12KeyValuePairIS1_NS_6OwnPtrIN7WebCore14InspectorStateEEEEENS_24KeyValuePairKeyExtractorIS7_EENS_10StringHashENS_18HashMapValueTraitsINS_10HashTraitsIS1_EENSC_IS6_EEEESD_E6lookupINS_22IdentityHashTranslatorISA_EES1_EEPS7_RKT0_
__ZN3WTF9HashTableINS_6StringENS_12KeyValuePairIS1_NS_6OwnPtrIN7WebCore14InspectorStateEEEEENS_24KeyValuePairKeyExtractorIS7_EENS_10StringHashENS_18HashMapValueTraitsINS_10HashTraitsIS1_EENSC_IS6_EEEESD_E6rehashEi
__ZN7WebCore22InspectorAgentRegistry6appendEN3WTF10PassOwnPtrINS_27InspectorBaseAgentInterfaceEEE
__ZN3WTF6VectorINS_6OwnPtrIN7WebCore27InspectorBaseAgentInterfaceEEELm0ENS_15CrashOnOverflowEE15reserveCapacityEm
__ZN7WebCore18InspectorPageAgent6createEPNS_19InstrumentingAgentsEPNS_4PageEPNS_14InspectorAgentEPNS_23InspectorCompositeStateEPNS_21InjectedScriptManagerEPNS_15InspectorClientEPNS_16InspectorOverlayE
__ZN7WebCore17InspectorDOMAgentC1EPNS_19InstrumentingAgentsEPNS_18InspectorPageAgentEPNS_23InspectorCompositeStateEPNS_21InjectedScriptManagerEPNS_16InspectorOverlayEPNS_15InspectorClientE
__ZN7WebCore17InspectorCSSAgentC1EPNS_19InstrumentingAgentsEPNS_23InspectorCompositeStateEPNS_17InspectorDOMAgentE
__ZN7WebCore17InspectorCSSAgentC2EPNS_19InstrumentingAgentsEPNS_23InspectorCompositeStateEPNS_17InspectorDOMAgentE
__ZN7WebCore17InspectorDOMAgent14setDOMListenerEPNS0_11DOMListenerE
__ZN7WebCore22InspectorDatabaseAgentC1EPNS_19InstrumentingAgentsEPNS_23InspectorCompositeStateE
__ZN7WebCore24InspectorDOMStorageAgentC1EPNS_19InstrumentingAgentsEPNS_18InspectorPageAgentEPNS_23InspectorCompositeStateE
__ZN7WebCore20InspectorMemoryAgent6createEPNS_19InstrumentingAgentsEPNS_23InspectorCompositeStateE
__ZN7WebCore22InspectorTimelineAgentC1EPNS_19InstrumentingAgentsEPNS_18InspectorPageAgentEPNS_20InspectorMemoryAgentEPNS_23InspectorCompositeStateENS0_13InspectorTypeEPNS_15InspectorClientE
__ZN7WebCore22InspectorTimelineAgentC2EPNS_19InstrumentingAgentsEPNS_18InspectorPageAgentEPNS_20InspectorMemoryAgentEPNS_23InspectorCompositeStateENS0_13InspectorTypeEPNS_15InspectorClientE
__ZN7WebCore30InspectorApplicationCacheAgentC1EPNS_19InstrumentingAgentsEPNS_23InspectorCompositeStateEPNS_18InspectorPageAgentE
__ZN7WebCore22InspectorResourceAgentC1EPNS_19InstrumentingAgentsEPNS_18InspectorPageAgentEPNS_15InspectorClientEPNS_23InspectorCompositeStateE
__ZN7WebCore22InspectorResourceAgentC2EPNS_19InstrumentingAgentsEPNS_18InspectorPageAgentEPNS_15InspectorClientEPNS_23InspectorCompositeStateE
__ZN7WebCore20NetworkResourcesDataC1Ev
__ZN7WebCore16PageRuntimeAgentC1EPNS_19InstrumentingAgentsEPNS_23InspectorCompositeStateEPNS_21InjectedScriptManagerEPNS_4PageEPNS_18InspectorPageAgentE
__ZN7WebCore21InspectorRuntimeAgentC2EPNS_19InstrumentingAgentsEPNS_23InspectorCompositeStateEPNS_21InjectedScriptManagerE
__ZN7WebCore16PageConsoleAgentC1EPNS_19InstrumentingAgentsEPNS_14InspectorAgentEPNS_23InspectorCompositeStateEPNS_21InjectedScriptManagerEPNS_17InspectorDOMAgentE
__ZN7WebCore21InspectorConsoleAgentC2EPNS_19InstrumentingAgentsEPNS_23InspectorCompositeStateEPNS_21InjectedScriptManagerE
__ZN7WebCore17PageDebuggerAgent6createEPNS_19InstrumentingAgentsEPNS_23InspectorCompositeStateEPNS_18InspectorPageAgentEPNS_21InjectedScriptManagerEPNS_16InspectorOverlayE
__ZN7WebCore22InspectorDebuggerAgentC2EPNS_19InstrumentingAgentsEPNS_23InspectorCompositeStateEPNS_21InjectedScriptManagerE
__ZN7WebCore14InspectorState8setValueERKN3WTF6StringENS1_10PassRefPtrINS_14InspectorValueEEE
__ZN7WebCore19InspectorObjectBase8setValueERKN3WTF6StringENS1_10PassRefPtrINS_14InspectorValueEEE
__ZN7WebCore23InspectorCompositeState21inspectorStateUpdatedEv
__ZN7WebCore25InspectorDOMDebuggerAgent6createEPNS_19InstrumentingAgentsEPNS_23InspectorCompositeStateEPNS_17InspectorDOMAgentEPNS_22InspectorDebuggerAgentEPNS_14InspectorAgentE
__ZN7WebCore22InspectorProfilerAgent6createEPNS_19InstrumentingAgentsEPNS_21InspectorConsoleAgentEPNS_4PageEPNS_23InspectorCompositeStateEPNS_21InjectedScriptManagerE
__ZN7WebCore22InspectorProfilerAgentC2EPNS_19InstrumentingAgentsEPNS_21InspectorConsoleAgentEPNS_23InspectorCompositeStateEPNS_21InjectedScriptManagerE
__ZN7WebCore26InspectorHeapProfilerAgent6createEPNS_19InstrumentingAgentsEPNS_23InspectorCompositeStateEPNS_21InjectedScriptManagerE
__ZN7WebCore20InspectorWorkerAgent6createEPNS_19InstrumentingAgentsEPNS_23InspectorCompositeStateE
__ZN7WebCore20InspectorCanvasAgentC1EPNS_19InstrumentingAgentsEPNS_23InspectorCompositeStateEPNS_18InspectorPageAgentEPNS_21InjectedScriptManagerE
__ZN7WebCore19InspectorInputAgentC1EPNS_19InstrumentingAgentsEPNS_23InspectorCompositeStateEPNS_4PageE
__ZN7WebCore23InspectorLayerTreeAgentC1EPNS_19InstrumentingAgentsEPNS_23InspectorCompositeStateE
__ZN7WebCore21InjectedScriptManager18injectedScriptHostEv
__ZN7WebCore17PageDebuggerAgent17scriptDebugServerEv
__ZN7WebCore21PageScriptDebugServer6sharedEv
__ZN7WebCore17ScriptDebugServerC2Ev
__ZN7WebCore21InspectorRuntimeAgent20setScriptDebugServerEPNS_17ScriptDebugServerE
__ZN7WebCore8Settings6createEPNS_4PageE
__ZN7WebCore8SettingsC2EPNS_4PageE
__ZN7WebCore19FontGenericFamiliesC1Ev
__ZN7WebCore8Settings29initializeDefaultFontFamiliesEv
__ZN7WebCore8Settings21setStandardFontFamilyERKN3WTF12AtomicStringE11UScriptCode
__ZN7WebCore19FontGenericFamilies21setStandardFontFamilyERKN3WTF12AtomicStringE11UScriptCode
__ZN7WebCoreL29setGenericFontFamilyForScriptERN3WTF7HashMapIiNS0_12AtomicStringENS0_7IntHashIjEENS_21UScriptCodeHashTraitsENS0_10HashTraitsIS2_EEEERKS2_11UScriptCode
__ZN3WTF9HashTableIiNS_12KeyValuePairIiNS_12AtomicStringEEENS_24KeyValuePairKeyExtractorIS3_EENS_7IntHashIjEENS_18HashMapValueTraitsIN7WebCore21UScriptCodeHashTraitsENS_10HashTraitsIS2_EEEESA_E16lookupForWritingINS_22IdentityHashTranslatorIS7_EEiEENSt3__14pairIPS3_bEERKT0_
__ZN3WTF9HashTableIiNS_12KeyValuePairIiNS_12AtomicStringEEENS_24KeyValuePairKeyExtractorIS3_EENS_7IntHashIjEENS_18HashMapValueTraitsIN7WebCore21UScriptCodeHashTraitsENS_10HashTraitsIS2_EEEESA_E3addINS_17HashMapTranslatorISD_S7_EEiS2_EENS_18HashTableAddResultINS_17HashTableIteratorIiS3_S5_S7_SD_SA_EEEERKT0_RKT1_
__ZN3WTF9HashTableIiNS_12KeyValuePairIiNS_12AtomicStringEEENS_24KeyValuePairKeyExtractorIS3_EENS_7IntHashIjEENS_18HashMapValueTraitsIN7WebCore21UScriptCodeHashTraitsENS_10HashTraitsIS2_EEEESA_E6lookupINS_22IdentityHashTranslatorIS7_EEiEEPS3_RKT0_
__ZN3WTF9HashTableIiNS_12KeyValuePairIiNS_12AtomicStringEEENS_24KeyValuePairKeyExtractorIS3_EENS_7IntHashIjEENS_18HashMapValueTraitsIN7WebCore21UScriptCodeHashTraitsENS_10HashTraitsIS2_EEEESA_E6rehashEi
__ZN3WTF9HashTableIiNS_12KeyValuePairIiNS_12AtomicStringEEENS_24KeyValuePairKeyExtractorIS3_EENS_7IntHashIjEENS_18HashMapValueTraitsIN7WebCore21UScriptCodeHashTraitsENS_10HashTraitsIS2_EEEESA_E8reinsertERS3_
__ZN7WebCore25invalidateFontGlyphsCacheEv
__ZN7WebCore8Settings18setSerifFontFamilyERKN3WTF12AtomicStringE11UScriptCode
__ZN7WebCore19FontGenericFamilies18setSerifFontFamilyERKN3WTF12AtomicStringE11UScriptCode
__ZN7WebCore8Settings18setFixedFontFamilyERKN3WTF12AtomicStringE11UScriptCode
__ZN7WebCore19FontGenericFamilies18setFixedFontFamilyERKN3WTF12AtomicStringE11UScriptCode
__ZN7WebCore8Settings22setSansSerifFontFamilyERKN3WTF12AtomicStringE11UScriptCode
__ZN7WebCore19FontGenericFamilies22setSansSerifFontFamilyERKN3WTF12AtomicStringE11UScriptCode
__ZN7WebCore15ProgressTracker6createEv
__ZN7WebCore21BackForwardController6createEPNS_4PageEN3WTF10PassRefPtrINS_15BackForwardListEEE
__ZN7WebCore11RenderTheme12themeForPageEPNS_4PageE
__ZN7WebCore14RenderThemeMacC2Ev
__ZN7WebCore11RenderThemeC2Ev
__ZN7WebCore13platformThemeEv
-[WebCoreRenderThemeNotificationObserver initWithTheme:]
__ZN7WebCore15FeatureObserverC1Ev
__ZN7WebCore8Settings26defaultMinDOMTimerIntervalEv
__ZN7WebCore8Settings32defaultDOMTimerAlignmentIntervalEv
__ZN7WebCore6RegionC1Ev
__ZN7WebCore13PageThrottlerC1EPNS_4PageE
__ZN7WebCore11PageConsoleC1EPNS_4PageE
__ZN7WebCore20networkStateNotifierEv
__ZN7WebCore20NetworkStateNotifierC1Ev
__ZN7WebCore20NetworkStateNotifierC2Ev
__ZN7WebCore20NetworkStateNotifier11updateStateEv
__ZN7WebCore20NetworkStateNotifier30setNetworkStateChangedFunctionEPFvvE
__ZN3WTF9HashTableIPN7WebCore4PageES3_NS_17IdentityExtractorENS_7PtrHashIS3_EENS_10HashTraitsIS3_EES8_E3addINS_22IdentityHashTranslatorIS6_EES3_S3_EENS_18HashTableAddResultINS_17HashTableIteratorIS3_S3_S4_S6_S8_S8_EEEERKT0_RKT1_
__ZN3WTF9HashTableIPN7WebCore4PageES3_NS_17IdentityExtractorENS_7PtrHashIS3_EENS_10HashTraitsIS3_EES8_E6rehashEi
__ZN7WebCore20provideGeolocationToEPNS_4PageEPNS_17GeolocationClientE
__ZN7WebCore19provideNotificationEPNS_4PageEPNS_18NotificationClientE
__ZN7WebCore4Page16setCanStartMediaEb
__ZN7WebCore4Page12setGroupNameERKN3WTF6StringE
__ZN7WebCore9PageGroup7addPageEPNS_4PageE
__ZN7WebCore4Page20setDeviceScaleFactorEf
__ZN7WebCore9PageCache30markPagesForDeviceScaleChangedEPNS_4PageE
__ZN7WebCore9PageCache27markPagesForFullStyleRecalcEPNS_4PageE
__ZN7WebCore8Settings20setCursiveFontFamilyERKN3WTF12AtomicStringE11UScriptCode
__ZN7WebCore19FontGenericFamilies20setCursiveFontFamilyERKN3WTF12AtomicStringE11UScriptCode
__ZN7WebCore4Page30setNeedsRecalcStyleInAllFramesEv
__ZN7WebCore8Settings20setFantasyFontFamilyERKN3WTF12AtomicStringE11UScriptCode
__ZN7WebCore19FontGenericFamilies20setFantasyFontFamilyERKN3WTF12AtomicStringE11UScriptCode
__ZN7WebCore8Settings23setPictographFontFamilyERKN3WTF12AtomicStringE11UScriptCode
__ZN7WebCore19FontGenericFamilies23setPictographFontFamilyERKN3WTF12AtomicStringE11UScriptCode
__ZN7WebCore8Settings16setScriptEnabledEb
__ZN7WebCore8Settings27setLoadsImagesAutomaticallyEb
__ZN7WebCore8Settings17setPluginsEnabledEb
__ZN7WebCore8Settings14setJavaEnabledEb
__ZN7WebCore8Settings27setJavaEnabledForLocalFilesEb
__ZN7WebCore8Settings25setPrivateBrowsingEnabledEb
__ZN7WebCore8Settings24setTextAreasAreResizableEb
__ZN7WebCore8Settings24setDNSPrefetchingEnabledEb
__ZN7WebCore8Settings16setUsesPageCacheEb
__ZN7WebCore8Settings29setAuthorAndUserStylesEnabledEb
__ZN7WebCore8Settings18setMinimumFontSizeEi
__ZN7WebCore8Settings25setMinimumLogicalFontSizeEi
__ZN7WebCore8Settings18setDefaultFontSizeEi
__ZN7WebCore8Settings23setDefaultFixedFontSizeEi
__ZN7WebCore8Settings32setScreenFontSubstitutionEnabledEb
__ZN7WebCore8Settings32setAcceleratedCompositingEnabledEb
__ZN7WebCore8Settings19setShowDebugBordersEb
__ZN7WebCore8Settings21setShowRepaintCounterEb
__ZN7WebCore8Settings30setShowTiledScrollingIndicatorEb
__ZN7WebCore8Settings33setAggressiveTileRetentionEnabledEb
__ZN7WebCore8Settings24setMockScrollbarsEnabledEb
__ZN7WebCore15DatabaseManager14setIsAvailableEb
__ZN7WebCore8Settings22setAVFoundationEnabledEb
__ZN7WebCore16HTMLMediaElement17resetMediaEnginesEv
__ZN7WebCore11MediaPlayer17resetMediaEnginesEv
__ZN7WebCore8Settings15setQTKitEnabledEb
__ZN7WebCore8Settings24setStorageBlockingPolicyENS_14SecurityOrigin21StorageBlockingPolicyE
__ZN7WebCore8Settings37setScrollingPerformanceLoggingEnabledEb
__ZN7WebCore8Settings38setHiddenPageDOMTimerThrottlingEnabledEb
__ZN7WebCore4Page40hiddenPageDOMTimerThrottlingStateChangedEv
__ZN7WebCore8Settings42setHiddenPageCSSAnimationSuspensionEnabledEb
__ZN7WebCore4Page44hiddenPageCSSAnimationSuspensionStateChangedEv
__ZN7WebCore8Settings38setLowPowerVideoAudioBufferSizeEnabledEb
__ZN7WebCore16MIMETypeRegistry28getPDFAndPostScriptMIMETypesEv
__ZN7WebCore14SchemeRegistry32registerURLSchemeAsEmptyDocumentERKN3WTF6StringE
__ZN7WebCoreL20emptyDocumentSchemesEv
__ZN3WTF9HashTableINS_6StringES1_NS_17IdentityExtractorENS_15CaseFoldingHashENS_10HashTraitsIS1_EES5_E16lookupForWritingINS_22IdentityHashTranslatorIS3_EES1_EENSt3__14pairIPS1_bEERKT0_
__ZN7WebCore19LayerFlushSchedulerC1EPNS_25LayerFlushSchedulerClientE
__ZN7WebCore4Page20scrollingCoordinatorEv
__ZN7WebCore20ScrollingCoordinator6createEPNS_4PageE
__ZN7WebCore23ScrollingCoordinatorMacC1EPNS_4PageE
__ZN7WebCore23ScrollingCoordinatorMacC2EPNS_4PageE
__ZN7WebCore20ScrollingCoordinatorC2EPNS_4PageE
__ZN7WebCore18ScrollingStateTree6createEv
__ZN7WebCore13ScrollingTree6createEPNS_20ScrollingCoordinatorE
__ZNK7WebCore23ScrollingCoordinatorMac13scrollingTreeEv
__ZNK7WebCore7IntRectcv6CGRectEv
__ZN7WebCore4Page26dnsPrefetchingStateChangedEv
__ZN7WebCore4Page27storageBlockingStateChangedEv
__ZN7WebCore4Page18collectPluginViewsERN3WTF6VectorINS1_6RefPtrINS_14PluginViewBaseEEELm32ENS1_15CrashOnOverflowEEE
__ZN7WebCore4Page15addSchedulePairEN3WTF10PassRefPtrINS1_12SchedulePairEEE
__ZN3WTF9HashTableINS_6RefPtrINS_12SchedulePairEEES3_NS_17IdentityExtractorENS_16SchedulePairHashENS_10HashTraitsIS3_EES7_E3addINS_22IdentityHashTranslatorIS5_EES3_S3_EENS_18HashTableAddResultINS_17HashTableIteratorIS3_S3_S4_S5_S7_S7_EEEERKT0_RKT1_
__ZN3WTF9HashTableINS_6RefPtrINS_12SchedulePairEEES3_NS_17IdentityExtractorENS_16SchedulePairHashENS_10HashTraitsIS3_EES7_E6rehashEi
__ZN3WTF9HashTableINS_6RefPtrINS_12SchedulePairEEES3_NS_17IdentityExtractorENS_16SchedulePairHashENS_10HashTraitsIS3_EES7_E15deallocateTableEPS3_i
__ZN3WTF16SchedulePairHash4hashERKNS_6RefPtrINS_12SchedulePairEEE
__ZN3WTF6RefPtrINS_12SchedulePairEEaSERKS2_
__ZN7WebCore5Frame6createEPNS_4PageEPNS_21HTMLFrameOwnerElementEPNS_17FrameLoaderClientE
__ZN7WebCore5FrameC2EPNS_4PageEPNS_21HTMLFrameOwnerElementEPNS_17FrameLoaderClientE
__ZN7WebCore11FrameLoaderC1EPNS_5FrameEPNS_17FrameLoaderClientE
__ZN7WebCore11FrameLoaderC2EPNS_5FrameEPNS_17FrameLoaderClientE
__ZN7WebCore13PolicyCheckerC1EPNS_5FrameE
__ZN7WebCore14PolicyCallbackC1Ev
__ZN7WebCore15ResourceRequestC2Ev
__ZN7WebCore16NavigationActionC1Ev
__ZN7WebCore17HistoryControllerC1EPNS_5FrameE
__ZN7WebCore20ResourceLoadNotifierC1EPNS_5FrameE
__ZN7WebCore14SubframeLoaderC1EPNS_5FrameE
__ZN7WebCore23FrameLoaderStateMachineC1Ev
__ZN7WebCore14IconControllerC1EPNS_5FrameE
__ZN7WebCore19MixedContentCheckerC1EPNS_5FrameE
__ZN7WebCore19NavigationSchedulerC1EPNS_5FrameE
__ZN7WebCore16ScriptControllerC1EPNS_5FrameE
__ZN7WebCore6EditorC1EPNS_5FrameE
__ZN7WebCore6EditorC2EPNS_5FrameE
__ZN7WebCore24FrameDestructionObserverC2EPNS_5FrameE
__ZN7WebCore5Frame22addDestructionObserverEPNS_24FrameDestructionObserverE
__ZN3WTF9HashTableIPN7WebCore24FrameDestructionObserverES3_NS_17IdentityExtractorENS_7PtrHashIS3_EENS_10HashTraitsIS3_EES8_E3addINS_22IdentityHashTranslatorIS6_EES3_S3_EENS_18HashTableAddResultINS_17HashTableIteratorIS3_S3_S4_S6_S8_S8_EEEERKT0_RKT1_
__ZN3WTF9HashTableIPN7WebCore24FrameDestructionObserverES3_NS_17IdentityExtractorENS_7PtrHashIS3_EENS_10HashTraitsIS3_EES8_E6rehashEi
__ZN7WebCore12SpellCheckerC1EPNS_5FrameE
__ZN7WebCore25AlternativeTextControllerC1EPNS_5FrameE
__ZN7WebCore16VisibleSelectionC1Ev
__ZN7WebCore22DeleteButtonControllerC1EPNS_5FrameE
__ZN7WebCore14FrameSelectionC1EPNS_5FrameE
__ZN7WebCore14FrameSelectionC2EPNS_5FrameE
__ZNK7WebCore6Editor8behaviorEv
__ZNK7WebCore5Frame8settingsEv
__ZN7WebCore12EventHandlerC1EPNS_5FrameE
__ZN7WebCore12EventHandlerC2EPNS_5FrameE
__ZN7WebCore20AutoscrollControllerC1Ev
__ZN7WebCore19AnimationControllerC1EPNS_5FrameE
__ZNK7WebCore9FrameTree6parentEv
__ZN7WebCore9HTMLNames4initEv
__ZN7WebCore19createQualifiedNameEPvPN3WTF10StringImplERKNS1_12AtomicStringE
__ZN3WTF9HashTableIPN7WebCore13QualifiedName17QualifiedNameImplES4_NS_17IdentityExtractorENS1_17QualifiedNameHashENS1_23QualifiedNameHashTraitsES7_E16lookupForWritingINS_22IdentityHashTranslatorIS6_EES4_EENSt3__14pairIPS4_bEERKT0_
__ZN3WTF9HashTableIPN7WebCore13QualifiedName17QualifiedNameImplES4_NS_17IdentityExtractorENS1_17QualifiedNameHashENS1_23QualifiedNameHashTraitsES7_E18addPassingHashCodeINS_24HashSetTranslatorAdapterINS1_25QNameComponentsTranslatorEEENS1_23QualifiedNameComponentsESD_EENS_18HashTableAddResultINS_17HashTableIteratorIS4_S4_S5_S6_S7_S7_EEEERKT0_RKT1_
__ZN3WTF9HashTableIPN7WebCore13QualifiedName17QualifiedNameImplES4_NS_17IdentityExtractorENS1_17QualifiedNameHashENS1_23QualifiedNameHashTraitsES7_E20fullLookupForWritingINS_24HashSetTranslatorAdapterINS1_25QNameComponentsTranslatorEEENS1_23QualifiedNameComponentsEEENSt3__14pairINSF_IPS4_bEEjEERKT0_
__ZN3WTF9HashTableIPN7WebCore13QualifiedName17QualifiedNameImplES4_NS_17IdentityExtractorENS1_17QualifiedNameHashENS1_23QualifiedNameHashTraitsES7_E4findINS_22IdentityHashTranslatorIS6_EES4_EENS_17HashTableIteratorIS4_S4_S5_S6_S7_S7_EERKT0_
__ZN3WTF9HashTableIPN7WebCore13QualifiedName17QualifiedNameImplES4_NS_17IdentityExtractorENS1_17QualifiedNameHashENS1_23QualifiedNameHashTraitsES7_E6rehashEi
__ZN3WTF12StringHasher10hashMemoryILm24EEEjPKv
__ZN7WebCore25QNameComponentsTranslator9translateERPNS_13QualifiedName17QualifiedNameImplERKNS_23QualifiedNameComponentsEj
__ZN7WebCore19createQualifiedNameEPvPN3WTF10StringImplE
__ZN7WebCore13QualifiedName4initEv
__ZN7WebCore17MediaFeatureNames4initEv
__ZN7WebCore8SVGNames4initEv
__ZN7WebCore10XLinkNames4initEv
__ZN7WebCore11MathMLNames4initEv
__ZN7WebCore10XMLNSNames4initEv
__ZN7WebCore8XMLNames4initEv
__ZN7WebCore21WebKitFontFamilyNames4initEv
__ZN7WebCore4Page12setMainFrameEN3WTF10PassRefPtrINS_5FrameEEE
__ZN7WebCore9FrameTree7setNameERKN3WTF12AtomicStringE
__ZN7WebCore11FrameLoader4initEv
__ZN7WebCore4KURLC1ENS_18ParsedURLStringTagERKN3WTF6StringE
__ZN7WebCore4KURL5parseERKN3WTF6StringE
__ZN7WebCore14DocumentLoaderC1ERKNS_15ResourceRequestERKNS_14SubstituteDataE
__ZN7WebCore14DocumentLoaderC2ERKNS_15ResourceRequestERKNS_14SubstituteDataE
__ZN7WebCore20CachedResourceLoaderC1EPNS_14DocumentLoaderE
__ZN7WebCore24CachedResourceHandleBaseC2Ev
__ZN7WebCore14DocumentWriterC1EPNS_5FrameE
__ZN7WebCore19ResourceRequestBaseC2ERKS0_
__ZN7WebCore18DocumentLoadTimingC1Ev
__ZN7WebCore20ApplicationCacheHostC1EPNS_14DocumentLoaderE
__ZN7WebCore11FrameLoader23setPolicyDocumentLoaderEPNS_14DocumentLoaderE
__ZN7WebCore14DocumentLoader8setFrameEPNS_5FrameE
__ZN7WebCore14DocumentLoader13attachToFrameEv
__ZN7WebCore14SubstituteDataD2Ev
__ZN7WebCore19ResourceRequestBaseD2Ev
__ZN7WebCore14DocumentLoader24startLoadingMainResourceEv
__ZN7WebCore18DocumentLoadTiming19markNavigationStartEv
__ZN7WebCore14DocumentLoader14maybeLoadEmptyEv
__ZNK7WebCore23FrameLoaderStateMachine28creatingInitialEmptyDocumentEv
__ZN7WebCore20ResourceResponseBaseC2ERKNS_4KURLERKN3WTF6StringExS7_S7_
__ZN7WebCore20ResourceResponseBaseaSERKS0_
__ZN3WTF9HashTableINS_12AtomicStringENS_12KeyValuePairIS1_NS_6StringEEENS_24KeyValuePairKeyExtractorIS4_EENS_15CaseFoldingHashENS_18HashMapValueTraitsINS_10HashTraitsIS1_EENS9_IS3_EEEESA_E15deallocateTableEPS4_i
__ZN3WTF9HashTableINS_12AtomicStringENS_12KeyValuePairIS1_NS_6StringEEENS_24KeyValuePairKeyExtractorIS4_EENS_15CaseFoldingHashENS_18HashMapValueTraitsINS_10HashTraitsIS1_EENS9_IS3_EEEESA_E16lookupForWritingINS_22IdentityHashTranslatorIS7_EES1_EENSt3__14pairIPS4_bEERKT0_
__ZN3WTF9HashTableINS_12AtomicStringENS_12KeyValuePairIS1_NS_6StringEEENS_24KeyValuePairKeyExtractorIS4_EENS_15CaseFoldingHashENS_18HashMapValueTraitsINS_10HashTraitsIS1_EENS9_IS3_EEEESA_E34removeWithoutEntryConsistencyCheckENS_17HashTableIteratorIS1_S4_S6_S7_SC_SA_EE
__ZN3WTF9HashTableINS_12AtomicStringENS_12KeyValuePairIS1_NS_6StringEEENS_24KeyValuePairKeyExtractorIS4_EENS_15CaseFoldingHashENS_18HashMapValueTraitsINS_10HashTraitsIS1_EENS9_IS3_EEEESA_E3addINS_17HashMapTranslatorISC_S7_EES1_S3_EENS_18HashTableAddResultINS_17HashTableIteratorIS1_S4_S6_S7_SC_SA_EEEERKT0_RKT1_
__ZN3WTF9HashTableINS_12AtomicStringENS_12KeyValuePairIS1_NS_6StringEEENS_24KeyValuePairKeyExtractorIS4_EENS_15CaseFoldingHashENS_18HashMapValueTraitsINS_10HashTraitsIS1_EENS9_IS3_EEEESA_E3addINS_22IdentityHashTranslatorIS7_EES1_S4_EENS_18HashTableAddResultINS_17HashTableIteratorIS1_S4_S6_S7_SC_SA_EEEERKT0_RKT1_
__ZN3WTF9HashTableINS_12AtomicStringENS_12KeyValuePairIS1_NS_6StringEEENS_24KeyValuePairKeyExtractorIS4_EENS_15CaseFoldingHashENS_18HashMapValueTraitsINS_10HashTraitsIS1_EENS9_IS3_EEEESA_E6expandEv
__ZN3WTF9HashTableINS_12AtomicStringENS_12KeyValuePairIS1_NS_6StringEEENS_24KeyValuePairKeyExtractorIS4_EENS_15CaseFoldingHashENS_18HashMapValueTraitsINS_10HashTraitsIS1_EENS9_IS3_EEEESA_E6lookupINS_22IdentityHashTranslatorIS7_EES1_EEPS4_RKT0_
__ZN3WTF9HashTableINS_12AtomicStringENS_12KeyValuePairIS1_NS_6StringEEENS_24KeyValuePairKeyExtractorIS4_EENS_15CaseFoldingHashENS_18HashMapValueTraitsINS_10HashTraitsIS1_EENS9_IS3_EEEESA_E6lookupINS_24HashMapTranslatorAdapterISC_N7WebCore28CaseFoldingCStringTranslatorEEEPKcEEPS4_RKT0_
__ZN3WTF9HashTableINS_12AtomicStringENS_12KeyValuePairIS1_NS_6StringEEENS_24KeyValuePairKeyExtractorIS4_EENS_15CaseFoldingHashENS_18HashMapValueTraitsINS_10HashTraitsIS1_EENS9_IS3_EEEESA_E6rehashEi
__ZN3WTF9HashTableINS_12AtomicStringENS_12KeyValuePairIS1_NS_6StringEEENS_24KeyValuePairKeyExtractorIS4_EENS_15CaseFoldingHashENS_18HashMapValueTraitsINS_10HashTraitsIS1_EENS9_IS3_EEEESA_E8reinsertERS4_
__ZN3WTF9HashTableINS_12AtomicStringENS_12KeyValuePairIS1_NS_6StringEEENS_24KeyValuePairKeyExtractorIS4_EENS_15CaseFoldingHashENS_18HashMapValueTraitsINS_10HashTraitsIS1_EENS9_IS3_EEEESA_EaSERKSD_
__ZN7WebCore20ResourceResponseBaseD2Ev
__ZN7WebCore14DocumentLoader15finishedLoadingEd
__ZN7WebCore14DocumentLoader34maybeFinishLoadingMultipartContentEv
__ZN7WebCore11FrameLoader21commitProvisionalLoadEv
__ZNK7WebCore9PageCache8canCacheEPNS_4PageE
__ZNK7WebCore11FrameLoader8loadTypeEv
__ZN7WebCore11FrameLoader19closeOldDataSourcesEv
__ZN7WebCore11FrameLoader21transitionToCommittedEN3WTF10PassRefPtrINS_10CachedPageEEE
__ZN7WebCore17HistoryController15updateForCommitEv
__ZN7WebCore21isBackForwardLoadTypeENS_13FrameLoadTypeE
__ZN7WebCore11FrameLoader17setDocumentLoaderEPNS_14DocumentLoaderE
__ZN7WebCore11FrameLoader14detachChildrenEv
__ZNK7WebCore9FrameTree10childCountEv
__ZN3WTF6VectorINS_6RefPtrIN7WebCore5FrameEEELm0ENS_15CrashOnOverflowEE15reserveCapacityEm
__ZN7WebCore17HistoryController21updateForStandardLoadENS0_17HistoryUpdateTypeE
__ZNK7WebCore14DocumentLoader13urlForHistoryEv
__ZN7WebCore5Frame10createViewERKNS_7IntSizeERKNS_5ColorEbS3_RKNS_7IntRectEbNS_13ScrollbarModeEbSA_b
__ZN7WebCore5Frame7setViewEN3WTF10PassRefPtrINS_9FrameViewEEE
__ZN7WebCore12EventHandler5clearEv
__ZN7WebCore9TimerBase4stopEv
__ZN7WebCore11FrameLoader37resetMultipleFormSubmissionProtectionEv
__ZN7WebCore9FrameView6createEPNS_5FrameERKNS_7IntSizeE
__ZN7WebCore9FrameViewC2EPNS_5FrameE
__ZN7WebCore10ScrollViewC2Ev
__ZN7WebCore6WidgetC2EP6NSView
__ZN7WebCore6Widget4initEP6NSView
__ZN7WebCore14ScrollableAreaC2Ev
__ZN7WebCore20FrameActionSchedulerC1Ev
__ZN7WebCore9FrameView4initEv
__ZN7WebCore9FrameView5resetEv
__ZNK7WebCore6Widget9frameRectEv
__ZN7WebCore6Widget12setFrameRectERKNS_7IntRectE
__ZN7WebCore10ScrollView4showEv
__ZN7WebCore6Widget4showEv
__ZN7WebCore10ScrollView18setFixedLayoutSizeERKNS_7IntSizeE
__ZN7WebCore9FrameView26setFixedVisibleContentRectERKNS_7IntRectE
__ZNK7WebCore10ScrollView18visibleContentRectENS_14ScrollableArea36VisibleContentRectIncludesScrollbarsE
__ZNK7WebCore6Widget14platformWidgetEv
__ZNK7WebCore10ScrollView26unscaledVisibleContentSizeENS_14ScrollableArea36VisibleContentRectIncludesScrollbarsE
__ZNK7WebCore10ScrollView17verticalScrollbarEv
__ZNK7WebCore10ScrollView19horizontalScrollbarEv
__ZN7WebCore9FloatSizeC1ERKNS_7IntSizeE
__ZNK7WebCore9FrameView25visibleContentScaleFactorEv
__ZN7WebCore10ScrollView17setUseFixedLayoutEb
__ZN7WebCore10ScrollView17setScrollbarModesENS_13ScrollbarModeES1_bb
__ZN7WebCore9FrameView27updateBackgroundRecursivelyERKNS_5ColorEb
__ZN7WebCore9FrameView32recalculateScrollbarOverlayStyleEv
__ZNK7WebCore9FrameView23documentBackgroundColorEv
__ZNK7WebCore9FrameTree12traverseNextEPKNS_5FrameE
__ZN7WebCore10ScrollView16setParentVisibleEb
__ZN7WebCore9FrameView31setVisualUpdatesAllowedByClientEb
__ZNK7WebCore14DocumentLoader16responseMIMETypeEv
__ZNK7WebCore20ResourceResponseBase8mimeTypeEv
__ZN7WebCore14DocumentLoader7requestEv
__ZNK7WebCore14SecurityOrigin10canRequestERKNS_4KURLE
__ZN7WebCore14SecurityOriginD2Ev
__ZN7WebCore11FrameLoader10didOpenURLEv
__ZN7WebCore19NavigationScheduler27redirectScheduledDuringLoadEv
__ZN7WebCore19NavigationScheduler6cancelEb
__ZN7WebCore6Editor20clearLastEditCommandEv
__ZN7WebCore11FrameLoader7startedEv
__ZN7WebCore4Page19createActivityTokenEv
__ZN7WebCore26PageActivityAssertionTokenC1EPNS_13PageThrottlerE
__ZN7WebCore13PageThrottler16addActivityTokenEPNS_26PageActivityAssertionTokenE
__ZN3WTF9HashTableIPN7WebCore26PageActivityAssertionTokenES3_NS_17IdentityExtractorENS_7PtrHashIS3_EENS_10HashTraitsIS3_EES8_E3addINS_22IdentityHashTranslatorIS6_EES3_S3_EENS_18HashTableAddResultINS_17HashTableIteratorIS3_S3_S4_S6_S8_S8_EEEERKT0_RKT1_
__ZN7WebCore14DocumentLoader18maybeCreateArchiveEv
__ZNK7WebCore14DocumentLoader16mainResourceDataEv
__ZN7WebCore14ArchiveFactory6createERKNS_4KURLEPNS_12SharedBufferERKN3WTF6StringE
__ZN7WebCore14DocumentLoader10commitDataEPKcm
__ZNK7WebCore14DocumentLoader11documentURLEv
__ZN7WebCore14DocumentWriter5beginERKNS_4KURLEbPNS_8DocumentE
__ZN7WebCore14DocumentWriter14createDocumentERKNS_4KURLE
__ZNK7WebCore23FrameLoaderStateMachine32isDisplayingInitialEmptyDocumentEv
__ZN7WebCore17DOMImplementation14createDocumentERKN3WTF6StringEPNS_5FrameERKNS_4KURLEb
__ZN7WebCore12HTMLDocumentC1EPNS_5FrameERKNS_4KURLEh
__ZN7WebCore8DocumentC2EPNS_5FrameERKNS_4KURLEj
__ZN7WebCore9TreeScopeC1Ev
__ZN7WebCore9TreeScopeC2EPNS_8DocumentE
__ZN7WebCore24IdTargetObserverRegistry6createEv
__ZN3WTF10PassOwnPtrIN7WebCore24IdTargetObserverRegistryEED2Ev
__ZN7WebCore22ScriptExecutionContextC2Ev
__ZN7WebCore15SecurityContextC2Ev
__ZN7WebCore15ContextFeatures13defaultSwitchEv
__ZN7WebCore20UserActionElementSetC1Ev
__ZN7WebCore28DocumentStyleSheetCollectionC1EPNS_8DocumentE
__ZN7WebCore16VisitedLinkState6createEPNS_8DocumentE
__ZN7WebCore12ScriptRunnerC1EPNS_8DocumentE
__ZN7WebCore18DocumentEventQueue6createEPNS_22ScriptExecutionContextE
__ZN7WebCore16SuspendableTimerC2EPNS_22ScriptExecutionContextE
__ZN7WebCore15ActiveDOMObjectC2EPNS_22ScriptExecutionContextE
__ZN7WebCore26ContextDestructionObserverC2EPNS_22ScriptExecutionContextE
__ZN7WebCore22ScriptExecutionContext28didCreateDestructionObserverEPNS_26ContextDestructionObserverE
__ZN3WTF9HashTableIPN7WebCore26ContextDestructionObserverES3_NS_17IdentityExtractorENS_7PtrHashIS3_EENS_10HashTraitsIS3_EES8_E3addINS_22IdentityHashTranslatorIS6_EES3_S3_EENS_18HashTableAddResultINS_17HashTableIteratorIS3_S3_S4_S6_S8_S8_EEEERKT0_RKT1_
__ZN7WebCore22ScriptExecutionContext24didCreateActiveDOMObjectEPNS_15ActiveDOMObjectE
__ZN3WTF9HashTableIPN7WebCore15ActiveDOMObjectES3_NS_17IdentityExtractorENS_7PtrHashIS3_EENS_10HashTraitsIS3_EES8_E3addINS_22IdentityHashTranslatorIS6_EES3_S3_EENS_18HashTableAddResultINS_17HashTableIteratorIS3_S3_S4_S6_S8_S8_EEEERKT0_RKT1_
__ZN3WTF9HashTableIPN7WebCore15ActiveDOMObjectES3_NS_17IdentityExtractorENS_7PtrHashIS3_EENS_10HashTraitsIS3_EES8_E6rehashEi
__ZN7WebCore15ActiveDOMObject15suspendIfNeededEv
__ZN7WebCore22ScriptExecutionContext30suspendActiveDOMObjectIfNeededEPNS_15ActiveDOMObjectE
__ZN7WebCore36provideContextFeaturesToDocumentFromEPNS_8DocumentEPNS_4PageE
__ZN3WTF9HashTableIPKcNS_12KeyValuePairIS2_NS_6OwnPtrIN7WebCore10SupplementINS5_4PageEEEEEEENS_24KeyValuePairKeyExtractorISA_EENS_7PtrHashIS2_EENS_18HashMapValueTraitsINS_10HashTraitsIS2_EENSG_IS9_EEEESH_E16lookupForWritingINS_22IdentityHashTranslatorISE_EES2_EENSt3__14pairIPSA_bEERKT0_
__ZN3WTF9HashTableIPKcNS_12KeyValuePairIS2_NS_6OwnPtrIN7WebCore10SupplementINS5_4PageEEEEEEENS_24KeyValuePairKeyExtractorISA_EENS_7PtrHashIS2_EENS_18HashMapValueTraitsINS_10HashTraitsIS2_EENSG_IS9_EEEESH_E3addINS_17HashMapTranslatorISJ_SE_EES2_NS_10PassOwnPtrIS8_EEEENS_18HashTableAddResultINS_17HashTableIteratorIS2_SA_SC_SE_SJ_SH_EEEERKT0_RKT1_
__ZN3WTF9HashTableIPKcNS_12KeyValuePairIS2_NS_6OwnPtrIN7WebCore10SupplementINS5_4PageEEEEEEENS_24KeyValuePairKeyExtractorISA_EENS_7PtrHashIS2_EENS_18HashMapValueTraitsINS_10HashTraitsIS2_EENSG_IS9_EEEESH_E6lookupINS_22IdentityHashTranslatorISE_EES2_EEPSA_RKT0_
__ZN3WTF9HashTableIPKcNS_12KeyValuePairIS2_NS_6OwnPtrIN7WebCore10SupplementINS5_4PageEEEEEEENS_24KeyValuePairKeyExtractorISA_EENS_7PtrHashIS2_EENS_18HashMapValueTraitsINS_10HashTraitsIS2_EENSG_IS9_EEEESH_E6rehashEi
__ZN7WebCore24DocumentMarkerControllerC1Ev
__ZNK7WebCore11FrameLoader20activeDocumentLoaderEv
__ZN7WebCore7makeRGBEiii
__ZN7WebCore5Color13setNamedColorERKN3WTF6StringE
__ZN7WebCore9findColorEPKcj
__ZN7WebCore13ColorDataHash23colordata_hash_functionEPKcj
__ZN7WebCore8Document19initSecurityContextEv
__ZNK7WebCore11FrameLoader21effectiveSandboxFlagsEv
__ZN7WebCore15SecurityContext19enforceSandboxFlagsEi
__ZN7WebCore15SecurityContext17setSecurityOriginEN3WTF10PassRefPtrINS_14SecurityOriginEEE
__ZN7WebCore21ContentSecurityPolicyC1EPNS_22ScriptExecutionContextE
__ZN7WebCore15SecurityContext24setContentSecurityPolicyEN3WTF10PassOwnPtrINS_21ContentSecurityPolicyEEE
__ZNK7WebCore14SecurityOrigin7isLocalEv
__ZN7WebCore11FrameLoader6openerEv
__ZN7WebCore8Document15initDNSPrefetchEv
__ZN7WebCore8Document15createDOMWindowEv
__ZN7WebCore9DOMWindowC1EPNS_8DocumentE
__ZN7WebCore15EventTargetDataC1Ev
__ZN7WebCore16EventListenerMapC1Ev
__ZN7WebCore11FrameLoader5clearEPNS_8DocumentEbbb
__ZN7WebCore6Editor5clearEv
__ZN7WebCore14DocumentWriter5clearEv
__ZN7WebCore16ScriptController27updatePlatformScriptObjectsEv
__ZN7WebCore11FrameLoader19setOutgoingReferrerERKNS_4KURLE
__ZNK7WebCore4KURL24strippedForUseAsReferrerEv
__ZN7WebCore4KURL7setUserERKN3WTF6StringE
__ZN7WebCore4KURL7setPassERKN3WTF6StringE
__ZN7WebCore5Frame11setDocumentEN3WTF10PassRefPtrINS_8DocumentEEE
__ZN7WebCore8Document6attachERKNS_4Node13AttachContextE
__ZN7WebCore11RenderArenaC1Ej
__ZN7WebCore13InitArenaPoolEPNS_9ArenaPoolEPKcjj
__ZN7WebCore12RenderObjectnwEmPNS_11RenderArenaE
__ZN7WebCore11RenderArena8allocateEm
__ZN7WebCore13ArenaAllocateEPNS_9ArenaPoolEjRj
__ZN7WebCore10RenderViewC1EPNS_8DocumentE
__ZN7WebCore11RenderBlockC2EPNS_13ContainerNodeE
__ZN7WebCore9RenderBoxC2EPNS_13ContainerNodeE
__ZN7WebCore20RenderBoxModelObjectC2EPNS_13ContainerNodeE
__ZN7WebCore22RenderLayerModelObjectC2EPNS_13ContainerNodeE
__ZN7WebCore12RenderObjectC2EPNS_4NodeE
__ZNK7WebCore8Document4viewEv
__ZN7WebCore12RenderObject30setPreferredLogicalWidthsDirtyEbNS_15MarkingBehaviorE
__ZN7WebCore10RenderView13setIsInWindowEb
__ZN7WebCore8Document11recalcStyleENS_4Node11StyleChangeE
__ZNK7WebCore9FrameView10isPaintingEv
__ZN7WebCore30InspectorInstrumentationCookieC1Ev
__ZN7WebCore13ContainerNode26suspendPostAttachCallbacksEv
__ZNK7WebCore8Document4pageEv
__ZN7WebCore4Page32setMemoryCacheClientCallsEnabledEb
__ZN7WebCore21resourceLoadSchedulerEv
__ZN7WebCore21ResourceLoadScheduler22suspendPendingRequestsEv
__ZN7WebCore9FrameView20pauseScheduledEventsEv
__ZN7WebCore20FrameActionScheduler5pauseEv
__ZN7WebCore9FrameView21beginDeferredRepaintsEv
__ZN7WebCore13StyleResolver16styleForDocumentEPNS_8DocumentEPNS_15CSSFontSelectorE
__ZN7WebCore11RenderStyle6createEv
__ZN7WebCore11RenderStyle18createDefaultStyleEv
__ZN7WebCore12StyleBoxDataC1Ev
__ZN7WebCore15StyleVisualDataC1Ev
__ZN7WebCore19StyleBackgroundDataC1Ev
__ZN7WebCore9FillLayerC1ENS_14EFillLayerTypeE
__ZN7WebCore17StyleSurroundDataC1Ev
__ZN7WebCore10BorderDataC2Ev
__ZN7WebCore14NinePieceImageC1Ev
__ZN7WebCore14NinePieceImageC2Ev
__ZN7WebCore18NinePieceImageDataC2Ev
__ZN7WebCore25StyleRareNonInheritedDataC1Ev
__ZN7WebCore25StyleRareNonInheritedDataC2Ev
__ZN7WebCore11RenderStyle18initialShapeInsideEv
__ZN7WebCore14NinePieceImage15setMaskDefaultsEv
__ZN7WebCore18NinePieceImageDataC1ERKS0_
__ZN7WebCore18NinePieceImageDataC2ERKS0_
__ZN7WebCore30StyleDeprecatedFlexibleBoxDataC1Ev
__ZN7WebCore20StyleFlexibleBoxDataC1Ev
__ZN7WebCore16StyleMarqueeDataC1Ev
__ZN7WebCore17StyleMultiColDataC1Ev
__ZN7WebCore7DataRefINS_18StyleTransformDataEE4initEv
__ZN7WebCore18StyleTransformDataC1Ev
__ZN7WebCore19TransformOperationsC1Eb
__ZN7WebCore19TransformOperationsC2Eb
__ZN3WTF6VectorINS_6RefPtrIN7WebCore18TransformOperationEEELm0ENS_15CrashOnOverflowEEC2ERKS6_
__ZN3WTF6RefPtrIN7WebCore18StyleTransformDataEEaSERKNS_10PassRefPtrIS2_EE
__ZN7WebCore7DataRefINS_15StyleFilterDataEE4initEv
__ZN7WebCore15StyleFilterDataC1Ev
__ZN7WebCore16FilterOperationsC1Ev
__ZN3WTF6RefPtrIN7WebCore15StyleFilterDataEEaSERKNS_10PassRefPtrIS2_EE
__ZN7WebCore7DataRefINS_13StyleGridDataEE4initEv
__ZN7WebCore13StyleGridDataC1Ev
__ZN3WTF6RefPtrIN7WebCore13StyleGridDataEEaSERKNS_10PassRefPtrIS2_EE
__ZN7WebCore17StyleGridItemDataC1Ev
__ZN7WebCore22StyleRareInheritedDataC1Ev
__ZN7WebCore18StyleInheritedDataC1Ev
__ZN7WebCore14SVGRenderStyleC1Ev
__ZN7WebCore14SVGRenderStyleC2Ev
__ZN7WebCore14SVGRenderStyleC2ENS0_17CreateDefaultTypeE
__ZN7WebCore7DataRefINS_13StyleFillDataEE4initEv
__ZN7WebCore13StyleFillDataC1Ev
__ZN3WTF6RefPtrIN7WebCore13StyleFillDataEEaSERKNS_10PassRefPtrIS2_EE
__ZN7WebCore7DataRefINS_15StyleStrokeDataEE4initEv
__ZN7WebCore15StyleStrokeDataC1Ev
__ZN7WebCore15StyleStrokeDataC2Ev
__ZN7WebCore9SVGLengthC1ENS_13SVGLengthModeERKN3WTF6StringE
__ZN7WebCore9SVGLength16setValueAsStringERKN3WTF6StringERi
__ZN7WebCore9SVGLength22newValueSpecifiedUnitsEtfRi
__ZN3WTF6RefPtrIN7WebCore15StyleStrokeDataEEaSERKNS_10PassRefPtrIS2_EE
__ZN7WebCore13StyleTextDataC1Ev
__ZN7WebCore13StyleStopDataC1Ev
__ZN7WebCore13StyleMiscDataC1Ev
__ZN7WebCore13StyleMiscDataC2Ev
__ZN7WebCore7DataRefINS_18StyleShadowSVGDataEE4initEv
__ZN7WebCore18StyleShadowSVGDataC1Ev
__ZN7WebCore7DataRefINS_26StyleInheritedResourceDataEE4initEv
__ZN7WebCore26StyleInheritedResourceDataC1Ev
__ZN3WTF6RefPtrIN7WebCore26StyleInheritedResourceDataEEaSERKNS_10PassRefPtrIS2_EE
__ZN7WebCore7DataRefINS_17StyleResourceDataEE4initEv
__ZN7WebCore17StyleResourceDataC1Ev
__ZN3WTF6RefPtrIN7WebCore17StyleResourceDataEEaSERKNS_10PassRefPtrIS2_EE
__ZN3WTF6RefPtrIN7WebCore13StyleFillDataEEaSERKS3_
__ZN3WTF6RefPtrIN7WebCore15StyleStrokeDataEEaSERKS3_
__ZN3WTF6RefPtrIN7WebCore26StyleInheritedResourceDataEEaSERKS3_
__ZN3WTF6RefPtrIN7WebCore17StyleResourceDataEEaSERKS3_
__ZNK7WebCore8Document33shouldDisplaySeamlesslyWithParentEv
__ZNK7WebCore5Frame16frameScaleFactorEv
__ZN7WebCore11RenderStyle21setPageScaleTransformEf
__ZN7WebCore11RenderStyle9setLocaleERKN3WTF12AtomicStringE
__ZNK7WebCore8Document12inDesignModeEv
__ZN7WebCore11RenderStyle13setUserModifyENS_11EUserModifyE
__ZNK7WebCore9FrameView10paginationEv
__ZN7WebCore34localeToScriptCodeForFontSelectionERKN3WTF6StringE
__ZN3WTF9HashTableINS_6StringENS_12KeyValuePairIS1_11UScriptCodeEENS_24KeyValuePairKeyExtractorIS4_EENS_10StringHashENS_18HashMapValueTraitsINS_10HashTraitsIS1_EENS9_IS3_EEEESA_E16lookupForWritingINS_22IdentityHashTranslatorIS7_EES1_EENSt3__14pairIPS4_bEERKT0_
__ZN3WTF9HashTableINS_6StringENS_12KeyValuePairIS1_11UScriptCodeEENS_24KeyValuePairKeyExtractorIS4_EENS_10StringHashENS_18HashMapValueTraitsINS_10HashTraitsIS1_EENS9_IS3_EEEESA_E3addINS_17HashMapTranslatorISC_S7_EES1_S3_EENS_18HashTableAddResultINS_17HashTableIteratorIS1_S4_S6_S7_SC_SA_EEEERKT0_RKT1_
__ZN3WTF9HashTableINS_6StringENS_12KeyValuePairIS1_11UScriptCodeEENS_24KeyValuePairKeyExtractorIS4_EENS_10StringHashENS_18HashMapValueTraitsINS_10HashTraitsIS1_EENS9_IS3_EEEESA_E6lookupINS_22IdentityHashTranslatorIS7_EES1_EEPS4_RKT0_
__ZN3WTF9HashTableINS_6StringENS_12KeyValuePairIS1_11UScriptCodeEENS_24KeyValuePairKeyExtractorIS4_EENS_10StringHashENS_18HashMapValueTraitsINS_10HashTraitsIS1_EENS9_IS3_EEEESA_E6rehashEi
__ZN3WTF6String7replaceEtt
__ZNK7WebCore8Document8settingsEv
__ZNK7WebCore8Settings17fontRenderingModeEv
__ZNK7WebCore8Settings18standardFontFamilyE11UScriptCode
__ZNK7WebCore19FontGenericFamilies18standardFontFamilyE11UScriptCode
__ZN7WebCoreL26genericFontFamilyForScriptERKN3WTF7HashMapIiNS0_12AtomicStringENS0_7IntHashIjEENS_21UScriptCodeHashTraitsENS0_10HashTraitsIS2_EEEE11UScriptCode
__ZN7WebCore11RenderStyle18setFontDescriptionERKNS_15FontDescriptionE
__ZN7WebCore18StyleInheritedDataC1ERKS0_
__ZN7WebCore4FontC1ERKS0_
__ZN7WebCore4FontC2ERKS0_
__ZN3WTF6VectorINS_12AtomicStringELm1ENS_15CrashOnOverflowEEC2ERKS3_
__ZN7WebCore4FontC1ERKNS_15FontDescriptionEss
__ZN7WebCore4FontC2ERKNS_15FontDescriptionEss
__ZNK3WTF9HashTableINS_12AtomicStringENS_12KeyValuePairIS1_N7WebCore14FontTranscoder13ConverterTypeEEENS_24KeyValuePairKeyExtractorIS6_EENS_16AtomicStringHashENS_18HashMapValueTraitsINS_10HashTraitsIS1_EENSB_IS5_EEEESC_E4findINS_22IdentityHashTranslatorIS9_EES1_EENS_22HashTableConstIteratorIS1_S6_S8_S9_SE_SC_EERKT0_
__ZN7WebCore15FontDescriptionD2Ev
__ZNK7WebCore11RenderStyle4fontEv
__ZNK7WebCore4Font6updateEN3WTF10PassRefPtrINS_12FontSelectorEEE
__ZN3WTF12StringHasher10hashMemoryEPKvj
__ZN3WTF14deleteOwnedPtrIN7WebCore20FontGlyphsCacheEntryEEEvPT_
__ZN7WebCore10FontGlyphsC1EN3WTF10PassRefPtrINS_12FontSelectorEEE
__ZN3WTF6VectorINS_12AtomicStringELm3ENS_15CrashOnOverflowEEaSERKS3_
__ZN7WebCore4Node4diffEPKNS_11RenderStyleES3_PNS_8DocumentE
__ZNK7WebCore11RenderStyle14hasPseudoStyleENS_8PseudoIdE
__ZN7WebCore12RenderObject8setStyleEN3WTF10PassRefPtrINS_11RenderStyleEEE
__ZNK7WebCore12RenderObject21adjustStyleDifferenceENS_15StyleDifferenceEj
__ZN7WebCore11RenderBlock15styleWillChangeENS_15StyleDifferenceEPKNS_11RenderStyleE
__ZN7WebCore9RenderBox15styleWillChangeENS_15StyleDifferenceEPKNS_11RenderStyleE
__ZNK7WebCore12RenderObject6isBodyEv
__ZN7WebCore22RenderLayerModelObject15styleWillChangeENS_15StyleDifferenceEPKNS_11RenderStyleE
__ZN7WebCore12RenderObject15styleWillChangeENS_15StyleDifferenceEPKNS_11RenderStyleE
__ZN7WebCore10RenderView14styleDidChangeENS_15StyleDifferenceEPKNS_11RenderStyleE
__ZN7WebCore11RenderBlock14styleDidChangeENS_15StyleDifferenceEPKNS_11RenderStyleE
__ZN7WebCore9RenderBox14styleDidChangeENS_15StyleDifferenceEPKNS_11RenderStyleE
__ZN7WebCore22RenderLayerModelObject14styleDidChangeENS_15StyleDifferenceEPKNS_11RenderStyleE
__ZN7WebCore12RenderObject14styleDidChangeENS_15StyleDifferenceEPKNS_11RenderStyleE
__ZN7WebCore16SVGRenderSupport12styleChangedEPNS_12RenderObjectE
__ZNK7WebCore12RenderObject10isSVGShapeEv
__ZNK7WebCore12RenderObject10isSVGImageEv
__ZNK7WebCore12RenderObject14isSVGContainerEv
__ZNK7WebCore12RenderObject9isSVGRootEv
__ZN7WebCore9RenderBox15updateFromStyleEv
__ZN7WebCore20RenderBoxModelObject15updateFromStyleEv
__ZNK7WebCore11RenderStyle21visitedDependentColorEi
__ZNK7WebCore11RenderStyle22colorIncludingFallbackEib
__ZNK7WebCore10RenderView12isRenderViewEv
__ZNK7WebCore10RenderView13requiresLayerEv
__ZN7WebCore11RenderLayernwEmPNS_11RenderArenaE
__ZN7WebCore11RenderLayerC1EPNS_22RenderLayerModelObjectE
__ZN7WebCore11RenderLayerC2EPNS_22RenderLayerModelObjectE
__ZNK7WebCore11RenderLayer22shouldBeNormalFlowOnlyEv
__ZNK7WebCore12RenderObject8isCanvasEv
__ZNK7WebCore12RenderObject7isVideoEv
__ZNK7WebCore12RenderObject16isEmbeddedObjectEv
__ZNK7WebCore12RenderObject14isRenderIFrameEv
__ZNK7WebCore11RenderLayer25shouldBeSelfPaintingLayerEv
__ZNK7WebCore11RenderBlock15virtualChildrenEv
__ZN7WebCore11RenderLayer19insertOnlyThisLayerEv
__ZN7WebCore11RenderLayer34clearClipRectsIncludingDescendantsENS_13ClipRectsTypeE
__ZN7WebCore11RenderLayer12styleChangedENS_15StyleDifferenceEPKNS_11RenderStyleE
__ZN7WebCore11RenderLayer32updateScrollbarsAfterStyleChangeEPKNS_11RenderStyleE
__ZNK7WebCore11RenderLayer19horizontalScrollbarEv
__ZNK7WebCore11RenderLayer17verticalScrollbarEv
__ZN7WebCore11RenderLayer25setHasHorizontalScrollbarEb
__ZN7WebCore11RenderLayer23setHasVerticalScrollbarEb
__ZN7WebCore11RenderLayer38updateStackingContextsAfterStyleChangeEPKNS_11RenderStyleE
__ZN7WebCore11RenderLayer25updateOutOfFlowPositionedEPKNS_11RenderStyleE
__ZN7WebCore11RenderLayer23updateScrollCornerStyleEv
__ZNK7WebCore4Node20containingShadowRootEv
__ZN7WebCore11RenderLayer18updateResizerStyleEv
__ZN7WebCore11RenderLayer30updateDescendantDependentFlagsEPN3WTF7HashSetIPKNS_12RenderObjectENS1_7PtrHashIS5_EENS1_10HashTraitsIS5_EEEE
__ZN7WebCore11RenderLayer30updateNeedsCompositedScrollingEv
__ZNK7WebCore9FrameView22containsScrollableAreaEPNS_14ScrollableAreaE
__ZN7WebCore11RenderLayer15updateTransformEv
__ZN7WebCore11RenderLayer27updateOrRemoveFilterClientsEv
__ZN7WebCore10RenderView10compositorEv
__ZN7WebCore21RenderLayerCompositorC1EPNS_10RenderViewE
__ZN7WebCore21RenderLayerCompositor27updateLayerCompositingStateEPNS_11RenderLayerENS0_24CompositingChangeRepaintE
__ZN7WebCore21RenderLayerCompositor13updateBackingEPNS_11RenderLayerENS0_24CompositingChangeRepaintE
__ZNK7WebCore21RenderLayerCompositor24requiresCompositingLayerEPKNS_11RenderLayerEPNS1_38ViewportConstrainedNotCompositedReasonE
__ZNK7WebCore12RenderObject9isReplicaEv
__ZNK7WebCore21RenderLayerCompositor28requiresCompositingForPluginEPNS_12RenderObjectE
__ZNK7WebCore21RenderLayerCompositor27requiresCompositingForFrameEPNS_12RenderObjectE
__ZNK7WebCore12RenderObject12isRenderPartEv
__ZNK7WebCore21RenderLayerCompositor31requiresCompositingForAnimationEPNS_12RenderObjectE
__ZNK7WebCore12RenderObject9animationEv
__ZNK7WebCore19AnimationController28isRunningAnimationOnRendererEPNS_12RenderObjectENS_13CSSPropertyIDEb
__ZN3WTF9HashTableIPN7WebCore12RenderObjectENS_12KeyValuePairIS3_NS_6RefPtrINS1_18CompositeAnimationEEEEENS_24KeyValuePairKeyExtractorIS8_EENS_7PtrHashIS3_EENS_18HashMapValueTraitsINS_10HashTraitsIS3_EENSE_IS7_EEEESF_E16lookupForWritingINS_22IdentityHashTranslatorISC_EES3_EENSt3__14pairIPS8_bEERKT0_
__ZN3WTF9HashTableIPN7WebCore12RenderObjectENS_12KeyValuePairIS3_NS_6RefPtrINS1_18CompositeAnimationEEEEENS_24KeyValuePairKeyExtractorIS8_EENS_7PtrHashIS3_EENS_18HashMapValueTraitsINS_10HashTraitsIS3_EENSE_IS7_EEEESF_E3addINS_17HashMapTranslatorISH_SC_EES3_NS_10PassRefPtrIS6_EEEENS_18HashTableAddResultINS_17HashTableIteratorIS3_S8_SA_SC_SH_SF_EEEERKT0_RKT1_
__ZN3WTF9HashTableIPN7WebCore12RenderObjectENS_12KeyValuePairIS3_NS_6RefPtrINS1_18CompositeAnimationEEEEENS_24KeyValuePairKeyExtractorIS8_EENS_7PtrHashIS3_EENS_18HashMapValueTraitsINS_10HashTraitsIS3_EENSE_IS7_EEEESF_E6lookupINS_22IdentityHashTranslatorISC_EES3_EEPS8_RKT0_
__ZN3WTF9HashTableIPN7WebCore12RenderObjectENS_12KeyValuePairIS3_NS_6RefPtrINS1_18CompositeAnimationEEEEENS_24KeyValuePairKeyExtractorIS8_EENS_7PtrHashIS3_EENS_18HashMapValueTraitsINS_10HashTraitsIS3_EENSE_IS7_EEEESF_E6rehashEi
__ZN3WTF9HashTableIPN7WebCore12RenderObjectENS_12KeyValuePairIS3_NS_6RefPtrINS1_18CompositeAnimationEEEEENS_24KeyValuePairKeyExtractorIS8_EENS_7PtrHashIS3_EENS_18HashMapValueTraitsINS_10HashTraitsIS3_EENSE_IS7_EEEESF_E6removeEPS8_
__ZNK7WebCore21RenderLayerCompositor30requiresCompositingForPositionEPNS_12RenderObjectEPKNS_11RenderLayerEPNS3_38ViewportConstrainedNotCompositedReasonE
__ZNK7WebCore11RenderLayer24needsCompositedScrollingEv
__ZNK7WebCore11RenderLayer36needsCompositingLayersRebuiltForClipEPKNS_11RenderStyleES3_
__ZN7WebCore11RenderLayer34updateOrRemoveFilterEffectRendererEv
__ZNK7WebCore16FilterOperations18hasReferenceFilterEv
__ZN7WebCore11RenderBlock28hasPercentHeightContainerMapEv
__ZN7WebCore11RenderBlock37updateShapeInsideInfoAfterStyleChangeEPKNS_10ShapeValueES3_
__ZNK7WebCore11RenderBlock24blockElementContinuationEv
__ZNK7WebCore20RenderBoxModelObject12continuationEv
__ZN7WebCore12RenderObject33propagateStyleToAnonymousChildrenEb
__ZNK7WebCore11RenderBlock12avoidsFloatsEv
__ZNK7WebCore9RenderBox12avoidsFloatsEv
__ZNK7WebCore12RenderObject4isHREv
__ZNK7WebCore12RenderObject8isLegendEv
__ZN7WebCore9FrameView39updateCompositingLayersAfterStyleChangeEv
__ZNK7WebCore5Frame15contentRendererEv
__ZN7WebCore21RenderLayerCompositor32cacheAcceleratedCompositingFlagsEv
__ZN7WebCore21RenderLayerCompositor23updateCompositingLayersENS_21CompositingUpdateTypeEPNS_11RenderLayerE
__ZN7WebCore9FrameView21resumeScheduledEventsEv
__ZN7WebCore20FrameActionScheduler6resumeEv
__ZN7WebCore9FrameView19endDeferredRepaintsEv
__ZN7WebCore9FrameView18doDeferredRepaintsEv
__ZNK7WebCore10ScrollView11isOffscreenEv
__ZNK7WebCore9FrameTree3topEv
__ZNK7WebCore11FrameLoader10isCompleteEv
__ZN7WebCore37WidgetHierarchyUpdatesSuspensionScope11moveWidgetsEv
__ZN7WebCore13ContainerNode25resumePostAttachCallbacksEv
__ZN7WebCore11FrameLoader35tellClientAboutPastMemoryCacheLoadsEv
__ZN7WebCore21ResourceLoadScheduler21resumePendingRequestsEv
__ZN7WebCore30InspectorInstrumentationCookieD1Ev
__ZN7WebCore13ContainerNode6attachERKNS_4Node13AttachContextE
__ZN7WebCore4Node6attachERKNS0_13AttachContextE
__ZNK7WebCore8Document13axObjectCacheEv
__ZN7WebCore16ScriptController14updateDocumentEv
__ZN7WebCore8Document23updateViewportArgumentsEv
__ZNK7WebCore6Chrome35dispatchViewportPropertiesDidChangeERKNS_17ViewportArgumentsE
__ZN7WebCore11FrameLoader16didBeginDocumentEb
__ZN7WebCore8Document13setReadyStateENS0_10ReadyStateE
__ZN7WebCore5EventC1ERKN3WTF12AtomicStringEbb
__ZN7WebCore4Node13dispatchEventEN3WTF10PassRefPtrINS_5EventEEE
__ZNK7WebCore5Event12isMouseEventEv
__ZN7WebCore21EventDispatchMediator6createEN3WTF10PassRefPtrINS_5EventEEE
__ZN7WebCore15EventDispatcher13dispatchEventEPNS_4NodeEN3WTF10PassRefPtrINS_21EventDispatchMediatorEEE
__ZN7WebCore15EventDispatcherC2EPNS_4NodeEN3WTF10PassRefPtrINS_5EventEEE
__ZN7WebCore15EventRetargeter18calculateEventPathEPNS_4NodeEPNS_5EventERN3WTF6VectorINS5_6OwnPtrINS_12EventContextEEELm32ENS5_15CrashOnOverflowEEE
__ZNK7WebCore5Event12isFocusEventEv
__ZN7WebCore15EventPathWalkerC1EPKNS_4NodeE
__ZN7WebCore4Node14refEventTargetEv
__ZN7WebCore12EventContextC1EN3WTF10PassRefPtrINS_4NodeEEENS2_INS_11EventTargetEEES6_
__ZN7WebCore15EventPathWalker12moveToParentEv
__ZNK7WebCore21EventDispatchMediator13dispatchEventEPNS_15EventDispatcherE
__ZN7WebCore15EventDispatcher8dispatchEv
__ZN7WebCore5Event9setTargetEN3WTF10PassRefPtrINS_11EventTargetEEE
__ZN7WebCore5Event14receivedTargetEv
__ZN7WebCore18WindowEventContextC1EPNS_5EventEN3WTF10PassRefPtrINS_4NodeEEEPKNS_12EventContextE
__ZN7WebCore18WindowEventContextC2EPNS_5EventEN3WTF10PassRefPtrINS_4NodeEEEPKNS_12EventContextE
__ZN7WebCore18WindowEventContext17handleLocalEventsEPNS_5EventE
__ZN7WebCore4Node16derefEventTargetEv
__ZN7WebCore11EventTarget18fireEventListenersEPNS_5EventE
__ZN7WebCore9DOMWindow15eventTargetDataEv
__ZN7WebCore16EventListenerMap4findERKN3WTF12AtomicStringE
__ZNK7WebCore12EventContext17handleLocalEventsEPNS_5EventE
__ZN7WebCore4Node17handleLocalEventsEPNS_5EventE
__ZN7WebCore15EventDispatcher23dispatchEventAtBubblingERNS_18WindowEventContextE
__ZN7WebCore15EventDispatcher24dispatchEventPostProcessEPv
__ZN7WebCore4Node24postDispatchEventHandlerEPNS_5EventEPv
__ZN7WebCore4Node19defaultEventHandlerEPNS_5EventE
__ZN7WebCore15EventDispatcherD2Ev
__ZN7WebCore12EventContextD0Ev
__ZN7WebCore21EventDispatchMediatorD0Ev
__ZN7WebCore5EventD0Ev
__ZN7WebCore5EventD2Ev
__ZN7WebCore11FrameLoader26updateFirstPartyForCookiesEv
__ZN7WebCore8Document25initContentSecurityPolicyEv
__ZN7WebCore20CachedResourceLoader16setImagesEnabledEb
__ZN7WebCore20CachedResourceLoader17setAutoLoadImagesEb
__ZNK7WebCore20ResourceResponseBase15httpHeaderFieldEPKc
__ZNK7WebCore13HTTPHeaderMap3getEPKc
__ZN7WebCore17HistoryController20restoreDocumentStateEv
__ZN7WebCore8Document12implicitOpenEv
__ZN7WebCore8Document13cancelParsingEv
__ZN7WebCore13ContainerNode14removeChildrenEv
__ZN7WebCore8Document20setCompatibilityModeENS0_17CompatibilityModeE
__ZN7WebCore12HTMLDocument12createParserEv
__ZN7WebCore18HTMLDocumentParserC1EPNS_12HTMLDocumentEb
__ZN7WebCore18HTMLDocumentParserC2EPNS_12HTMLDocumentEb
__ZN7WebCore24ScriptableDocumentParserC2EPNS_8DocumentENS_19ParserContentPolicyE
__ZN7WebCore25DecodedDataDocumentParserC2EPNS_8DocumentE
__ZN7WebCore14DocumentParserC2EPNS_8DocumentE
__ZN7WebCore17HTMLParserOptionsC1EPNS_8DocumentE
__ZN7WebCore17HTMLParserOptionsC2EPNS_8DocumentE
__ZN7WebCore16ScriptController17canExecuteScriptsENS_33ReasonForCallingCanExecuteScriptsE
__ZN7WebCore14SubframeLoader12allowPluginsENS_28ReasonForCallingAllowPluginsE
__ZN3WTF10PassOwnPtrIN7WebCore9HTMLTokenEED2Ev
__ZN7WebCore13HTMLTokenizerC1ERKNS_17HTMLParserOptionsE
__ZN7WebCore16HTMLScriptRunnerC1EPNS_8DocumentEPNS_20HTMLScriptRunnerHostE
__ZN7WebCore15HTMLTreeBuilderC1EPNS_18HTMLDocumentParserEPNS_12HTMLDocumentENS_19ParserContentPolicyEbRKNS_17HTMLParserOptionsE
__ZN7WebCore20HTMLConstructionSiteC1EPNS_8DocumentENS_19ParserContentPolicyEj
__ZN7WebCore16HTMLElementStackC1Ev
__ZN7WebCore25HTMLFormattingElementListC1Ev
__ZN7WebCore19HTMLParserSchedulerC1EPNS_18HTMLDocumentParserE
__ZN7WebCore17HTMLSourceTrackerC1Ev
__ZN7WebCore10XSSAuditorC1Ev
__ZN7WebCore18XSSAuditorDelegateC1EPNS_8DocumentE
__ZN7WebCore8Document10setParsingEb
__ZN7WebCore24DocumentSharedObjectPoolC1Ev
__ZN7WebCore9FrameView15setContentsSizeERKNS_7IntSizeE
__ZNK7WebCore10ScrollView12contentsSizeEv
__ZN7WebCore14DocumentWriter38setDocumentWasLoadedAsPartOfNavigationEv
__ZN7WebCore14SecurityPolicy32allowSubstituteDataAccessToLocalEv
__ZN7WebCore14DocumentWriter3endEv
__ZN7WebCore25DecodedDataDocumentParser5flushEPNS_14DocumentWriterE
__ZN7WebCore14DocumentWriter21createDecoderIfNeededEv
__ZN7WebCore12TextEncodingC1ERKN3WTF6StringE
__ZN7WebCore31atomicCanonicalTextEncodingNameERKN3WTF6StringE
__ZN7WebCore19TextResourceDecoderC1ERKN3WTF6StringERKNS_12TextEncodingEb
__ZN7WebCore19TextResourceDecoderC2ERKN3WTF6StringERKNS_12TextEncodingEb
__ZN7WebCore8Document10setDecoderEN3WTF10PassRefPtrINS_19TextResourceDecoderEEE
__ZN7WebCore19TextResourceDecoder5flushEv
__ZN7WebCore12newTextCodecERKNS_12TextEncodingE
__ZN7WebCoreL36newStreamingTextDecoderWindowsLatin1ERKNS_12TextEncodingEPKv
__ZN7WebCore15TextCodecLatin16decodeEPKcmbbRb
__ZN7WebCore15TextCodecLatin1D0Ev
__ZN7WebCore9TextCodecD2Ev
__ZN7WebCore18HTMLDocumentParser6finishEv
__ZN7WebCore15HTMLInputStream13markEndOfFileEv
__ZN7WebCore15SegmentedStringC2ERKN3WTF6StringE
__ZN7WebCore15SegmentedString29updateAdvanceFunctionPointersEv
__ZN7WebCore15SegmentedString30updateSlowCaseFunctionPointersEv
__ZN7WebCore15SegmentedString6appendERKS0_
__ZN7WebCore15SegmentedString6appendERKNS_18SegmentedSubstringE
__ZN3WTF5DequeIN7WebCore18SegmentedSubstringELm0EE10destroyAllEv
__ZN7WebCore15SegmentedString5closeEv
__ZNK7WebCore18HTMLDocumentParser19isWaitingForScriptsEv
__ZNK7WebCore16HTMLScriptRunner23hasParserBlockingScriptEv
__ZNK7WebCore18HTMLDocumentParser17isExecutingScriptEv
__ZN7WebCore18HTMLDocumentParser20prepareToStopParsingEv
__ZN7WebCore18HTMLDocumentParser13pumpTokenizerENS0_15SynchronousModeE
__ZN7WebCore11PumpSessionC1ERjPNS_8DocumentE
__ZNK7WebCore15SegmentedString11currentLineEv
__ZN7WebCore10XSSAuditor4initEPNS_8DocumentEPNS_18XSSAuditorDelegateE
__ZNK7WebCore4KURL4copyEv
__ZN7WebCore18HTMLDocumentParser16canTakeNextTokenENS0_15SynchronousModeERNS_11PumpSessionE
__ZN7WebCore19NavigationScheduler21locationChangePendingEv
__ZN7WebCore17HTMLSourceTracker5startERNS_15SegmentedStringEPNS_13HTMLTokenizerERNS_9HTMLTokenE
__ZN7WebCore15SegmentedString5clearEv
__ZN7WebCore15SegmentedStringaSERKS0_
__ZN3WTF5DequeIN7WebCore18SegmentedSubstringELm0EEC2ERKS3_
__ZNK7WebCore15SegmentedString6lengthEv
__ZN7WebCore13HTMLTokenizer9nextTokenERNS_15SegmentedStringERNS_9HTMLTokenE
__ZN7WebCore23InputStreamPreprocessorINS_13HTMLTokenizerEE25processNextInputCharacterERNS_15SegmentedStringE
__ZN7WebCore13HTMLTokenizer13emitEndOfFileERNS_15SegmentedStringE
__ZN7WebCore15SegmentedString34advanceAndUpdateLineNumberSlowCaseEv
__ZN7WebCore15SegmentedString16advanceSubstringEv
__ZN7WebCore17HTMLSourceTracker3endERNS_15SegmentedStringEPNS_13HTMLTokenizerERNS_9HTMLTokenE
__ZN7WebCore10XSSAuditor11filterTokenERKNS_18FilterTokenRequestE
__ZN7WebCore18HTMLDocumentParser26constructTreeFromHTMLTokenERNS_9HTMLTokenE
__ZN7WebCore15AtomicHTMLTokenC2ERNS_9HTMLTokenE
__ZN7WebCore15HTMLTreeBuilder13constructTreeEPNS_15AtomicHTMLTokenE
__ZN7WebCore15HTMLTreeBuilder12processTokenEPNS_15AtomicHTMLTokenE
__ZN7WebCore15HTMLTreeBuilder16processEndOfFileEPNS_15AtomicHTMLTokenE
__ZN7WebCore20HTMLConstructionSite27setDefaultCompatibilityModeEv
__ZN3WTF14deleteOwnedPtrIN7WebCore18SelectorQueryCacheEEEvPT_
__ZN7WebCore18SelectorQueryCache10invalidateEv
__ZN7WebCore28DocumentStyleSheetCollection18clearPageUserSheetEv
__ZN7WebCore28DocumentStyleSheetCollection33invalidateInjectedStyleSheetCacheEv
__ZN7WebCore8Document20styleResolverChangedENS_23StyleResolverUpdateFlagE
__ZN7WebCore28DocumentStyleSheetCollection23updateActiveStyleSheetsENS0_10UpdateFlagE
__ZN7WebCore28DocumentStyleSheetCollection24collectActiveStyleSheetsERN3WTF6VectorINS1_6RefPtrINS_10StyleSheetEEELm0ENS1_15CrashOnOverflowEEE
__ZNK7WebCore28DocumentStyleSheetCollection29updateInjectedStyleSheetCacheEv
__ZN3WTF6VectorINS_6RefPtrIN7WebCore13CSSStyleSheetEEELm0ENS_15CrashOnOverflowEE14shrinkCapacityEm
__ZN3WTF6VectorINS_6RefPtrIN7WebCore13CSSStyleSheetEEELm0ENS_15CrashOnOverflowEE6appendIS4_EEvPKT_m
__ZNK7WebCore8Document20seamlessParentIFrameEv
__ZN7WebCore28DocumentStyleSheetCollection23analyzeStyleSheetChangeENS0_10UpdateFlagERKN3WTF6VectorINS2_6RefPtrINS_13CSSStyleSheetEEELm0ENS2_15CrashOnOverflowEEERNS0_23StyleResolverUpdateTypeERb
__ZN7WebCore8Document18clearStyleResolverEv
__ZNK7WebCore8Document46notifySeamlessChildDocumentsOfStylesheetUpdateEv
__ZN7WebCore8Document19scheduleStyleRecalcEv
__ZN3WTF9HashTableIPN7WebCore8DocumentES3_NS_17IdentityExtractorENS_7PtrHashIS3_EENS_10HashTraitsIS3_EES8_E3addINS_22IdentityHashTranslatorIS6_EES3_S3_EENS_18HashTableAddResultINS_17HashTableIteratorIS3_S3_S4_S6_S8_S8_EEEERKT0_RKT1_
__ZN3WTF9HashTableIPN7WebCore8DocumentES3_NS_17IdentityExtractorENS_7PtrHashIS3_EENS_10HashTraitsIS3_EES8_E6rehashEi
__ZN7WebCore15HTMLTreeBuilder20defaultForBeforeHTMLEv
__ZN3WTF6VectorIN7WebCore9AttributeELm0ENS_15CrashOnOverflowEEC2ERKS4_
__ZN7WebCore20HTMLConstructionSite32insertHTMLHtmlStartTagBeforeHTMLEPNS_15AtomicHTMLTokenE
__ZN7WebCore15HTMLHtmlElement6createEPNS_8DocumentE
__ZN7WebCore15HTMLHtmlElementC2ERKNS_13QualifiedNameEPNS_8DocumentE
__ZN7WebCore7Element19parserSetAttributesERKN3WTF6VectorINS_9AttributeELm0ENS1_15CrashOnOverflowEEE
__ZN7WebCore20HTMLConstructionSite11attachLaterEPNS_13ContainerNodeEN3WTF10PassRefPtrINS_4NodeEEEb
__ZNK7WebCore20HTMLConstructionSite18shouldFosterParentEv
__ZN7WebCore16HTMLElementStack19pushHTMLHtmlElementEN3WTF10PassRefPtrINS_13HTMLStackItemEEE
__ZN7WebCore20HTMLConstructionSite18executeQueuedTasksEv
__ZN3WTF12VectorBufferIN7WebCore24HTMLConstructionSiteTaskELm1EE4swapERS3_
__ZN7WebCoreL11executeTaskERNS_24HTMLConstructionSiteTaskE
__ZN7WebCore13ContainerNode17parserAppendChildEN3WTF10PassRefPtrINS_4NodeEEE
__ZN7WebCore9TreeScope13adoptIfNeededEPNS_4NodeE
__ZNK7WebCore4Node48updateAncestorConnectedSubframeCountForInsertionEv
__ZN7WebCore22ChildListMutationScopeC2EPNS_4NodeE
__ZN7WebCore8Document15childrenChangedEbPNS_4NodeES2_i
__ZN7WebCore13ContainerNode15childrenChangedEbPNS_4NodeES2_i
__ZN7WebCore4Node35invalidateNodeListCachesInAncestorsEPKNS_13QualifiedNameEPNS_7ElementE
__ZNK7WebCore8Document30shouldInvalidateNodeListCachesEPKNS_13QualifiedNameE
__ZN7WebCore26ChildNodeInsertionNotifier6notifyEPNS_4NodeE
__ZN7WebCore26ChildNodeInsertionNotifier30notifyNodeInsertedIntoDocumentEPNS_4NodeE
__ZN7WebCore7Element12insertedIntoEPNS_13ContainerNodeE
__ZN7WebCore26ChildNodeInsertionNotifier36notifyDescendantInsertedIntoDocumentEPNS_13ContainerNodeE
__ZN7WebCore22ChildNodesLazySnapshot8nextNodeEv
__ZNK7WebCore7Element6shadowEv
__ZN3WTF6OwnPtrINS_6VectorINS_6RefPtrIN7WebCore4NodeEEELm0ENS_15CrashOnOverflowEEEED2Ev
__ZN7WebCore7Element6attachERKNS_4Node13AttachContextE
__ZN7WebCore20NodeRenderingContextC1EPNS_4NodeERKNS1_13AttachContextE
__ZN7WebCore20NodeRenderingContext32createRendererForElementIfNeededEv
__ZN7WebCore7Element17setIsInsideRegionEb
__ZNK7WebCore20NodeRenderingContext20shouldCreateRendererEv
__ZN7WebCore8Document21shouldCreateRenderersEv
__ZNK7WebCore12RenderObject15canHaveChildrenEv
__ZNK7WebCore13ContainerNode25childShouldCreateRendererERKNS_20NodeRenderingContextE
__ZN7WebCore7Element16styleForRendererEv
__ZN7WebCore8Document19createStyleResolverEv
__ZN7WebCore13StyleResolverC1EPNS_8DocumentEb
__ZN7WebCore13StyleResolverC2EPNS_8DocumentEb
__ZN7WebCore16DocumentRuleSetsC1Ev
__ZN7WebCore15CSSFontSelectorC1EPNS_8DocumentE
__ZN7WebCore9FontCache9addClientEPNS_12FontSelectorE
__ZN3WTF9HashTableIPN7WebCore12FontSelectorES3_NS_17IdentityExtractorENS_7PtrHashIS3_EENS_10HashTraitsIS3_EES8_E3addINS_22IdentityHashTranslatorIS6_EES3_S3_EENS_18HashTableAddResultINS_17HashTableIteratorIS3_S3_S4_S6_S8_S8_EEEERKT0_RKT1_
__ZN3WTF9HashTableIPN7WebCore12FontSelectorES3_NS_17IdentityExtractorENS_7PtrHashIS3_EENS_10HashTraitsIS3_EES8_E6rehashEi
__ZN7WebCore22DeprecatedStyleBuilder18sharedStyleBuilderEv
__ZN7WebCore22DeprecatedStyleBuilderC2Ev
__ZN7WebCore21CSSDefaultStyleSheets16initDefaultStyleEPNS_7ElementE
__ZN7WebCore21CSSDefaultStyleSheets22loadSimpleDefaultStyleEv
__ZN7WebCoreL12parseUASheetERKN3WTF6StringE
__ZN7WebCore16CSSParserContextC1ENS_13CSSParserModeERKNS_4KURLE
__ZN7WebCore18StyleSheetContentsC1EPNS_15StyleRuleImportERKN3WTF6StringERKNS_16CSSParserContextE
__ZN7WebCore18StyleSheetContents11parseStringERKN3WTF6StringE
__ZN7WebCore9CSSParserC1ERKNS_16CSSParserContextE
__ZN7WebCore9CSSParserC2ERKNS_16CSSParserContextE
__ZN7WebCore11SourceRangeC1Ev
__ZN7WebCore11SourceRangeC1Ejj
__ZN7WebCore9CSSParser10parseSheetEPNS_18StyleSheetContentsERKN3WTF6StringEiPNS3_6VectorINS3_6RefPtrINS_17CSSRuleSourceDataEEELm0ENS3_15CrashOnOverflowEEEb
__ZN7WebCore9CSSParser11setupParserEPKcjRKN3WTF6StringES2_j
__Z10cssyyparsePN7WebCore9CSSParserE
__ZN7WebCore9CSSParser7realLexIhEEiPv
__ZN7WebCore9CSSParser15parseIdentifierIhEEvRPT_RNS_15CSSParserStringERb
__ZN7WebCore9CSSParser19markRuleHeaderStartENS_17CSSRuleSourceData4TypeE
__ZN7WebCore9CSSParser17markSelectorStartEv
__ZN7WebCore13QualifiedNameC1ERKN3WTF12AtomicStringES4_S4_
__ZN7WebCore9CSSParser33createFloatingSelectorWithTagNameERKNS_13QualifiedNameE
__ZN7WebCore17CSSParserSelectorC1ERKNS_13QualifiedNameE
__ZN3WTF9HashTableIPN7WebCore17CSSParserSelectorES3_NS_17IdentityExtractorENS_7PtrHashIS3_EENS_10HashTraitsIS3_EES8_E3addINS_22IdentityHashTranslatorIS6_EES3_S3_EENS_18HashTableAddResultINS_17HashTableIteratorIS3_S3_S4_S6_S8_S8_EEEERKT0_RKT1_
__ZN3WTF9HashTableIPN7WebCore17CSSParserSelectorES3_NS_17IdentityExtractorENS_7PtrHashIS3_EENS_10HashTraitsIS3_EES8_E6rehashEi
__ZN7WebCore13QualifiedNameD1Ev
__ZN7WebCore9CSSParser20sinkFloatingSelectorEPNS_17CSSParserSelectorE
__ZN3WTF7HashSetIPN7WebCore17CSSParserSelectorENS_7PtrHashIS3_EENS_10HashTraitsIS3_EEE6removeERKS3_
__ZN3WTF9HashTableIPN7WebCore17CSSParserSelectorES3_NS_17IdentityExtractorENS_7PtrHashIS3_EENS_10HashTraitsIS3_EES8_E6lookupINS_22IdentityHashTranslatorIS6_EES3_EEPS3_RKT0_
__ZN3WTF6VectorINS_6OwnPtrIN7WebCore17CSSParserSelectorEEELm0ENS_15CrashOnOverflowEE15reserveCapacityEm
__ZN7WebCore9CSSParser33updateLastSelectorLineAndPositionEv
__ZN7WebCore9CSSParser15markSelectorEndEv
__ZN7WebCore9CSSParser17markRuleHeaderEndEv
__ZN7WebCore9CSSParser17markRuleBodyStartEv
__ZN7WebCore9CSSParser17markPropertyStartEv
__ZN7WebCore13cssPropertyIDERKNS_15CSSParserStringE
__ZN7WebCoreL13cssPropertyIDIhEENS_13CSSPropertyIDEPKT_j
__ZN7WebCore12findPropertyEPKcj
__ZN7WebCore20CSSPropertyNamesHash21propery_hash_functionEPKcj
__ZN7WebCore17cssValueKeywordIDERKNS_15CSSParserStringE
__ZN7WebCore9findValueEPKcj
__ZN7WebCore20CSSValueKeywordsHash19value_hash_functionEPKcj
__ZN7WebCore9CSSParser23createFloatingValueListEv
__ZN3WTF9HashTableIPN7WebCore18CSSParserValueListES3_NS_17IdentityExtractorENS_7PtrHashIS3_EENS_10HashTraitsIS3_EES8_E3addINS_22IdentityHashTranslatorIS6_EES3_S3_EENS_18HashTableAddResultINS_17HashTableIteratorIS3_S3_S4_S6_S8_S8_EEEERKT0_RKT1_
__ZN3WTF9HashTableIPN7WebCore18CSSParserValueListES3_NS_17IdentityExtractorENS_7PtrHashIS3_EENS_10HashTraitsIS3_EES8_E6rehashEi
__ZN7WebCore9CSSParser17sinkFloatingValueERNS_14CSSParserValueE
__ZN7WebCore18CSSParserValueList8addValueERKNS_14CSSParserValueE
__ZN7WebCore9CSSParser21sinkFloatingValueListEPNS_18CSSParserValueListE
__ZN3WTF7HashSetIPN7WebCore18CSSParserValueListENS_7PtrHashIS3_EENS_10HashTraitsIS3_EEE6removeERKS3_
__ZN3WTF9HashTableIPN7WebCore18CSSParserValueListES3_NS_17IdentityExtractorENS_7PtrHashIS3_EENS_10HashTraitsIS3_EES8_E6lookupINS_22IdentityHashTranslatorIS6_EES3_EEPS3_RKT0_
__ZN7WebCore9CSSParser10parseValueENS_13CSSPropertyIDEb
__ZN7WebCoreL30isValidKeywordPropertyAndValueENS_13CSSPropertyIDEiRKNS_16CSSParserContextE
__ZN7WebCore12cssValuePoolEv
__ZN7WebCore12CSSValuePoolC2Ev
__ZN7WebCore17CSSPrimitiveValueC1Ej
__ZN7WebCore12CSSValuePool21createIdentifierValueEi
__ZN7WebCore17CSSPrimitiveValueC1Ei
__ZN7WebCore9CSSParser11addPropertyENS_13CSSPropertyIDEN3WTF10PassRefPtrINS_8CSSValueEEEbb
__ZN7WebCore11CSSProperty19isInheritedPropertyENS_13CSSPropertyIDE
__ZN7WebCore18CSSParserValueListD1Ev
__ZN7WebCore18CSSParserValueListD2Ev
__ZN7WebCore9CSSParser15markPropertyEndEbb
__ZN7WebCore9CSSParser15createStyleRuleEPN3WTF6VectorINS1_6OwnPtrINS_17CSSParserSelectorEEELm0ENS1_15CrashOnOverflowEEE
__ZN7WebCore9StyleRuleC1Ei
__ZN7WebCore15CSSSelectorList19adoptSelectorVectorERN3WTF6VectorINS1_6OwnPtrINS_17CSSParserSelectorEEELm0ENS1_15CrashOnOverflowEEE
__ZN3WTF6VectorINS_6OwnPtrIN7WebCore17CSSParserSelectorEEELm0ENS_15CrashOnOverflowEE14shrinkCapacityEm
__ZN7WebCore17CSSParserSelectorD1Ev
__ZN7WebCore17CSSParserSelectorD2Ev
__ZN7WebCore9CSSParser22createStylePropertySetEv
__ZN7WebCoreL16filterPropertiesEbRKN3WTF6VectorINS_11CSSPropertyELm256ENS0_15CrashOnOverflowEEERS4_RmRNS0_8BitArrayILj394EEE
__ZN7WebCore25ImmutableStylePropertySet6createEPKNS_11CSSPropertyEjNS_13CSSParserModeE
__ZN7WebCore9StyleRule13setPropertiesEN3WTF10PassRefPtrINS_16StylePropertySetEEE
__ZN3WTF6VectorINS_6RefPtrIN7WebCore13StyleRuleBaseEEELm0ENS_15CrashOnOverflowEE15reserveCapacityEm
__ZN7WebCore9CSSParser40processAndAddNewRuleToSourceTreeIfNeededEv
__ZN3WTF6VectorIN7WebCore11CSSPropertyELm256ENS_15CrashOnOverflowEE14shrinkCapacityEm
__ZN7WebCore18StyleSheetContents16parserAppendRuleEN3WTF10PassRefPtrINS_13StyleRuleBaseEEE
__ZNK7WebCore15CSSSelectorList14componentCountEv
__ZN7WebCore9CSSParser17detectNumberTokenIhEEvPT_i
__ZN7WebCore15marginShorthandEv
__ZN7WebCore9CSSParser12parse4ValuesENS_13CSSPropertyIDEPKS1_b
__ZN7WebCore9CSSParser13isCalculationEPNS_14CSSParserValueE
__ZN7WebCore9CSSParser19parseValidPrimitiveEiPNS_14CSSParserValueE
__ZN7WebCore12CSSValuePool11createValueEdNS_17CSSPrimitiveValue9UnitTypesE
__ZN7WebCore17CSSPrimitiveValueC1EdNS0_9UnitTypesE
__ZN7WebCore9CSSParser22createFloatingSelectorEv
__ZN7WebCore17CSSParserSelectorC1Ev
__ZN7WebCore15CSSParserString5lowerEv
__ZN7WebCore17CSSParserSelector8setValueERKN3WTF12AtomicStringE
__ZNK7WebCore11CSSSelector17extractPseudoTypeEv
__ZN7WebCore11CSSSelector15parsePseudoTypeERKN3WTF12AtomicStringE
__ZN7WebCoreL19nameToPseudoTypeMapEv
__ZN3WTF9HashTableIPNS_16AtomicStringImplENS_12KeyValuePairIS2_N7WebCore11CSSSelector10PseudoTypeEEENS_24KeyValuePairKeyExtractorIS7_EENS_7PtrHashIS2_EENS_18HashMapValueTraitsINS_10HashTraitsIS2_EENSD_IS6_EEEESE_E16lookupForWritingINS_22IdentityHashTranslatorISB_EES2_EENSt3__14pairIPS7_bEERKT0_
__ZN3WTF9HashTableIPNS_16AtomicStringImplENS_12KeyValuePairIS2_N7WebCore11CSSSelector10PseudoTypeEEENS_24KeyValuePairKeyExtractorIS7_EENS_7PtrHashIS2_EENS_18HashMapValueTraitsINS_10HashTraitsIS2_EENSD_IS6_EEEESE_E3addINS_17HashMapTranslatorISG_SB_EES2_S6_EENS_18HashTableAddResultINS_17HashTableIteratorIS2_S7_S9_SB_SG_SE_EEEERKT0_RKT1_
__ZN3WTF9HashTableIPNS_16AtomicStringImplENS_12KeyValuePairIS2_N7WebCore11CSSSelector10PseudoTypeEEENS_24KeyValuePairKeyExtractorIS7_EENS_7PtrHashIS2_EENS_18HashMapValueTraitsINS_10HashTraitsIS2_EENSD_IS6_EEEESE_E6lookupINS_22IdentityHashTranslatorISB_EES2_EEPS7_RKT0_
__ZN3WTF9HashTableIPNS_16AtomicStringImplENS_12KeyValuePairIS2_N7WebCore11CSSSelector10PseudoTypeEEENS_24KeyValuePairKeyExtractorIS7_EENS_7PtrHashIS2_EENS_18HashMapValueTraitsINS_10HashTraitsIS2_EENSD_IS6_EEEESE_E6rehashEi
__ZN7WebCore9CSSParser32rewriteSpecifiersWithElementNameERKN3WTF12AtomicStringES4_PNS_17CSSParserSelectorEb
__ZN7WebCore17CSSParserSelector18prependTagSelectorERKNS_13QualifiedNameEb
__ZN7WebCore11CSSSelectorD2Ev
__ZN3WTF9HashTableIPN7WebCore17CSSParserSelectorES3_NS_17IdentityExtractorENS_7PtrHashIS3_EENS_10HashTraitsIS3_EES8_E16lookupForWritingINS_22IdentityHashTranslatorIS6_EES3_EENSt3__14pairIPS3_bEERKT0_
__ZN7WebCore16outlineShorthandEv
__ZN7WebCore9CSSParser14parseShorthandENS_13CSSPropertyIDERKNS_22StylePropertyShorthandEb
__ZN7WebCore9CSSParser19parseColorFromValueEPNS_14CSSParserValueERj
__ZN7WebCore9CSSParser14fastParseColorINS_15CSSParserStringEEEbRjRKT_b
__ZN7WebCoreL22fastParseColorInternalIhEEbRjPKT_jb
__ZN7WebCore9CSSParser19parseTextDecorationENS_13CSSPropertyIDEb
__ZN7WebCore12CSSValueListC1ENS_8CSSValue18ValueListSeparatorE
__ZN7WebCore9CSSParser17rewriteSpecifiersEPNS_17CSSParserSelectorES2_
__ZN7WebCore17CSSParserSelector16appendTagHistoryENS_11CSSSelector8RelationEN3WTF10PassOwnPtrIS0_EE
__ZN7WebCore18StyleSheetContents11shrinkToFitEv
__ZN3WTF6VectorINS_6RefPtrIN7WebCore15StyleRuleImportEEELm0ENS_15CrashOnOverflowEE14shrinkCapacityEm
__ZN3WTF6VectorINS_6RefPtrIN7WebCore13StyleRuleBaseEEELm0ENS_15CrashOnOverflowEE14shrinkCapacityEm
__ZN3WTF6OwnPtrINS_6VectorINS_6RefPtrIN7WebCore17CSSRuleSourceDataEEELm0ENS_15CrashOnOverflowEEEE5clearEv
__ZN7WebCore9CSSParserD1Ev
__ZN7WebCore9CSSParserD2Ev
__ZN3WTF15deleteAllValuesIPNS_6VectorINS_6OwnPtrIN7WebCore17CSSParserSelectorEEELm0ENS_15CrashOnOverflowEEEKNS_9HashTableIS8_S8_NS_17IdentityExtractorENS_7PtrHashIS8_EENS_10HashTraitsIS8_EESE_EEEEvRT0_
__ZN3WTF15deleteAllValuesIPN7WebCore17CSSParserFunctionEKNS_9HashTableIS3_S3_NS_17IdentityExtractorENS_7PtrHashIS3_EENS_10HashTraitsIS3_EES9_EEEEvRT0_
__ZN3WTF6OwnPtrINS_6VectorINS0_IN7WebCore13MediaQueryExpEEELm0ENS_15CrashOnOverflowEEEED2Ev
__ZN3WTF6VectorINS_6RefPtrIN7WebCore13MediaQuerySetEEELm0ENS_15CrashOnOverflowEED2Ev
__ZN3WTF6VectorINS_6RefPtrIN7WebCore13StyleKeyframeEEELm0ENS_15CrashOnOverflowEED2Ev
__ZN3WTF6OwnPtrINS_6VectorINS_6RefPtrIN7WebCore17CSSRuleSourceDataEEELm0ENS_15CrashOnOverflowEEEED2Ev
__ZN7WebCore19MediaQueryEvaluatorC1EPKcb
__ZN7WebCore7RuleSet17addRulesFromSheetEPNS_18StyleSheetContentsERKNS_19MediaQueryEvaluatorEPNS_13StyleResolverEPKNS_13ContainerNodeE
__ZN7WebCore7RuleSet13addChildRulesERKN3WTF6VectorINS1_6RefPtrINS_13StyleRuleBaseEEELm0ENS1_15CrashOnOverflowEEERKNS_19MediaQueryEvaluatorEPNS_13StyleResolverEPKNS_13ContainerNodeEbNS_12AddRuleFlagsE
__ZN7WebCore7RuleSet7addRuleEPNS_9StyleRuleEjNS_12AddRuleFlagsE
__ZN7WebCore8RuleDataC2EPNS_9StyleRuleEjjNS_12AddRuleFlagsE
__ZN7WebCore23SelectorCheckerFastPath6canUseEPKNS_11CSSSelectorE
__ZNK7WebCore11CSSSelector11specificityEv
__ZN7WebCore15SelectorChecker22determineLinkMatchTypeEPKNS_11CSSSelectorE
__ZN7WebCore14SelectorFilter23collectIdentifierHashesEPKNS_11CSSSelectorEPjj
__ZN7WebCore14RuleFeatureSet27collectFeaturesFromSelectorEPKNS_11CSSSelectorE
__ZN7WebCore7RuleSet21findBestRuleSetAndAddEPKNS_11CSSSelectorERNS_8RuleDataE
__ZN7WebCore7RuleSet12addToRuleSetEPN3WTF16AtomicStringImplERNS1_7HashMapIS3_NS1_6OwnPtrINS1_6VectorINS_8RuleDataELm0ENS1_15CrashOnOverflowEEEEENS1_7PtrHashIS3_EENS1_10HashTraitsIS3_EENSD_ISA_EEEERKS7_
__ZN3WTF6VectorIN7WebCore8RuleDataELm0ENS_15CrashOnOverflowEE14expandCapacityEmPKS2_
__ZN3WTF6VectorIN7WebCore8RuleDataELm0ENS_15CrashOnOverflowEE15reserveCapacityEm
__ZN7WebCore7RuleSet11shrinkToFitEv
__ZN3WTF6VectorIN7WebCore8RuleDataELm0ENS_15CrashOnOverflowEE14shrinkCapacityEm
__ZN3WTF6VectorIPN7WebCore13StyleRulePageELm0ENS_15CrashOnOverflowEE14shrinkCapacityEm
__ZNK7WebCore9FrameView9mediaTypeEv
__ZN7WebCore19MediaQueryEvaluatorC1ERKN3WTF6StringEb
__ZN7WebCore13StyleResolver15styleForElementEPNS_7ElementEPNS_11RenderStyleENS_20StyleSharingBehaviorENS_20RuleMatchingBehaviorEPNS_12RenderRegionE
__ZN7WebCore13StyleResolver5State19initForStyleResolveEPNS_8DocumentEPNS_7ElementEPNS_11RenderStyleEPNS_12RenderRegionE
__ZN7WebCore20NodeRenderingContextC1EPNS_4NodeE
__ZN7WebCore20NodeRenderingContextD1Ev
__ZN7WebCore11RenderStyle11inheritFromEPKS0_NS0_18IsAtShadowBoundaryE
__ZN7WebCore21CSSDefaultStyleSheets34ensureDefaultStyleSheetsForElementEPNS_7ElementERb
__ZNK7WebCore7Element15isMathMLElementEv
__ZNK7WebCore19MediaQueryEvaluator22mediaTypeMatchSpecificEPKc
__ZN7WebCore20ElementRuleCollector12matchUARulesEv
__ZN7WebCore20ElementRuleCollector12matchUARulesEPNS_7RuleSetE
__ZN7WebCore20ElementRuleCollector20collectMatchingRulesERKNS_12MatchRequestERNS_13StyleResolver9RuleRangeE
__ZNK7WebCore7Element14shadowPseudoIdEv
__ZNK7WebCore7Element12getAttributeERKNS_13QualifiedNameE
__ZNK7WebCore4Node15isWebVTTElementEv
__ZN7WebCore15SelectorChecker23matchesFocusPseudoClassEPKNS_7ElementE
__ZN7WebCore20ElementRuleCollector29doCollectMatchingRulesForListILb0EEEvPKN3WTF6VectorINS_8RuleDataELm0ENS2_15CrashOnOverflowEEERKNS_12MatchRequestERNS_13StyleResolver9RuleRangeE
__ZN7WebCore20ElementRuleCollector11ruleMatchesERKNS_8RuleDataEPKNS_13ContainerNodeERNS_8PseudoIdE
__ZN7WebCore20ElementRuleCollector14addMatchedRuleEPKNS_8RuleDataE
__ZN7WebCore20ElementRuleCollector27sortAndTransferMatchedRulesEv
__ZNSt3__16__sortIRPFbPKN7WebCore8RuleDataES4_EPS4_EEvT0_S9_T_
__ZN7WebCore13StyleResolver11MatchResult20addMatchedPropertiesEPKNS_16StylePropertySetEPNS_9StyleRuleEjNS_21PropertyWhitelistTypeE
__ZN3WTF6RefPtrIN7WebCore16StylePropertySetEEaSEPS2_
__ZN7WebCore20ElementRuleCollector13matchedResultEv
__ZN7WebCore13StyleResolver22applyMatchedPropertiesERKNS0_11MatchResultEPKNS_7ElementE
__ZN7WebCore13StyleResolver22applyMatchedPropertiesILNS0_20StyleApplicationPassE0EEEvRKNS0_11MatchResultEbiib
__ZN7WebCore13StyleResolver15applyPropertiesILNS0_20StyleApplicationPassE0EEEvPKNS_16StylePropertySetEPNS_9StyleRuleEbbNS_21PropertyWhitelistTypeE
__ZN7WebCore13StyleResolver13applyPropertyENS_13CSSPropertyIDEPNS_8CSSValueE
__ZN7WebCore20ApplyPropertyDisplay10applyValueENS_13CSSPropertyIDEPNS_13StyleResolverEPNS_8CSSValueE
__ZN7WebCore13StyleResolver10updateFontEv
__ZN7WebCore13StyleResolver22applyMatchedPropertiesILNS0_20StyleApplicationPassE1EEEvRKNS0_11MatchResultEbiib
__ZN7WebCore13StyleResolver15applyPropertiesILNS0_20StyleApplicationPassE1EEEvPKNS_16StylePropertySetEPNS_9StyleRuleEbbNS_21PropertyWhitelistTypeE
__ZN7WebCore13StyleResolver17loadPendingImagesEv
__ZN7WebCore13StyleResolver23loadPendingSVGDocumentsEv
__ZN7WebCore13StyleResolver17adjustRenderStyleEPNS_11RenderStyleES2_PNS_7ElementE
__ZN7WebCore11RenderStyle16setHasAutoZIndexEv
__ZN7WebCore11RenderStyle9setZIndexEi
__ZN7WebCore12StyleBoxDataC1ERKS0_
__ZN7WebCore12StyleBoxDataC2ERKS0_
__ZN7WebCore11RenderStyle16adjustAnimationsEv
__ZN7WebCore11RenderStyle17adjustTransitionsEv
__ZNK7WebCore7Element20isFormControlElementEv
__ZN7WebCore13StyleResolver5State5clearEv
__ZN7WebCore8Document22didAccessStyleResolverEv
__ZN7WebCore20ElementRuleCollectorD2Ev
__ZN7WebCore13StyleResolver11MatchResultD2Ev
__ZN7WebCore19MediaQueryEvaluatorC1ERKN3WTF6StringEPNS_5FrameEPNS_11RenderStyleE
__ZN7WebCore19MediaQueryEvaluatorD1Ev
__ZN7WebCore16DocumentRuleSets16resetAuthorStyleEv
__ZN7WebCore16DocumentRuleSets13initUserStyleEPNS_28DocumentStyleSheetCollectionERKNS_19MediaQueryEvaluatorERNS_13StyleResolverE
__ZN7WebCore28DocumentStyleSheetCollection13pageUserSheetEv
__ZNK7WebCore4Page14userStyleSheetEv
__ZNK7WebCore28DocumentStyleSheetCollection23injectedUserStyleSheetsEv
__ZN7WebCore7RuleSetD2Ev
__ZN7WebCore14RuleFeatureSetD2Ev
__ZN3WTF9HashTableIPNS_16AtomicStringImplENS_12KeyValuePairIS2_NS_6OwnPtrINS_6VectorIN7WebCore8RuleDataELm0ENS_15CrashOnOverflowEEEEEEENS_24KeyValuePairKeyExtractorISB_EENS_7PtrHashIS2_EENS_18HashMapValueTraitsINS_10HashTraitsIS2_EENSH_ISA_EEEESI_E16lookupForWritingINS_22IdentityHashTranslatorISF_EES2_EENSt3__14pairIPSB_bEERKT0_
__ZN3WTF9HashTableIPNS_16AtomicStringImplENS_12KeyValuePairIS2_NS_6OwnPtrINS_6VectorIN7WebCore8RuleDataELm0ENS_15CrashOnOverflowEEEEEEENS_24KeyValuePairKeyExtractorISB_EENS_7PtrHashIS2_EENS_18HashMapValueTraitsINS_10HashTraitsIS2_EENSH_ISA_EEEESI_E3addINS_17HashMapTranslatorISK_SF_EES2_NS_10PassOwnPtrIS9_EEEENS_18HashTableAddResultINS_17HashTableIteratorIS2_SB_SD_SF_SK_SI_EEEERKT0_RKT1_
__ZN3WTF9HashTableIPNS_16AtomicStringImplENS_12KeyValuePairIS2_NS_6OwnPtrINS_6VectorIN7WebCore8RuleDataELm0ENS_15CrashOnOverflowEEEEEEENS_24KeyValuePairKeyExtractorISB_EENS_7PtrHashIS2_EENS_18HashMapValueTraitsINS_10HashTraitsIS2_EENSH_ISA_EEEESI_E6lookupINS_22IdentityHashTranslatorISF_EES2_EEPSB_RKT0_
__ZN3WTF9HashTableIPNS_16AtomicStringImplENS_12KeyValuePairIS2_NS_6OwnPtrINS_6VectorIN7WebCore8RuleDataELm0ENS_15CrashOnOverflowEEEEEEENS_24KeyValuePairKeyExtractorISB_EENS_7PtrHashIS2_EENS_18HashMapValueTraitsINS_10HashTraitsIS2_EENSH_ISA_EEEESI_E6rehashEi
__ZN3WTF9HashTableIPNS_16AtomicStringImplENS_12KeyValuePairIS2_NS_6OwnPtrINS_6VectorIN7WebCore8RuleDataELm0ENS_15CrashOnOverflowEEEEEEENS_24KeyValuePairKeyExtractorISB_EENS_7PtrHashIS2_EENS_18HashMapValueTraitsINS_10HashTraitsIS2_EENSH_ISA_EEEESI_ED2Ev
__ZN7WebCore8Document13svgExtensionsEv
__ZN7WebCore13StyleResolver23appendAuthorStyleSheetsEjRKN3WTF6VectorINS1_6RefPtrINS_13CSSStyleSheetEEELm0ENS1_15CrashOnOverflowEEE
__ZN7WebCore16DocumentRuleSets23appendAuthorStyleSheetsEjRKN3WTF6VectorINS1_6RefPtrINS_13CSSStyleSheetEEELm0ENS1_15CrashOnOverflowEEEPNS_19MediaQueryEvaluatorERNS_22InspectorCSSOMWrappersEbPNS_13StyleResolverE
__ZN7WebCore16DocumentRuleSets15collectFeaturesEbPNS_18StyleScopeResolverE
__ZN7WebCore14RuleFeatureSet5clearEv
__ZN7WebCore14RuleFeatureSet3addERKS0_
__ZN7WebCoreL11makeRuleSetERKN3WTF6VectorINS_11RuleFeatureELm0ENS0_15CrashOnOverflowEEE
__ZNK7WebCore15CSSFontSelector8uniqueIdEv
__ZNK7WebCore15CSSFontSelector7versionEv
__ZNK7WebCore15CSSFontSelector17resolvesFamilyForERKNS_15FontDescriptionE
__ZN7WebCore28DocumentStyleSheetCollection22combineCSSFeatureFlagsEv
__ZNK7WebCore8Document21haveStylesheetsLoadedEv
__ZN7WebCore13StyleResolver17locateSharedStyleEv
__ZNK7WebCore11HTMLElement16hasDirectionAutoEv
__ZN7WebCore20ElementRuleCollector13matchAllRulesEbb
__ZN7WebCore20ElementRuleCollector14matchUserRulesEb
__ZN7WebCore13StyledElement36additionalPresentationAttributeStyleEv
__ZNK7WebCore11HTMLElement35directionalityIfhasDirAutoAttributeERb
__ZN7WebCore20ElementRuleCollector16matchAuthorRulesEb
__ZNK7WebCore9TreeScope17applyAuthorStylesEv
__ZN7WebCore20ElementRuleCollector29collectMatchingRulesForRegionERKNS_12MatchRequestERNS_13StyleResolver9RuleRangeE
__ZNK7WebCore7Element22shouldMoveToFlowThreadEPNS_11RenderStyleE
__ZN7WebCore11HTMLElement16rendererIsNeededERKNS_20NodeRenderingContextE
__ZN7WebCore7Element16rendererIsNeededERKNS_20NodeRenderingContextE
__ZNK7WebCore20NodeRenderingContext12nextRendererEv
__ZN7WebCore11HTMLElement14createRendererEPNS_11RenderArenaEPNS_11RenderStyleE
__ZN7WebCore12RenderObject12createObjectEPNS_7ElementEPNS_11RenderStyleE
__ZNK7WebCore8Document17cssRegionsEnabledEv
__ZN7WebCore11RenderBlockC1EPNS_13ContainerNodeE
__ZNK7WebCore10RenderView14isChildAllowedEPNS_12RenderObjectEPNS_11RenderStyleE
__ZN7WebCore12RenderObject18setAnimatableStyleEN3WTF10PassRefPtrINS_11RenderStyleEEE
__ZN7WebCore19AnimationController16updateAnimationsEPNS_12RenderObjectEPNS_11RenderStyleE
__ZNK7WebCore21RenderLayerCompositor38supportsFixedRootBackgroundCompositingEv
__ZNK7WebCore12RenderObject12isRenderViewEv
__ZNK7WebCore9RenderBox13requiresLayerEv
__ZNK7WebCore7Element22savedLayerScrollOffsetEv
__ZN7WebCore7Element25setSavedLayerScrollOffsetERKNS_7IntSizeE
__ZNK7WebCore8Document4bodyEv
__ZNK7WebCore5Color5blendERKS0_
__ZNK7WebCore5Color6getHSLERdS1_S1_
__ZN7WebCore10RenderView8addChildEPNS_12RenderObjectES2_
__ZNK7WebCore12RenderObject18isRenderFlowThreadEv
__ZN7WebCore11RenderBlock8addChildEPNS_12RenderObjectES2_
__ZN7WebCore11RenderBlock28addChildIgnoringContinuationEPNS_12RenderObjectES2_
__ZN7WebCore11RenderBlock37addChildIgnoringAnonymousColumnBlocksEPNS_12RenderObjectES2_
__ZN7WebCore11RenderBlock30columnsBlockForSpanningElementEPNS_12RenderObjectE
__ZN7WebCore11RenderBlock21makeChildrenNonInlineEPNS_12RenderObjectE
__ZN7WebCore12RenderObject8addChildEPS0_S1_
__ZN7WebCore11RenderBlock15virtualChildrenEv
__ZNK7WebCore12RenderObject16isRenderTableColEv
__ZNK7WebCore12RenderObject14isTableCaptionEv
__ZNK7WebCore12RenderObject14isTableSectionEv
__ZNK7WebCore12RenderObject10isTableRowEv
__ZNK7WebCore12RenderObject11isTableCellEv
__ZN7WebCore21RenderObjectChildList15insertChildNodeEPNS_12RenderObjectES2_S2_b
__ZN7WebCore12RenderObject16insertedIntoTreeEv
__ZN7WebCoreL9addLayersEPNS_12RenderObjectEPNS_11RenderLayerERS1_RS3_
__ZN7WebCore12RenderObject13findNextLayerEPNS_11RenderLayerEPS0_b
__ZN7WebCore11RenderLayer8addChildEPS0_S1_
__ZN7WebCore11RenderLayer9setParentEPS0_
__ZN7WebCore21RenderLayerCompositor13layerWasAddedEPNS_11RenderLayerES2_
__ZN7WebCore11RenderLayer16dirtyZOrderListsEv
__ZN7WebCore21RenderLayerCompositor31setCompositingLayersNeedRebuildEb
__ZNK7WebCore12RenderObject28renderNamedFlowThreadWrapperEv
__ZNK7WebCore12RenderObject23isRenderNamedFlowThreadEv
__ZN7WebCore13RenderCounter23rendererSubtreeAttachedEPNS_12RenderObjectE
__ZN7WebCore12RenderObject29markContainingBlocksForLayoutEbPS0_
__ZNK7WebCore12RenderObject9containerEPKNS_22RenderLayerModelObjectEPb
__ZNK7WebCore12RenderObject13isTextControlEv
__ZN7WebCore9FrameView16scheduleRelayoutEv
__ZN7WebCore8Document20shouldScheduleLayoutEv
__ZN7WebCore12RenderObject24setLayerNeedsFullRepaintEv
__ZN7WebCore12RenderObject41invalidateContainerPreferredLogicalWidthsEv
__ZN7WebCore16SVGRenderSupport10childAddedEPNS_12RenderObjectES2_
__ZN7WebCore7Element19updatePseudoElementENS_8PseudoIdENS_4Node11StyleChangeE
__ZN7WebCore7Element27createPseudoElementIfNeededENS_8PseudoIdE
__ZN7WebCore7Element20beginParsingChildrenEv
__ZN7WebCore13StyleResolver17pushParentElementEPNS_7ElementE
__ZNK7WebCore4Node25parentOrShadowHostElementEv
__ZN7WebCore14SelectorFilter16setupParentStackEPNS_7ElementE
__ZN7WebCore14SelectorFilter20pushParentStackFrameEPNS_7ElementE
__ZN3WTF6VectorIN7WebCore14SelectorFilter16ParentStackFrameELm0ENS_15CrashOnOverflowEE14appendSlowCaseIS3_EEvRKT_
__ZN3WTF6VectorIN7WebCore14SelectorFilter16ParentStackFrameELm0ENS_15CrashOnOverflowEE14expandCapacityEmPKS3_
__ZN3WTF6VectorIN7WebCore14SelectorFilter16ParentStackFrameELm0ENS_15CrashOnOverflowEE15reserveCapacityEm
__ZN3WTF6VectorIN7WebCore24HTMLConstructionSiteTaskELm1ENS_15CrashOnOverflowEED1Ev
__ZN7WebCore15HTMLHtmlElement16insertedByParserEv
__ZN7WebCore20ApplicationCacheHost26selectCacheWithoutManifestEv
__ZN7WebCore21ApplicationCacheGroup29selectCacheWithoutManifestURLEPNS_5FrameE
__ZN7WebCore11FrameLoader32dispatchDocumentElementAvailableEv
__ZN7WebCore5Frame17injectUserScriptsENS_23UserScriptInjectionTimeE
__ZN3WTF6OwnPtrIN7WebCore11DoctypeDataEED2Ev
__ZN7WebCore15HTMLTreeBuilder20defaultForBeforeHeadEv
__ZN7WebCore15HTMLTreeBuilder15processStartTagEPNS_15AtomicHTMLTokenE
__ZN7WebCore20HTMLConstructionSite21insertHTMLHeadElementEPNS_15AtomicHTMLTokenE
__ZN7WebCore20HTMLConstructionSite17createHTMLElementEPNS_15AtomicHTMLTokenE
__ZN7WebCore18HTMLElementFactory17createHTMLElementERKNS_13QualifiedNameEPNS_8DocumentEPNS_15HTMLFormElementEb
__ZN3WTF9HashTableIPNS_16AtomicStringImplENS_12KeyValuePairIS2_PFNS_10PassRefPtrIN7WebCore11HTMLElementEEERKNS5_13QualifiedNameEPNS5_8DocumentEPNS5_15HTMLFormElementEbEEENS_24KeyValuePairKeyExtractorISH_EENS_7PtrHashIS2_EENS_18HashMapValueTraitsINS_10HashTraitsIS2_EENSN_ISG_EEEESO_E16lookupForWritingINS_22IdentityHashTranslatorISL_EES2_EENSt3__14pairIPSH_bEERKT0_
__ZN3WTF9HashTableIPNS_16AtomicStringImplENS_12KeyValuePairIS2_PFNS_10PassRefPtrIN7WebCore11HTMLElementEEERKNS5_13QualifiedNameEPNS5_8DocumentEPNS5_15HTMLFormElementEbEEENS_24KeyValuePairKeyExtractorISH_EENS_7PtrHashIS2_EENS_18HashMapValueTraitsINS_10HashTraitsIS2_EENSN_ISG_EEEESO_E3addINS_17HashMapTranslatorISQ_SL_EES2_SG_EENS_18HashTableAddResultINS_17HashTableIteratorIS2_SH_SJ_SL_SQ_SO_EEEERKT0_RKT1_
__ZN3WTF9HashTableIPNS_16AtomicStringImplENS_12KeyValuePairIS2_PFNS_10PassRefPtrIN7WebCore11HTMLElementEEERKNS5_13QualifiedNameEPNS5_8DocumentEPNS5_15HTMLFormElementEbEEENS_24KeyValuePairKeyExtractorISH_EENS_7PtrHashIS2_EENS_18HashMapValueTraitsINS_10HashTraitsIS2_EENSN_ISG_EEEESO_E6lookupINS_22IdentityHashTranslatorISL_EES2_EEPSH_RKT0_
__ZN7WebCoreL15headConstructorERKNS_13QualifiedNameEPNS_8DocumentEPNS_15HTMLFormElementEb
__ZN7WebCore15HTMLHeadElement6createERKNS_13QualifiedNameEPNS_8DocumentE
__ZN7WebCore15HTMLHeadElementC2ERKNS_13QualifiedNameEPNS_8DocumentE
__ZN3WTF6RefPtrIN7WebCore13HTMLStackItemEEaSERKNS_10PassRefPtrIS2_EE
__ZN7WebCore16HTMLElementStack19pushHTMLHeadElementEN3WTF10PassRefPtrINS_13HTMLStackItemEEE
__ZN7WebCore15HTMLTreeBuilder16defaultForInHeadEv
__ZN7WebCore15HTMLTreeBuilder13processEndTagEPNS_15AtomicHTMLTokenE
__ZN7WebCore16HTMLElementStack18popHTMLHeadElementEv
__ZN7WebCore7Element21finishParsingChildrenEv
__ZNK7WebCore4Node16nonRendererStyleEv
__ZN7WebCoreL27checkForSiblingStyleChangesEPNS_7ElementEPNS_11RenderStyleEbPNS_4NodeES5_i
__ZN7WebCore13StyleResolver16popParentElementEPNS_7ElementE
__ZN7WebCore16HTMLElementStack13ElementRecordD2Ev
__ZN7WebCore15HTMLTreeBuilder19defaultForAfterHeadEv
__ZN7WebCore20HTMLConstructionSite21insertHTMLBodyElementEPNS_15AtomicHTMLTokenE
__ZN7WebCoreL15bodyConstructorERKNS_13QualifiedNameEPNS_8DocumentEPNS_15HTMLFormElementEb
__ZN7WebCore15HTMLBodyElement6createERKNS_13QualifiedNameEPNS_8DocumentE
__ZN7WebCore15HTMLBodyElementC2ERKNS_13QualifiedNameEPNS_8DocumentE
__ZN3WTF6VectorIN7WebCore24HTMLConstructionSiteTaskELm1ENS_15CrashOnOverflowEE14appendSlowCaseIS2_EEvRKT_
__ZN3WTF6VectorIN7WebCore24HTMLConstructionSiteTaskELm1ENS_15CrashOnOverflowEE14expandCapacityEmPKS2_
__ZN3WTF6VectorIN7WebCore24HTMLConstructionSiteTaskELm1ENS_15CrashOnOverflowEE15reserveCapacityEm
__ZN7WebCore16HTMLElementStack19pushHTMLBodyElementEN3WTF10PassRefPtrINS_13HTMLStackItemEEE
__ZN7WebCore16HTMLElementStack6popAllEv
__ZN3WTF6VectorIN7WebCore9AttributeELm0ENS_15CrashOnOverflowEED2Ev
__ZN7WebCore14SelectorFilter19popParentStackFrameEv
__ZN7WebCore11HTMLElement15childrenChangedEbPNS_4NodeES2_i
__ZN7WebCore7Element15childrenChangedEbPNS_4NodeES2_i
__ZN7WebCore11HTMLElement48adjustDirectionalityIfNeededAfterChildrenChangedEPNS_4NodeEi
__ZNK7WebCore7Element25childShouldCreateRendererERKNS_20NodeRenderingContextE
__ZNK7WebCore7Element34hasFlagsSetDuringStylingOfChildrenEv
__ZN7WebCore11RenderStyleD2Ev
__ZN7WebCore15HTMLBodyElement12insertedIntoEPNS_13ContainerNodeE
__ZN3WTF6VectorINS_6RefPtrIN7WebCore4NodeEEELm0ENS_15CrashOnOverflowEE15reserveCapacityEm
__ZN7WebCore15HTMLBodyElement26didNotifySubtreeInsertionsEPNS_13ContainerNodeE
__ZNK7WebCore8Document12ownerElementEv
__ZNK7WebCore5Frame13ownerRendererEv
__ZN7WebCore8Document18minimumLayoutDelayEv
__ZNK7WebCore13StyleResolver24canShareStyleWithElementEPNS_13StyledElementE
__ZNK7WebCore13StyleResolver16locateCousinListEPNS_7ElementERj
__ZN7WebCoreL12compareRulesEPKNS_8RuleDataES2_
__ZN7WebCore19ApplyPropertyLengthIXadL_ZNKS_11RenderStyle9marginTopEvEEXadL_ZNS1_12setMarginTopENS_6LengthEEEXadL_ZNS1_13initialMarginEvEELNS_10LengthAutoE1ELNS_21LengthLegacyIntrinsicE0ELNS_15LengthIntrinsicE0ELNS_10LengthNoneE0ELNS_15LengthUndefinedE0EE10applyValueENS_13CSSPropertyIDEPNS_13StyleResolverEPNS_8CSSValueE
__ZNK7WebCore17CSSPrimitiveValue13primitiveTypeEv
__ZNK7WebCore17CSSPrimitiveValue13computeLengthINS_6LengthEEET_PKNS_11RenderStyleES6_fb
__ZNK7WebCore17CSSPrimitiveValue19computeLengthDoubleEPKNS_11RenderStyleES3_fb
__ZN7WebCore11RenderStyle12setMarginTopENS_6LengthE
__Z12compareEqualIN7WebCore6LengthES1_EbRKT_RKT0_
__ZNK7WebCore6Length17isCalculatedEqualERKS0_
__ZN7WebCore17StyleSurroundDataC1ERKS0_
__ZN7WebCore17StyleSurroundDataC2ERKS0_
__ZN7WebCore10BorderDataC2ERKS0_
__ZN7WebCore19ApplyPropertyLengthIXadL_ZNKS_11RenderStyle11marginRightEvEEXadL_ZNS1_14setMarginRightENS_6LengthEEEXadL_ZNS1_13initialMarginEvEELNS_10LengthAutoE1ELNS_21LengthLegacyIntrinsicE0ELNS_15LengthIntrinsicE0ELNS_10LengthNoneE0ELNS_15LengthUndefinedE0EE10applyValueENS_13CSSPropertyIDEPNS_13StyleResolverEPNS_8CSSValueE
__ZN7WebCore11RenderStyle14setMarginRightENS_6LengthE
__ZN7WebCore19ApplyPropertyLengthIXadL_ZNKS_11RenderStyle12marginBottomEvEEXadL_ZNS1_15setMarginBottomENS_6LengthEEEXadL_ZNS1_13initialMarginEvEELNS_10LengthAutoE1ELNS_21LengthLegacyIntrinsicE0ELNS_15LengthIntrinsicE0ELNS_10LengthNoneE0ELNS_15LengthUndefinedE0EE10applyValueENS_13CSSPropertyIDEPNS_13StyleResolverEPNS_8CSSValueE
__ZN7WebCore11RenderStyle15setMarginBottomENS_6LengthE
__ZN7WebCore19ApplyPropertyLengthIXadL_ZNKS_11RenderStyle10marginLeftEvEEXadL_ZNS1_13setMarginLeftENS_6LengthEEEXadL_ZNS1_13initialMarginEvEELNS_10LengthAutoE1ELNS_21LengthLegacyIntrinsicE0ELNS_15LengthIntrinsicE0ELNS_10LengthNoneE0ELNS_15LengthUndefinedE0EE10applyValueENS_13CSSPropertyIDEPNS_13StyleResolverEPNS_8CSSValueE
__ZN7WebCore11RenderStyle13setMarginLeftENS_6LengthE
__ZNK7WebCore12RenderObject14isChildAllowedEPS0_PNS_11RenderStyleE
__ZNK7WebCore12RenderObject7repaintEb
__ZNK7WebCore10RenderView8printingEv
__ZNK7WebCore12RenderObject19containerForRepaintEv
__ZNK7WebCore10RenderView15usesCompositingEv
__ZNK7WebCore9RenderBox29clippedOverflowRectForRepaintEPKNS_22RenderLayerModelObjectE
__ZNK7WebCore9RenderBox18visualOverflowRectEv
__ZNK7WebCore10RenderView21computeRectForRepaintEPKNS_22RenderLayerModelObjectERNS_10LayoutRectEb
__ZN7WebCore7IntRectC1ERKNS_10LayoutRectE
__ZNK7WebCore12RenderObject21repaintUsingContainerEPKNS_22RenderLayerModelObjectERKNS_7IntRectEb
__ZNK7WebCore10RenderView20repaintViewRectangleERKNS_10LayoutRectEb
__ZN7WebCore14SelectorFilter10pushParentEPNS_7ElementE
__ZN7WebCore11PumpSessionD1Ev
__ZN7WebCore8Document26decrementActiveParserCountEv
__ZN7WebCore11FrameLoader17checkLoadCompleteEv
__ZN7WebCore11FrameLoader29checkLoadCompleteForThisFrameEv
__ZNK7WebCore14DocumentLoader19isLoadingInAPISenseEv
__ZN3WTF6VectorINS_6RefPtrIN7WebCore5FrameEEELm10ENS_15CrashOnOverflowEED2Ev
__ZN7WebCore14DocumentParser20prepareToStopParsingEv
__ZN7WebCore16HTMLScriptRunner31executeScriptsWaitingForParsingEv
__ZN7WebCore15HTMLTreeBuilder8finishedEv
__ZN7WebCore20HTMLConstructionSite15finishedParsingEv
__ZN7WebCore8Document15finishedParsingEv
__ZN7WebCore8Document19updateStyleIfNeededEv
__ZN7WebCore19AnimationController20beginAnimationUpdateEv
__ZNK7WebCore25StyleRareNonInheritedData21contentDataEquivalentERKS0_
__ZNK7WebCore11RenderStyleeqERKS0_
__ZNK7WebCore18StyleInheritedDataeqERKS0_
__ZNK7WebCore4FonteqERKS0_
__ZNK7WebCore11RenderStyle24hasAnyPublicPseudoStylesEv
__ZN7WebCore18StyleInheritedDataD1Ev
__ZN7WebCore7Element11recalcStyleENS_4Node11StyleChangeE
__ZN7WebCore4Node30parentNodeForRenderingAndStyleEv
__ZNK7WebCore12StyleBoxDataeqERKS0_
__ZN7WebCore7Element25pseudoStyleCacheIsInvalidEPKNS_11RenderStyleEPS1_
__ZNK7WebCore12RenderObject36requiresForcedStyleRecalcPropagationEv
__ZN7WebCore12StyleBoxDataD2Ev
__ZN7WebCore7Element6detachERKNS_4Node13AttachContextE
__ZN7WebCore13ContainerNode6detachERKNS_4Node13AttachContextE
__ZN7WebCore4Node6detachERKNS0_13AttachContextE
__ZNK7WebCore17StyleSurroundDataeqERKS0_
__ZNK7WebCore9LengthBoxeqERKS0_
__ZNK7WebCore10BorderDataeqERKS0_
__ZNK7WebCore10LengthSizeeqERKS0_
__ZN7WebCore17StyleSurroundDataD2Ev
__ZN7WebCore10BorderDataD2Ev
__ZN3WTF7HashSetIPN7WebCore8DocumentENS_7PtrHashIS3_EENS_10HashTraitsIS3_EEE6removeERKS3_
__ZN3WTF9HashTableIPN7WebCore8DocumentES3_NS_17IdentityExtractorENS_7PtrHashIS3_EENS_10HashTraitsIS3_EES8_E6lookupINS_22IdentityHashTranslatorIS6_EES3_EEPS3_RKT0_
__ZNSt3__117__push_heap_frontIRN7WebCore25TimerHeapLessThanFunctionENS1_17TimerHeapIteratorEEEvT0_S5_T_NS_15iterator_traitsIS5_E15difference_typeE
__ZN7WebCore28DocumentStyleSheetCollection20resetCSSFeatureFlagsEv
__ZN7WebCore19AnimationController18endAnimationUpdateEv
__ZN7WebCore26AnimationControllerPrivate14styleAvailableEv
__ZN7WebCore26AnimationControllerPrivate17startTimeResponseEd
__ZN7WebCore11FrameLoader15finishedParsingEv
__ZN7WebCore24InspectorInstrumentation26instrumentingAgentsForPageEPNS_4PageE
__ZN7WebCore22instrumentationForPageEPNS_4PageE
__ZN7WebCore24InspectorInstrumentation30domContentLoadedEventFiredImplEPNS_19InstrumentingAgentsEPNS_5FrameE
__ZN7WebCore14InspectorAgent26domContentLoadedEventFiredEv
__ZN7WebCore18InjectedScriptHost21clearInspectedObjectsEv
__ZN7WebCore20CachedResourceLoader13clearPreloadsEv
__ZN7WebCore9DOMWindow15finishedLoadingEv
__ZN7WebCore20ApplicationCacheHost27finishedLoadingMainResourceEv
__ZN7WebCore18HTMLDocumentParser6detachEv
__ZN7WebCore14DocumentParser6detachEv
__ZN7WebCore16HTMLScriptRunner6detachEv
__ZN7WebCore15HTMLTreeBuilder6detachEv
__ZN7WebCore20HTMLConstructionSite6detachEv
__ZN7WebCore19HTMLParserSchedulerD1Ev
__ZN7WebCore9TimerBaseD2Ev
__ZN7WebCore18HTMLDocumentParserD0Ev
__ZN7WebCore18HTMLDocumentParserD2Ev
__ZN7WebCore10XSSAuditorD2Ev
__ZN7WebCore17HTMLSourceTrackerD2Ev
__ZN7WebCore15HTMLTreeBuilderD1Ev
__ZN7WebCore15HTMLTreeBuilderD2Ev
__ZN7WebCore20HTMLConstructionSiteD1Ev
__ZN7WebCore20HTMLConstructionSiteD2Ev
__ZN7WebCore25HTMLFormattingElementListD1Ev
__ZN7WebCore16HTMLElementStackD1Ev
__ZN7WebCore16HTMLScriptRunnerD1Ev
__ZN7WebCore16HTMLScriptRunnerD2Ev
__ZNK7WebCore13PendingScript12cachedScriptEv
__ZN7WebCore13PendingScriptD1Ev
__ZN7WebCore24CachedResourceHandleBaseD2Ev
__ZN7WebCore13HTMLTokenizerD1Ev
__ZN7WebCore13HTMLTokenizerD2Ev
__ZN3WTF6OwnPtrIN7WebCore9HTMLTokenEED2Ev
__ZN7WebCore14DocumentParserD2Ev
__ZN7WebCore11FrameLoader14checkCompletedEv
__ZN7WebCore9FrameView19handleLoadCompletedEv
__ZN7WebCore9FrameView17autoSizeIfEnabledEv
__ZN7WebCore8Document13implicitCloseEv
__ZN7WebCore19NavigationScheduler10startTimerEv
__ZN7WebCore11FrameLoader9completedEv
__ZN7WebCore9FrameView30maintainScrollPositionAtAnchorEPNS_4NodeE
__ZN7WebCore26PageActivityAssertionTokenD1Ev
__ZN7WebCore13PageThrottler19removeActivityTokenEPNS_26PageActivityAssertionTokenE
__ZN3WTF9HashTableIPN7WebCore26PageActivityAssertionTokenES3_NS_17IdentityExtractorENS_7PtrHashIS3_EENS_10HashTraitsIS3_EES8_E6lookupINS_22IdentityHashTranslatorIS6_EES3_EEPS3_RKT0_
__ZN3WTF9HashTableIPN7WebCore26PageActivityAssertionTokenES3_NS_17IdentityExtractorENS_7PtrHashIS3_EENS_10HashTraitsIS3_EES8_E6rehashEi
__ZN3WTF7HashSetIPN7WebCore26PageActivityAssertionTokenENS_7PtrHashIS3_EENS_10HashTraitsIS3_EEE6removeERKS3_
__ZN7WebCore8Document15hasActiveParserEv
__ZNK7WebCore11FrameLoader17subframeIsLoadingEv
__ZN7WebCore11FrameLoader18frameLoadCompletedEv
__ZN7WebCore17HistoryController27updateForFrameLoadCompletedEv
__ZNK7WebCore23FrameLoaderStateMachine30committedFirstRealDocumentLoadEv
__ZN7WebCore14DocumentLoader22stopRecordingResponsesEv
__ZN3WTF6VectorIN7WebCore16ResourceResponseELm0ENS_15CrashOnOverflowEE14shrinkCapacityEm
__ZN7WebCore23FrameLoaderStateMachine9advanceToENS0_5StateE
__ZN7WebCore4Page13setPaginationERKNS_10PaginationE
__ZN7WebCore15FocusController9setActiveEb
__ZN7WebCore9FrameView37updateLayoutAndStyleIfNeededRecursiveEv
__ZN7WebCore9FrameView6layoutEb
__ZNK7WebCore9FrameView33isInChildFrameWithFrameFlatteningEv
__ZNK7WebCore13StyleResolver24affectedByViewportChangeEv
__ZN7WebCore8Document22evaluateMediaQueryListEv
__ZN7WebCore9FrameView25applyPaginationToViewportEv
__ZN7WebCore9FrameView32calculateScrollbarModesForLayoutERNS_13ScrollbarModeES2_NS0_33ScrollbarModesCalculationStrategyE
__ZN7WebCore9FrameView23applyOverflowToViewportEPNS_12RenderObjectERNS_13ScrollbarModeES4_
__ZNK7WebCore9FrameView12headerHeightEv
__ZNK7WebCore9FrameView12footerHeightEv
__ZNK7WebCore10ScrollView14scrollbarModesERNS_13ScrollbarModeES2_
__ZN7WebCore10ScrollView23setScrollbarsSuppressedEbb
__ZNK7WebCore10ScrollView14useFixedLayoutEv
__ZN7WebCore10ScrollView16updateScrollbarsERKNS_7IntSizeE
__ZNK7WebCore10ScrollView16scrollCornerRectEv
__ZNK7WebCore14ScrollableArea20hasOverlayScrollbarsEv
__ZThn64_NK7WebCore10ScrollView17verticalScrollbarEv
__ZThn64_NK7WebCore10ScrollView19horizontalScrollbarEv
__ZNK7WebCore9FrameView22avoidScrollbarCreationEv
__ZN7WebCore10ScrollView23setHasVerticalScrollbarEb
__ZN7WebCore9FrameView15createScrollbarENS_20ScrollbarOrientationE
__ZN7WebCore10ScrollView15createScrollbarENS_20ScrollbarOrientationE
__ZN7WebCore9Scrollbar21createNativeScrollbarEPNS_14ScrollableAreaENS_20ScrollbarOrientationENS_20ScrollbarControlSizeE
__ZN7WebCore9ScrollbarC2EPNS_14ScrollableAreaENS_20ScrollbarOrientationENS_20ScrollbarControlSizeEPNS_14ScrollbarThemeE
__ZN7WebCore14ScrollbarTheme5themeEv
__ZN7WebCore8Settings21mockScrollbarsEnabledEv
__ZN7WebCore14ScrollbarTheme11nativeThemeEv
+[WebScrollbarPrefsObserver registerAsObserver]
__ZN7WebCore17ScrollbarThemeMac17registerScrollbarEPNS_20ScrollbarThemeClientE
__ZThn64_NK7WebCore9Scrollbar11orientationEv
__ZN7WebCore24recommendedScrollerStyleEv
__ZN7WebCore8Settings21usesOverlayScrollbarsEv
__ZThn64_NK7WebCore9Scrollbar11controlSizeEv
__ZN7WebCore17ScrollbarThemeMac18updateEnabledStateEPNS_20ScrollbarThemeClientE
__ZNK3WTF7HashMapIPN7WebCore20ScrollbarThemeClientENS_9RetainPtrIP11objc_objectEENS_7PtrHashIS3_EENS_10HashTraitsIS3_EENSA_IS7_EEE3getERKS3_
__ZN3WTF9HashTableIPN7WebCore20ScrollbarThemeClientENS_12KeyValuePairIS3_NS_9RetainPtrIP11objc_objectEEEENS_24KeyValuePairKeyExtractorIS9_EENS_7PtrHashIS3_EENS_18HashMapValueTraitsINS_10HashTraitsIS3_EENSF_IS8_EEEESG_E16lookupForWritingINS_22IdentityHashTranslatorISD_EES3_EENSt3__14pairIPS9_bEERKT0_
__ZN3WTF9HashTableIPN7WebCore20ScrollbarThemeClientENS_12KeyValuePairIS3_NS_9RetainPtrIP11objc_objectEEEENS_24KeyValuePairKeyExtractorIS9_EENS_7PtrHashIS3_EENS_18HashMapValueTraitsINS_10HashTraitsIS3_EENSF_IS8_EEEESG_E3addINS_17HashMapTranslatorISI_SD_EES3_S8_EENS_18HashTableAddResultINS_17HashTableIteratorIS3_S9_SB_SD_SI_SG_EEEERKT0_RKT1_
__ZN3WTF9HashTableIPN7WebCore20ScrollbarThemeClientENS_12KeyValuePairIS3_NS_9RetainPtrIP11objc_objectEEEENS_24KeyValuePairKeyExtractorIS9_EENS_7PtrHashIS3_EENS_18HashMapValueTraitsINS_10HashTraitsIS3_EENSF_IS8_EEEESG_E6lookupINS_22IdentityHashTranslatorISD_EES3_EEPS9_RKT0_
__ZN3WTF9HashTableIPN7WebCore20ScrollbarThemeClientENS_12KeyValuePairIS3_NS_9RetainPtrIP11objc_objectEEEENS_24KeyValuePairKeyExtractorIS9_EENS_7PtrHashIS3_EENS_18HashMapValueTraitsINS_10HashTraitsIS3_EENSF_IS8_EEEESG_E6rehashEi
__ZThn64_NK7WebCore9Scrollbar7enabledEv
__ZN7WebCore17ScrollbarThemeMac27updateScrollbarOverlayStyleEPNS_20ScrollbarThemeClientE
__ZThn64_NK7WebCore9Scrollbar21scrollbarOverlayStyleEv
__ZN7WebCore17ScrollbarThemeMac18scrollbarThicknessENS_20ScrollbarControlSizeE
__ZThn64_NK7WebCore10ScrollView14scrollPositionEPNS_9ScrollbarE
__ZNK7WebCore9Scrollbar11orientationEv
__ZNK7WebCore10ScrollView14scrollPositionEv
__ZN7WebCore10ScrollView8addChildEN3WTF10PassRefPtrINS_6WidgetEEE
__ZN7WebCore9Scrollbar9setParentEPNS_10ScrollViewE
__ZN7WebCore6Widget9setParentEPNS_10ScrollViewE
__ZN7WebCore6Widget16setParentVisibleEb
__ZN3WTF9HashTableINS_6RefPtrIN7WebCore6WidgetEEES4_NS_17IdentityExtractorENS_7PtrHashIS4_EENS_10HashTraitsIS4_EES9_E3addINS_22IdentityHashTranslatorIS7_EES4_S4_EENS_18HashTableAddResultINS_17HashTableIteratorIS4_S4_S5_S7_S9_S9_EEEERKT0_RKT1_
__ZN3WTF9HashTableINS_6RefPtrIN7WebCore6WidgetEEES4_NS_17IdentityExtractorENS_7PtrHashIS4_EENS_10HashTraitsIS4_EES9_E6rehashEi
__ZThn64_N7WebCore9FrameView15didAddScrollbarEPNS_9ScrollbarENS_20ScrollbarOrientationE
__ZN7WebCore14ScrollableArea15didAddScrollbarEPNS_9ScrollbarENS_20ScrollbarOrientationE
__ZN7WebCore14ScrollAnimator6createEPNS_14ScrollableAreaE
__ZN7WebCore17ScrollAnimatorMacC2EPNS_14ScrollableAreaE
__ZN7WebCore14ScrollAnimatorC2EPNS_14ScrollableAreaE
__ZN7WebCore26ScrollElasticityControllerC1EPNS_32ScrollElasticityControllerClientE
-[WebScrollAnimationHelperDelegate initWithScrollAnimator:]
-[WebScrollbarPainterControllerDelegate initWithScrollableArea:]
__ZN7WebCore17ScrollAnimatorMac23didAddVerticalScrollbarEPNS_9ScrollbarE
__ZNK7WebCore14ScrollbarTheme11isMockThemeEv
__ZN7WebCore17ScrollbarThemeMac19painterForScrollbarEPNS_20ScrollbarThemeClientE
-[WebScrollbarPainterDelegate .cxx_construct]
-[WebScrollbarPainterDelegate initWithScrollbar:]
__ZThn64_N7WebCore10ScrollView24setScrollbarOverlayStyleENS_21ScrollbarOverlayStyleE
__ZN7WebCore14ScrollableArea24setScrollbarOverlayStyleENS_21ScrollbarOverlayStyleE
__ZN7WebCore9Scrollbar10invalidateEv
__ZN7WebCore9Scrollbar14invalidateRectERKNS_7IntRectE
__ZN7WebCore14ScrollableArea19invalidateScrollbarEPNS_9ScrollbarERKNS_7IntRectE
__ZThn64_NK7WebCore9FrameView25layerForVerticalScrollbarEv
__ZThn64_N7WebCore9FrameView23invalidateScrollbarRectEPNS_9ScrollbarERKNS_7IntRectE
__ZNK7WebCore9Scrollbar8locationEv
__ZN7WebCore9FrameView14invalidateRectERKNS_7IntRectE
__ZNK7WebCore9FrameView10hostWindowEv
__ZN7WebCore6Chrome29invalidateContentsAndRootViewERKNS_7IntRectEb
__ZN7WebCore10ScrollView32platformSetScrollbarOverlayStyleENS_21ScrollbarOverlayStyleE
__ZNK7WebCore9FrameView13axObjectCacheEv
__ZNK7WebCore8Document21existingAXObjectCacheEv
__ZN7WebCore9Scrollbar12styleChangedEv
__ZNK7WebCore10ScrollView13visibleHeightEv
__ZNK7WebCore9Scrollbar18isOverlayScrollbarEv
__ZNK7WebCore17ScrollbarThemeMac21usesOverlayScrollbarsEv
__ZN7WebCore9Scrollbar22maxOverlapBetweenPagesEv
__ZN7WebCore17ScrollbarThemeMac22maxOverlapBetweenPagesEv
__ZNK7WebCore9Scrollbar9frameRectEv
__ZNK7WebCore9Scrollbar5widthEv
__ZN7WebCore9Scrollbar12setFrameRectERKNS_7IntRectE
__ZNK7WebCore9Scrollbar6parentEv
__ZNK7WebCore9FrameView17windowResizerRectEv
__ZNK7WebCore6Chrome17windowResizerRectEv
__ZNK7WebCore14ScrollableArea17totalContentsSizeEv
__ZThn64_NK7WebCore10ScrollView12contentsSizeEv
__ZThn64_NK7WebCore9FrameView12headerHeightEv
__ZThn64_NK7WebCore9FrameView12footerHeightEv
__ZN7WebCore9Scrollbar10setEnabledEb
__ZN7WebCore9Scrollbar8setStepsEiii
__ZN7WebCore9Scrollbar13setProportionEii
__ZN7WebCore9Scrollbar21updateThumbProportionEv
__ZN7WebCore23ScrollbarThemeComposite14invalidatePartEPNS_20ScrollbarThemeClientENS_13ScrollbarPartE
__ZN7WebCore17ScrollbarThemeMac9trackRectEPNS_20ScrollbarThemeClientEb
__ZN7WebCore17ScrollbarThemeMac10hasButtonsEPNS_20ScrollbarThemeClientE
__ZThn64_NK7WebCore9Scrollbar9frameRectEv
__ZN7WebCore23ScrollbarThemeComposite10splitTrackEPNS_20ScrollbarThemeClientERKNS_7IntRectERS3_S6_S6_
__ZN7WebCore23ScrollbarThemeComposite31constrainTrackRectToTrackPiecesEPNS_20ScrollbarThemeClientERKNS_7IntRectE
__ZThn64_NK7WebCore9Scrollbar5widthEv
__ZN7WebCore23ScrollbarThemeComposite13thumbPositionEPNS_20ScrollbarThemeClientE
__ZN7WebCore23ScrollbarThemeComposite11thumbLengthEPNS_20ScrollbarThemeClientE
__ZThn64_NK7WebCore9Scrollbar8locationEv
__ZThn64_N7WebCore9Scrollbar14invalidateRectERKNS_7IntRectE
__ZN7WebCore10ScrollView17frameRectsChangedEv
__ZN7WebCore6Widget17frameRectsChangedEv
__ZN7WebCore10ScrollView23positionScrollbarLayersEv
__ZThn64_NK7WebCore9FrameView27layerForHorizontalScrollbarEv
__ZN7WebCoreL22positionScrollbarLayerEPNS_13GraphicsLayerEPNS_9ScrollbarE
__ZThn64_NK7WebCore9FrameView20layerForScrollCornerEv
__ZN7WebCore9FrameView18updateScrollCornerEv
__ZN7WebCore10ScrollView18updateScrollCornerEv
__ZThn64_NK7WebCore9FrameView22isRubberBandInProgressEv
__ZNK7WebCore9FrameView21maximumScrollPositionEv
__ZNK7WebCore10ScrollView12visibleWidthEv
__ZNK7WebCore9FrameView21minimumScrollPositionEv
__ZNK7WebCore10ScrollView21minimumScrollPositionEv
__ZN7WebCore9Scrollbar15offsetDidChangeEv
__ZNK7WebCore10ScrollView10layoutSizeEv
__ZNK7WebCore4Node9renderBoxEv
__ZNK7WebCore9RenderBox19stretchesToViewportEv
__ZNK7WebCore12RenderObject14enclosingLayerEv
__ZN7WebCore9FrameView29forceLayoutParentViewIfNeededEv
__ZN7WebCore10RenderView6layoutEv
__ZNK7WebCore10RenderView9viewWidthEv
__ZNK7WebCore9RenderBox24hasRelativeLogicalHeightEv
__ZNK7WebCore9RenderBox34hasViewportPercentageLogicalHeightEv
__ZN7WebCore10RenderView21initializeLayoutStateERNS_11LayoutStateE
__ZN7WebCore11RenderBlock6layoutEv
__ZN7WebCore23OverflowEventDispatcherC2EPKNS_11RenderBlockE
__ZN7WebCore11RenderBlock17updateFirstLetterEv
__ZN7WebCore11RenderBlock11layoutBlockEbNS_10LayoutUnitE
__ZN7WebCore11RenderBlock16simplifiedLayoutEv
__ZNK7WebCore12RenderObject27checkForRepaintDuringLayoutEv
__ZN7WebCore15LayoutRepainterC1ERNS_12RenderObjectEb
__ZN7WebCore11RenderBlock32updateLogicalWidthAndColumnWidthEv
__ZNK7WebCore11RenderBlock18desiredColumnWidthEv
__ZNK7WebCore9RenderBox11clientWidthEv
__ZNK7WebCore20RenderBoxModelObject10borderLeftEv
__ZNK7WebCore20RenderBoxModelObject11borderRightEv
__ZNK7WebCore9RenderBox22verticalScrollbarWidthEv
__ZNK7WebCore20RenderBoxModelObject11paddingLeftEv
__ZNK7WebCore20RenderBoxModelObject18computedCSSPaddingENS_6LengthE
__ZN7WebCore21minimumValueForLengthERKNS_6LengthENS_10LayoutUnitEPNS_10RenderViewEb
__ZNK7WebCore20RenderBoxModelObject12paddingRightEv
__ZN7WebCore10RenderView18updateLogicalWidthEv
__ZN7WebCore10RenderView15calcColumnWidthEv
__ZN7WebCore11RenderBlock29setDesiredColumnCountAndWidthEiNS_10LayoutUnitE
__ZNK7WebCore10RenderView15requiresColumnsEi
__ZN7WebCore11RenderBlock11clearFloatsEv
__ZN7WebCore11RenderBlock37checkForPaginationLogicalHeightChangeERNS_10LayoutUnitERbS3_
__ZN7WebCore10RenderView15pushLayoutStateEPNS_9RenderBoxERKNS_10LayoutSizeENS_10LayoutUnitEbPNS_10ColumnInfoE
__ZNK7WebCore11RenderBlock13isRenderBlockEv
__ZN7WebCore11RenderBlock43updateRegionsAndExclusionsBeforeChildLayoutEPNS_16RenderFlowThreadE
__ZNK7WebCore11RenderBlock21layoutShapeInsideInfoEv
__ZN7WebCore11RenderBlock19initMaxMarginValuesEv
__ZNK7WebCore9LengthBox6beforeENS_11WritingModeE
__ZNK7WebCore9LengthBox5afterENS_11WritingModeE
__ZN7WebCore11RenderBlock18setPaginationStrutENS_10LayoutUnitE
__ZN7WebCore11RenderBlock19layoutBlockChildrenEbRNS_10LayoutUnitE
__ZN7WebCore11RenderBlock45dirtyForLayoutFromPercentageHeightDescendantsEv
__ZNK7WebCore20RenderBoxModelObject12borderBeforeEv
__ZNK7WebCore11RenderStyle17borderBeforeWidthEv
__ZNK7WebCore20RenderBoxModelObject13paddingBeforeEv
__ZNK7WebCore20RenderBoxModelObject11borderAfterEv
__ZNK7WebCore11RenderStyle16borderAfterWidthEv
__ZNK7WebCore20RenderBoxModelObject12paddingAfterEv
__ZNK7WebCore9RenderBox25horizontalScrollbarHeightEv
__ZN7WebCore11RenderBlock10MarginInfoC2EPS0_NS_10LayoutUnitES3_
__ZN7WebCore11RenderBlock26layoutSpecialExcludedChildEb
__ZNK7WebCore9RenderBox33needsPreferredWidthsRecalculationEv
__ZNK7WebCore9LengthBox5startENS_11WritingModeENS_13TextDirectionE
__ZNK7WebCore9LengthBox3endENS_11WritingModeENS_13TextDirectionE
__ZN7WebCore11RenderBlock16layoutBlockChildEPNS_9RenderBoxERNS0_10MarginInfoERNS_10LayoutUnitES6_
__ZNK7WebCore9RenderBox12marginBeforeEPKNS_11RenderStyleE
__ZNK7WebCore15LayoutBoxExtent6beforeENS_11WritingModeE
__ZN7WebCore9RenderBox34computeAndSetBlockDirectionMarginsEPKNS_11RenderBlockE
__ZNK7WebCore9RenderBox28computeBlockDirectionMarginsEPKNS_11RenderBlockERNS_10LayoutUnitES5_
__ZNK7WebCore9RenderBox37containingBlockLogicalWidthForContentEv
__ZNK7WebCore12RenderObject15containingBlockEv
__ZNK7WebCore11RenderBlock21availableLogicalWidthEv
__ZN7WebCore15LayoutBoxExtent9setBeforeENS_11WritingModeENS_10LayoutUnitE
__ZN7WebCore15LayoutBoxExtent8setAfterENS_11WritingModeENS_10LayoutUnitE
__ZN7WebCore11RenderBlock26estimateLogicalTopPositionEPNS_9RenderBoxERKNS0_10MarginInfoERNS_10LayoutUnitE
__ZNK7WebCore11RenderBlock28marginBeforeEstimateForChildEPNS_9RenderBoxERNS_10LayoutUnitES4_Rb
__ZNK7WebCore11RenderBlock19hasMarginAfterQuirkEPKNS_9RenderBoxE
__ZN7WebCore11RenderBlock13getClearDeltaEPNS_9RenderBoxENS_10LayoutUnitE
__ZNK7WebCore12RenderObject13isFlexibleBoxEv
__ZNK7WebCore12RenderObject23isDeprecatedFlexibleBoxEv
__ZN7WebCore9RenderBox18updateLogicalWidthEv
__ZNK7WebCore9RenderBox27computeLogicalWidthInRegionERNS0_27LogicalExtentComputedValuesEPNS_12RenderRegionE
__ZNK7WebCore9RenderBox11marginStartEPKNS_11RenderStyleE
__ZNK7WebCore15LayoutBoxExtent5startENS_11WritingModeENS_13TextDirectionE
__ZNK7WebCore9RenderBox9marginEndEPKNS_11RenderStyleE
__ZNK7WebCore15LayoutBoxExtent3endENS_11WritingModeENS_13TextDirectionE
__ZNK7WebCore9FrameView10layoutRootEb
__ZNK7WebCore9RenderBox27shouldComputeSizeAsReplacedEv
__ZNK7WebCore9RenderBox45containingBlockLogicalWidthForContentInRegionEPNS_12RenderRegionE
__ZNK7WebCore9RenderBox32computeLogicalWidthInRegionUsingENS_8SizeTypeENS_6LengthENS_10LayoutUnitEPKNS_11RenderBlockEPNS_12RenderRegionE
__ZNK7WebCore9RenderBox20fillAvailableMeasureENS_10LayoutUnitERS1_S2_
__ZNK7WebCore9RenderBox19shrinkToAvoidFloatsEv
__ZNK7WebCore9RenderBox29sizesLogicalWidthToFitContentENS_8SizeTypeE
__ZNK7WebCore11RenderBlock26isInlineBlockOrInlineTableEv
__ZNK7WebCore9RenderBox37constrainLogicalWidthInRegionByMinMaxENS_10LayoutUnitES1_PNS_11RenderBlockEPNS_12RenderRegionE
__ZN7WebCore14valueForLengthERKNS_6LengthENS_10LayoutUnitEPNS_10RenderViewEb
__ZNK7WebCore20RenderBoxModelObject11borderStartEv
__ZNK7WebCore11RenderStyle16borderStartWidthEv
__ZNK7WebCore20RenderBoxModelObject9borderEndEv
__ZNK7WebCore11RenderStyle14borderEndWidthEv
__ZNK7WebCore20RenderBoxModelObject12paddingStartEv
__ZNK7WebCore20RenderBoxModelObject10paddingEndEv
__ZNK7WebCore9RenderBox29computeInlineDirectionMarginsEPNS_11RenderBlockENS_10LayoutUnitES3_RS3_S4_
__ZN7WebCore15LayoutBoxExtent8setStartENS_11WritingModeENS_13TextDirectionENS_10LayoutUnitE
__ZN7WebCore15LayoutBoxExtent6setEndENS_11WritingModeENS_13TextDirectionENS_10LayoutUnitE
__ZN7WebCore11RenderBlock15calcColumnWidthEv
__ZNK7WebCore8Document25regionBasedColumnsEnabledEv
__ZNK7WebCore11RenderBlock15requiresColumnsEi
__ZN7WebCore11RenderBlock20layoutInlineChildrenEbRNS_10LayoutUnitES2_
__ZN7WebCore17RenderLineBoxList15deleteLineBoxesEPNS_11RenderArenaE
__ZNK7WebCore11RenderBlock14hasLineIfEmptyEv
__ZNK7WebCore4Node21isRootEditableElementEv
__ZNK7WebCore4Node18rendererIsEditableENS0_13EditableLevelENS0_22UserSelectAllTreatmentE
__ZN7WebCore11RenderBlock21relayoutForPaginationEbNS_10LayoutUnitERNS_21LayoutStateMaintainerE
__ZNK7WebCore9RenderBox12clientHeightEv
__ZNK7WebCore20RenderBoxModelObject9borderTopEv
__ZNK7WebCore20RenderBoxModelObject12borderBottomEv
__ZN7WebCore9RenderBox19updateLogicalHeightEv
__ZNK7WebCore9RenderBox20computeLogicalHeightENS_10LayoutUnitES1_RNS0_27LogicalExtentComputedValuesE
__ZNK7WebCore12RenderObject7isTableEv
__ZNK7WebCore9RenderBox44computeContentAndScrollbarLogicalHeightUsingERKNS_6LengthE
__ZNK7WebCore9RenderBox30constrainLogicalHeightByMinMaxENS_10LayoutUnitE
__ZNK7WebCore11RenderBlock21collapsedMarginBeforeEv
__ZNK7WebCore11RenderBlock20collapsedMarginAfterEv
__ZNK7WebCore9RenderBox11marginAfterEPKNS_11RenderStyleE
__ZNK7WebCore15LayoutBoxExtent5afterENS_11WritingModeE
__ZNK7WebCore10RenderView23pageOrViewLogicalHeightEv
__ZNK7WebCore10RenderView10viewHeightEv
__ZN7WebCore11RenderBlock23layoutPositionedObjectsEbb
__ZN7WebCore11RenderBlock15computeOverflowENS_10LayoutUnitEb
__ZN7WebCore11RenderBlock23addOverflowFromChildrenEv
__ZN7WebCore11RenderBlock29addOverflowFromInlineChildrenEv
__ZNK7WebCore11RenderBlock33expandsToEncloseOverhangingFloatsEv
__ZNK7WebCore12RenderObject10isFieldsetEv
__ZNK7WebCore22RenderLayerModelObject20hasSelfPaintingLayerEv
__ZN7WebCore11RenderBlock32addOverflowFromPositionedObjectsEv
__ZNK7WebCore11RenderBlock16textIndentOffsetEv
__ZN7WebCore9RenderBox23addVisualEffectOverflowEv
__ZN7WebCore11RenderBlock26addVisualOverflowFromThemeEv
__ZN7WebCore11RenderBlock24fitBorderToLinesIfNeededEv
__ZN7WebCore9RenderBox20updateLayerTransformEv
__ZN7WebCore15LayoutRepainter18repaintAfterLayoutEv
__ZNK7WebCore9RenderBox14hasControlClipEv
__ZN7WebCore23OverflowEventDispatcherD2Ev
__ZN7WebCore11RenderBlock15collapseMarginsEPNS_9RenderBoxERNS0_10MarginInfoE
__ZNK7WebCore11RenderBlock31mustDiscardMarginBeforeForChildEPKNS_9RenderBoxE
__ZNK7WebCore11RenderBlock30mustDiscardMarginAfterForChildEPKNS_9RenderBoxE
__ZNK7WebCore11RenderBlock21isSelfCollapsingBlockEv
__ZNK7WebCore11RenderBlock20marginValuesForChildEPNS_9RenderBoxE
__ZNK7WebCore11RenderBlock20hasMarginBeforeQuirkEPKNS_9RenderBoxE
__ZN7WebCore11RenderBlock19clearFloatsIfNeededEPNS_9RenderBoxERNS0_10MarginInfoENS_10LayoutUnitES5_S5_
__ZN7WebCore11RenderBlock36determineLogicalLeftPositionForChildEPNS_9RenderBoxENS0_20ApplyLayoutDeltaModeE
__ZN7WebCore11RenderBlock22handleAfterSideOfBlockENS_10LayoutUnitES1_RNS0_10MarginInfoE
__ZN7WebCore11RenderBlock24setCollapsedBottomMarginERKNS0_10MarginInfoE
__ZN7WebCore9RenderBox20addOverflowFromChildEPS0_RKNS_10LayoutSizeE
__ZNK7WebCore9RenderBox32layoutOverflowRectForPropagationEPNS_11RenderStyleE
__ZNK7WebCore9RenderBox13clientBoxRectEv
__ZN7WebCore10LayoutRect5uniteERKS0_
__ZN7WebCore9RenderBox17addLayoutOverflowERKNS_10LayoutRectE
__ZNK7WebCore10LayoutRect8containsERKS0_
__ZN7WebCore9RenderBox17addVisualOverflowERKNS_10LayoutRectE
__ZN7WebCore11RenderBlock21addOverflowFromFloatsEv
__ZNK7WebCore10RenderView20computeLogicalHeightENS_10LayoutUnitES1_RNS_9RenderBox27LogicalExtentComputedValuesE
__ZN7WebCore9FrameView14adjustViewSizeEv
__ZNK7WebCore10RenderView12documentRectEv
__ZNK7WebCore10RenderView20unscaledDocumentRectEv
__ZNK7WebCore9RenderBox18flipForWritingModeERNS_10LayoutRectE
__ZN7WebCore9FloatRectC1ERKNS_7IntRectE
__ZN7WebCore10FloatPointC1ERKNS_8IntPointE
__ZN7WebCore7IntRectC1ERKNS_9FloatRectE
__ZN7WebCore10ScrollView15setScrollOriginERKNS_8IntPointEbb
__ZN7WebCore10ScrollView15setContentsSizeERKNS_7IntSizeE
__ZN7WebCore9FrameView22visibleContentsResizedEv
__ZThn64_N7WebCore9FrameView19willRemoveScrollbarEPNS_9ScrollbarENS_20ScrollbarOrientationE
__ZN7WebCore14ScrollableArea19willRemoveScrollbarEPNS_9ScrollbarENS_20ScrollbarOrientationE
__ZN7WebCore17ScrollAnimatorMac27willRemoveVerticalScrollbarEPNS_9ScrollbarE
-[WebScrollbarPainterDelegate invalidate]
-[WebScrollbarPainterDelegate .cxx_destruct]
__ZN7WebCore9FrameView11removeChildEPNS_6WidgetE
__ZNK7WebCore6Widget11isFrameViewEv
__ZN7WebCore10ScrollView11removeChildEPNS_6WidgetE
__ZN3WTF9HashTableINS_6RefPtrIN7WebCore6WidgetEEES4_NS_17IdentityExtractorENS_7PtrHashIS4_EENS_10HashTraitsIS4_EES9_E6lookupINS_22IdentityHashTranslatorIS7_EES4_EEPS4_RKT0_
__ZN7WebCore9ScrollbarD0Ev
__ZN7WebCore17ScrollbarThemeMac19unregisterScrollbarEPNS_20ScrollbarThemeClientE
__ZN7WebCore6WidgetD2Ev
__ZThn64_N7WebCore9FrameView15contentsResizedEv
__ZN7WebCore9FrameView15contentsResizedEv
__ZN7WebCore14ScrollableArea15contentsResizedEv
__ZNK7WebCore17ScrollAnimatorMac15contentsResizedEv
__ZThn64_NK7WebCore9FrameView21scrollbarsCanBeActiveEv
-[WebScrollbarPainterControllerDelegate inLiveResizeForScrollerImpPair:]
__ZN7WebCore11RenderLayer31updateLayerPositionsAfterLayoutEPKS0_j
__ZN7WebCore17RenderGeometryMapC1Ej
__ZN7WebCore11RenderLayer20updateLayerPositionsEPNS_17RenderGeometryMapEj
__ZN7WebCore11RenderLayer19updateLayerPositionEv
__ZNK7WebCore9RenderBox21topLeftLocationOffsetEv
__ZNK7WebCore12RenderObject21isRenderScrollbarPartEv
__ZN7WebCore17RenderGeometryMap22pushMappingsToAncestorEPKNS_11RenderLayerES3_
__ZNK7WebCore10RenderView22pushMappingToContainerEPKNS_22RenderLayerModelObjectERNS_17RenderGeometryMapE
__ZNK7WebCore9FrameView28scrollOffsetForFixedPositionEv
__ZN7WebCore14ScrollableArea34constrainScrollPositionForOverhangERKNS_7IntRectERKNS_7IntSizeERKNS_8IntPointES9_ii
__ZN7WebCore7IntRect9intersectERKS0_
__ZNK7WebCore12RenderObject31shouldUseTransformFromContainerEPKS0_
__ZN7WebCore17RenderGeometryMap8pushViewEPKNS_10RenderViewERKNS_10LayoutSizeEPKNS_20TransformationMatrixE
__ZN3WTF6VectorIN7WebCore21RenderGeometryMapStepELm32ENS_15CrashOnOverflowEE6insertIS2_EEvmRKT_
__ZNK7WebCore9RenderBox23outlineBoundsForRepaintEPKNS_22RenderLayerModelObjectEPKNS_17RenderGeometryMapE
__ZNK7WebCore9RenderBox17borderBoundingBoxEv
__ZNK7WebCore12RenderObject29adjustRectForOutlineAndShadowERNS_10LayoutRectE
__ZNK7WebCore11RenderBlock22outlineStyleForRepaintEv
__ZNK7WebCore11RenderBlock28isAnonymousBlockContinuationEv
__ZN7WebCore9FloatRectC1ERKNS_10LayoutRectE
__ZN7WebCore10FloatPointC1ERKNS_11LayoutPointE
__ZN7WebCore9FloatSizeC1ERKNS_10LayoutSizeE
__ZNK7WebCore17RenderGeometryMap14mapToContainerERKNS_9FloatRectEPKNS_22RenderLayerModelObjectE
__ZNK7WebCore9FloatQuad11boundingBoxEv
__ZN7WebCore16enclosingIntRectERKNS_9FloatRectE
__ZN7WebCore12RenderObject26repaintAfterLayoutIfNeededEPKNS_22RenderLayerModelObjectERKNS_10LayoutRectES6_PS5_S7_
__ZNK7WebCore12RenderObject29mustRepaintBackgroundOrBorderEv
__ZN7WebCoreL21mustRepaintFillLayersEPKNS_12RenderObjectEPKNS_9FillLayerE
__ZN7WebCore9FrameView23repaintContentRectangleERKNS_7IntRectEb
__ZN3WTF6VectorIN7WebCore10LayoutRectELm0ENS_15CrashOnOverflowEE15reserveCapacityEm
__ZNK7WebCore11RenderStyle20getShadowInsetExtentEPKNS_10ShadowDataE
__ZNK7WebCore11RenderStyle25getShadowHorizontalExtentEPKNS_10ShadowDataERNS_10LayoutUnitES5_
__ZNK7WebCore11RenderStyle23getShadowVerticalExtentEPKNS_10ShadowDataERNS_10LayoutUnitES5_
__ZNK7WebCore11RenderLayer20convertToLayerCoordsEPKS0_RNS_11LayoutPointE
__ZN7WebCoreL31accumulateOffsetTowardsAncestorEPKNS_11RenderLayerES2_RNS_11LayoutPointE
__ZN7WebCore17RenderGeometryMap4pushEPKNS_12RenderObjectERKNS_10LayoutSizeEbbbb
__ZNK7WebCore9RenderBox21computeRectForRepaintEPKNS_22RenderLayerModelObjectERNS_10LayoutRectEb
__ZN7WebCore17RenderGeometryMap21popMappingsToAncestorEPKNS_11RenderLayerE
__ZN7WebCore17RenderGeometryMap21popMappingsToAncestorEPKNS_22RenderLayerModelObjectE
__ZN7WebCore17RenderGeometryMapD1Ev
__ZN7WebCore10ScrollView23repaintContentRectangleERKNS_7IntRectEb
__ZNK7WebCore10ScrollView16contentsToWindowERKNS_7IntRectE
__ZNK7WebCore6Widget25convertToContainingWindowERKNS_7IntRectE
__ZN7WebCore6Widget33convertFromRootToContainingWindowEPKS0_RKNS_7IntRectE
__ZN7WebCore9FrameView22updateAnnotatedRegionsEv
__ZNK7WebCore9FrameView15useSlowRepaintsEb
__ZNK7WebCore12RenderObject12isCompositedEv
__ZN7WebCore10ScrollView18setCanBlitOnScrollEb
__ZN7WebCore9FrameView22performPostLayoutTasksEv
__ZN7WebCore14FrameSelection16updateAppearanceEv
__ZN7WebCore14FrameSelection18recomputeCaretRectEv
__ZN7WebCore14FrameSelection14localCaretRectEv
__ZNK7WebCore9CaretBase26absoluteBoundsForLocalRectEPNS_4NodeERKNS_10LayoutRectE
__ZN7WebCore15VisiblePositionC1ERKNS_8PositionENS_9EAffinityE
__ZN7WebCore15VisiblePosition4initERKNS_8PositionENS_9EAffinityE
__ZN7WebCore15VisiblePosition17canonicalPositionERKNS_8PositionE
__ZN7WebCore16VisibleSelectionC1ERKNS_15VisiblePositionES3_b
__ZN7WebCore16VisibleSelection8validateENS_15TextGranularityE
__ZN7WebCore16VisibleSelection33setBaseAndExtentToDeepEquivalentsEv
__ZN7WebCore16VisibleSelection52setStartAndEndFromBaseAndExtentRespectingGranularityENS_15TextGranularityE
__ZN7WebCore16VisibleSelection46adjustSelectionToAvoidCrossingShadowBoundariesEv
__ZN7WebCore16VisibleSelection47adjustSelectionToAvoidCrossingEditingBoundariesEv
__ZN7WebCore16VisibleSelection19updateSelectionTypeEv
__ZN7WebCore10RenderView14clearSelectionEv
__ZN7WebCore11RenderLayer25repaintBlockSelectionGapsEv
__ZN7WebCore10RenderView12setSelectionEPNS_12RenderObjectEiS2_iNS0_20SelectionRepaintModeE
__ZN7WebCore16VisibleSelectionD2Ev
__ZNK7WebCore4Page14renderTreeSizeEv
__ZNK7WebCore4Page9pageCountEv
__ZN7WebCore10RenderView21updateWidgetPositionsEv
__ZN7WebCore10RenderView18getRetainedWidgetsERN3WTF6VectorIPNS_12RenderWidgetELm0ENS1_15CrashOnOverflowEEE
__ZN3WTF6VectorIPN7WebCore12RenderWidgetELm0ENS_15CrashOnOverflowEE15reserveCapacityEm
__ZN7WebCore9FrameView13updateWidgetsEv
__ZN7WebCore9FrameView14scrollToAnchorEv
__ZN7WebCore9FrameView23sendResizeEventIfNeededEv
__ZN7WebCore10ScrollView26invalidateScrollCornerRectERKNS_7IntRectE
__ZNK7WebCore17ScrollAnimatorMac22isRubberBandInProgressEv
__ZNK7WebCore26ScrollElasticityController22isRubberBandInProgressEv
__ZN7WebCore10ScrollView19updateOverhangAreasEv
__ZN7WebCore10ScrollView33calculateOverhangAreasForPaintingERNS_7IntRectES2_
__ZNK7WebCore6Chrome19contentsSizeChangedEPNS_5FrameERKNS_7IntSizeE
__ZNK7WebCore12HTMLDocument10isFrameSetEv
__ZN7WebCore11FrameLoader14didFirstLayoutEv
__ZN7WebCore4Page37startCountingRelevantRepaintedObjectsEv
__ZN7WebCore4Page33resetRelevantPaintedObjectCounterEv
__ZN3WTF12VectorBufferIiLm32EE4swapERS1_
__ZN3WTF12VectorBufferIN7WebCore6Region4SpanELm16EE4swapERS4_
__ZN7WebCore9FrameView18updateControlTintsEv
__ZN7WebCore14FrameSelection21pageActivationChangedEv
__ZN7WebCore14FrameSelection27focusedOrActiveStateChangedEv
__ZNK7WebCore10RenderView16repaintSelectionEv
__ZN7WebCore12EventHandler27capsLockStateMayHaveChangedEv
__ZN7WebCore15FocusController10setFocusedEb
__ZN7WebCore4Page13setIsInWindowEb
__ZN7WebCore9FrameView13setIsInWindowEb
__ZN7WebCore21RenderLayerCompositor13setIsInWindowEb
__ZN7WebCore4Page17willMoveOffscreenEv
__ZN7WebCore9FrameView17willMoveOffscreenEv
__ZNK7WebCore14ScrollableArea18contentAreaDidHideEv
__ZNK7WebCore17ScrollAnimatorMac18contentAreaDidHideEv
__ZN7WebCore8Document43suspendScriptedAnimationControllerCallbacksEv
__ZN7WebCore9FrameView24setScrollPinningBehaviorENS_21ScrollPinningBehaviorE
__ZN7WebCore4Page14setMediaVolumeEf
__ZN7WebCore4Page19addLayoutMilestonesEj
__ZN7WebCore4Page11PageClientsD1Ev
__ZN7WebCore4Page18setVisibilityStateENS_19PageVisibilityStateEb
__ZN7WebCore19AnimationController17suspendAnimationsEv
__ZN7WebCore26AnimationControllerPrivate17suspendAnimationsEv
__ZN7WebCore26AnimationControllerPrivate28suspendAnimationsForDocumentEPNS_8DocumentE
__ZN7WebCore26AnimationControllerPrivate20updateAnimationTimerENS_10SetChangedE
__ZN7WebCore26AnimationControllerPrivate16updateAnimationsENS_10SetChangedE
__ZN7WebCore10ScrollView4hideEv
__ZN7WebCore6Widget4hideEv
__ZN7WebCore8Document29storageBlockingStateDidChangeEv
__ZN7WebCore9FrameView37setScrollingPerformanceLoggingEnabledEb
__ZN7WebCore9FrameView12tiledBackingEv
__ZN7WebCore15ScrollingThread8dispatchERKN3WTF8FunctionIFvvEEE
__ZN7WebCore15ScrollingThread14threadCallbackEPv
__ZN7WebCore15ScrollingThread17initializeRunLoopEv
__ZN3WTF6VectorINS_8FunctionIFvvEEELm0ENS_15CrashOnOverflowEE14expandCapacityEmPKS3_
__ZN3WTF6VectorINS_8FunctionIFvvEEELm0ENS_15CrashOnOverflowEE15reserveCapacityEm
__ZN7WebCore15ScrollingThread13wakeUpRunLoopEv
__ZN7WebCore15ScrollingThread27threadRunLoopSourceCallbackEPv
__ZN7WebCore15ScrollingThread36dispatchFunctionsFromScrollingThreadEv
__ZN7WebCore13ScrollingTree37setScrollingPerformanceLoggingEnabledEb
__ZN7WebCore9PageCache31canCachePageContainingThisFrameEPNS_5FrameE
__ZN7WebCore21RenderLayerCompositor15ensureRootLayerEv
__ZNK7WebCore21RenderLayerCompositor42shouldPropagateCompositingToEnclosingFrameEv
__ZN7WebCore13GraphicsLayer6createEPNS_20GraphicsLayerFactoryEPNS_19GraphicsLayerClientE
__ZN7WebCore15GraphicsLayerCAC2EPNS_19GraphicsLayerClientE
__ZN7WebCore13GraphicsLayerC2EPNS_19GraphicsLayerClientE
__ZNK7WebCore19GraphicsLayerClient21shouldUseTiledBackingEPKNS_13GraphicsLayerE
__ZN7WebCore15PlatformCALayer6createENS0_9LayerTypeEPNS_21PlatformCALayerClientE
__ZN7WebCore15PlatformCALayerC2ENS0_9LayerTypeEP7CALayerPNS_21PlatformCALayerClientE
-[WebLayer actionForKey:]
__ZNK7WebCore15GraphicsLayerCA21canThrottleLayerFlushEv
__ZN7WebCore21RenderLayerCompositor19notifyFlushRequiredEPKNS_13GraphicsLayerE
__ZN7WebCore19LayerFlushScheduler8scheduleEv
__ZNK7WebCore10RenderView30pixelSnappedLayoutOverflowRectEv
__ZN7WebCore15GraphicsLayerCA7setSizeERKNS_9FloatSizeE
__ZN7WebCore15GraphicsLayerCA11setPositionERKNS_10FloatPointE
__ZN7WebCore15GraphicsLayerCA16setMasksToBoundsEb
__ZN7WebCore20ScrollingCoordinator41setLayerIsContainerForFixedPositionLayersEPNS_13GraphicsLayerEb
__ZN7WebCore15GraphicsLayerCA8addChildEPNS_13GraphicsLayerE
__ZN7WebCore13GraphicsLayer8addChildEPS0_
__ZN3WTF6VectorIPN7WebCore13GraphicsLayerELm0ENS_15CrashOnOverflowEE14expandCapacityEmPKS3_
__ZN3WTF6VectorIPN7WebCore13GraphicsLayerELm0ENS_15CrashOnOverflowEE15reserveCapacityEm
__ZN7WebCore15GraphicsLayerCA20noteSublayersChangedEv
__ZN7WebCore21RenderLayerCompositor22frameViewDidChangeSizeEv
__ZN7WebCore21RenderLayerCompositor18frameViewDidScrollEv
__ZNK7WebCore20ScrollingCoordinator32coordinatesScrollingForFrameViewEPNS_9FrameViewE
__ZN7WebCore21RenderLayerCompositor28updateOverflowControlsLayersEv
__ZNK7WebCore21RenderLayerCompositor26requiresOverhangAreasLayerEv
__ZNK7WebCore9FrameView19hasOpaqueBackgroundEv
__ZN7WebCore15GraphicsLayerCA15setDrawsContentEb
__ZN7WebCore17ScrollbarThemeMac31setUpOverhangAreasLayerContentsEPNS_13GraphicsLayerERKNS_5ColorE
__ZNK7WebCore15GraphicsLayerCA13platformLayerEv
__ZNK7WebCore15PlatformCALayer13platformLayerEv
__ZN7WebCore15GraphicsLayerCA13addChildBelowEPNS_13GraphicsLayerES2_
__ZN7WebCore13GraphicsLayer13addChildBelowEPS0_S1_
__ZN7WebCore15GraphicsLayerCA16removeFromParentEv
__ZN7WebCore13GraphicsLayer16removeFromParentEv
__ZNK7WebCore21RenderLayerCompositor26requiresContentShadowLayerEv
__ZNK7WebCore9FrameView13isTransparentEv
__ZN7WebCore17ScrollbarThemeMac23setUpContentShadowLayerEPNS_13GraphicsLayerE
__ZNK7WebCore21RenderLayerCompositor31shouldCompositeOverflowControlsEv
__ZNK7WebCore10ScrollView21isScrollCornerVisibleEv
__ZN7WebCore21RenderLayerCompositor15attachRootLayerENS0_19RootLayerAttachmentE
__ZN7WebCore9FrameView26adjustTiledBackingCoverageEv
__ZN7WebCore21RenderLayerCompositor32notifyIFramesOfCompositingChangeEv
__ZN7WebCore21RenderLayerCompositor10OverlapMap24pushCompositingContainerEv
__ZN3WTF6VectorINS0_IN7WebCore7IntRectELm0ENS_15CrashOnOverflowEEELm0ES3_E14expandCapacityEmPKS4_
__ZN3WTF6VectorINS0_IN7WebCore7IntRectELm0ENS_15CrashOnOverflowEEELm0ES3_E15reserveCapacityEm
__ZN3WTF6VectorIN7WebCore7IntRectELm0ENS_15CrashOnOverflowEEC1ERKS4_
__ZN7WebCore21RenderLayerCompositor30computeCompositingRequirementsEPNS_11RenderLayerES2_PNS0_10OverlapMapERNS_16CompositingStateERbS7_
__ZN7WebCore11RenderLayer24updateLayerListsIfNeededEv
__ZN7WebCore11RenderLayer17updateZOrderListsEv
__ZN7WebCore11RenderLayer18rebuildZOrderListsENS0_21CollectLayersBehaviorERN3WTF6OwnPtrINS2_6VectorIPS0_Lm0ENS2_15CrashOnOverflowEEEEES9_
__ZN7WebCore11RenderLayer20updateNormalFlowListEv
__ZN7WebCore11RenderLayer45updateDescendantsAreContiguousInStackingOrderEv
__ZNK7WebCore11RenderLayer15reflectionLayerEv
__ZNK7WebCore11RenderLayer35enclosingCompositingLayerForRepaintENS_16IncludeSelfOrNotE
__ZN7WebCore11RenderLayer41repaintIncludingNonCompositingDescendantsEPNS_22RenderLayerModelObjectE
__ZN7WebCore9FrameView37setNeedsOneShotDrawingSynchronizationEv
__ZN7WebCore11RenderLayer13ensureBackingEv
__ZN7WebCore18RenderLayerBackingC1EPNS_11RenderLayerE
__ZN7WebCore18RenderLayerBackingC2EPNS_11RenderLayerE
__ZN7WebCore18RenderLayerBacking26createPrimaryGraphicsLayerEv
__ZN7WebCore18RenderLayerBacking19createGraphicsLayerERKN3WTF6StringE
__ZNK7WebCore18RenderLayerBacking21shouldUseTiledBackingEPKNS_13GraphicsLayerE
-[WebTiledBackingLayer .cxx_construct]
-[WebTiledBackingLayer init]
__ZN7WebCore14TileController6createEP20WebTiledBackingLayer
__ZN7WebCore14TileControllerC2EP20WebTiledBackingLayer
-[WebTiledBackingLayer actionForKey:]
__ZN3WTF6OwnPtrINS_6VectorINS_6RefPtrIN7WebCore15PlatformCALayerEEELm0ENS_15CrashOnOverflowEEEEaSERKNS_10PassOwnPtrIS7_EE
__ZN3WTF10PassOwnPtrINS_6VectorINS_6RefPtrIN7WebCore15PlatformCALayerEEELm0ENS_15CrashOnOverflowEEEED2Ev
-[WebTiledBackingLayer tileContainerLayer]
__ZN7WebCore8Document20mediaVolumeDidChangeEv
__ZN7WebCore16FrameLoadRequestC1EPNS_5FrameERKNS_15ResourceRequestERKNS_14SubstituteDataE
__ZN7WebCore16FrameLoadRequestC2EPNS_5FrameERKNS_15ResourceRequestERKNS_14SubstituteDataE
__ZN7WebCore11FrameLoader4loadERKNS_16FrameLoadRequestE
__ZN7WebCore16FrameLoadRequestC2ERKS0_
__ZN7WebCore11FrameLoader27defaultSubstituteDataForURLERKNS_4KURLE
__ZNK7WebCore11FrameLoader30shouldTreatURLAsSrcdocDocumentERKNS_4KURLE
__ZN7WebCore14SubstituteDataaSERKS0_
__ZN7WebCore11FrameLoader4loadEPNS_14DocumentLoaderE
__ZN7WebCore11FrameLoader23addExtraFieldsToRequestERNS_15ResourceRequestENS_13FrameLoadTypeEb
__ZN7WebCore19ResourceRequestBase23setFirstPartyForCookiesERKNS_4KURLE
__ZN7WebCore11FrameLoader14applyUserAgentERNS_15ResourceRequestE
__ZN7WebCore19ResourceRequestBase18setHTTPHeaderFieldEPKcRKN3WTF6StringE
__ZN7WebCore19ResourceRequestBase18setHTTPHeaderFieldERKN3WTF12AtomicStringERKNS1_6StringE
__ZNK7WebCore19ResourceRequestBase13isConditionalEv
__ZNK7WebCore13HTTPHeaderMap8containsEPKc
__ZN7WebCore11FrameLoader21addHTTPOriginIfNeededERNS_15ResourceRequestERKN3WTF6StringE
__ZNK7WebCore19ResourceRequestBase15httpHeaderFieldEPKc
__ZNK7WebCore8Document8encodingEv
__ZNK7WebCore12TextEncoding7domNameEv
__ZN7WebCore30noExtendedTextEncodingNameUsedEv
__ZNK7WebCore14DocumentLoader15originalRequestEv
__ZNK7WebCore11FrameLoader29shouldTreatURLAsSameAsCurrentERKNS_4KURLE
__ZNK7WebCore14DocumentLoader14unreachableURLEv
__ZN7WebCore11FrameLoader34shouldReloadToHandleUnreachableURLEPNS_14DocumentLoaderE
__ZN7WebCore11FrameLoader22loadWithDocumentLoaderEPNS_14DocumentLoaderENS_13FrameLoadTypeEN3WTF10PassRefPtrINS_9FormStateEEE
__ZNK7WebCore4KURL21hasFragmentIdentifierEv
__ZN7WebCore13PolicyChecker9stopCheckEv
__ZN7WebCore14PolicyCallbackC2ERKS0_
__ZN7WebCore14PolicyCallback5clearEv
__ZN7WebCore14PolicyCallback12clearRequestEv
__ZN7WebCore19ResourceRequestBaseaSERKS0_
__ZN7WebCore14PolicyCallback6cancelEv
__ZN7WebCore14PolicyCallbackD1Ev
__ZN7WebCore14PolicyCallbackD2Ev
__ZN7WebCore16NavigationActionC1ERKNS_15ResourceRequestENS_13FrameLoadTypeEb
__ZN3WTF22IdentityHashTranslatorINS_15CaseFoldingHashEE9translateINS_12KeyValuePairINS_12AtomicStringENS_6StringEEES5_EEvRT_RKT0_RKS8_
__ZN7WebCore16NavigationActionaSERKS0_
__ZN7WebCore13PolicyChecker21checkNavigationPolicyERKNS_15ResourceRequestEPNS_14DocumentLoaderEN3WTF10PassRefPtrINS_9FormStateEEEPFvPvS3_S9_bESA_
__ZN7WebCore25equalIgnoringHeaderFieldsERKNS_19ResourceRequestBaseES2_
__ZN7WebCore14DocumentLoader21setLastCheckedRequestERKNS_15ResourceRequestE
__ZN7WebCore14PolicyCallback3setERKNS_15ResourceRequestEN3WTF10PassRefPtrINS_9FormStateEEEPFvPvS3_S7_bES8_
__ZNK7WebCore19ResourceRequestBase7isEmptyEv
__ZN7WebCore21findEventWithKeyStateEPNS_5EventE
__ZN7WebCore14SchemeRegistry34shouldLoadURLSchemeAsEmptyDocumentERKN3WTF6StringE
__ZN7WebCore13PolicyChecker29continueAfterNavigationPolicyENS_12PolicyActionE
__ZN7WebCore14PolicyCallback4callEb
__ZN7WebCore11FrameLoader37callContinueLoadAfterNavigationPolicyEPvRKNS_15ResourceRequestEN3WTF10PassRefPtrINS_9FormStateEEEb
__ZN7WebCore11FrameLoader33continueLoadAfterNavigationPolicyERKNS_15ResourceRequestEN3WTF10PassRefPtrINS_9FormStateEEEb
__ZN7WebCore11FrameLoader11shouldCloseEv
__ZN7WebCore6Chrome30canRunBeforeUnloadConfirmPanelEv
__ZN7WebCore11FrameLoader14stopAllLoadersENS_26ClearProvisionalItemPolicyE
__ZN7WebCore14DocumentLoader11stopLoadingEv
__ZN7WebCoreL9cancelAllERKN3WTF7HashSetINS0_6RefPtrINS_14ResourceLoaderEEENS0_7PtrHashIS4_EENS0_10HashTraitsIS4_EEEE
__ZN3WTF12copyToVectorINS_7HashSetINS_6RefPtrIN7WebCore14ResourceLoaderEEENS_7PtrHashIS5_EENS_10HashTraitsIS5_EEEENS_6VectorIS5_Lm0ENS_15CrashOnOverflowEEEEEvRKT_RT0_
__ZN3WTF6VectorINS_6RefPtrIN7WebCore14ResourceLoaderEEELm0ENS_15CrashOnOverflowEE6resizeEm
__ZN7WebCore20ApplicationCacheHost18stopLoadingInFrameEPNS_5FrameE
__ZN7WebCore19InspectorController6resumeEv
__ZN7WebCore22InspectorDebuggerAgent6resumeEPN3WTF6StringE
__ZN7WebCore22InspectorDebuggerAgent12assertPausedEPN3WTF6StringE
__ZNK7WebCore23FrameLoaderStateMachine15firstLayoutDoneEv
__ZN7WebCore11FrameLoader19prepareForLoadStartEv
__ZN7WebCore15ProgressTracker15progressStartedEPNS_5FrameE
__ZN7WebCore15ProgressTracker5resetEv
__ZN7WebCore11FrameLoader28loadProgressingStatusChangedEv
__ZN7WebCore9FrameView37updateLayerFlushThrottlingInAllFramesEv
__ZNK7WebCore15ProgressTracker21isMainLoadProgressingEv
__ZN7WebCore21RenderLayerCompositor30setLayerFlushThrottlingEnabledEb
__ZN7WebCore24InspectorInstrumentation23frameStartedLoadingImplEPNS_19InstrumentingAgentsEPNS_5FrameE
__ZNK7WebCore7Element25containsFullScreenElementEv
__ZN7WebCore4Page20unmarkAllTextMatchesEv
__ZN7WebCore24DocumentMarkerController13removeMarkersENS_14DocumentMarker11MarkerTypesE
__ZNK7WebCore9FrameTree20traverseNextWithWrapEb
__ZNK7WebCore14DocumentLoader3urlEv
__ZN7WebCore11FrameLoader35addExtraFieldsToMainResourceRequestERNS_15ResourceRequestE
__ZN7WebCore14DocumentLoader15willSendRequestERNS_15ResourceRequestERKNS_16ResourceResponseE
__ZNK7WebCore11FrameLoader29checkIfFormActionAllowedByCSPERKNS_4KURLE
__ZNK7WebCore11FrameLoader18isLoadingMainFrameEv
__ZNK7WebCore20ResourceResponseBase14httpStatusCodeEv
__ZN7WebCore14DocumentLoader10setRequestERKNS_15ResourceRequestE
__ZN7WebCore20ApplicationCacheHost21maybeLoadMainResourceERNS_15ResourceRequestERNS_14SubstituteDataE
__ZN7WebCore21ApplicationCacheGroup19cacheForMainRequestERKNS_15ResourceRequestEPNS_14DocumentLoaderE
__ZN7WebCore16ApplicationCache23requestIsHTTPOrHTTPSGetERKNS_15ResourceRequestE
__ZN7WebCore23ApplicationCacheStorage16cacheGroupForURLERKNS_4KURLE
__ZN7WebCore23ApplicationCacheStorage22loadManifestHostHashesEv
__ZN7WebCore23ApplicationCacheStorage12openDatabaseEb
__ZN7WebCoreL11urlHostHashERKNS_4KURLE
__ZN7WebCore21CachedResourceRequestC1ERKNS_15ResourceRequestERKNS_21ResourceLoaderOptionsE
__ZN7WebCore20CachedResourceLoader19requestMainResourceERNS_21CachedResourceRequestE
__ZN7WebCore20CachedResourceLoader15requestResourceENS_14CachedResource4TypeERNS_21CachedResourceRequestE
__ZN7WebCore11MemoryCache32removeFragmentIdentifierIfNeededERKNS_4KURLE
__ZN7WebCore20CachedResourceLoader10canRequestENS_14CachedResource4TypeERKNS_4KURLEb
__ZN7WebCore16ScriptController42shouldBypassMainWorldContentSecurityPolicyEv
__ZN7WebCore15JSDOMWindowBase8commonVMEv
__ZN7WebCore16ScriptController19initializeThreadingEv
__ZN7WebCore15DOMWrapperWorldC1EPN3JSC2VMEb
__ZN3WTF9HashTableIPN7WebCore15DOMWrapperWorldES3_NS_17IdentityExtractorENS_7PtrHashIS3_EENS_10HashTraitsIS3_EES8_E3addINS_22IdentityHashTranslatorIS6_EES3_S3_EENS_18HashTableAddResultINS_17HashTableIteratorIS3_S3_S4_S6_S8_S8_EEEERKT0_RKT1_
__ZN3WTF9HashTableIPN7WebCore15DOMWrapperWorldES3_NS_17IdentityExtractorENS_7PtrHashIS3_EENS_10HashTraitsIS3_EES8_E6rehashEi
__ZN7WebCore11MemoryCache18resourceForRequestERKNS_15ResourceRequestE
__ZN3WTF9HashTableINS_6StringENS_12KeyValuePairIS1_NS_6OwnPtrINS_7HashMapIS1_PN7WebCore14CachedResourceENS_10StringHashENS_10HashTraitsIS1_EENS9_IS7_EEEEEEEENS_24KeyValuePairKeyExtractorISE_EES8_NS_18HashMapValueTraitsISA_NS9_ISD_EEEESA_E16lookupForWritingINS_22IdentityHashTranslatorIS8_EES1_EENSt3__14pairIPSE_bEERKT0_
__ZN3WTF9HashTableINS_6StringENS_12KeyValuePairIS1_NS_6OwnPtrINS_7HashMapIS1_PN7WebCore14CachedResourceENS_10StringHashENS_10HashTraitsIS1_EENS9_IS7_EEEEEEEENS_24KeyValuePairKeyExtractorISE_EES8_NS_18HashMapValueTraitsISA_NS9_ISD_EEEESA_E3addINS_17HashMapTranslatorISJ_S8_EES1_NS_10PassOwnPtrISC_EEEENS_18HashTableAddResultINS_17HashTableIteratorIS1_SE_SG_S8_SJ_SA_EEEERKT0_RKT1_
__ZN3WTF9HashTableINS_6StringENS_12KeyValuePairIS1_NS_6OwnPtrINS_7HashMapIS1_PN7WebCore14CachedResourceENS_10StringHashENS_10HashTraitsIS1_EENS9_IS7_EEEEEEEENS_24KeyValuePairKeyExtractorISE_EES8_NS_18HashMapValueTraitsISA_NS9_ISD_EEEESA_E6lookupINS_22IdentityHashTranslatorIS8_EES1_EEPSE_RKT0_
__ZN3WTF9HashTableINS_6StringENS_12KeyValuePairIS1_NS_6OwnPtrINS_7HashMapIS1_PN7WebCore14CachedResourceENS_10StringHashENS_10HashTraitsIS1_EENS9_IS7_EEEEEEEENS_24KeyValuePairKeyExtractorISE_EES8_NS_18HashMapValueTraitsISA_NS9_ISD_EEEESA_E6rehashEi
__ZN3WTF9HashTableINS_6StringENS_12KeyValuePairIS1_NS_6OwnPtrINS_7HashMapIS1_PN7WebCore14CachedResourceENS_10StringHashENS_10HashTraitsIS1_EENS9_IS7_EEEEEEEENS_24KeyValuePairKeyExtractorISE_EES8_NS_18HashMapValueTraitsISA_NS9_ISD_EEEESA_E6removeEPSE_
__ZN7WebCore24CachedResourceHandleBase11setResourceEPNS_14CachedResourceE
__ZNK7WebCore20CachedResourceLoader27determineRevalidationPolicyENS_14CachedResource4TypeERNS_15ResourceRequestEbPS1_NS_21CachedResourceRequest11DeferOptionE
__ZN7WebCoreL14createResourceENS_14CachedResource4TypeERNS_15ResourceRequestERKN3WTF6StringE
__ZN7WebCore17CachedRawResourceC1ERNS_15ResourceRequestENS_14CachedResource4TypeE
__ZN7WebCore14CachedResourceC2ERKNS_15ResourceRequestENS0_4TypeE
__ZN7WebCore24CachedResourceHandleBaseC2EPNS_14CachedResourceE
__ZN7WebCore14CachedResource14registerHandleEPNS_24CachedResourceHandleBaseE
__ZN7WebCore11MemoryCache3addEPNS_14CachedResourceE
__ZN3WTF7HashMapINS_6StringENS_6OwnPtrINS0_IS1_PN7WebCore14CachedResourceENS_10StringHashENS_10HashTraitsIS1_EENS7_IS5_EEEEEES6_S8_NS7_ISB_EEE3setERKS1_NS_10PassOwnPtrISA_EE
__ZN3WTF6OwnPtrINS_7HashMapINS_6StringEPN7WebCore14CachedResourceENS_10StringHashENS_10HashTraitsIS2_EENS7_IS5_EEEEEaSERKNS_10PassOwnPtrISA_EE
__ZN7WebCore11MemoryCache16resourceAccessedEPNS_14CachedResourceE
__ZNK7WebCore14CachedResource12overheadSizeEv
__ZN7WebCore11MemoryCache10lruListForEPNS_14CachedResourceE
__ZN7WebCore14CachedResource16unregisterHandleEPNS_24CachedResourceHandleBaseE
__ZN7WebCore14CachedResource15setLoadPriorityENS_20ResourceLoadPriorityE
__ZN7WebCore14CachedResource4loadEPNS_20CachedResourceLoaderERKNS_21ResourceLoaderOptionsE
__ZNK7WebCore20CachedResourceLoader5frameEv
__ZN7WebCore19ResourceRequestBase11setPriorityENS_20ResourceLoadPriorityE
__ZNK7WebCore19ResourceRequestBase8priorityEv
__ZN7WebCore21ResourceLoadScheduler23scheduleSubresourceLoadEPNS_5FrameEPNS_14CachedResourceERKNS_15ResourceRequestENS_20ResourceLoadPriorityERKNS_21ResourceLoaderOptionsE
__ZN7WebCore17SubresourceLoader6createEPNS_5FrameEPNS_14CachedResourceERKNS_15ResourceRequestERKNS_21ResourceLoaderOptionsE
__ZN7WebCore14ResourceLoaderC2EPNS_5FrameENS_21ResourceLoaderOptionsE
__ZN7WebCore20ResourceHandleClientC2Ev
__ZN7WebCore20CachedResourceLoader21incrementRequestCountEPKNS_14CachedResourceE
__ZN7WebCore17SubresourceLoader4initERKNS_15ResourceRequestE
__ZN7WebCore14ResourceLoader4initERKNS_15ResourceRequestE
__ZN7WebCore17SubresourceLoader15willSendRequestERNS_15ResourceRequestERKNS_16ResourceResponseE
__ZN7WebCore14ResourceLoader15willSendRequestERNS_15ResourceRequestERKNS_16ResourceResponseE
__ZN7WebCore15ProgressTracker22createUniqueIdentifierEv
__ZN7WebCore20ResourceLoadNotifier32assignIdentifierToInitialRequestEmPNS_14DocumentLoaderERKNS_15ResourceRequestE
__ZNK7WebCore14DocumentLoader11frameLoaderEv
__ZN7WebCore20ResourceLoadNotifier15willSendRequestEPNS_14ResourceLoaderERNS_15ResourceRequestERKNS_16ResourceResponseE
__ZN7WebCore20ResourceLoadNotifier23dispatchWillSendRequestEPNS_14DocumentLoaderEmRNS_15ResourceRequestERKNS_16ResourceResponseE
__ZN7WebCore15ResourceRequest39updateFromDelegatePreservingOldHTTPBodyERKS0_
__ZNK7WebCore19ResourceRequestBase8httpBodyEv
__ZN7WebCore19ResourceRequestBase11setHTTPBodyEN3WTF10PassRefPtrINS_8FormDataEEE
__ZN7WebCore24InspectorInstrumentation19willSendRequestImplEPNS_19InstrumentingAgentsEmPNS_14DocumentLoaderERNS_15ResourceRequestERKNS_16ResourceResponseE
__ZNK7WebCore14DocumentLoader10requestURLEv
__ZN7WebCore14DocumentLoader20addSubresourceLoaderEPNS_14ResourceLoaderE
__ZN7WebCore21ResourceLoadScheduler12scheduleLoadEPNS_14ResourceLoaderENS_20ResourceLoadPriorityE
__ZNK7WebCore14DocumentLoader21archiveResourceForURLERKNS_4KURLE
__ZN7WebCore21ResourceLoadScheduler10hostForURLERKNS_4KURLENS0_16CreateHostPolicyE
__ZN3WTF9HashTableINS_6StringENS_12KeyValuePairIS1_PN7WebCore21ResourceLoadScheduler15HostInformationEEENS_24KeyValuePairKeyExtractorIS7_EENS_10StringHashENS_18HashMapValueTraitsINS_10HashTraitsIS1_EENSC_IS6_EEEESD_E16lookupForWritingINS_22IdentityHashTranslatorISA_EES1_EENSt3__14pairIPS7_bEERKT0_
__ZN3WTF9HashTableINS_6StringENS_12KeyValuePairIS1_PN7WebCore21ResourceLoadScheduler15HostInformationEEENS_24KeyValuePairKeyExtractorIS7_EENS_10StringHashENS_18HashMapValueTraitsINS_10HashTraitsIS1_EENSC_IS6_EEEESD_E3addINS_17HashMapTranslatorISF_SA_EES1_S6_EENS_18HashTableAddResultINS_17HashTableIteratorIS1_S7_S9_SA_SF_SD_EEEERKT0_RKT1_
__ZN3WTF9HashTableINS_6StringENS_12KeyValuePairIS1_PN7WebCore21ResourceLoadScheduler15HostInformationEEENS_24KeyValuePairKeyExtractorIS7_EENS_10StringHashENS_18HashMapValueTraitsINS_10HashTraitsIS1_EENSC_IS6_EEEESD_E6lookupINS_22IdentityHashTranslatorISA_EES1_EEPS7_RKT0_
__ZN3WTF9HashTableINS_6StringENS_12KeyValuePairIS1_PN7WebCore21ResourceLoadScheduler15HostInformationEEENS_24KeyValuePairKeyExtractorIS7_EENS_10StringHashENS_18HashMapValueTraitsINS_10HashTraitsIS1_EENSC_IS6_EEEESD_E6rehashEi
__ZN3WTF5DequeINS_6RefPtrIN7WebCore14ResourceLoaderEEELm0EE14expandCapacityEv
__ZN7WebCore21ResourceLoadScheduler20servePendingRequestsEPNS0_15HostInformationENS_20ResourceLoadPriorityE
__ZNK7WebCore14ResourceLoader11frameLoaderEv
__ZN3WTF9HashTableINS_6RefPtrIN7WebCore14ResourceLoaderEEES4_NS_17IdentityExtractorENS_7PtrHashIS4_EENS_10HashTraitsIS4_EES9_E3addINS_22IdentityHashTranslatorIS7_EES4_S4_EENS_18HashTableAddResultINS_17HashTableIteratorIS4_S4_S5_S7_S9_S9_EEEERKT0_RKT1_
__ZN3WTF9HashTableINS_6RefPtrIN7WebCore14ResourceLoaderEEES4_NS_17IdentityExtractorENS_7PtrHashIS4_EENS_10HashTraitsIS4_EES9_E6lookupINS_22IdentityHashTranslatorIS7_EES4_EEPS4_RKT0_
__ZN3WTF9HashTableINS_6RefPtrIN7WebCore14ResourceLoaderEEES4_NS_17IdentityExtractorENS_7PtrHashIS4_EENS_10HashTraitsIS4_EES9_E6rehashEi
__ZN7WebCore14ResourceLoader5startEv
__ZN7WebCore14DocumentLoader19scheduleArchiveLoadEPNS_14ResourceLoaderERKNS_15ResourceRequestE
__ZN7WebCore20ApplicationCacheHost17maybeLoadResourceEPNS_14ResourceLoaderERNS_15ResourceRequestERKNS_4KURLE
__ZN7WebCore20ApplicationCacheHost38shouldLoadResourceFromApplicationCacheERKNS_15ResourceRequestERPNS_24ApplicationCacheResourceE
__ZNK7WebCore11FrameLoader17networkingContextEv
__ZN7WebCore14ResourceHandle6createEPNS_17NetworkingContextERKNS_15ResourceRequestEPNS_20ResourceHandleClientEbb
__ZN3WTF9HashTableINS_12AtomicStringENS_12KeyValuePairIS1_PFNS_10PassRefPtrIN7WebCore14ResourceHandleEEERKNS4_15ResourceRequestEPNS4_20ResourceHandleClientEEEENS_24KeyValuePairKeyExtractorISE_EENS_16AtomicStringHashENS_18HashMapValueTraitsINS_10HashTraitsIS1_EENSJ_ISD_EEEESK_E3addINS_17HashMapTranslatorISM_SH_EES1_SD_EENS_18HashTableAddResultINS_17HashTableIteratorIS1_SE_SG_SH_SM_SK_EEEERKT0_RKT1_
__ZN3WTF9HashTableINS_12AtomicStringENS_12KeyValuePairIS1_PFNS_10PassRefPtrIN7WebCore14ResourceHandleEEERKNS4_15ResourceRequestEPNS4_20ResourceHandleClientEEEENS_24KeyValuePairKeyExtractorISE_EENS_16AtomicStringHashENS_18HashMapValueTraitsINS_10HashTraitsIS1_EENSJ_ISD_EEEESK_E4findINS_22IdentityHashTranslatorISH_EES1_EENS_17HashTableIteratorIS1_SE_SG_SH_SM_SK_EERKT0_
__ZN3WTF9HashTableINS_12AtomicStringENS_12KeyValuePairIS1_PFNS_10PassRefPtrIN7WebCore14ResourceHandleEEERKNS4_15ResourceRequestEPNS4_20ResourceHandleClientEEEENS_24KeyValuePairKeyExtractorISE_EENS_16AtomicStringHashENS_18HashMapValueTraitsINS_10HashTraitsIS1_EENSJ_ISD_EEEESK_E6rehashEi
__ZN3WTF9HashTableINS_12AtomicStringENS_12KeyValuePairIS1_PFNS_10PassRefPtrIN7WebCore14ResourceHandleEEERKNS4_15ResourceRequestEPNS4_20ResourceHandleClientEEEENS_24KeyValuePairKeyExtractorISE_EENS_16AtomicStringHashENS_18HashMapValueTraitsINS_10HashTraitsIS1_EENSJ_ISD_EEEESK_E8reinsertERSE_
__ZN7WebCore14ResourceHandleC2EPNS_17NetworkingContextERKNS_15ResourceRequestEPNS_20ResourceHandleClientEbb
__ZN7WebCore22ResourceHandleInternalC2EPNS_14ResourceHandleEPNS_17NetworkingContextERKNS_15ResourceRequestEPNS_20ResourceHandleClientEbb
__ZN7WebCore10CredentialC1Ev
__ZN7WebCore27AuthenticationChallengeBaseC2Ev
__ZN7WebCore15ProtectionSpaceC1Ev
__ZNK7WebCore4KURL4userEv
__ZNK7WebCore4KURL4passEv
__ZN7WebCore19ResourceRequestBase17removeCredentialsEv
__ZN7WebCore11portAllowedERKNS_4KURLE
__ZN7WebCore14ResourceHandle5startEv
__ZN7WebCore21NetworkStorageSession21defaultStorageSessionEv
__ZNK7WebCore14ResourceHandle6clientEv
__ZN7WebCore14ResourceLoader26shouldUseCredentialStorageEPNS_14ResourceHandleE
__ZN7WebCore14ResourceLoader26shouldUseCredentialStorageEv
__ZN7WebCore14ResourceHandle8delegateEv
__ZN7WebCore20ResourceHandleClient18usesAsyncCallbacksEv
-[WebCoreResourceHandleAsDelegate initWithHandle:]
__ZN7WebCore14ResourceHandle21createNSURLConnectionEP11objc_objectbb
__ZNK7WebCore10Credential7isEmptyEv
__ZN7WebCore14ResourceHandle12firstRequestEv
__ZN7WebCore15ResourceRequest24doUpdatePlatformHTTPBodyEv
__ZN3WTF9HashTableINS_6StringENS_12KeyValuePairIS1_N7WebCore20CachedResourceHandleINS3_14CachedResourceEEEEENS_24KeyValuePairKeyExtractorIS7_EENS_10StringHashENS_18HashMapValueTraitsINS_10HashTraitsIS1_EENSC_IS6_EEEESD_E16lookupForWritingINS_22IdentityHashTranslatorISA_EES1_EENSt3__14pairIPS7_bEERKT0_
__ZN3WTF9HashTableINS_6StringENS_12KeyValuePairIS1_N7WebCore20CachedResourceHandleINS3_14CachedResourceEEEEENS_24KeyValuePairKeyExtractorIS7_EENS_10StringHashENS_18HashMapValueTraitsINS_10HashTraitsIS1_EENSC_IS6_EEEESD_E3addINS_17HashMapTranslatorISF_SA_EES1_S6_EENS_18HashTableAddResultINS_17HashTableIteratorIS1_S7_S9_SA_SF_SD_EEEERKT0_RKT1_
__ZN3WTF9HashTableINS_6StringENS_12KeyValuePairIS1_N7WebCore20CachedResourceHandleINS3_14CachedResourceEEEEENS_24KeyValuePairKeyExtractorIS7_EENS_10StringHashENS_18HashMapValueTraitsINS_10HashTraitsIS1_EENSC_IS6_EEEESD_E6lookupINS_22IdentityHashTranslatorISA_EES1_EEPS7_RKT0_
__ZN3WTF9HashTableINS_6StringENS_12KeyValuePairIS1_N7WebCore20CachedResourceHandleINS3_14CachedResourceEEEEENS_24KeyValuePairKeyExtractorIS7_EENS_10StringHashENS_18HashMapValueTraitsINS_10HashTraitsIS1_EENSC_IS6_EEEESD_E6rehashEi
__ZN3WTF9HashTableINS_6StringENS_12KeyValuePairIS1_N7WebCore20CachedResourceHandleINS3_14CachedResourceEEEEENS_24KeyValuePairKeyExtractorIS7_EENS_10StringHashENS_18HashMapValueTraitsINS_10HashTraitsIS1_EENSC_IS6_EEEESD_E6removeEPS7_
__ZN7WebCore24CachedResourceHandleBaseC2ERKS0_
__ZN7WebCore14CachedResource9addClientEPNS_20CachedResourceClientE
__ZN7WebCore14CachedResource14addClientToSetEPNS_20CachedResourceClientE
__ZN7WebCore11MemoryCache22addToLiveResourcesSizeEPNS_14CachedResourceE
__ZN7WebCore17CachedRawResource12didAddClientEPNS_20CachedResourceClientE
__ZN3WTF9HashTableIPN7WebCore20CachedResourceClientENS_12KeyValuePairIS3_jEENS_24KeyValuePairKeyExtractorIS5_EENS_7PtrHashIS3_EENS_18HashMapValueTraitsINS_10HashTraitsIS3_EENSB_IjEEEESC_E16lookupForWritingINS_22IdentityHashTranslatorIS9_EES3_EENSt3__14pairIPS5_bEERKT0_
__ZN3WTF9HashTableIPN7WebCore20CachedResourceClientENS_12KeyValuePairIS3_jEENS_24KeyValuePairKeyExtractorIS5_EENS_7PtrHashIS3_EENS_18HashMapValueTraitsINS_10HashTraitsIS3_EENSB_IjEEEESC_E3addINS_17HashMapTranslatorISE_S9_EES3_jEENS_18HashTableAddResultINS_17HashTableIteratorIS3_S5_S7_S9_SE_SC_EEEERKT0_RKT1_
__ZN3WTF9HashTableIPN7WebCore20CachedResourceClientENS_12KeyValuePairIS3_jEENS_24KeyValuePairKeyExtractorIS5_EENS_7PtrHashIS3_EENS_18HashMapValueTraitsINS_10HashTraitsIS3_EENSB_IjEEEESC_E6lookupINS_22IdentityHashTranslatorIS9_EES3_EEPS5_RKT0_
__ZN3WTF9HashTableIPN7WebCore20CachedResourceClientENS_12KeyValuePairIS3_jEENS_24KeyValuePairKeyExtractorIS5_EENS_7PtrHashIS3_EENS_18HashMapValueTraitsINS_10HashTraitsIS3_EENSB_IjEEEESC_E6shrinkEv
__ZN7WebCore14CachedResource12didAddClientEPNS_20CachedResourceClientE
__ZN7WebCore31equalIgnoringFragmentIdentifierERKNS_4KURLES2_
__ZN7WebCore19ResourceRequestBase6setURLERKNS_4KURLE
__ZN7WebCore21CachedResourceRequestD1Ev
__ZN7WebCore21CachedResourceRequestD2Ev
__ZN7WebCore16FrameLoadRequestD2Ev
__ZN7WebCore4Page12setThrottledEb
__ZN7WebCore13PageThrottler12setThrottledEb
-[WebCoreResourceHandleAsDelegate connection:willSendRequest:redirectResponse:]
__ZN7WebCore37synthesizeRedirectResponseIfNecessaryEP15NSURLConnectionP12NSURLRequestP13NSURLResponse
__ZN7WebCore5TimerINS_8SettingsEE5firedEv
__ZN7WebCore8Settings30imageLoadingSettingsTimerFiredEPNS_5TimerIS0_EE
-[WebCoreResourceHandleAsDelegate connectionShouldUseCredentialStorage:]
__ZN7WebCore14ResourceHandle26shouldUseCredentialStorageEv
__ZN7WebCore5TimerINS_15ProgressTrackerEE5firedEv
__ZN7WebCore15ProgressTracker27progressHeartbeatTimerFiredEPNS_5TimerIS0_EE
-[WebCoreResourceHandleAsDelegate connection:canAuthenticateAgainstProtectionSpace:]
__ZN7WebCore4coreEP20NSURLProtectionSpace
__ZN7WebCore15ProtectionSpaceC1ERKN3WTF6StringEiNS_25ProtectionSpaceServerTypeES4_NS_35ProtectionSpaceAuthenticationSchemeE
__ZN7WebCore14ResourceHandle37canAuthenticateAgainstProtectionSpaceERKNS_15ProtectionSpaceE
__ZN7WebCore14ResourceLoader37canAuthenticateAgainstProtectionSpaceEPNS_14ResourceHandleERKNS_15ProtectionSpaceE
__ZN7WebCore14ResourceLoader37canAuthenticateAgainstProtectionSpaceERKNS_15ProtectionSpaceE
__ZNK7WebCore15ProtectionSpace4hostEv
__ZNK7WebCore15ProtectionSpace4portEv
__ZNK7WebCore15ProtectionSpace5realmEv
__ZNK7WebCore15ProtectionSpace20authenticationSchemeEv
__ZNK7WebCore15ProtectionSpace10serverTypeEv
__ZN7WebCore19ResourceRequestBaseC2Ev
__ZN7WebCore14ResourceHandle15willSendRequestERNS_15ResourceRequestERKNS_16ResourceResponseE
__ZN7WebCore27protocolHostAndPortAreEqualERKNS_4KURLES2_
__ZN7WebCore17CredentialStorage3getERKNS_4KURLE
__ZN7WebCoreL32findDefaultProtectionSpaceForURLERKNS_4KURLE
__ZN7WebCoreL19originStringFromURLERKNS_4KURLE
__ZN3WTFplINS_12StringAppendINS_6StringEPKcEES2_cEENS1_INS1_IT_T0_EET1_EERKS8_S9_
__ZNK3WTF12StringAppendINS0_INS0_INS_6StringEPKcEES1_EEcEcvS1_Ev
__ZN3WTF13tryMakeStringINS_12StringAppendINS1_INS_6StringEPKcEES2_EEcEENS_10PassRefPtrINS_10StringImplEEET_T0_
__ZN7WebCore14ResourceLoader15willSendRequestEPNS_14ResourceHandleERNS_15ResourceRequestERKNS_16ResourceResponseE
__ZN7WebCore20ApplicationCacheHost28maybeLoadFallbackForRedirectEPNS_14ResourceLoaderERNS_15ResourceRequestERKNS_16ResourceResponseE
__ZN7WebCore17CachedRawResource15willSendRequestERNS_15ResourceRequestERKNS_16ResourceResponseE
__ZN7WebCore26CachedResourceClientWalkerINS_23CachedRawResourceClientEEC2ERKN3WTF14HashCountedSetIPNS_20CachedResourceClientENS3_7PtrHashIS6_EENS3_10HashTraitsIS6_EEEE
__ZN7WebCore14DocumentLoader16redirectReceivedEPNS_14CachedResourceERNS_15ResourceRequestERKNS_16ResourceResponseE
__ZNK7WebCore14SecurityOrigin10canDisplayERKNS_4KURLE
__ZN7WebCore14SchemeRegistry26canDisplayOnlyIfCanRequestERKN3WTF6StringE
__ZN7WebCoreL33canDisplayOnlyIfCanRequestSchemesEv
__ZN7WebCore14SchemeRegistry37shouldTreatURLSchemeAsDisplayIsolatedERKN3WTF6StringE
__ZN7WebCore14SecurityPolicy21restrictAccessToLocalEv
__ZN7WebCore18DocumentLoadTiming11addRedirectERKNS_4KURLES3_
__ZN7WebCore20ApplicationCacheHost32maybeLoadMainResourceForRedirectERNS_15ResourceRequestERNS_14SubstituteDataE
__ZN7WebCore13PolicyChecker21checkNavigationPolicyERKNS_15ResourceRequestEPFvPvS3_N3WTF10PassRefPtrINS_9FormStateEEEbES4_
__ZN7WebCore14DocumentLoader33callContinueAfterNavigationPolicyEPvRKNS_15ResourceRequestEN3WTF10PassRefPtrINS_9FormStateEEEb
__ZN7WebCore14DocumentLoader29continueAfterNavigationPolicyERKNS_15ResourceRequestEb
__ZN7WebCore17CachedRawResource12RedirectPairC2ERKNS_15ResourceRequestERKNS_16ResourceResponseE
__ZN7WebCore20ResourceResponseBaseC2ERKS0_
__ZN3WTF6VectorIN7WebCore17CachedRawResource12RedirectPairELm0ENS_15CrashOnOverflowEE14appendSlowCaseIS3_EEvRKT_
__ZN3WTF6VectorIN7WebCore17CachedRawResource12RedirectPairELm0ENS_15CrashOnOverflowEE14expandCapacityEmPKS3_
__ZN3WTF6VectorIN7WebCore17CachedRawResource12RedirectPairELm0ENS_15CrashOnOverflowEE15reserveCapacityEm
__ZN7WebCore15ResourceRequest24doUpdateResourceHTTPBodyEv
__ZN7WebCore21ResourceLoadScheduler27crossOriginRedirectReceivedEPNS_14ResourceLoaderERKNS_4KURLE
__ZN7WebCore15ResourceRequest17setStorageSessionEPK21__CFURLStorageSession
-[WebCoreResourceHandleAsDelegate connection:didReceiveResponse:]
__ZN7WebCore25adjustMIMETypeIfNecessaryEP14_CFURLResponse
__ZN7WebCore14ResourceLoader18didReceiveResponseEPNS_14ResourceHandleERKNS_16ResourceResponseE
__ZN7WebCore20ApplicationCacheHost28maybeLoadFallbackForResponseEPNS_14ResourceLoaderERKNS_16ResourceResponseE
__ZN7WebCore17SubresourceLoader18didReceiveResponseERKNS_16ResourceResponseE
__ZN7WebCore17CachedRawResource16responseReceivedERKNS_16ResourceResponseE
__ZN7WebCore14CachedResource16responseReceivedERKNS_16ResourceResponseE
__ZN7WebCore14CachedResource11setResponseERKNS_16ResourceResponseE
__ZNK7WebCore20ResourceResponseBase16textEncodingNameEv
__ZN7WebCore14CachedResource11setEncodingERKN3WTF6StringE
__ZN7WebCore14DocumentLoader16responseReceivedEPNS_14CachedResourceERKNS_16ResourceResponseE
__ZN7WebCore20ApplicationCacheHost32maybeLoadFallbackForMainResponseERKNS_15ResourceRequestERKNS_16ResourceResponseE
__ZNK7WebCore20ResourceResponseBase16httpHeaderFieldsEv
__ZN7WebCore37extractReasonPhraseFromHTTPStatusLineERKN3WTF6StringE
__ZN7WebCore11FrameLoader35shouldInterruptLoadForXFrameOptionsERKN3WTF6StringERKNS_4KURLEm
__ZN7WebCore15FeatureObserver7observeEPNS_8DocumentENS0_7FeatureE
__ZN7WebCore15FeatureObserver10didObserveENS0_7FeatureE
__ZN7WebCore13ContentFilter9isEnabledEv
__ZN7WebCore18RenderLayerBacking19notifyFlushRequiredEPKNS_13GraphicsLayerE
__ZNK7WebCore11RenderLayer10compositorEv
__ZN7WebCore21RenderLayerCompositor18scheduleLayerFlushEb
__ZNK7WebCore21RenderLayerCompositor22keepLayersPixelAlignedEv
__ZN7WebCore15GraphicsLayerCA26setMaintainsPixelAlignmentEb
__ZN7WebCore15GraphicsLayerCA21setAcceleratesDrawingEb
__ZN7WebCore15GraphicsLayerCA17setContentsOpaqueEb
__ZN7WebCore13GraphicsLayer19setAppliesPageScaleEb
__ZN7WebCore15GraphicsLayerCA10setOpacityEf
__ZN7WebCore18RenderLayerBacking15updateTransformEPKNS_11RenderStyleE
__ZN7WebCore15GraphicsLayerCA12setTransformERKNS_20TransformationMatrixE
__ZNK7WebCore20TransformationMatrixeqERKS0_
__ZN7WebCore18RenderLayerBacking13updateFiltersEPKNS_11RenderStyleE
__ZN7WebCore16FilterOperationsaSERKS0_
__ZN3WTF6VectorINS_6RefPtrIN7WebCore15FilterOperationEEELm0ENS_15CrashOnOverflowEEaSERKS6_
__ZN7WebCore15GraphicsLayerCA10setFiltersERKNS_16FilterOperationsE
__ZN7WebCore15PlatformCALayer22filtersCanBeCompositedERKNS_16FilterOperationsE
__ZNK7WebCore16FilterOperationseqERKS0_
__ZNK7WebCore15GraphicsLayerCA12tiledBackingEv
__ZN7WebCore15PlatformCALayer12tiledBackingEv
-[WebTiledBackingLayer tiledBacking]
__ZN7WebCore14TileController13setIsInWindowEb
__ZN7WebCore14TileController15revalidateTilesEjj
__ZN7WebCore15PlatformCALayer15platformCALayerEPv
__ZN7WebCore14TileController26setUnparentsOffscreenTilesEb
__ZN7WebCore14TileController37setScrollingPerformanceLoggingEnabledEb
__ZN7WebCore18RenderLayerBacking26adjustTiledBackingCoverageEv
__ZNK7WebCore20ScrollingCoordinator26mainThreadScrollingReasonsEv
__ZNK7WebCore23ScrollingCoordinatorMac27supportsFixedPositionLayersEv
__ZNK7WebCore23ScrollingCoordinatorMac47hasVisibleSlowRepaintViewportConstrainedObjectsEPNS_9FrameViewE
__ZN7WebCore14TileController15setTileCoverageEj
__ZN7WebCore18RenderLayerBacking38attachToScrollingCoordinatorWithParentEPS0_
__ZN7WebCore20ScrollingCoordinator19uniqueScrollLayerIDEv
__ZN7WebCore23ScrollingCoordinatorMac17attachToStateTreeENS_17ScrollingNodeTypeEyy
__ZN7WebCore18ScrollingStateTree10attachNodeENS_17ScrollingNodeTypeEyy
__ZN7WebCore18ScrollingStateTree10removeNodeEPNS_18ScrollingStateNodeE
__ZN7WebCore27ScrollingStateScrollingNode6createEPNS_18ScrollingStateTreeEy
__ZN7WebCore18ScrollingStateNodeC2EPNS_18ScrollingStateTreeEy
__ZN7WebCore23ScrollingCoordinatorMac27frameViewRootLayerDidChangeEPNS_9FrameViewE
__ZNK7WebCore9FrameView13scrollLayerIDEv
__ZN3WTF9HashTableIyNS_12KeyValuePairIyPN7WebCore18ScrollingStateNodeEEENS_24KeyValuePairKeyExtractorIS5_EENS_7IntHashIyEENS_18HashMapValueTraitsINS_10HashTraitsIyEENSB_IS4_EEEESC_E16lookupForWritingINS_22IdentityHashTranslatorIS9_EEyEENSt3__14pairIPS5_bEERKT0_
__ZN3WTF9HashTableIyNS_12KeyValuePairIyPN7WebCore18ScrollingStateNodeEEENS_24KeyValuePairKeyExtractorIS5_EENS_7IntHashIyEENS_18HashMapValueTraitsINS_10HashTraitsIyEENSB_IS4_EEEESC_E3addINS_17HashMapTranslatorISE_S9_EEyS4_EENS_18HashTableAddResultINS_17HashTableIteratorIyS5_S7_S9_SE_SC_EEEERKT0_RKT1_
__ZN3WTF9HashTableIyNS_12KeyValuePairIyPN7WebCore18ScrollingStateNodeEEENS_24KeyValuePairKeyExtractorIS5_EENS_7IntHashIyEENS_18HashMapValueTraitsINS_10HashTraitsIyEENSB_IS4_EEEESC_E6lookupINS_22IdentityHashTranslatorIS9_EEyEEPS5_RKT0_
__ZN3WTF9HashTableIyNS_12KeyValuePairIyPN7WebCore18ScrollingStateNodeEEENS_24KeyValuePairKeyExtractorIS5_EENS_7IntHashIyEENS_18HashMapValueTraitsINS_10HashTraitsIyEENSB_IS4_EEEESC_E6shrinkEv
__ZN7WebCore20ScrollingCoordinator27frameViewRootLayerDidChangeEPNS_9FrameViewE
__ZN7WebCore23ScrollingCoordinatorMac22frameViewLayoutUpdatedEPNS_9FrameViewE
__ZNK7WebCore20ScrollingCoordinator30computeNonFastScrollableRegionEPKNS_5FrameERKNS_8IntPointE
__ZN7WebCore27ScrollingStateScrollingNode26setNonFastScrollableRegionERKNS_6RegionE
__ZN7WebCore18ScrollingStateTree14stateNodeForIDEy
__ZN7WebCore23ScrollingCoordinatorMac26setScrollParametersForNodeERKNS0_16ScrollParametersEPNS_27ScrollingStateScrollingNodeE
__ZN7WebCore27ScrollingStateScrollingNode29setHorizontalScrollElasticityENS_16ScrollElasticityE
__ZN7WebCore27ScrollingStateScrollingNode27setVerticalScrollElasticityENS_16ScrollElasticityE
__ZN7WebCore27ScrollingStateScrollingNode32setHasEnabledHorizontalScrollbarEb
__ZN7WebCore27ScrollingStateScrollingNode30setHasEnabledVerticalScrollbarEb
__ZN7WebCore27ScrollingStateScrollingNode26setHorizontalScrollbarModeENS_13ScrollbarModeE
__ZN7WebCore27ScrollingStateScrollingNode24setVerticalScrollbarModeENS_13ScrollbarModeE
__ZN7WebCore27ScrollingStateScrollingNode15setScrollOriginERKNS_8IntPointE
__ZN7WebCore27ScrollingStateScrollingNode15setViewportRectERKNS_7IntRectE
__ZN7WebCore27ScrollingStateScrollingNode20setTotalContentsSizeERKNS_7IntSizeE
__ZN7WebCore27ScrollingStateScrollingNode19setFrameScaleFactorEf
__ZN7WebCore27ScrollingStateScrollingNode15setHeaderHeightEi
__ZN7WebCore27ScrollingStateScrollingNode15setFooterHeightEi
__ZN7WebCore23ScrollingCoordinatorMac43recomputeWheelEventHandlerCountForFrameViewEPNS_9FrameViewE
__ZN7WebCore20ScrollingCoordinator36computeCurrentWheelEventHandlerCountEv
__ZN7WebCore27ScrollingStateScrollingNode25setWheelEventHandlerCountEj
__ZN7WebCore23ScrollingCoordinatorMac46setShouldUpdateScrollLayerPositionOnMainThreadEj
__ZN7WebCore27ScrollingStateScrollingNode46setShouldUpdateScrollLayerPositionOnMainThreadEj
__ZN7WebCore20ScrollingCoordinator23scrollLayerForFrameViewEPNS_9FrameViewE
__ZNK7WebCore21RenderLayerCompositor11scrollLayerEv
__ZN7WebCore18ScrollingStateNode14setScrollLayerEPNS_13GraphicsLayerE
__ZN7WebCore20ScrollingCoordinator33counterScrollingLayerForFrameViewEPNS_9FrameViewE
__ZNK7WebCore21RenderLayerCompositor24fixedRootBackgroundLayerEv
__ZN7WebCore27ScrollingStateScrollingNode24setCounterScrollingLayerEPNS_13GraphicsLayerE
__ZN7WebCore20ScrollingCoordinator23headerLayerForFrameViewEPNS_9FrameViewE
__ZNK7WebCore21RenderLayerCompositor11headerLayerEv
__ZN7WebCore27ScrollingStateScrollingNode14setHeaderLayerEPNS_13GraphicsLayerE
__ZN7WebCore20ScrollingCoordinator23footerLayerForFrameViewEPNS_9FrameViewE
__ZNK7WebCore21RenderLayerCompositor11footerLayerEv
__ZN7WebCore27ScrollingStateScrollingNode14setFooterLayerEPNS_13GraphicsLayerE
__ZN7WebCore21RenderLayerCompositor20updateLayerForHeaderEb
__ZN7WebCore21RenderLayerCompositor20updateLayerForFooterEb
__ZN7WebCore18RenderLayerBacking21updateDebugIndicatorsEbb
__ZN7WebCore15GraphicsLayerCA18setShowDebugBorderEb
__ZN7WebCore15GraphicsLayerCA21setShowRepaintCounterEb
__ZN7WebCore21RenderLayerCompositor27rebuildCompositingLayerTreeEPNS_11RenderLayerERN3WTF6VectorIPNS_13GraphicsLayerELm0ENS3_15CrashOnOverflowEEEi
__ZN7WebCore18RenderLayerBacking22updateCompositedBoundsEv
__ZNK7WebCore21RenderLayerCompositor25calculateCompositedBoundsEPKNS_11RenderLayerES3_
__ZNK7WebCore11RenderLayer20calculateLayerBoundsEPKS0_PKNS_11LayoutPointEj
__ZN7WebCore18RenderLayerBacking32updateGraphicsLayerConfigurationEv
__ZNK7WebCore21RenderLayerCompositor29needsFixedRootBackgroundLayerEPKNS_11RenderLayerE
__ZNK7WebCore10RenderView29rootBackgroundIsEntirelyFixedEv
__ZN7WebCore18RenderLayerBacking21updateBackgroundLayerEb
__ZNK7WebCore21RenderLayerCompositor29needsContentsCompositingLayerEPKNS_11RenderLayerE
__ZN7WebCore18RenderLayerBacking21updateForegroundLayerEb
__ZNK7WebCore21RenderLayerCompositor27clipsCompositingDescendantsEPKNS_11RenderLayerE
__ZNK7WebCore21RenderLayerCompositor17clippedByAncestorEPNS_11RenderLayerE
__ZN7WebCore18RenderLayerBacking20updateClippingLayersEbb
__ZN7WebCore18RenderLayerBacking28updateOverflowControlsLayersEbbb
__ZN7WebCore18RenderLayerBacking21updateScrollingLayersEb
__ZN7WebCore18RenderLayerBacking15updateMaskLayerEb
__ZN7WebCore15GraphicsLayerCA20setReplicatedByLayerEPNS_13GraphicsLayerE
__ZNK7WebCore18RenderLayerBacking33isSimpleContainerCompositingLayerEv
__ZNK7WebCore11RenderLayer24hasVisibleBoxDecorationsEv
__ZNK7WebCore11RenderLayer29hasBoxDecorationsOrBackgroundEv
__ZNK7WebCore10BorderData15hasBorderRadiusEv
__ZNK7WebCore11RenderLayer25hasNonEmptyChildRenderersEv
__ZN7WebCoreL34hasVisibleNonCompositingDescendantEPNS_11RenderLayerE
__ZNK7WebCore12RenderObject14isRenderRegionEv
__ZN7WebCore18RenderLayerBacking39updateDirectlyCompositedBackgroundColorEbRb
__ZN7WebCore15GraphicsLayerCA23setContentsToSolidColorERKNS_5ColorE
__ZN7WebCore18RenderLayerBacking28updateRootLayerConfigurationEv
__ZNK7WebCore21RenderLayerCompositor28viewHasTransparentBackgroundEPNS_5ColorE
__ZN7WebCore15GraphicsLayerCA18setBackgroundColorERKNS_5ColorE
__ZN7WebCore13GraphicsLayer18setBackgroundColorERKNS_5ColorE
__ZNK7WebCore18RenderLayerBacking25isDirectlyCompositedImageEv
__ZNK7WebCore12RenderObject7isImageEv
__ZN7WebCore18RenderLayerBacking27updateGraphicsLayerGeometryEv
__ZNK7WebCore19AnimationController39isRunningAcceleratedAnimationOnRendererEPNS_12RenderObjectENS_13CSSPropertyIDEb
__ZN7WebCore15GraphicsLayerCA18setContentsVisibleEb
__ZN7WebCore15GraphicsLayerCA14setPreserves3DEb
__ZN7WebCore15GraphicsLayerCA21setBackfaceVisibilityEb
__ZNK7WebCore11RenderLayer25enclosingCompositingLayerENS_16IncludeSelfOrNotE
__ZNK7WebCore11RenderLayer32convertToPixelSnappedLayerCoordsEPKS0_RNS_8IntPointE
__ZN7WebCore13GraphicsLayer21setOffsetFromRendererERKNS_7IntSizeENS0_21ShouldSetNeedsDisplayE
__ZN7WebCore15GraphicsLayerCA14setAnchorPointERKNS_12FloatPoint3DE
__ZNK7WebCore21RenderLayerCompositor23requiresOwnBackingStoreEPKNS_11RenderLayerES3_RKNS_7IntRectES6_
__ZN7WebCore18RenderLayerBacking26setRequiresOwnBackingStoreEb
__ZNK7WebCore18RenderLayerBacking11contentsBoxEv
__ZNK7WebCore20RenderBoxModelObject10paddingTopEv
__ZNK7WebCore20RenderBoxModelObject13paddingBottomEv
__ZN7WebCore15GraphicsLayerCA15setContentsRectERKNS_7IntRectE
__ZN7WebCore13GraphicsLayer19setContentsTileSizeERKNS_7IntSizeE
__ZN7WebCore13GraphicsLayer20setContentsTilePhaseERKNS_8IntPointE
__ZN7WebCore18RenderLayerBacking18updateDrawsContentEb
__ZNK7WebCore18RenderLayerBacking22containsPaintedContentEv
__ZN7WebCore18RenderLayerBacking23registerScrollingLayersEv
__ZN7WebCore21RenderLayerCompositor30updateViewportConstraintStatusEPNS_11RenderLayerE
__ZN7WebCoreL39isViewportConstrainedFixedOrStickyLayerEPKNS_11RenderLayerE
__ZN7WebCore20ScrollingCoordinator29updateLayerPositionConstraintEPNS_11RenderLayerE
__ZN7WebCore21RenderLayerCompositor23updateRootLayerPositionEv
__ZN7WebCore21RenderLayerCompositor29updateLayerForTopOverhangAreaEb
__ZN7WebCore21RenderLayerCompositor32updateLayerForBottomOverhangAreaEb
__ZNK7WebCore18RenderLayerBacking37hasUnpositionedOverflowControlsLayersEv
__ZNK7WebCore18RenderLayerBacking18parentForSublayersEv
__ZN7WebCore15GraphicsLayerCA11setChildrenERKN3WTF6VectorIPNS_13GraphicsLayerELm0ENS1_15CrashOnOverflowEEE
__ZN7WebCore13GraphicsLayer11setChildrenERKN3WTF6VectorIPS0_Lm0ENS1_15CrashOnOverflowEEE
__ZNK7WebCore18RenderLayerBacking19childForSuperlayersEv
__ZN7WebCore24InspectorInstrumentation22layerTreeDidChangeImplEPNS_19InstrumentingAgentsE
__ZNK7WebCore14SecurityOrigin16canAccessStorageEPKS0_NS0_25ShouldAllowFromThirdPartyE
__ZNK7WebCore18RenderLayerBacking16paintsIntoWindowEv
__ZN7WebCore11RenderLayer28setBackingNeedsRepaintInRectERKNS_10LayoutRectE
__ZN7WebCore18RenderLayerBacking28setContentsNeedDisplayInRectERKNS_7IntRectE
__ZN7WebCore15GraphicsLayerCA21setNeedsDisplayInRectERKNS_9FloatRectE
__ZN7WebCore9FloatRect9intersectERKS0_
__ZN7WebCore18RenderLayerBacking17updateAfterLayoutEj
__ZN7WebCore18RenderLayerBacking22setContentsNeedDisplayEv
__ZN7WebCore15GraphicsLayerCA15setNeedsDisplayEv
__ZN7WebCore11RenderLayer13collectLayersEbNS0_21CollectLayersBehaviorERN3WTF6OwnPtrINS2_6VectorIPS0_Lm0ENS2_15CrashOnOverflowEEEEES9_
__ZN3WTF6VectorIPN7WebCore11RenderLayerELm0ENS_15CrashOnOverflowEE14expandCapacityEmPKS3_
__ZN3WTF6VectorIPN7WebCore11RenderLayerELm0ENS_15CrashOnOverflowEE15reserveCapacityEm
__ZNSt3__113__stable_sortIRPFbPN7WebCore11RenderLayerES3_EPS3_EEvT0_S8_T_NS_15iterator_traitsIS8_E15difference_typeEPNSB_10value_typeEl
__ZN7WebCore12RenderObject25rendererForRootBackgroundEv
__ZNK7WebCore12RenderObject26hasEntirelyFixedBackgroundEv
__ZNK7WebCore11RenderStyle26hasEntirelyFixedBackgroundEv
__ZNK7WebCore6Widget16isPluginViewBaseEv
__ZNK7WebCore9Scrollbar7enabledEv
__ZN7WebCore21RenderLayerCompositor18frameViewDidLayoutEv
__ZNK7WebCore18RenderLayerBacking12tiledBackingEv
__ZN7WebCore21RenderLayerCompositor15detachRootLayerEv
__ZN7WebCore14TileController27setAggressivelyRetainsTilesEb
__ZN7WebCore14TileController14setExposedRectERKNS_9FloatRectE
__ZN7WebCore14TileController21setClipsToExposedRectEb
__ZN7WebCore18RenderLayerBacking18updateDrawsContentEv
__ZN7WebCore23ScrollingCoordinatorMac24setScrollPinningBehaviorENS_21ScrollPinningBehaviorE
__ZN7WebCore13ScrollingTree24setScrollPinningBehaviorENS_21ScrollPinningBehaviorE
__ZN7WebCore23ScrollingCoordinatorMac37scrollableAreaScrollbarLayerDidChangeEPNS_14ScrollableAreaENS_20ScrollbarOrientationE
__ZNK7WebCore15GraphicsLayerCA16hasContentsLayerEv
__ZN7WebCore15GraphicsLayerCA23setContentsNeedsDisplayEv
__ZN7WebCore10RenderView35pushLayoutStateForCurrentFlowThreadEPKNS_12RenderObjectE
__ZN7WebCore11LayoutStatenwEmPNS_11RenderArenaE
__ZN7WebCore11LayoutStateC1EPS0_PNS_9RenderBoxERKNS_10LayoutSizeENS_10LayoutUnitEbPNS_10ColumnInfoE
__ZN7WebCore11LayoutStateC2EPS0_PNS_9RenderBoxERKNS_10LayoutSizeENS_10LayoutUnitEbPNS_10ColumnInfoE
__ZNK7WebCore9RenderBox27isUnsplittableForPaginationEv
__ZNK7WebCore9RenderBox32hasUnsplittableScrollingOverflowEv
__ZN7WebCore11RenderBlock33markForPaginationRelayoutIfNeededEv
__ZN7WebCore11LayoutState7destroyEPNS_11RenderArenaE
__ZN7WebCore11RenderArena4freeEmPv
__ZN7WebCore10RenderView34popLayoutStateForCurrentFlowThreadEv
__ZN7WebCore21RenderLayerCompositor35updateCompositingDescendantGeometryEPNS_11RenderLayerES2_b
__ZN7WebCore15GraphicsLayerCAD0Ev
__ZN7WebCore15GraphicsLayerCAD2Ev
__ZN7WebCore15GraphicsLayerCA15willBeDestroyedEv
__ZN7WebCore15PlatformCALayer8setOwnerEPNS_21PlatformCALayerClientE
__ZN7WebCore15GraphicsLayerCA17removeCloneLayersEv
__ZN7WebCore13GraphicsLayer15willBeDestroyedEv
__ZN7WebCore15PlatformCALayerD1Ev
__ZN7WebCore15PlatformCALayerD2Ev
__ZN7WebCore13GraphicsLayerD2Ev
__ZN7WebCore13GraphicsLayer20resetTrackedRepaintsEv
__ZNK7WebCore23ScrollingCoordinatorMac22isRubberBandInProgressEv
__ZN7WebCore13ScrollingTree22isRubberBandInProgressEv
__ZN7WebCore19LayerFlushScheduler23runLoopObserverCallbackEP19__CFRunLoopObservermPv
__ZN7WebCore16enclosingIntRectERK6CGRect
__ZN7WebCore9FrameView39flushCompositingStateIncludingSubframesEv
__ZN7WebCore9FrameView33flushCompositingStateForThisFrameEPNS_5FrameE
__ZN7WebCore21RenderLayerCompositor24flushPendingLayerChangesEb
__ZN7WebCore9FrameView12setFrameRectERKNS_7IntRectE
__ZN7WebCore10ScrollView12setFrameRectERKNS_7IntRectE
__ZN7WebCore9DOMWindow14refEventTargetEv
__ZN7WebCore8Document19dispatchWindowEventEN3WTF10PassRefPtrINS_5EventEEENS2_INS_11EventTargetEEE
__ZN7WebCore9DOMWindow13dispatchEventEN3WTF10PassRefPtrINS_5EventEEENS2_INS_11EventTargetEEE
__ZN7WebCore9DOMWindow16derefEventTargetEv
__ZN7WebCore9FrameView14setNeedsLayoutEv
__ZNK7WebCore12RenderObject12enclosingBoxEv
__ZN3WTF6VectorIN7WebCore9FloatRectELm0ENS_15CrashOnOverflowEE14expandCapacityEmPKS2_
__ZN3WTF6VectorIN7WebCore9FloatRectELm0ENS_15CrashOnOverflowEE15reserveCapacityEm
__ZN7WebCore13GraphicsLayer14addRepaintRectERKNS_9FloatRectE
__ZNK7WebCore18RenderLayerBacking18isTrackingRepaintsEv
__ZNK7WebCore21RenderLayerCompositor18isTrackingRepaintsEv
__ZN7WebCore4Page21windowScreenDidChangeEj
__ZN7WebCore8Document21windowScreenDidChangeEj
__ZN7WebCore21RenderLayerCompositor21windowScreenDidChangeEj
__ZN7WebCore15FocusController28setContainingWindowIsVisibleEb
__ZN7WebCore4Page15didMoveOnscreenEv
__ZN7WebCore9FrameView15didMoveOnscreenEv
__ZNK7WebCore14ScrollableArea18contentAreaDidShowEv
__ZNK7WebCore17ScrollAnimatorMac18contentAreaDidShowEv
-[WebScrollbarPainterControllerDelegate scrollerImpPair:setContentAreaNeedsDisplayInRect:]
__ZNK7WebCore14ScrollableArea14scrollAnimatorEv
__ZNK7WebCore17ScrollAnimatorMac20contentAreaWillPaintEv
__ZN7WebCore8Document42resumeScriptedAnimationControllerCallbacksEv
__ZN7WebCore15GraphicsLayerCA21flushCompositingStateERKNS_9FloatRectE
__ZN7WebCore15GraphicsLayerCA22recursiveCommitChangesERKNS0_11CommitStateERKNS_14TransformStateEfRKNS_10FloatPointEb
__ZN7WebCore14TransformStateaSERKS0_
__ZNK7WebCore15GraphicsLayerCA18computeVisibleRectERNS_14TransformStateEj
__ZNK7WebCore21RenderLayerCompositor39customPositionForVisibleRectComputationEPKNS_13GraphicsLayerERNS_10FloatPointE
__ZN7WebCore20TransformationMatrix9translateEdd
__ZNK7WebCore19GraphicsLayerClient19getCurrentTransformEPKNS_13GraphicsLayerERNS_20TransformationMatrixE
__ZN7WebCore14TransformState14applyTransformERKNS_20TransformationMatrixENS0_21TransformAccumulationEPb
__ZNK7WebCore20TransformationMatrix20isIntegerTranslationEv
__ZN7WebCore14TransformState4moveERKNS_10LayoutSizeENS0_21TransformAccumulationE
__ZNK7WebCore14TransformState10mappedQuadEPb
__ZNK7WebCore13GraphicsLayer16appliesPageScaleEv
__ZN7WebCore15GraphicsLayerCA33commitLayerChangesBeforeSublayersERNS0_11CommitStateEfRKNS_10FloatPointERKNS_9FloatRectE
__ZNK7WebCore21RenderLayerCompositor17deviceScaleFactorEv
__ZN7WebCore15PlatformCALayer16setContentsScaleEf
__ZN7WebCore15GraphicsLayerCA18updateSublayerListEb
__ZN3WTF6VectorINS_6RefPtrIN7WebCore15PlatformCALayerEEELm0ENS_15CrashOnOverflowEE15reserveCapacityEm
__ZN7WebCore15PlatformCALayer12setSublayersERKN3WTF6VectorINS1_6RefPtrIS0_EELm0ENS1_15CrashOnOverflowEEE
__ZNK7WebCore20TransformationMatrix10isIdentityEv
__ZN7WebCore15GraphicsLayerCA14updateGeometryEfRKNS_10FloatPointE
__ZNK7WebCore15GraphicsLayerCA21computePixelAlignmentEfRKNS_10FloatPointERS1_RNS_9FloatSizeERNS_12FloatPoint3DES6_
__ZN7WebCore15PlatformCALayer11setPositionERKNS_12FloatPoint3DE
__ZN7WebCore15PlatformCALayer9setBoundsERKNS_9FloatRectE
__ZN7WebCore15PlatformCALayer14setAnchorPointERKNS_12FloatPoint3DE
__ZNK7WebCore21RenderLayerCompositor24didCommitChangesForLayerEPKNS_13GraphicsLayerE
__ZN7WebCore15GraphicsLayerCA19updateMasksToBoundsEv
__ZN7WebCore15PlatformCALayer16setMasksToBoundsEb
__ZN7WebCore15PlatformCALayer14setBorderWidthEf
__ZN7WebCore14ScrollableArea34constrainScrollPositionForOverhangERKNS_8IntPointE
__ZThn64_NK7WebCore10ScrollView18visibleContentRectENS_14ScrollableArea36VisibleContentRectIncludesScrollbarsE
__ZNK7WebCore19GraphicsLayerClient39customPositionForVisibleRectComputationEPKNS_13GraphicsLayerERNS_10FloatPointE
__ZNK7WebCore18RenderLayerBacking19getCurrentTransformEPKNS_13GraphicsLayerERNS_20TransformationMatrixE
__ZNK7WebCore18RenderLayerBacking15pageScaleFactorEv
__ZNK7WebCore21RenderLayerCompositor15pageScaleFactorEv
-[WebTiledBackingLayer setBounds:]
__ZN7WebCore14TileController27tileCacheLayerBoundsChangedEv
__ZN7WebCore15GraphicsLayerCA23updateLayerDrawsContentEv
__ZN7WebCore15PlatformCALayer15setNeedsDisplayEPKNS_9FloatRectE
-[WebTiledBackingLayer setNeedsDisplay]
__ZN7WebCore14TileController15setNeedsDisplayEv
__ZN7WebCore15PlatformCALayer18setBackgroundColorERKNS_5ColorE
__ZN7WebCore15GraphicsLayerCA20updateContentsOpaqueEv
__ZN7WebCore15PlatformCALayer9setOpaqueEb
-[WebTiledBackingLayer setOpaque:]
__ZN7WebCore14TileController14setTilesOpaqueEb
__ZNK7WebCore18RenderLayerBacking17deviceScaleFactorEv
-[WebTiledBackingLayer setContentsScale:]
__ZN7WebCore14TileController8setScaleEd
__ZThn480_N7WebCore15GraphicsLayerCA32platformCALayerDeviceScaleFactorEv
__ZThn480_N7WebCore15GraphicsLayerCA29platformCALayerDidCreateTilesERKN3WTF6VectorINS_9FloatRectELm0ENS1_15CrashOnOverflowEEE
__ZN7WebCore14TileController14setVisibleRectERKNS_9FloatRectE
__ZNK7WebCore14TileController23computeTileCoverageRectERKNS_9FloatRectES3_
__ZN7WebCore9FloatRect5scaleEff
__ZNK7WebCore14TileController24getTileIndexRangeForRectERKNS_7IntRectERNS_8IntPointES5_
__ZN7WebCore7IntRect5scaleEf
__ZNK7WebCore14TileController16rectForTileIndexERKNS_8IntPointE
__ZN7WebCore7IntRect5uniteERKS0_
__ZN3WTF9HashTableIN7WebCore8IntPointENS_12KeyValuePairIS2_NS1_14TileController8TileInfoEEENS_24KeyValuePairKeyExtractorIS6_EENS_12IntPointHashENS_18HashMapValueTraitsINS_10HashTraitsIS2_EENSB_IS5_EEEESC_E16lookupForWritingINS_22IdentityHashTranslatorIS9_EES2_EENSt3__14pairIPS6_bEERKT0_
__ZN3WTF9HashTableIN7WebCore8IntPointENS_12KeyValuePairIS2_NS1_14TileController8TileInfoEEENS_24KeyValuePairKeyExtractorIS6_EENS_12IntPointHashENS_18HashMapValueTraitsINS_10HashTraitsIS2_EENSB_IS5_EEEESC_E3addINS_17HashMapTranslatorISE_S9_EES2_S5_EENS_18HashTableAddResultINS_17HashTableIteratorIS2_S6_S8_S9_SE_SC_EEEERKT0_RKT1_
__ZN3WTF9HashTableIN7WebCore8IntPointENS_12KeyValuePairIS2_NS1_14TileController8TileInfoEEENS_24KeyValuePairKeyExtractorIS6_EENS_12IntPointHashENS_18HashMapValueTraitsINS_10HashTraitsIS2_EENSB_IS5_EEEESC_E6rehashEi
__ZN3WTF22KeyValuePairHashTraitsINS_10HashTraitsIN7WebCore8IntPointEEENS1_INS2_14TileController8TileInfoEEEE10emptyValueEv
__ZN7WebCore14TileController15createTileLayerERKNS_7IntRectE
__ZN7WebCore9LayerPool10sharedPoolEv
__ZN7WebCore9LayerPoolC2Ev
__ZN7WebCore9LayerPool17takeLayerWithSizeERKNS_7IntSizeE
__ZN7WebCore9LayerPool20listOfLayersWithSizeERKNS_7IntSizeENS0_10AccessTypeE
__ZN3WTF7HashMapIN7WebCore7IntSizeENS_5DequeINS_9RetainPtrI12WebTileLayerEELm0EEENS_7IntHashIS2_EENS_10HashTraitsIS2_EENSA_IS7_EEE4findERKS2_
__ZN3WTF7HashMapIN7WebCore7IntSizeENS_5DequeINS_9RetainPtrI12WebTileLayerEELm0EEENS_7IntHashIS2_EENS_10HashTraitsIS2_EENSA_IS7_EEE6removeENS_24HashTableIteratorAdapterINS_9HashTableIS2_NS_12KeyValuePairIS2_S7_EENS_24KeyValuePairKeyExtractorISH_EES9_NS_18HashMapValueTraitsISB_SC_EESB_EESH_EE
__ZN3WTF9HashTableIN7WebCore7IntSizeENS_12KeyValuePairIS2_NS_5DequeINS_9RetainPtrI12WebTileLayerEELm0EEEEENS_24KeyValuePairKeyExtractorIS9_EENS_7IntHashIS2_EENS_18HashMapValueTraitsINS_10HashTraitsIS2_EENSF_IS8_EEEESG_E16lookupForWritingINS_22IdentityHashTranslatorISD_EES2_EENSt3__14pairIPS9_bEERKT0_
__ZN3WTF9HashTableIN7WebCore7IntSizeENS_12KeyValuePairIS2_NS_5DequeINS_9RetainPtrI12WebTileLayerEELm0EEEEENS_24KeyValuePairKeyExtractorIS9_EENS_7IntHashIS2_EENS_18HashMapValueTraitsINS_10HashTraitsIS2_EENSF_IS8_EEEESG_E3addINS_17HashMapTranslatorISI_SD_EES2_S8_EENS_18HashTableAddResultINS_17HashTableIteratorIS2_S9_SB_SD_SI_SG_EEEERKT0_RKT1_
__ZN3WTF9HashTableIN7WebCore7IntSizeENS_12KeyValuePairIS2_NS_5DequeINS_9RetainPtrI12WebTileLayerEELm0EEEEENS_24KeyValuePairKeyExtractorIS9_EENS_7IntHashIS2_EENS_18HashMapValueTraitsINS_10HashTraitsIS2_EENSF_IS8_EEEESG_E6rehashEi
__ZN3WTF22KeyValuePairHashTraitsINS_10HashTraitsIN7WebCore7IntSizeEEENS1_INS_5DequeINS_9RetainPtrI12WebTileLayerEELm0EEEEEE10emptyValueEv
__ZN3WTF5DequeINS_9RetainPtrI12WebTileLayerEELm0EEC2ERKS4_
__ZN3WTF5DequeINS_9RetainPtrI12WebTileLayerEELm0EE10destroyAllEv
__ZN3WTF6VectorIN7WebCore7IntSizeELm0ENS_15CrashOnOverflowEE14expandCapacityEmPKS2_
__ZN3WTF6VectorIN7WebCore7IntSizeELm0ENS_15CrashOnOverflowEE15reserveCapacityEm
-[WebTileLayer actionForKey:]
-[WebTileLayer setTileController:]
__ZN3WTF13hashTableSwapIN7WebCore8IntPointENS1_14TileController8TileInfoEEEvRNS_12KeyValuePairIT_T0_EES9_
__ZN3WTF13hashTableSwapIN7WebCore7IntSizeENS_5DequeINS_9RetainPtrI12WebTileLayerEELm0EEEEEvRNS_12KeyValuePairIT_T0_EESC_
__ZNK7WebCore9FloatRect8containsERKS0_
-[WebTiledBackingLayer setNeedsDisplayInRect:]
__ZN7WebCore14TileController21setNeedsDisplayInRectERKNS_7IntRectE
__ZN3WTF7HashMapIN7WebCore8IntPointENS1_14TileController8TileInfoENS_12IntPointHashENS_10HashTraitsIS2_EENS6_IS4_EEE4findERKS2_
__ZN7WebCore14TileController25setTileNeedsDisplayInRectERKNS_8IntPointERNS0_8TileInfoERKNS_7IntRectES8_
__ZNK7WebCore7IntRect10intersectsERKS0_
__ZThn480_NK7WebCore15GraphicsLayerCA33platformCALayerShowRepaintCounterEPNS_15PlatformCALayerE
__ZN7WebCore15GraphicsLayerCA18updateContentsRectEv
__ZN7WebCore15PlatformCALayer21setAcceleratesDrawingEb
-[WebTiledBackingLayer setAcceleratesDrawing:]
__ZN7WebCore14TileController21setAcceleratesDrawingEb
-[WebTiledBackingLayer setBorderWidth:]
__ZN7WebCore14TileController23setTileDebugBorderWidthEf
__ZN3WTF6VectorINS_6RefPtrIN7WebCore15PlatformCALayerEEELm0ENS_15CrashOnOverflowEE6appendIS4_EEvPKT_m
__ZN3WTF6VectorINS_6RefPtrIN7WebCore15PlatformCALayerEEELm0ENS_15CrashOnOverflowEE14expandCapacityEmPKS4_
__ZNK7WebCore18RenderLayerBacking24didCommitChangesForLayerEPKNS_13GraphicsLayerE
__ZN7WebCore21RenderLayerCompositor23didFlushChangesForLayerEPNS_11RenderLayerEPKNS_13GraphicsLayerE
__ZN7WebCore11CachedImage30resumeAnimatingImagesForLoaderEPNS_20CachedResourceLoaderE
__ZNK7WebCore9FrameTree14isDescendantOfEPKNS_5FrameE
__ZN7WebCore11FrameLoader23handleBeforeUnloadEventERNS_6ChromeEPS0_
__ZN7WebCore17BeforeUnloadEventC1Ev
__ZN7WebCore17BeforeUnloadEventC2Ev
__ZN7WebCore19JSBeforeUnloadEvent15createPrototypeEPN3JSC9ExecStateEPNS1_14JSGlobalObjectE
__ZN7WebCore19JSBeforeUnloadEvent6s_infoE
__ZN7WebCore19JSBeforeUnloadEventC1EPN3JSC9StructureEPNS_17JSDOMGlobalObjectEN3WTF10PassRefPtrINS_17BeforeUnloadEventEEE
__ZN7WebCore19JSBeforeUnloadEvent14finishCreationERN3JSC2VME
__ZN7WebCore19JSBeforeUnloadEvent14getConstructorEPN3JSC9ExecStateEPNS1_14JSGlobalObjectE
__ZN7WebCore5EventC2ERKN3WTF12AtomicStringEbb
__ZN7WebCore4Page44incrementFrameHandlingBeforeUnloadEventCountEv
__ZNK7WebCore9DOMWindow8documentEv
__ZN7WebCore4Page44decrementFrameHandlingBeforeUnloadEventCountEv
__ZN7WebCore17BeforeUnloadEventD0Ev
__ZN7WebCore19LayerFlushScheduler7suspendEv
__ZN7WebCore19LayerFlushScheduler10invalidateEv
__ZN7WebCore16ScriptController21processingUserGestureEv
__ZN7WebCore20UserGestureIndicator21processingUserGestureEv
__ZNK7WebCore16EventListenerMap8containsERKN3WTF12AtomicStringE
__ZN7WebCore15DatabaseManager16hasOpenDatabasesEPNS_22ScriptExecutionContextE
__ZN3WTF9HashTableIPN7WebCore22ScriptExecutionContextENS_12KeyValuePairIS3_PNS1_15DatabaseContextEEENS_24KeyValuePairKeyExtractorIS7_EENS_7PtrHashIS3_EENS_18HashMapValueTraitsINS_10HashTraitsIS3_EENSD_IS6_EEEESE_E16lookupForWritingINS_22IdentityHashTranslatorISB_EES3_EENSt3__14pairIPS7_bEERKT0_
__ZN3WTF9HashTableIPN7WebCore22ScriptExecutionContextENS_12KeyValuePairIS3_PNS1_15DatabaseContextEEENS_24KeyValuePairKeyExtractorIS7_EENS_7PtrHashIS3_EENS_18HashMapValueTraitsINS_10HashTraitsIS3_EENSD_IS6_EEEESE_E3addINS_17HashMapTranslatorISG_SB_EES3_S6_EENS_18HashTableAddResultINS_17HashTableIteratorIS3_S7_S9_SB_SG_SE_EEEERKT0_RKT1_
__ZN3WTF9HashTableIPN7WebCore22ScriptExecutionContextENS_12KeyValuePairIS3_PNS1_15DatabaseContextEEENS_24KeyValuePairKeyExtractorIS7_EENS_7PtrHashIS3_EENS_18HashMapValueTraitsINS_10HashTraitsIS3_EENSD_IS6_EEEESE_E6lookupINS_22IdentityHashTranslatorISB_EES3_EEPS7_RKT0_
__ZN3WTF9HashTableIPN7WebCore22ScriptExecutionContextENS_12KeyValuePairIS3_PNS1_15DatabaseContextEEENS_24KeyValuePairKeyExtractorIS7_EENS_7PtrHashIS3_EENS_18HashMapValueTraitsINS_10HashTraitsIS3_EENSD_IS6_EEEESE_E6shrinkEv
__ZN7WebCore17ScrollAnimatorMac16cancelAnimationsEv
__ZN7WebCore17HistoryController17saveDocumentStateEv
__ZN7WebCore11FrameLoader11stopLoadingENS_17UnloadEventPolicyE
__ZN7WebCore19PageTransitionEventC1ERKN3WTF12AtomicStringEb
__ZN7WebCore19PageTransitionEventD0Ev
__ZNK7WebCore15SecurityContext20isSecureTransitionToERKNS_4KURLE
__ZN7WebCore15DatabaseManager13stopDatabasesEPNS_22ScriptExecutionContextEPNS_24DatabaseTaskSynchronizerE
__ZN7WebCore6Editor23clearUndoRedoOperationsEv
__ZN7WebCore14DocumentLoader23stopLoadingSubresourcesEv
__ZN7WebCore14DocumentLoader18stopLoadingPlugInsEv
__ZN7WebCore14DocumentLoader15detachFromFrameEv
__ZN7WebCore20ApplicationCacheHost22setDOMApplicationCacheEPNS_19DOMApplicationCacheE
__ZN7WebCore24InspectorInstrumentation27loaderDetachedFromFrameImplEPNS_19InstrumentingAgentsEPNS_14DocumentLoaderE
__ZN7WebCore14DocumentLoaderD0Ev
__ZN7WebCore14DocumentLoaderD2Ev
__ZN7WebCore14DocumentLoader17clearMainResourceEv
__ZN7WebCore20ApplicationCacheHostD1Ev
__ZN7WebCore20ApplicationCacheHostD2Ev
__ZN7WebCore14DocumentWriterD2Ev
__ZN7WebCore17HistoryController36updateBackForwardListClippedAtTargetEb
__ZN7WebCore11FrameLoader30checkDidPerformFirstNavigationEv
__ZN7WebCore21BackForwardController11itemAtIndexEi
__ZN7WebCore17HistoryController14createItemTreeEPNS_5FrameEb
__ZN7WebCore17HistoryController10createItemEv
__ZN7WebCore11HistoryItemC1Ev
__ZN7WebCore17HistoryController14initializeItemEPNS_11HistoryItemE
__ZNK7WebCore14DocumentLoader11originalURLEv
__ZN7WebCore11HistoryItem6setURLERKNS_4KURLE
__ZN7WebCore9PageCache6removeEPNS_11HistoryItemE
__ZN7WebCore11HistoryItem12setURLStringERKN3WTF6StringE
__ZN7WebCore12iconDatabaseEv
__ZN7WebCore11HistoryItem9setTargetERKN3WTF6StringE
__ZN7WebCore11HistoryItem9setParentERKN3WTF6StringE
__ZN7WebCore11HistoryItem8setTitleERKN3WTF6StringE
__ZN7WebCore11HistoryItem20setOriginalURLStringERKN3WTF6StringE
__ZN7WebCore11HistoryItem22setFormInfoFromRequestERKNS_15ResourceRequestE
__ZN7WebCore17HistoryController36saveScrollPositionAndViewStateToItemEPNS_11HistoryItemE
__ZN7WebCore11HistoryItem15setIsTargetItemEb
__ZN7WebCore21BackForwardController7addItemEN3WTF10PassRefPtrINS_11HistoryItemEEE
__ZNK7WebCore11HistoryItem21encodeBackForwardTreeERN3WTF7EncoderE
__ZNK7WebCore11HistoryItem25encodeBackForwardTreeNodeERN3WTF7EncoderE
__ZNK7WebCore11HistoryItem17originalURLStringEv
__ZNK7WebCore11HistoryItem9urlStringEv
__ZNK7WebCore11HistoryItem5titleEv
__ZNK7WebCore14DocumentLoader19originalRequestCopyEv
__ZN7WebCore9FrameView16prepareForDetachEv
__ZN7WebCore9FrameView22detachCustomScrollbarsEv
__ZN7WebCore20ScrollingCoordinator25willDestroyScrollableAreaEPNS_14ScrollableAreaE
__ZN7WebCore8Document21prepareForDestructionEv
__ZN7WebCore13ContainerNode26disconnectDescendantFramesEv
__ZNK7WebCore4Node22connectedSubframeCountEv
__ZN7WebCore9DOMWindow27willDetachDocumentFromFrameEv
__ZN3WTF12copyToVectorINS_7HashSetIPN7WebCore17DOMWindowPropertyENS_7PtrHashIS4_EENS_10HashTraitsIS4_EEEENS_6VectorIS4_Lm0ENS_15CrashOnOverflowEEEEEvRKT_RT0_
__ZN7WebCore8Document6detachERKNS_4Node13AttachContextE
__ZN7WebCore22ScriptExecutionContext20stopActiveDOMObjectsEv
__ZThn48_N7WebCore16SuspendableTimer4stopEv
__ZN7WebCore18DocumentEventQueue5closeEv
__ZN7WebCore16SuspendableTimer4stopEv
__ZN3WTF11ListHashSetINS_6RefPtrIN7WebCore5EventEEELm16ENS_7PtrHashIS4_EEE5clearEv
__ZN3WTF5DequeINS_6RefPtrIN7WebCore4NodeEEELm0EE10destroyAllEv
__ZNK7WebCore9TimerBase16nextFireIntervalEv
__ZN7WebCore12RenderObject34destroyAndCleanupAnonymousWrappersEv
__ZN7WebCore12RenderObject7destroyEv
__ZN7WebCore11RenderBlock15willBeDestroyedEv
__ZN7WebCore21RenderObjectChildList23destroyLeftoverChildrenEv
__ZN7WebCore9RenderBox15willBeDestroyedEv
__ZN7WebCore11RenderBlock37removePercentHeightDescendantIfNeededEPNS_9RenderBoxE
__ZN7WebCore10MappedInfoINS_9RenderBoxENS_16ShapeOutsideInfoEE10removeInfoEPKS1_
__ZN7WebCore20RenderBoxModelObject15willBeDestroyedEv
__ZN7WebCore22RenderLayerModelObject15willBeDestroyedEv
__ZN7WebCore12RenderObject15willBeDestroyedEv
__ZNK7WebCore12EventHandler18autoscrollRendererEv
__ZNK7WebCore20AutoscrollController18autoscrollRendererEv
__ZN7WebCore19AnimationController16cancelAnimationsEPNS_12RenderObjectE
__ZN7WebCore11RenderBlock11removeChildEPNS_12RenderObjectE
__ZN7WebCore12RenderObject11removeChildEPS0_
__ZN7WebCore21RenderObjectChildList15removeChildNodeEPNS_12RenderObjectES2_b
__ZN7WebCore9RenderBox20deleteLineBoxWrapperEv
__ZN7WebCore12RenderObject11arenaDeleteEPNS_11RenderArenaEPv
__ZN7WebCore11RenderBlockD0Ev
__ZN7WebCore11RenderBlockD2Ev
__ZN7WebCore9RenderBoxD2Ev
__ZN7WebCore20RenderBoxModelObjectD2Ev
__ZN7WebCore22RenderLayerModelObjectD2Ev
__ZN7WebCore12RenderObjectD2Ev
__ZN7WebCore12RenderObjectdlEPvm
__ZN7WebCore22RenderLayerModelObject12destroyLayerEv
__ZN7WebCore11RenderLayer7destroyEPNS_11RenderArenaE
__ZN7WebCore11RenderLayerD0Ev
__ZN7WebCore11RenderLayerD2Ev
__ZN7WebCore9FrameView20removeScrollableAreaEPNS_14ScrollableAreaE
__ZN7WebCore14ScrollableAreaD2Ev
__ZN7WebCore18RenderLayerBackingD0Ev
__ZN7WebCore18RenderLayerBackingD2Ev
__ZN7WebCore23ScrollingCoordinatorMac19detachFromStateTreeEy
__ZN7WebCore18ScrollingStateTree10detachNodeEy
__ZN3WTF6VectorIyLm0ENS_15CrashOnOverflowEE14expandCapacityEmPKy
__ZN3WTF6VectorIyLm0ENS_15CrashOnOverflowEE15reserveCapacityEm
__ZN7WebCore27ScrollingStateScrollingNodeD0Ev
__ZN7WebCore27ScrollingStateScrollingNodeD2Ev
__ZN7WebCore18ScrollingStateNodeD2Ev
__ZN7WebCore18RenderLayerBacking21destroyGraphicsLayersEv
-[WebTiledBackingLayer invalidate]
__ZN7WebCore14TileControllerD0Ev
__ZN7WebCore14TileControllerD2Ev
__ZN7WebCore10RenderViewD0Ev
__ZN7WebCore10RenderViewD2Ev
__ZN7WebCore21RenderLayerCompositorD0Ev
__ZN7WebCore21RenderLayerCompositorD2Ev
__ZN7WebCore11RenderArenaD1Ev
__ZN7WebCore15FinishArenaPoolEPNS_9ArenaPoolE
__ZN7WebCore9FrameView18unscheduleRelayoutEv
__ZN7WebCore9FrameViewD0Ev
__ZN7WebCore9FrameViewD2Ev
__ZN7WebCore9FrameView15resetScrollbarsEv
__ZN7WebCore10ScrollView25setHasHorizontalScrollbarEb
__ZN7WebCore20FrameActionSchedulerD1Ev
__ZN7WebCore20FrameActionSchedulerD2Ev
__ZN7WebCore10ScrollViewD2Ev
__ZN7WebCore17ScrollAnimatorMacD0Ev
__ZN7WebCore17ScrollAnimatorMacD2Ev
-[WebScrollbarPainterControllerDelegate invalidate]
-[WebScrollAnimationHelperDelegate invalidate]
__ZN7WebCore14ScrollAnimatorD2Ev
__ZN7WebCore9DOMWindow9setStatusERKN3WTF6StringE
__ZN7WebCore6Chrome16setStatusbarTextEPNS_5FrameERKN3WTF6StringE
__ZNK7WebCore5Frame31displayStringModifiedByEncodingERKN3WTF6StringE
__ZNK7WebCore8Document31displayStringModifiedByEncodingERKN3WTF6StringE
__ZN7WebCore9DOMWindow16setDefaultStatusERKN3WTF6StringE
__ZN7WebCore8Document6setURLERKNS_4KURLE
__ZN7WebCore8Document13updateBaseURLEv
__ZNK7WebCore4KURL10isBlankURLEv
__ZN7WebCore8Document17takeDOMWindowFromEPS0_
__ZN7WebCore9DOMWindow21didSecureTransitionToEPNS_8DocumentE
__ZN7WebCore26ContextDestructionObserver14observeContextEPNS_22ScriptExecutionContextE
__ZN7WebCore22ScriptExecutionContext30willDestroyDestructionObserverEPNS_26ContextDestructionObserverE
__ZN3WTF7HashSetIPN7WebCore26ContextDestructionObserverENS_7PtrHashIS3_EENS_10HashTraitsIS3_EEE6removeERKS3_
__ZN3WTF9HashTableIPN7WebCore26ContextDestructionObserverES3_NS_17IdentityExtractorENS_7PtrHashIS3_EENS_10HashTraitsIS3_EES8_E6lookupINS_22IdentityHashTranslatorIS6_EES3_EEPS3_RKT0_
__ZN3WTF9HashTableIPN7WebCore26ContextDestructionObserverES3_NS_17IdentityExtractorENS_7PtrHashIS3_EENS_10HashTraitsIS3_EES8_E6rehashEi
__ZN7WebCore14FrameSelection21prepareForDestructionEv
__ZN7WebCore14FrameSelection12setSelectionERKNS_16VisibleSelectionEjNS0_19CursorAlignOnScrollENS_15TextGranularityE
__ZN7WebCore13TypingCommand11closeTypingEPNS_5FrameE
__ZN7WebCoreeqERKNS_16VisibleSelectionES2_
__ZN7WebCore24enclosingTextFormControlERKNS_8PositionE
__ZNK7WebCore8Position13containerNodeEv
__ZN7WebCore9FrameView5clearEv
__ZN7WebCore4Node14removedLastRefEv
__ZThn80_N7WebCore8Document7disposeEv
__ZN7WebCore8Document7disposeEv
__ZN7WebCore20UserActionElementSet24documentDidRemoveLastRefEv
__ZN3WTF6VectorINS_6RefPtrIN7WebCore7ElementEEELm0ENS_15CrashOnOverflowEE14shrinkCapacityEm
__ZN7WebCore9TreeScope20destroyTreeScopeDataEv
__ZN3WTF6OwnPtrIN7WebCore18DocumentOrderedMapEE5clearEv
__ZN7WebCore13ContainerNode22removeDetachedChildrenEv
__ZN7WebCore7Private28addChildNodesToDeletionQueueINS_4NodeENS_13ContainerNodeEEEvRPT_S6_PT0_
__ZN7WebCore15HTMLHtmlElementD0Ev
__ZN7WebCore13StyledElementD2Ev
__ZN7WebCore7ElementD2Ev
__ZN7WebCore13ContainerNodeD2Ev
__ZN7WebCore4Node17willBeDeletedFromEPNS_8DocumentE
__ZN7WebCore4NodeD2Ev
__ZN7WebCore11EventTargetD2Ev
__ZN7WebCore15HTMLHeadElementD0Ev
__ZN7WebCore15HTMLBodyElementD0Ev
__ZN7WebCore24DocumentMarkerController6detachEv
__ZNK7WebCore9TreeScope8refCountEv
__ZThn80_N7WebCore12HTMLDocumentD0Ev
__ZN7WebCore12HTMLDocumentD2Ev
__ZN7WebCore8DocumentD2Ev
__ZN7WebCore12ScriptRunnerD1Ev
__ZN7WebCore12ScriptRunnerD2Ev
__ZN7WebCore16HistogramSupport20histogramEnumerationEPKcii
__ZN7WebCore8Document23removeAllEventListenersEv
__ZN7WebCore11EventTarget23removeAllEventListenersEv
__ZN7WebCore4Node15eventTargetDataEv
__ZN7WebCore19TextResourceDecoderD1Ev
__ZN7WebCore28DocumentStyleSheetCollectionD1Ev
__ZN7WebCore28DocumentStyleSheetCollectionD2Ev
__ZN7WebCore13StyleResolverD1Ev
__ZN7WebCore13StyleResolverD2Ev
__ZN7WebCore15CSSFontSelector13clearDocumentEv
__ZN7WebCore13StyleResolver5StateD2Ev
__ZN7WebCore9FillLayerD1Ev
__ZN7WebCore9FillLayerD2Ev
__ZN7WebCore22InspectorCSSOMWrappersD2Ev
__ZN7WebCore16DocumentRuleSetsD1Ev
__ZN7WebCore16DocumentRuleSetsD2Ev
__ZN7WebCore20CachedResourceLoaderD1Ev
__ZN7WebCore20CachedResourceLoaderD2Ev
__ZN3WTF5DequeIN7WebCore20CachedResourceLoader14PendingPreloadELm0EE10destroyAllEv
__ZN3WTF6OwnPtrINS_11ListHashSetIPN7WebCore14CachedResourceELm256ENS_7PtrHashIS4_EEEEED2Ev
__ZN7WebCore9TreeScope18clearDocumentScopeEv
__ZN7WebCore24DocumentSharedObjectPoolD1Ev
__ZN7WebCore18DocumentEventQueueD0Ev
__ZN3WTF11ListHashSetINS_6RefPtrIN7WebCore5EventEEELm16ENS_7PtrHashIS4_EEED2Ev
__ZN7WebCore23DocumentEventQueueTimerD0Ev
__ZN7WebCore16SuspendableTimerD2Ev
__ZN7WebCore15ActiveDOMObjectD2Ev
__ZN7WebCore22ScriptExecutionContext26willDestroyActiveDOMObjectEPNS_15ActiveDOMObjectE
__ZN3WTF7HashSetIPN7WebCore15ActiveDOMObjectENS_7PtrHashIS3_EENS_10HashTraitsIS3_EEE6removeERKS3_
__ZN3WTF9HashTableIPN7WebCore15ActiveDOMObjectES3_NS_17IdentityExtractorENS_7PtrHashIS3_EENS_10HashTraitsIS3_EES8_E6lookupINS_22IdentityHashTranslatorIS6_EES3_EEPS3_RKT0_
__ZN7WebCore26ContextDestructionObserverD2Ev
__ZN7WebCore24DocumentMarkerControllerD1Ev
__ZN7WebCore24DocumentMarkerControllerD2Ev
__ZN7WebCore20UserActionElementSetD1Ev
__ZN7WebCore22ScriptExecutionContextD2Ev
__ZN3WTF6OwnPtrIN7WebCore16PublicURLManagerEED2Ev
__ZN3WTF14deleteOwnedPtrINS_6VectorINS_6OwnPtrIN7WebCore22ScriptExecutionContext16PendingExceptionEEELm0ENS_15CrashOnOverflowEEEEEvPT_
__ZN7WebCore15SecurityContextD2Ev
__ZN7WebCore21ContentSecurityPolicyD1Ev
__ZN7WebCore9TreeScopeD2Ev
__ZN3WTF6OwnPtrIN7WebCore24IdTargetObserverRegistryEED2Ev
__ZN3WTF6OwnPtrIN7WebCore18DocumentOrderedMapEED2Ev
__ZN7WebCore14SubframeLoader5clearEv
__ZN7WebCore16ScriptController10enableEvalEv
__ZN7WebCore21mainThreadNormalWorldEv
__ZN7WebCore19NavigationScheduler5clearEv
__ZN7WebCore11FrameLoader17receivedFirstDataEv
__ZN7WebCore11FrameLoader21dispatchDidCommitLoadEv
__ZNK7WebCore16ResourceResponse16certificateChainEv
__ZNK7WebCore16ResourceResponse17initNSURLResponseEv
__ZN7WebCore14SecurityOrigin16createFromStringERKN3WTF6StringE
__ZNK7WebCore14SecurityOrigin11toRawStringEv
__ZN7WebCore4Page16resetSeenPluginsEv
__ZN7WebCore4Page21resetSeenMediaEnginesEv
__ZN7WebCore24InspectorInstrumentation17didCommitLoadImplEPNS_19InstrumentingAgentsEPNS_4PageEPNS_14DocumentLoaderE
__ZNK7WebCore14InspectorAgent22developerExtrasEnabledEv
__ZN7WebCore15FeatureObserver13didCommitLoadEv
__ZN7WebCore11FrameLoader40dispatchDidClearWindowObjectsInAllWorldsEv
__ZN7WebCore16ScriptController12getAllWorldsERN3WTF6VectorINS1_6RefPtrINS_15DOMWrapperWorldEEELm0ENS1_15CrashOnOverflowEEE
__ZN3WTF12copyToVectorINS_7HashSetIPN7WebCore15DOMWrapperWorldENS_7PtrHashIS4_EENS_10HashTraitsIS4_EEEENS_6VectorINS_6RefPtrIS3_EELm0ENS_15CrashOnOverflowEEEEEvRKT_RT0_
__ZN3WTF6VectorINS_6RefPtrIN7WebCore15DOMWrapperWorldEEELm0ENS_15CrashOnOverflowEE6resizeEm
__ZN3WTF6VectorINS_6RefPtrIN7WebCore15DOMWrapperWorldEEELm0ENS_15CrashOnOverflowEE15reserveCapacityEm
__ZN7WebCore11FrameLoader35dispatchDidClearWindowObjectInWorldEPNS_15DOMWrapperWorldE
__ZN7WebCore11FrameLoader40dispatchGlobalObjectAvailableInAllWorldsEv
__ZN7WebCore21UserContentURLPattern5parseERKN3WTF6StringE
__ZNK7WebCore21UserContentURLPattern7matchesERKNS_4KURLE
__ZN7WebCore16ScriptController10initScriptEPNS_15DOMWrapperWorldE
__ZN7WebCore16ScriptController17createWindowShellEPNS_15DOMWrapperWorldE
__ZN7WebCore16JSDOMWindowShell6createEN3WTF10PassRefPtrINS_9DOMWindowEEEPN3JSC9StructureEPNS_15DOMWrapperWorldE
__ZN7WebCore16JSDOMWindowShellC1EPN3JSC9StructureEPNS_15DOMWrapperWorldE
__ZN7WebCore16JSDOMWindowShell14finishCreationERN3JSC2VMEN3WTF10PassRefPtrINS_9DOMWindowEEE
__ZN7WebCore16JSDOMWindowShell9setWindowEN3WTF10PassRefPtrINS_9DOMWindowEEE
__ZN3JSC6StrongIN7WebCore20JSDOMWindowPrototypeEEC2ERNS_2VMEPS2_
__ZN7WebCore11JSDOMWindow6createERN3JSC2VMEPNS1_9StructureEN3WTF10PassRefPtrINS_9DOMWindowEEEPNS_16JSDOMWindowShellE
__ZN7WebCore11JSDOMWindowC1ERN3JSC2VMEPNS1_9StructureEN3WTF10PassRefPtrINS_9DOMWindowEEEPNS_16JSDOMWindowShellE
__ZN7WebCore15JSDOMWindowBaseC2ERN3JSC2VMEPNS1_9StructureEN3WTF10PassRefPtrINS_9DOMWindowEEEPNS_16JSDOMWindowShellE
__ZN7WebCore17JSDOMGlobalObjectC2ERN3JSC2VMEPNS1_9StructureEN3WTF10PassRefPtrINS_15DOMWrapperWorldEEEPKNS1_23GlobalObjectMethodTableE
__ZN7WebCore15JSDOMWindowBase14finishCreationERN3JSC2VMEPNS_16JSDOMWindowShellE
__ZN7WebCore17JSDOMGlobalObject14finishCreationERN3JSC2VMEPNS1_8JSObjectE
__ZN7WebCore15JSDOMWindowBase28javaScriptExperimentsEnabledEPKN3JSC14JSGlobalObjectE
__ZN7WebCore12gcControllerEv
__ZN7WebCore12GCController18garbageCollectSoonEv
__ZN3JSC6StrongIN7WebCore16JSDOMWindowShellEEC2ERNS_2VMEPS2_
__ZN3JSC6StrongIN7WebCore16JSDOMWindowShellEEC2ERKS3_
__ZN3JSC6StrongIN7WebCore16JSDOMWindowShellEEaSERKS3_
__ZN3WTF9HashTableIPN7WebCore16ScriptControllerES3_NS_17IdentityExtractorENS_7PtrHashIS3_EENS_10HashTraitsIS3_EES8_E3addINS_22IdentityHashTranslatorIS6_EES3_S3_EENS_18HashTableAddResultINS_17HashTableIteratorIS3_S3_S4_S6_S8_S8_EEEERKT0_RKT1_
__ZN3WTF9HashTableIPN7WebCore16ScriptControllerES3_NS_17IdentityExtractorENS_7PtrHashIS3_EENS_10HashTraitsIS3_EES8_E6rehashEi
__ZN7WebCore15JSDOMWindowBase14updateDocumentEv
__ZN3WTF9HashTableIPvNS_12KeyValuePairIS1_N3JSC4WeakIN7WebCore12JSDOMWrapperEEEEENS_24KeyValuePairKeyExtractorIS8_EENS_7PtrHashIS1_EENS_18HashMapValueTraitsINS_10HashTraitsIS1_EENSE_IS7_EEEESF_E16lookupForWritingINS_22IdentityHashTranslatorISC_EES1_EENSt3__14pairIPS8_bEERKT0_
__ZN3WTF9HashTableIPvNS_12KeyValuePairIS1_N3JSC4WeakIN7WebCore12JSDOMWrapperEEEEENS_24KeyValuePairKeyExtractorIS8_EENS_7PtrHashIS1_EENS_18HashMapValueTraitsINS_10HashTraitsIS1_EENSE_IS7_EEEESF_E3addINS_17HashMapTranslatorISH_SC_EES1_NS3_8PassWeakIS6_EEEENS_18HashTableAddResultINS_17HashTableIteratorIS1_S8_SA_SC_SH_SF_EEEERKT0_RKT1_
__ZN3WTF9HashTableIPvNS_12KeyValuePairIS1_N3JSC4WeakIN7WebCore12JSDOMWrapperEEEEENS_24KeyValuePairKeyExtractorIS8_EENS_7PtrHashIS1_EENS_18HashMapValueTraitsINS_10HashTraitsIS1_EENSE_IS7_EEEESF_E6lookupINS_22IdentityHashTranslatorISC_EES1_EEPS8_RKT0_
__ZN3WTF9HashTableIPvNS_12KeyValuePairIS1_N3JSC4WeakIN7WebCore12JSDOMWrapperEEEEENS_24KeyValuePairKeyExtractorIS8_EENS_7PtrHashIS1_EENS_18HashMapValueTraitsINS_10HashTraitsIS1_EENSE_IS7_EEEESF_E6rehashEi
__ZN7WebCore13createWrapperEPN3JSC9ExecStateEPNS_17JSDOMGlobalObjectEPNS_4NodeE
__ZNK7WebCore8Document8nodeTypeEv
__ZN7WebCore4toJSEPN3JSC9ExecStateEPNS_17JSDOMGlobalObjectEPNS_8DocumentE
__ZN7WebCore4toJSEPN3JSC9ExecStateEPNS_9DOMWindowE
__ZN3WTF9HashTableINS_6RefPtrIN7WebCore15DOMWrapperWorldEEENS_12KeyValuePairIS4_N3JSC6StrongINS2_16JSDOMWindowShellEEEEENS_24KeyValuePairKeyExtractorISA_EENS_7PtrHashIS4_EENS_22KeyValuePairHashTraitsINS_10HashTraitsIS4_EENSG_IS9_EEEESH_E12deleteBucketERSA_
__ZN3WTF9HashTableINS_6RefPtrIN7WebCore15DOMWrapperWorldEEENS_12KeyValuePairIS4_N3JSC6StrongINS2_16JSDOMWindowShellEEEEENS_24KeyValuePairKeyExtractorISA_EENS_7PtrHashIS4_EENS_22KeyValuePairHashTraitsINS_10HashTraitsIS4_EENSG_IS9_EEEESH_E15deallocateTableEPSA_i
__ZN3WTF9HashTableINS_6RefPtrIN7WebCore15DOMWrapperWorldEEENS_12KeyValuePairIS4_N3JSC6StrongINS2_16JSDOMWindowShellEEEEENS_24KeyValuePairKeyExtractorISA_EENS_7PtrHashIS4_EENS_22KeyValuePairHashTraitsINS_10HashTraitsIS4_EENSG_IS9_EEEESH_E16lookupForWritingINS_22IdentityHashTranslatorISE_EES4_EENSt3__14pairIPSA_bEERKT0_
__ZN3WTF9HashTableINS_6RefPtrIN7WebCore15DOMWrapperWorldEEENS_12KeyValuePairIS4_N3JSC6StrongINS2_16JSDOMWindowShellEEEEENS_24KeyValuePairKeyExtractorISA_EENS_7PtrHashIS4_EENS_22KeyValuePairHashTraitsINS_10HashTraitsIS4_EENSG_IS9_EEEESH_E3addINS_17HashMapTranslatorISJ_SE_EEPS3_S9_EENS_18HashTableAddResultINS_17HashTableIteratorIS4_SA_SC_SE_SJ_SH_EEEERKT0_RKT1_
__ZN3WTF9HashTableINS_6RefPtrIN7WebCore15DOMWrapperWorldEEENS_12KeyValuePairIS4_N3JSC6StrongINS2_16JSDOMWindowShellEEEEENS_24KeyValuePairKeyExtractorISA_EENS_7PtrHashIS4_EENS_22KeyValuePairHashTraitsINS_10HashTraitsIS4_EENSG_IS9_EEEESH_E6lookupINS_17HashMapTranslatorISJ_SE_EEPS3_EEPSA_RKT0_
__ZN3WTF9HashTableINS_6RefPtrIN7WebCore15DOMWrapperWorldEEENS_12KeyValuePairIS4_N3JSC6StrongINS2_16JSDOMWindowShellEEEEENS_24KeyValuePairKeyExtractorISA_EENS_7PtrHashIS4_EENS_22KeyValuePairHashTraitsINS_10HashTraitsIS4_EENSG_IS9_EEEESH_E6lookupINS_22IdentityHashTranslatorISE_EES4_EEPSA_RKT0_
__ZN3WTF9HashTableINS_6RefPtrIN7WebCore15DOMWrapperWorldEEENS_12KeyValuePairIS4_N3JSC6StrongINS2_16JSDOMWindowShellEEEEENS_24KeyValuePairKeyExtractorISA_EENS_7PtrHashIS4_EENS_22KeyValuePairHashTraitsINS_10HashTraitsIS4_EENSG_IS9_EEEESH_E6rehashEi
__ZN7WebCore13toJSDOMWindowEN3JSC7JSValueE
__ZN7WebCore15getDOMStructureINS_14JSHTMLDocumentEEEPN3JSC9StructureEPNS2_9ExecStateEPNS_17JSDOMGlobalObjectE
__ZN7WebCore21getCachedDOMStructureEPNS_17JSDOMGlobalObjectEPKN3JSC9ClassInfoE
__ZN7WebCore14JSHTMLDocument15createPrototypeEPN3JSC9ExecStateEPNS1_14JSGlobalObjectE
__ZN7WebCore19JSDocumentPrototype4selfEPN3JSC9ExecStateEPNS1_14JSGlobalObjectE
__ZN7WebCore15getDOMStructureINS_10JSDocumentEEEPN3JSC9StructureEPNS2_9ExecStateEPNS_17JSDOMGlobalObjectE
__ZN7WebCore10JSDocument15createPrototypeEPN3JSC9ExecStateEPNS1_14JSGlobalObjectE
__ZN7WebCore15JSNodePrototype4selfEPN3JSC9ExecStateEPNS1_14JSGlobalObjectE
__ZN7WebCore15getDOMStructureINS_6JSNodeEEEPN3JSC9StructureEPNS2_9ExecStateEPNS_17JSDOMGlobalObjectE
__ZN7WebCore6JSNode15createPrototypeEPN3JSC9ExecStateEPNS1_14JSGlobalObjectE
__ZN7WebCore17cacheDOMStructureEPNS_17JSDOMGlobalObjectEPN3JSC9StructureEPKNS2_9ClassInfoE
__ZN3WTF9HashTableIPKN3JSC9ClassInfoENS_12KeyValuePairIS4_NS1_12WriteBarrierINS1_9StructureEEEEENS_24KeyValuePairKeyExtractorIS9_EENS_7PtrHashIS4_EENS_18HashMapValueTraitsINS_10HashTraitsIS4_EENSF_IS8_EEEESG_E16lookupForWritingINS_22IdentityHashTranslatorISD_EES4_EENSt3__14pairIPS9_bEERKT0_
__ZN3WTF9HashTableIPKN3JSC9ClassInfoENS_12KeyValuePairIS4_NS1_12WriteBarrierINS1_9StructureEEEEENS_24KeyValuePairKeyExtractorIS9_EENS_7PtrHashIS4_EENS_18HashMapValueTraitsINS_10HashTraitsIS4_EENSF_IS8_EEEESG_E3addINS_17HashMapTranslatorISI_SD_EES4_S8_EENS_18HashTableAddResultINS_17HashTableIteratorIS4_S9_SB_SD_SI_SG_EEEERKT0_RKT1_
__ZN3WTF9HashTableIPKN3JSC9ClassInfoENS_12KeyValuePairIS4_NS1_12WriteBarrierINS1_9StructureEEEEENS_24KeyValuePairKeyExtractorIS9_EENS_7PtrHashIS4_EENS_18HashMapValueTraitsINS_10HashTraitsIS4_EENSF_IS8_EEEESG_E6lookupINS_22IdentityHashTranslatorISD_EES4_EEPS9_RKT0_
__ZN3WTF9HashTableIPKN3JSC9ClassInfoENS_12KeyValuePairIS4_NS1_12WriteBarrierINS1_9StructureEEEEENS_24KeyValuePairKeyExtractorIS9_EENS_7PtrHashIS4_EENS_18HashMapValueTraitsINS_10HashTraitsIS4_EENSF_IS8_EEEESG_E6rehashEi
__ZN7WebCore14JSHTMLDocument6createEPN3JSC9StructureEPNS_17JSDOMGlobalObjectEN3WTF10PassRefPtrINS_12HTMLDocumentEEE
__ZN7WebCore14JSHTMLDocumentC1EPN3JSC9StructureEPNS_17JSDOMGlobalObjectEN3WTF10PassRefPtrINS_12HTMLDocumentEEE
__ZN7WebCore10JSDocumentC2EPN3JSC9StructureEPNS_17JSDOMGlobalObjectEN3WTF10PassRefPtrINS_8DocumentEEE
__ZN7WebCore6JSNodeC2EPN3JSC9StructureEPNS_17JSDOMGlobalObjectEN3WTF10PassRefPtrINS_4NodeEEE
__ZN7WebCore14JSHTMLDocument14finishCreationERN3JSC2VME
__ZN7WebCore10JSDocument14finishCreationERN3JSC2VME
__ZN7WebCore6JSNode14finishCreationERN3JSC2VME
__ZN7WebCore12cacheWrapperINS_12HTMLDocumentEEEvPNS_15DOMWrapperWorldEPT_PNS_12JSDOMWrapperE
__ZN3JSC28symbolTablePutWithAttributesIN7WebCore15JSDOMWindowBaseEEEbPT_RNS_2VMENS_12PropertyNameENS_7JSValueEj
__ZN3WTF9HashTableINS_6RefPtrINS_10StringImplEEENS_12KeyValuePairIS3_N3JSC16SymbolTableEntryEEENS_24KeyValuePairKeyExtractorIS7_EENS5_17IdentifierRepHashENS_22KeyValuePairHashTraitsINS_10HashTraitsIS3_EENS5_26SymbolTableIndexHashTraitsEEESD_E4findINS_17HashMapTranslatorISF_SA_EEPS2_EENS_17HashTableIteratorIS3_S7_S9_SA_SF_SD_EERKT0_
__ZNK7WebCore21ContentSecurityPolicy9allowEvalEPN3JSC9ExecStateENS0_15ReportingStatusE
__ZNK7WebCore21ContentSecurityPolicy24evalDisabledErrorMessageEv
__ZN3WTF6OwnPtrIN3JSC14JSGlobalObject22JSGlobalObjectRareDataEEaSERKNS_10PassOwnPtrIS3_EE
__ZN3WTF10PassOwnPtrIN3JSC14JSGlobalObject22JSGlobalObjectRareDataEED2Ev
__ZN7WebCore19InspectorController27didClearWindowObjectInWorldEPNS_5FrameEPNS_15DOMWrapperWorldE
__ZN7WebCore24InspectorInstrumentation31didClearWindowObjectInWorldImplEPNS_19InstrumentingAgentsEPNS_5FrameEPNS_15DOMWrapperWorldE
__ZN7WebCore14InspectorAgent27didClearWindowObjectInWorldEPNS_5FrameEPNS_15DOMWrapperWorldE
__ZN7WebCore16PageRuntimeAgent25didCreateMainWorldContextEPNS_5FrameE
__ZN7WebCore11JSDOMWindow18getOwnPropertySlotEPN3JSC6JSCellEPNS1_9ExecStateENS1_12PropertyNameERNS1_12PropertySlotE
__ZN7WebCore28shouldAllowAccessToDOMWindowEPN3JSC9ExecStateEPNS_9DOMWindowERN3WTF6StringE
__ZN7WebCore15BindingSecurity28shouldAllowAccessToDOMWindowEPN3JSC9ExecStateEPNS_9DOMWindowENS_23SecurityReportingOptionE
__ZN7WebCoreL17canAccessDocumentEPN3JSC9ExecStateEPNS_8DocumentENS_23SecurityReportingOptionE
__ZN7WebCore15activeDOMWindowEPN3JSC9ExecStateE
__ZNK7WebCore14SecurityOrigin9canAccessEPKS0_
__ZNK7WebCore9FrameTree11scopedChildERKN3WTF12AtomicStringE
__ZN7WebCore20JSDOMWindowPrototype18getOwnPropertySlotEPN3JSC6JSCellEPNS1_9ExecStateENS1_12PropertyNameERNS1_12PropertySlotE
__ZN3JSC21getStaticPropertySlotIN7WebCore20JSDOMWindowPrototypeENS_8JSObjectEEEbPNS_9ExecStateEPKNS_9HashTableEPT_NS_12PropertyNameERNS_12PropertySlotE
__ZN3JSC9Structure3getERNS_2VMENS_12PropertyNameE
__ZN3JSC12PropertyName7asIndexEv
__ZNK7WebCore9FrameTree16scopedChildCountEv
__ZN7WebCore16findAtomicStringEN3JSC12PropertyNameE
__ZN7WebCore16parseHTTPRefreshERKN3WTF6StringEbRdRS1_
__ZN7WebCore14DocumentWriter11setEncodingERKN3WTF6StringEb
__ZN7WebCore14DocumentWriter7addDataEPKcm
__ZN7WebCore25DecodedDataDocumentParser11appendBytesEPNS_14DocumentWriterEPKcm
__ZN7WebCoreL17fullyDecodeStringERKN3WTF6StringERKNS_12TextEncodingE
__ZN7WebCore21decodeEscapeSequencesINS_26Unicode16BitEscapeSequenceEEEN3WTF6StringERKS3_RKNS_12TextEncodingE
__ZN7WebCoreL23isNonCanonicalCharacterEt
__ZN7WebCoreL22isRequiredForInjectionEt
__ZNK7WebCore20ResourceResponseBase15httpHeaderFieldERKN3WTF12AtomicStringE
__ZNK7WebCore13HTTPHeaderMap3getERKN3WTF12AtomicStringE
__ZN7WebCore24parseXSSProtectionHeaderERKN3WTF6StringERS1_RjS4_
__ZNK7WebCore21ContentSecurityPolicy23reflectedXSSDispositionEv
__ZN7WebCore24ScriptableDocumentParser26asScriptableDocumentParserEv
__ZNK7WebCore25DecodedDataDocumentParser10wellFormedEv
__ZN7WebCore14IconController11startLoaderEv
__ZN7WebCore14IconController3urlEv
__ZN7WebCore14IconController12urlsForTypesEi
__ZN7WebCore14IconController16appendToIconURLsENS_8IconTypeEPN3WTF6VectorINS_7IconURLELm1ENS2_15CrashOnOverflowEEE
__ZNK7WebCore14IconController7iconURLENS_8IconTypeE
__ZN7WebCore8Document8iconURLsEi
__ZN3WTF6VectorIN7WebCore7IconURLELm0ENS_15CrashOnOverflowEE14shrinkCapacityEm
__ZN7WebCore11HTMLElement8childrenEv
__ZN7WebCore7Element26ensureCachedHTMLCollectionENS_14CollectionTypeE
__ZN7WebCore7Element20cachedHTMLCollectionENS_14CollectionTypeE
__ZN7WebCore4Node14ensureRareDataEv
__ZN7WebCore17NodeListsNodeData22addCacheWithAtomicNameINS_14HTMLCollectionEEEN3WTF10PassRefPtrIT_EEPNS_4NodeENS_14CollectionTypeE
__ZN3WTF9HashTableINSt3__14pairIhNS_12AtomicStringEEENS_12KeyValuePairIS4_PN7WebCore16LiveNodeListBaseEEENS_24KeyValuePairKeyExtractorIS9_EENS6_17NodeListsNodeData25NodeListCacheMapEntryHashIS3_EENS_18HashMapValueTraitsINS_10HashTraitsIS4_EENSG_IS8_EEEESH_E16lookupForWritingINS_22IdentityHashTranslatorISE_EES4_EENS2_IPS9_bEERKT0_
__ZN3WTF9HashTableINSt3__14pairIhNS_12AtomicStringEEENS_12KeyValuePairIS4_PN7WebCore16LiveNodeListBaseEEENS_24KeyValuePairKeyExtractorIS9_EENS6_17NodeListsNodeData25NodeListCacheMapEntryHashIS3_EENS_18HashMapValueTraitsINS_10HashTraitsIS4_EENSG_IS8_EEEESH_E3addINS_17HashMapTranslatorISJ_SE_EES4_S8_EENS_18HashTableAddResultINS_17HashTableIteratorIS4_S9_SB_SE_SJ_SH_EEEERKT0_RKT1_
__ZN3WTF9HashTableINSt3__14pairIhNS_12AtomicStringEEENS_12KeyValuePairIS4_PN7WebCore16LiveNodeListBaseEEENS_24KeyValuePairKeyExtractorIS9_EENS6_17NodeListsNodeData25NodeListCacheMapEntryHashIS3_EENS_18HashMapValueTraitsINS_10HashTraitsIS4_EENSG_IS8_EEEESH_E4findINS_22IdentityHashTranslatorISE_EES4_EENS_17HashTableIteratorIS4_S9_SB_SE_SJ_SH_EERKT0_
__ZN3WTF9HashTableINSt3__14pairIhNS_12AtomicStringEEENS_12KeyValuePairIS4_PN7WebCore16LiveNodeListBaseEEENS_24KeyValuePairKeyExtractorIS9_EENS6_17NodeListsNodeData25NodeListCacheMapEntryHashIS3_EENS_18HashMapValueTraitsINS_10HashTraitsIS4_EENSG_IS8_EEEESH_E6rehashEi
__ZN7WebCore14HTMLCollection6createEPNS_4NodeENS_14CollectionTypeE
__ZN7WebCore14HTMLCollectionC2EPNS_4NodeENS_14CollectionTypeENS_16LiveNodeListBase21ItemAfterOverrideTypeE
__ZN7WebCore8Document16registerNodeListEPNS_16LiveNodeListBaseE
__ZN7WebCore14HTMLCollectionD0Ev
__ZN7WebCore14HTMLCollectionD2Ev
__ZN7WebCore4Node9nodeListsEv
__ZN7WebCore17NodeListsNodeData25removeCacheWithAtomicNameEPNS_16LiveNodeListBaseENS_14CollectionTypeERKN3WTF12AtomicStringE
__ZN7WebCore4Node14clearNodeListsEv
__ZN7WebCore17NodeListsNodeDataD2Ev
__ZN7WebCore16LiveNodeListBaseD2Ev
__ZN7WebCore8Document18unregisterNodeListEPNS_16LiveNodeListBaseE
__ZNK7WebCore4Node8rareDataEv
__ZNK7WebCore16LiveNodeListBase6lengthEv
__ZNK7WebCore16LiveNodeListBase4itemEj
__ZNK7WebCore16LiveNodeListBase17rootContainerNodeEv
__ZNK7WebCore14HTMLCollection20traverseFirstElementERjPNS_13ContainerNodeE
__ZN3WTF6VectorIN7WebCore7IconURLELm0ENS_15CrashOnOverflowEE7reverseEv
__ZN7WebCore14IconController10defaultURLENS_8IconTypeE
__ZN7WebCore19AnimationController29startAnimationsIfNotSuspendedEPNS_8DocumentE
__ZN7WebCore11ImageLoader31dispatchPendingBeforeLoadEventsEv
__ZN7WebCore11EventSenderINS_11ImageLoaderEE21dispatchPendingEventsEv
__ZN7WebCore11ImageLoader25dispatchPendingLoadEventsEv
__ZN7WebCore11ImageLoader26dispatchPendingErrorEventsEv
__ZN7WebCore15HTMLLinkElement25dispatchPendingLoadEventsEv
__ZN7WebCore11EventSenderINS_15HTMLLinkElementEE21dispatchPendingEventsEv
__ZN7WebCore16HTMLStyleElement25dispatchPendingLoadEventsEv
__ZN7WebCore11EventSenderINS_16HTMLStyleElementEE21dispatchPendingEventsEv
__ZN7WebCore9DOMWindow17dispatchLoadEventEv
__ZN7WebCore24InspectorInstrumentation18loadEventFiredImplEPNS_19InstrumentingAgentsEPNS_5FrameE
__ZN7WebCore8Document20enqueuePageshowEventENS_24PageshowEventPersistenceE
__ZN7WebCore21SerializedScriptValue9nullValueEv
__ZN7WebCore8Document20enqueuePopstateEventEN3WTF10PassRefPtrINS_21SerializedScriptValueEEE
__ZN7WebCore15ContextFeatures16pushStateEnabledEPNS_8DocumentE
__ZN7WebCore21ContextFeaturesClient9isEnabledEPNS_8DocumentENS_15ContextFeatures11FeatureTypeEb
__ZNK7WebCore9DOMWindow7historyEv
__ZN7WebCore7HistoryC1EPNS_5FrameE
__ZN7WebCore17DOMWindowPropertyC2EPNS_5FrameE
__ZN7WebCore9DOMWindow16registerPropertyEPNS_17DOMWindowPropertyE
__ZN3WTF9HashTableIPN7WebCore17DOMWindowPropertyES3_NS_17IdentityExtractorENS_7PtrHashIS3_EENS_10HashTraitsIS3_EES8_E3addINS_22IdentityHashTranslatorIS6_EES3_S3_EENS_18HashTableAddResultINS_17HashTableIteratorIS3_S3_S4_S6_S8_S8_EEEERKT0_RKT1_
__ZN3WTF9HashTableIPN7WebCore17DOMWindowPropertyES3_NS_17IdentityExtractorENS_7PtrHashIS3_EENS_10HashTraitsIS3_EES8_E6rehashEi
__ZN7WebCore13PopStateEvent6createEN3WTF10PassRefPtrINS_21SerializedScriptValueEEENS2_INS_7HistoryEEE
__ZN7WebCore13PopStateEventC2EN3WTF10PassRefPtrINS_21SerializedScriptValueEEENS2_INS_7HistoryEEE
__ZN7WebCore13PopStateEventD0Ev
__ZN7WebCore13PopStateEventD2Ev
__ZN7WebCore21SerializedScriptValueD1Ev
__ZN7WebCore21SerializedScriptValueD2Ev
__ZN7WebCore11FrameLoader19handledOnloadEventsEv
__ZN7WebCore14DocumentLoader19handledOnloadEventsEv
__ZN7WebCore20ApplicationCacheHost19stopDeferringEventsEv
__ZN7WebCore11FrameLoader22checkCallImplicitCloseEv
__ZN7WebCore11FrameLoader9didLayoutEj
__ZN7WebCore19LayerFlushScheduler6resumeEv
__ZNK7WebCore9FrameView17wasScrolledByUserEv
__ZN7WebCore9FrameView16restoreScrollbarEv
__ZN7WebCore11FrameLoader34scrollToFragmentWithParentBoundaryERKNS_4KURLE
__ZN7WebCore9FrameView16scrollToFragmentERKNS_4KURLE
__ZN7WebCore15ProgressTracker17progressCompletedEPNS_5FrameE
__ZN7WebCore15ProgressTracker21finalProgressCompleteEv
__ZNK7WebCore15ProgressTracker17estimatedProgressEv
__ZN7WebCore14TileController18clipsToExposedRectEv
__ZN7WebCore24InspectorInstrumentation23frameStoppedLoadingImplEPNS_19InstrumentingAgentsEPNS_5FrameE
__ZN7WebCore19InspectorController5closeEv
__ZNK7WebCore12RenderObject5themeEv
__ZNK7WebCore14RenderThemeMac20supportsControlTintsEv
__ZN7WebCore9FrameView17paintControlTintsEv
__ZN7WebCore15GraphicsContext23setUpdatingControlTintsEb
__ZN7WebCore10ScrollView5paintEPNS_15GraphicsContextERKNS_7IntRectE
__ZNK7WebCore15GraphicsContext20updatingControlTintsEv
__ZNK7WebCore9FrameView34notifyPageThatContentAreaWillPaintEv
__ZNK7WebCore14ScrollableArea20contentAreaWillPaintEv
__ZN7WebCore15GraphicsContext4saveEv
__ZN7WebCore15GraphicsContext9translateEff
__ZN7WebCore15GraphicsContext4clipERKNS_7IntRectE
__ZN7WebCore15GraphicsContext4clipERKNS_9FloatRectE
__ZN7WebCore9FrameView13paintContentsEPNS_15GraphicsContextERKNS_7IntRectE
__ZN7WebCore24DocumentMarkerController39invalidateRenderedRectsForMarkersInRectERKNS_10LayoutRectE
__ZN7WebCore11RenderLayer5paintEPNS_15GraphicsContextERKNS_10LayoutRectEjPNS_12RenderObjectEPNS_12RenderRegionEj
__ZN7WebCore16enclosingIntRectERKNS_10LayoutRectE
__ZN7WebCore11RenderLayer10paintLayerEPNS_15GraphicsContextERKNS0_17LayerPaintingInfoEj
__ZNK7WebCore4Node12namespaceURIEv
__ZN7WebCore11RenderLayer18paintLayerContentsEPNS_15GraphicsContextERKNS0_17LayerPaintingInfoEj
__ZN7WebCore11RenderLayer29setupFontSubpixelQuantizationEPNS_15GraphicsContextERb
__ZN7WebCore11RenderLayer13setupClipPathEPNS_15GraphicsContextERKNS0_17LayerPaintingInfoERKNS_11LayoutPointERNS_7IntRectERb
__ZN7WebCore11RenderLayer12setupFiltersEPNS_15GraphicsContextERNS0_17LayerPaintingInfoEjRKNS_11LayoutPointERNS_7IntRectERb
__ZNK7WebCore11RenderLayer11boundingBoxEPKS0_jPKNS_11LayoutPointE
__ZNK7WebCore11RenderLayer16localBoundingBoxEj
__ZN7WebCore11RenderLayer16collectFragmentsERN3WTF6VectorINS_13LayerFragmentELm1ENS1_15CrashOnOverflowEEEPKS0_PNS_12RenderRegionERKNS_10LayoutRectENS_13ClipRectsTypeENS_29OverlayScrollbarSizeRelevancyENS_25ShouldRespectOverflowClipEPKNS_11LayoutPointEPSC_
__ZNK7WebCore11RenderLayer14calculateRectsERKNS0_16ClipRectsContextERKNS_10LayoutRectERS4_RNS_8ClipRectES9_S9_PKNS_11LayoutPointE
__ZNK7WebCore11RenderLayer20intersectsDamageRectERKNS_10LayoutRectES3_PKS0_PKNS_11LayoutPointE
__ZN7WebCore11RenderLayer27paintBackgroundForFragmentsERKN3WTF6VectorINS_13LayerFragmentELm1ENS1_15CrashOnOverflowEEEPNS_15GraphicsContextES9_RKNS_10LayoutRectEbRKNS0_17LayerPaintingInfoEjPNS_12RenderObjectE
__ZN7WebCore11RenderLayer10clipToRectEPS0_PNS_15GraphicsContextERKNS_10LayoutRectERKNS_8ClipRectENS_24BorderRadiusClippingRuleE
__ZN7WebCore10RenderView5paintERNS_9PaintInfoERKNS_11LayoutPointE
__ZN7WebCore11RenderBlock11paintObjectERNS_9PaintInfoERKNS_11LayoutPointE
__ZN7WebCore10RenderView19paintBoxDecorationsERNS_9PaintInfoERKNS_11LayoutPointE
__ZN7WebCore11RenderLayer9paintListEPN3WTF6VectorIPS0_Lm0ENS1_15CrashOnOverflowEEEPNS_15GraphicsContextERKNS0_17LayerPaintingInfoEj
__ZN7WebCore11RenderLayer27paintForegroundForFragmentsERKN3WTF6VectorINS_13LayerFragmentELm1ENS1_15CrashOnOverflowEEEPNS_15GraphicsContextES9_RKNS_10LayoutRectEbRKNS0_17LayerPaintingInfoEjPNS_12RenderObjectEbb
__ZN7WebCore11RenderLayer36paintForegroundForFragmentsWithPhaseENS_10PaintPhaseERKN3WTF6VectorINS_13LayerFragmentELm1ENS2_15CrashOnOverflowEEEPNS_15GraphicsContextERKNS0_17LayerPaintingInfoEjPNS_12RenderObjectE
__ZN7WebCore11RenderBlock13paintContentsERNS_9PaintInfoERKNS_11LayoutPointE
__ZN7WebCore11RenderBlock13paintChildrenERNS_9PaintInfoERKNS_11LayoutPointES2_b
__ZN7WebCore11RenderBlock10paintChildEPNS_9RenderBoxERNS_9PaintInfoERKNS_11LayoutPointES4_b
__ZNK7WebCore9RenderBox26flipForWritingModeForChildEPKS0_RKNS_11LayoutPointE
__ZN7WebCore11RenderBlock14paintSelectionERNS_9PaintInfoERKNS_11LayoutPointE
__ZNK7WebCore11RenderBlock24shouldPaintSelectionGapsEv
__ZN7WebCore11RenderBlock11paintFloatsERNS_9PaintInfoERKNS_11LayoutPointEb
__ZN7WebCore11RenderBlock10paintCaretERNS_9PaintInfoERKNS_11LayoutPointENS_9CaretTypeE
__ZNK7WebCore14FrameSelection13caretRendererEv
__ZNK7WebCore16VisibleSelection18rendererIsEditableEv
__ZN7WebCore18isEditablePositionERKNS_8PositionENS_12EditableTypeENS_12EUpdateStyleE
__ZNK7WebCore19DragCaretController13caretRendererEv
__ZN7WebCore11RenderBlock25paintContinuationOutlinesERNS_9PaintInfoERKNS_11LayoutPointE
__ZN7WebCore11RenderLayer24paintOutlineForFragmentsERKN3WTF6VectorINS_13LayerFragmentELm1ENS1_15CrashOnOverflowEEEPNS_15GraphicsContextERKNS0_17LayerPaintingInfoEjPNS_12RenderObjectE
__ZNK7WebCore12RenderObject20hasOutlineAnnotationEv
__ZNK7WebCore7Element12namespaceURIEv
__ZNK7WebCore11RenderLayer18backgroundClipRectERKNS0_16ClipRectsContextE
__ZNK7WebCore11RenderLayer15parentClipRectsERKNS0_16ClipRectsContextERNS_9ClipRectsE
__ZNK7WebCore11RenderLayer18calculateClipRectsERKNS0_16ClipRectsContextERNS_9ClipRectsE
__ZN7WebCore10LayoutRect9intersectERKS0_
__ZN7WebCore11RenderBlock5paintERNS_9PaintInfoERKNS_11LayoutPointE
__ZN7WebCore9RenderBox16pushContentsClipERNS_9PaintInfoERKNS_11LayoutPointE
__ZN7WebCore9RenderBox19paintBoxDecorationsERNS_9PaintInfoERKNS_11LayoutPointE
__ZNK7WebCore9RenderBox21borderBoxRectInRegionEPNS_12RenderRegionENS0_24RenderBoxRegionInfoFlagsE
__ZNK7WebCore9RenderBox33determineBackgroundBleedAvoidanceEPNS_15GraphicsContextE
__ZNK7WebCore20RenderBoxModelObject36boxShadowShouldBeAppliedToBackgroundENS_24BackgroundBleedAvoidanceEPNS_13InlineFlowBoxE
__ZN7WebCore20RenderBoxModelObject14paintBoxShadowERKNS_9PaintInfoERKNS_10LayoutRectEPKNS_11RenderStyleENS_11ShadowStyleEbb
__ZN7WebCore9RenderBox15paintBackgroundERKNS_9PaintInfoERKNS_10LayoutRectENS_24BackgroundBleedAvoidanceE
__ZN7WebCore9RenderBox22paintRootBoxFillLayersERKNS_9PaintInfoE
__ZNK7WebCore10RenderView14backgroundRectEPNS_9RenderBoxE
__ZN7WebCore9RenderBox15paintFillLayersERKNS_9PaintInfoERKNS_5ColorEPKNS_9FillLayerERKNS_10LayoutRectENS_24BackgroundBleedAvoidanceENS_17CompositeOperatorEPNS_12RenderObjectE
__ZNK7WebCore9FillLayer22clipOccludesNextLayersEb
__ZNK7WebCore9FillLayer14computeClipMaxEv
__ZNK7WebCore9FillLayer14hasOpaqueImageEPKNS_12RenderObjectE
__ZN7WebCore20RenderBoxModelObject22paintFillLayerExtendedERKNS_9PaintInfoERKNS_5ColorEPKNS_9FillLayerERKNS_10LayoutRectENS_24BackgroundBleedAvoidanceEPNS_13InlineFlowBoxERKNS_10LayoutSizeENS_17CompositeOperatorEPNS_12RenderObjectE
__ZNK7WebCore9RenderBox29overflowRectForPaintRejectionEv
__ZNK7WebCore12RenderObject18maximalOutlineSizeENS_10PaintPhaseE
__ZNK7WebCore10LayoutRect10intersectsERKS0_
__ZNK7WebCore17RenderLineBoxList5paintEPNS_20RenderBoxModelObjectERNS_9PaintInfoERKNS_11LayoutPointE
__ZN7WebCore15GraphicsContext7restoreEv
__ZThn64_NK7WebCore9FrameView21layerForOverhangAreasEv
__ZNK7WebCore11HistoryItem3urlEv
__ZNK7WebCore11HistoryItem11originalURLEv
__ZN7WebCore4Page16setDefersLoadingEb
__ZN7WebCore11FrameLoader16setDefersLoadingEb
__ZN7WebCore14DocumentLoader16setDefersLoadingEb
__ZN7WebCoreL19setAllDefersLoadingERKN3WTF7HashSetINS0_6RefPtrINS_14ResourceLoaderEEENS0_7PtrHashIS4_EENS0_10HashTraitsIS4_EEEEb
__ZN7WebCore17HistoryController16setDefersLoadingEb
__ZN7WebCore21ResourceLoadScheduler32notifyDidScheduleResourceRequestEPNS_14ResourceLoaderE
__ZN7WebCore4Page22allVisitedStateChangedEPNS_9PageGroupE
__ZN7WebCore16VisitedLinkState26invalidateStyleForAllLinksEv
-[WebTileLayer drawInContext:]
__ZN7WebCore4Page19visitedStateChangedEPNS_9PageGroupEy
__ZN7WebCore16VisitedLinkState22invalidateStyleForLinkEy
__ZN7WebCore14ResourceLoader16setDefersLoadingEb
__ZN7WebCore5TimerINS_23ScrollingCoordinatorMacEE5firedEv
__ZN7WebCore23ScrollingCoordinatorMac37scrollingStateTreeCommitterTimerFiredEPNS_5TimerIS0_EE
__ZN7WebCore23ScrollingCoordinatorMac15commitTreeStateEv
__ZN7WebCore18ScrollingStateTree6commitEv
__ZN3WTF10PassOwnPtrIN7WebCore18ScrollingStateTreeEED2Ev
__ZN7WebCore18ScrollingStateNode13cloneAndResetEv
__ZN7WebCore27ScrollingStateScrollingNode5cloneEv
__ZN7WebCore27ScrollingStateScrollingNodeC2ERKS0_
__ZN7WebCore18ScrollingStateNodeC2ERKS0_
__ZNK7WebCore18ScrollingStateNode19platformScrollLayerEv
__ZN7WebCore18ScrollingStateNode22setScrollPlatformLayerEP7CALayer
__ZN7WebCore6Region5ShapeC2ERKS1_
__ZN7WebCore18ScrollingStateNode21cloneAndResetChildrenEPS0_
__ZN3WTF6OwnPtrIN7WebCore18ScrollingStateTreeEED2Ev
__ZN7WebCore14TileController26setScrollingModeIndicationENS_23ScrollingModeIndicationE
__ZN3WTF15FunctionWrapperIMN7WebCore13ScrollingTreeEFvNS_10PassOwnPtrINS1_18ScrollingStateTreeEEEEEclEPS2_S5_
__ZN7WebCore5TimerINS_14TileControllerEE5firedEv
__ZN7WebCore14TileController26tileRevalidationTimerFiredEPNS_5TimerIS0_EE
__ZN7WebCore13ScrollingTree18commitNewTreeStateEN3WTF10PassOwnPtrINS_18ScrollingStateTreeEEE
__ZN3WTF6VectorIiLm32ENS_15CrashOnOverflowEEaSERKS2_
__ZN3WTF6VectorIN7WebCore6Region4SpanELm16ENS_15CrashOnOverflowEEaSERKS5_
__ZN7WebCore13ScrollingTree20removeDestroyedNodesEPNS_18ScrollingStateTreeE
__ZN7WebCore13ScrollingTree23updateTreeFromStateNodeEPNS_18ScrollingStateNodeE
__ZN7WebCore26ScrollingTreeScrollingNode6createEPNS_13ScrollingTreeEy
__ZN7WebCore29ScrollingTreeScrollingNodeMacC2EPNS_13ScrollingTreeEy
__ZN7WebCore26ScrollingTreeScrollingNodeC2EPNS_13ScrollingTreeEy
-[WebCoreResourceHandleAsOperationQueueDelegate .cxx_construct]
-[WebCoreResourceHandleAsOperationQueueDelegate initWithHandle:]
__ZN7WebCore17ScrollingTreeNodeC2EPNS_13ScrollingTreeEy
__ZN7WebCore29ScrollingTreeScrollingNodeMac20updateBeforeChildrenEPNS_18ScrollingStateNodeE
__ZN7WebCore26ScrollingTreeScrollingNode20updateBeforeChildrenEPNS_18ScrollingStateNodeE
__ZN7WebCore8Document28takeAnyMediaCanStartListenerEv
__ZN7WebCore29ScrollingTreeScrollingNodeMac19updateAfterChildrenEPNS_18ScrollingStateNodeE
__ZN7WebCore29ScrollingTreeScrollingNodeMac23updateMainFramePinStateERKNS_8IntPointE
__ZN7WebCore13ScrollingTree21scrollPinningBehaviorEv
__ZNK7WebCore29ScrollingTreeScrollingNodeMac21maximumScrollPositionEv
__ZN7WebCore13ScrollingTree20setMainFramePinStateEbbbb
__ZN7WebCore18ScrollingStateTreeD1Ev
__ZN7WebCore11JSDOMWindow13visitChildrenEPN3JSC6JSCellERNS1_11SlotVisitorE
__ZN7WebCore17JSDOMGlobalObject13visitChildrenEPN3JSC6JSCellERNS1_11SlotVisitorE
__ZN7WebCore21EventListenerIteratorC1EPNS_11EventTargetE
__ZN7WebCore21EventListenerIterator12nextListenerEv
__ZN3WTF9HashTableIPvS1_NS_17IdentityExtractorENS_7PtrHashIS1_EENS_10HashTraitsIS1_EES6_E3addINS_22IdentityHashTranslatorIS4_EES1_S1_EENS_18HashTableAddResultINS_17HashTableIteratorIS1_S1_S2_S4_S6_S6_EEEERKT0_RKT1_
__ZN3WTF9HashTableIPvS1_NS_17IdentityExtractorENS_7PtrHashIS1_EENS_10HashTraitsIS1_EES6_E6rehashEi
__ZN7WebCore6JSNode13visitChildrenEPN3JSC6JSCellERNS1_11SlotVisitorE
-[WebCoreResourceHandleAsOperationQueueDelegate connection:willSendRequest:redirectResponse:]
-[WebCoreResourceHandleAsOperationQueueDelegate connectionShouldUseCredentialStorage:]
___copy_helper_block_5
___86-[WebCoreResourceHandleAsOperationQueueDelegate connectionShouldUseCredentialStorage:]_block_invoke
__ZN7WebCore14ResourceHandle34continueShouldUseCredentialStorageEb
-[WebCoreResourceHandleAsOperationQueueDelegate continueShouldUseCredentialStorage:]
___destroy_helper_block_6
-[WebCoreResourceHandleAsOperationQueueDelegate connection:didReceiveResponse:]
___copy_helper_block_37
___79-[WebCoreResourceHandleAsOperationQueueDelegate connection:didReceiveResponse:]_block_invoke
___destroy_helper_block_38
__ZN7WebCore16ResourceResponse19setCertificateChainEPK9__CFArray
__ZN7WebCore13PolicyChecker18checkContentPolicyERKNS_16ResourceResponseEPFvPvNS_12PolicyActionEES4_
__ZN7WebCore14PolicyCallback3setEPFvPvNS_12PolicyActionEES1_
__ZN7WebCore16MIMETypeRegistry15canShowMIMETypeERKN3WTF6StringE
__ZN7WebCore16MIMETypeRegistry24isSupportedImageMIMETypeERKN3WTF6StringE
__ZN7WebCore13PolicyChecker26continueAfterContentPolicyENS_12PolicyActionE
__ZN7WebCore14PolicyCallback4callENS_12PolicyActionE
__ZN7WebCore14DocumentLoader30callContinueAfterContentPolicyEPvNS_12PolicyActionE
__ZN7WebCore14DocumentLoader26continueAfterContentPolicyENS_12PolicyActionE
__ZNK7WebCore20ResourceResponseBase6isHTTPEv
__ZN7WebCore14ResourceLoader18didReceiveResponseERKNS_16ResourceResponseE
__ZN7WebCore20ResourceLoadNotifier18didReceiveResponseEPNS_14ResourceLoaderERKNS_16ResourceResponseE
__ZN7WebCore14DocumentLoader11addResponseERKNS_16ResourceResponseE
__ZN3WTF6VectorIN7WebCore16ResourceResponseELm0ENS_15CrashOnOverflowEE14appendSlowCaseIS2_EEvRKT_
__ZN3WTF6VectorIN7WebCore16ResourceResponseELm0ENS_15CrashOnOverflowEE14expandCapacityEmPKS2_
__ZN3WTF6VectorIN7WebCore16ResourceResponseELm0ENS_15CrashOnOverflowEE15reserveCapacityEm
__ZN3WTF11VectorMoverILb0EN7WebCore16ResourceResponseEE4moveEPKS2_S5_PS2_
__ZN7WebCore15ProgressTracker17incrementProgressEmRKNS_16ResourceResponseE
__ZNK7WebCore20ResourceResponseBase21expectedContentLengthEv
__ZN3WTF9HashTableImNS_12KeyValuePairImNS_6OwnPtrIN7WebCore12ProgressItemEEEEENS_24KeyValuePairKeyExtractorIS6_EENS_7IntHashImEENS_18HashMapValueTraitsINS_10HashTraitsImEENSC_IS5_EEEESD_E16lookupForWritingINS_22IdentityHashTranslatorISA_EEmEENSt3__14pairIPS6_bEERKT0_
__ZN3WTF9HashTableImNS_12KeyValuePairImNS_6OwnPtrIN7WebCore12ProgressItemEEEEENS_24KeyValuePairKeyExtractorIS6_EENS_7IntHashImEENS_18HashMapValueTraitsINS_10HashTraitsImEENSC_IS5_EEEESD_E3addINS_17HashMapTranslatorISF_SA_EEmNS_10PassOwnPtrIS4_EEEENS_18HashTableAddResultINS_17HashTableIteratorImS6_S8_SA_SF_SD_EEEERKT0_RKT1_
__ZN3WTF9HashTableImNS_12KeyValuePairImNS_6OwnPtrIN7WebCore12ProgressItemEEEEENS_24KeyValuePairKeyExtractorIS6_EENS_7IntHashImEENS_18HashMapValueTraitsINS_10HashTraitsImEENSC_IS5_EEEESD_E6lookupINS_22IdentityHashTranslatorISA_EEmEEPS6_RKT0_
__ZN3WTF9HashTableImNS_12KeyValuePairImNS_6OwnPtrIN7WebCore12ProgressItemEEEEENS_24KeyValuePairKeyExtractorIS6_EENS_7IntHashImEENS_18HashMapValueTraitsINS_10HashTraitsImEENSC_IS5_EEEESD_E6rehashEi
__ZN7WebCore20ResourceLoadNotifier26dispatchDidReceiveResponseEPNS_14DocumentLoaderEmRKNS_16ResourceResponseEPNS_14ResourceLoaderE
__ZN7WebCore24InspectorInstrumentation31willReceiveResourceResponseImplEPNS_19InstrumentingAgentsEmRKNS_16ResourceResponseEPNS_5FrameE
__ZN7WebCore24InspectorInstrumentation30didReceiveResourceResponseImplERKNS_30InspectorInstrumentationCookieEmPNS_14DocumentLoaderERKNS_16ResourceResponseEPNS_14ResourceLoaderE
__ZN7WebCore21InspectorConsoleAgent18didReceiveResponseEmRKNS_16ResourceResponseE
__ZN7WebCore16PageConsoleAgent22developerExtrasEnabledEv
__ZN7WebCore17SubresourceLoader27checkForHTTPStatusCodeErrorEv
__ZN7WebCore14ResourceHandle26continueDidReceiveResponseEv
-[WebCoreResourceHandleAsOperationQueueDelegate continueDidReceiveResponse]
-[WebCoreResourceHandleAsOperationQueueDelegate connection:didReceiveData:lengthReceived:]
___copy_helper_block_41
___90-[WebCoreResourceHandleAsOperationQueueDelegate connection:didReceiveData:lengthReceived:]_block_invoke
__ZN7WebCore12SharedBuffer10wrapNSDataEP6NSData
__ZN7WebCore12SharedBufferC1EPK8__CFData
-[WebCoreResourceHandleAsOperationQueueDelegate connection:willCacheResponse:]
___copy_helper_block_73
__ZNK7WebCore12SharedBuffer16platformDataSizeEv
__ZNK7WebCore12SharedBuffer12platformDataEv
___destroy_helper_block_42
___78-[WebCoreResourceHandleAsOperationQueueDelegate connection:willCacheResponse:]_block_invoke
__ZN7WebCore17SubresourceLoader14didReceiveDataEPKcixNS_15DataPayloadTypeE
___destroy_helper_block_74
__ZN7WebCore17SubresourceLoader22didReceiveDataOrBufferEPKciN3WTF10PassRefPtrINS_12SharedBufferEEExNS_15DataPayloadTypeE
__ZN7WebCore14ResourceLoader22didReceiveDataOrBufferEPKciN3WTF10PassRefPtrINS_12SharedBufferEEExNS_15DataPayloadTypeE
__ZN7WebCore14ResourceLoader15addDataOrBufferEPKciPNS_12SharedBufferENS_15DataPayloadTypeE
__ZN7WebCore14ResourceBufferC1EPKci
-[WebCoreResourceHandleAsOperationQueueDelegate connectionDidFinishLoading:]
___copy_helper_block_56
___76-[WebCoreResourceHandleAsOperationQueueDelegate connectionDidFinishLoading:]_block_invoke
__ZN7WebCore20ResourceLoadNotifier14didReceiveDataEPNS_14ResourceLoaderEPKcii
__ZN7WebCore15ProgressTracker17incrementProgressEmPKci
__ZNK7WebCore11FrameLoader27numPendingOrLoadingRequestsEb
__ZN7WebCore24InspectorInstrumentation18didReceiveDataImplEPNS_19InstrumentingAgentsEmPKcii
__ZN7WebCore17CachedRawResource13addDataBufferEPNS_14ResourceBufferE
__ZNK7WebCore14ResourceBuffer4sizeEv
__ZNK7WebCore14ResourceBuffer4dataEv
__ZN7WebCore14CachedResource14setEncodedSizeEj
__ZN7WebCore14ResourceHandleD0Ev
__ZN7WebCore11MemoryCache17removeFromLRUListEPNS_14CachedResourceE
__ZN7WebCore14ResourceHandleD2Ev
__ZN7WebCore11MemoryCache15insertInLRUListEPNS_14CachedResourceE
__ZN7WebCore11MemoryCache10adjustSizeEbi
-[WebCoreResourceHandleAsOperationQueueDelegate detachHandle]
__ZN7WebCore17CachedRawResource28notifyClientsDataWasReceivedEPKcj
__ZN7WebCore23AuthenticationChallenge23setAuthenticationClientEPNS_20AuthenticationClientE
__ZN7WebCore14DocumentLoader12dataReceivedEPNS_14CachedResourceEPKci
__ZN7WebCore20ApplicationCacheHost24mainResourceDataReceivedEPKcixb
__ZN7WebCore22ResourceHandleInternalD2Ev
__ZN7WebCore14DocumentLoader10commitLoadEPKci
__ZN7WebCore22ScriptExecutionContext26canSuspendActiveDOMObjectsEv
__ZThn48_NK7WebCore16SuspendableTimer10canSuspendEv
__ZN7WebCore20ApplicationCacheHost19canCacheInPageCacheEv
__ZN7WebCore21BackForwardController8isActiveEv
__ZN7WebCore9PageCache3addEN3WTF10PassRefPtrINS_11HistoryItemEEEPNS_4PageE
__ZN7WebCore10CachedPage6createEPNS_4PageE
__ZN7WebCore11CachedFrameC1EPNS_5FrameE
__ZN7WebCore11CachedFrameC2EPNS_5FrameE
__ZN7WebCore15CachedFrameBaseC2EPNS_5FrameE
__ZNK7WebCore12EventHandler14mousePressNodeEv
__ZNK7WebCore9FrameView20hasCompositedContentEv
__ZN7WebCore8Document14setInPageCacheEb
__ZN7WebCore9FrameView35resetScrollbarsAndClearContentsSizeEv
__ZN7WebCore23ScrollingCoordinatorMac14clearStateTreeEv
__ZN7WebCore18ScrollingStateTree5clearEv
__ZN7WebCore8Document31documentWillSuspendForPageCacheEv
__ZN7WebCore8Document23suspendActiveDOMObjectsENS_15ActiveDOMObject19ReasonForSuspensionE
__ZN7WebCore22ScriptExecutionContext23suspendActiveDOMObjectsENS_15ActiveDOMObject19ReasonForSuspensionE
__ZThn48_N7WebCore16SuspendableTimer7suspendENS_15ActiveDOMObject19ReasonForSuspensionE
__ZN7WebCore21ScriptCachedFrameDataC1EPNS_5FrameE
__ZN7WebCore21ScriptCachedFrameDataC2EPNS_5FrameE
__ZN3JSC6StrongIN7WebCore11JSDOMWindowEEC2ERNS_2VMEPS2_
__ZN3WTF9HashTableINS_6RefPtrIN7WebCore15DOMWrapperWorldEEENS_12KeyValuePairIS4_N3JSC6StrongINS2_11JSDOMWindowEEEEENS_24KeyValuePairKeyExtractorISA_EENS_7PtrHashIS4_EENS_22KeyValuePairHashTraitsINS_10HashTraitsIS4_EENSG_IS9_EEEESH_E15deallocateTableEPSA_i
__ZN3WTF9HashTableINS_6RefPtrIN7WebCore15DOMWrapperWorldEEENS_12KeyValuePairIS4_N3JSC6StrongINS2_11JSDOMWindowEEEEENS_24KeyValuePairKeyExtractorISA_EENS_7PtrHashIS4_EENS_22KeyValuePairHashTraitsINS_10HashTraitsIS4_EENSG_IS9_EEEESH_E16lookupForWritingINS_22IdentityHashTranslatorISE_EES4_EENSt3__14pairIPSA_bEERKT0_
__ZN3WTF9HashTableINS_6RefPtrIN7WebCore15DOMWrapperWorldEEENS_12KeyValuePairIS4_N3JSC6StrongINS2_11JSDOMWindowEEEEENS_24KeyValuePairKeyExtractorISA_EENS_7PtrHashIS4_EENS_22KeyValuePairHashTraitsINS_10HashTraitsIS4_EENSG_IS9_EEEESH_E3addINS_17HashMapTranslatorISJ_SE_EEPS3_S9_EENS_18HashTableAddResultINS_17HashTableIteratorIS4_SA_SC_SE_SJ_SH_EEEERKT0_RKT1_
__ZN3WTF9HashTableINS_6RefPtrIN7WebCore15DOMWrapperWorldEEENS_12KeyValuePairIS4_N3JSC6StrongINS2_11JSDOMWindowEEEEENS_24KeyValuePairKeyExtractorISA_EENS_7PtrHashIS4_EENS_22KeyValuePairHashTraitsINS_10HashTraitsIS4_EENSG_IS9_EEEESH_E6lookupINS_17HashMapTranslatorISJ_SE_EEPS3_EEPSA_RKT0_
__ZN3WTF9HashTableINS_6RefPtrIN7WebCore15DOMWrapperWorldEEENS_12KeyValuePairIS4_N3JSC6StrongINS2_11JSDOMWindowEEEEENS_24KeyValuePairKeyExtractorISA_EENS_7PtrHashIS4_EENS_22KeyValuePairHashTraitsINS_10HashTraitsIS4_EENSG_IS9_EEEESH_E6lookupINS_22IdentityHashTranslatorISE_EES4_EEPSA_RKT0_
__ZN3WTF9HashTableINS_6RefPtrIN7WebCore15DOMWrapperWorldEEENS_12KeyValuePairIS4_N3JSC6StrongINS2_11JSDOMWindowEEEEENS_24KeyValuePairKeyExtractorISA_EENS_7PtrHashIS4_EENS_22KeyValuePairHashTraitsINS_10HashTraitsIS4_EENSG_IS9_EEEESH_E6rehashEi
__ZN3JSC6StrongIN7WebCore11JSDOMWindowEEaSERKS3_
__ZN7WebCore16ScriptController14attachDebuggerEPN3JSC8DebuggerE
__ZN7WebCore9DOMWindow19suspendForPageCacheEv
__ZN3WTF6VectorIPN7WebCore17DOMWindowPropertyELm0ENS_15CrashOnOverflowEE15reserveCapacityEm
__ZN7WebCore17DOMWindowProperty27disconnectFrameForPageCacheEv
__ZN7WebCore27AuthenticationChallengeBaseD2Ev
__ZN7WebCore5Frame11clearTimersEv
__ZN7WebCore19AnimationController28suspendAnimationsForDocumentEPNS_8DocumentE
__ZN7WebCore12EventHandler19stopAutoscrollTimerEb
___destroy_helper_block_57
__ZN7WebCore20AutoscrollController19stopAutoscrollTimerEb
-[WebCoreResourceHandleAsOperationQueueDelegate dealloc]
-[WebCoreResourceHandleAsOperationQueueDelegate .cxx_destruct]
__ZNK7WebCore11HistoryItem17isCurrentDocumentEPNS_8DocumentE
__ZNK7WebCore8Document17formElementsStateEv
__ZN7WebCore11HistoryItem16setDocumentStateERKN3WTF6VectorINS1_6StringELm0ENS1_15CrashOnOverflowEEE
__ZN7WebCore11HistoryItem14setScrollPointERKNS_8IntPointE
__ZN7WebCore11HistoryItem18setPageScaleFactorEf
__ZN7WebCore14SecurityPolicy19isAccessWhiteListedEPKNS_14SecurityOriginES3_
__ZNK7WebCore14SecurityOrigin8toStringEv
__ZN3WTF9HashTableIPN7WebCore26PageActivityAssertionTokenES3_NS_17IdentityExtractorENS_7PtrHashIS3_EENS_10HashTraitsIS3_EES8_E16lookupForWritingINS_22IdentityHashTranslatorIS6_EES3_EENSt3__14pairIPS3_bEERKT0_
__ZN7WebCore14ArchiveFactory17isArchiveMimeTypeERKN3WTF6StringE
__ZN7WebCore24InspectorInstrumentation24frameWindowDiscardedImplEPNS_19InstrumentingAgentsEPNS_9DOMWindowE
__ZN7WebCore21InspectorConsoleAgent20frameWindowDiscardedEPNS_9DOMWindowE
__ZN7WebCore21InjectedScriptManager25discardInjectedScriptsForEPNS_9DOMWindowE
__ZN7WebCore9DOMWindow32resetUnlessSuspendedForPageCacheEv
__ZN7WebCore16ScriptController16clearWindowShellEPNS_9DOMWindowEb
__ZN7WebCore15JSDOMWindowBase25willRemoveFromWindowShellEv
__ZN7WebCore17JSDOMGlobalObject15setCurrentEventEPNS_5EventE
__ZN7WebCore16ScriptController18clearScriptObjectsEv
__ZNK7WebCore21UserContentURLPattern11matchesHostERKNS_4KURLE
__ZN7WebCore19TextResourceDecoder11setEncodingERKNS_12TextEncodingENS0_14EncodingSourceE
__ZN7WebCore19TextResourceDecoder6decodeEPKcm
__ZN7WebCore19TextResourceDecoder11checkForBOMEPKcm
__ZN7WebCore19TextResourceDecoder19checkForHeadCharsetEPKcmRb
__ZN7WebCore13TextCodecUTF86createERKNS_12TextEncodingEPKv
__ZN7WebCore13TextCodecUTF86decodeEPKcmbbRb
__ZN7WebCore14DocumentWriter18reportDataReceivedEv
__ZNK7WebCore12TextEncoding18usesVisualOrderingEv
__ZN7WebCore18HTMLDocumentParser6appendEN3WTF10PassRefPtrINS1_10StringImplEEE
__ZN7WebCore17URLEscapeSequence12findEndOfRunERKN3WTF6StringEmm
__ZN7WebCore17URLEscapeSequence9decodeRunEPKtmRKNS_12TextEncodingE
__ZNK7WebCore12TextEncoding6decodeEPKcmbRb
__ZN7WebCore13TextCodecUTF8D0Ev
__ZN7WebCore15SegmentedString15lookAheadInlineERKN3WTF6StringEb
__ZN7WebCore9HTMLToken12beginDOCTYPEEt
__ZN3WTF6OwnPtrIN7WebCore11DoctypeDataEEaSERKNS_10PassOwnPtrIS2_EE
__ZN3WTF10PassOwnPtrIN7WebCore11DoctypeDataEED2Ev
__ZN7WebCore13HTMLTokenizer15emitAndResumeInERNS_15SegmentedStringENS0_5StateE
__ZN7WebCore20HTMLConstructionSite13insertDoctypeEPNS_15AtomicHTMLTokenE
__ZN7WebCore12DocumentTypeC1EPNS_8DocumentERKN3WTF6StringES6_S6_
__ZN7WebCore12DocumentTypeC2EPNS_8DocumentERKN3WTF6StringES6_S6_
__ZN7WebCore20HTMLConstructionSite31setCompatibilityModeFromDoctypeERKN3WTF6StringES4_S4_
__ZN7WebCore12DocumentType12insertedIntoEPNS_13ContainerNodeE
__ZN7WebCore4Node12insertedIntoEPNS_13ContainerNodeE
__ZN7WebCore8Document10setDocTypeEN3WTF10PassRefPtrINS_12DocumentTypeEEE
__ZN7WebCore4Node20beginParsingChildrenEv
__ZN7WebCore9HTMLToken13beginStartTagEt
__ZN7WebCore9HTMLToken15addNewAttributeEv
__ZN3WTF6VectorItLm32ENS_15CrashOnOverflowEE14expandCapacityEmPKt
__ZN3WTF6VectorItLm32ENS_15CrashOnOverflowEE15reserveCapacityEm
__ZN3WTF6VectorItLm32ENS_15CrashOnOverflowEEaSILm256ES1_EERS2_RKNS0_ItXT_ET0_EE
__ZN7WebCore15AtomicHTMLToken20initializeAttributesERKN3WTF6VectorINS_9HTMLToken9AttributeELm10ENS1_15CrashOnOverflowEEE
__ZN3WTF6VectorIN7WebCore9AttributeELm0ENS_15CrashOnOverflowEE14shrinkCapacityEm
__ZNK7WebCore15AtomicHTMLToken16nameForAttributeERKNS_9HTMLToken9AttributeE
__ZN7WebCore24DocumentSharedObjectPool40cachedShareableElementDataWithAttributesERKN3WTF6VectorINS_9AttributeELm0ENS1_15CrashOnOverflowEEE
__ZN3WTF9HashTableIjNS_12KeyValuePairIjNS_6OwnPtrIN7WebCore30ShareableElementDataCacheEntryEEEEENS_24KeyValuePairKeyExtractorIS6_EENS_13AlreadyHashedENS_18HashMapValueTraitsINS_10HashTraitsIjEENSB_IS5_EEEESC_E3addINS_17HashMapTranslatorISE_S9_EEjNS_10PassOwnPtrIS4_EEEENS_18HashTableAddResultINS_17HashTableIteratorIjS6_S8_S9_SE_SC_EEEERKT0_RKT1_
__ZN3WTF9HashTableIjNS_12KeyValuePairIjNS_6OwnPtrIN7WebCore30ShareableElementDataCacheEntryEEEEENS_24KeyValuePairKeyExtractorIS6_EENS_13AlreadyHashedENS_18HashMapValueTraitsINS_10HashTraitsIjEENSB_IS5_EEEESC_E4findINS_22IdentityHashTranslatorIS9_EEjEENS_17HashTableIteratorIjS6_S8_S9_SE_SC_EERKT0_
__ZN3WTF9HashTableIjNS_12KeyValuePairIjNS_6OwnPtrIN7WebCore30ShareableElementDataCacheEntryEEEEENS_24KeyValuePairKeyExtractorIS6_EENS_13AlreadyHashedENS_18HashMapValueTraitsINS_10HashTraitsIjEENSB_IS5_EEEESC_E6rehashEi
__ZN7WebCore20ShareableElementData20createWithAttributesERKN3WTF6VectorINS_9AttributeELm0ENS1_15CrashOnOverflowEEE
__ZN7WebCore13StyledElement16attributeChangedERKNS_13QualifiedNameERKN3WTF12AtomicStringENS_7Element27AttributeModificationReasonE
__ZNK7WebCore11HTMLElement23isPresentationAttributeERKNS_13QualifiedNameE
__ZN7WebCore7Element16attributeChangedERKNS_13QualifiedNameERKN3WTF12AtomicStringENS0_27AttributeModificationReasonE
__ZN7WebCore11HTMLElement14parseAttributeERKNS_13QualifiedNameERKN3WTF12AtomicStringE
__ZNK7WebCore11HTMLElement25eventNameForAttributeNameERKNS_13QualifiedNameE
__ZN3WTF9HashTableINS_12AtomicStringENS_12KeyValuePairIS1_S1_EENS_24KeyValuePairKeyExtractorIS3_EENS_16AtomicStringHashENS_18HashMapValueTraitsINS_10HashTraitsIS1_EES9_EES9_E15deallocateTableEPS3_i
__ZN3WTF9HashTableINS_12AtomicStringENS_12KeyValuePairIS1_S1_EENS_24KeyValuePairKeyExtractorIS3_EENS_16AtomicStringHashENS_18HashMapValueTraitsINS_10HashTraitsIS1_EES9_EES9_E3addINS_17HashMapTranslatorISA_S6_EES1_S1_EENS_18HashTableAddResultINS_17HashTableIteratorIS1_S3_S5_S6_SA_S9_EEEERKT0_RKT1_
__ZN3WTF9HashTableINS_12AtomicStringENS_12KeyValuePairIS1_S1_EENS_24KeyValuePairKeyExtractorIS3_EENS_16AtomicStringHashENS_18HashMapValueTraitsINS_10HashTraitsIS1_EES9_EES9_E3addINS_22IdentityHashTranslatorIS6_EES1_S3_EENS_18HashTableAddResultINS_17HashTableIteratorIS1_S3_S5_S6_SA_S9_EEEERKT0_RKT1_
__ZN3WTF9HashTableINS_12AtomicStringENS_12KeyValuePairIS1_S1_EENS_24KeyValuePairKeyExtractorIS3_EENS_16AtomicStringHashENS_18HashMapValueTraitsINS_10HashTraitsIS1_EES9_EES9_E4findINS_22IdentityHashTranslatorIS6_EES1_EENS_17HashTableIteratorIS1_S3_S5_S6_SA_S9_EERKT0_
__ZN3WTF9HashTableINS_12AtomicStringENS_12KeyValuePairIS1_S1_EENS_24KeyValuePairKeyExtractorIS3_EENS_16AtomicStringHashENS_18HashMapValueTraitsINS_10HashTraitsIS1_EES9_EES9_E6rehashEi
__ZN3WTF17HashMapTranslatorINS_18HashMapValueTraitsINS_10HashTraitsINS_12AtomicStringEEES4_EENS_16AtomicStringHashEE9translateINS_12KeyValuePairIS3_S3_EES3_S3_EEvRT_RKT0_RKT1_
__ZN3WTF13hashTableSwapINS_12AtomicStringES1_EEvRNS_12KeyValuePairIT_T0_EES6_
__ZN7WebCore4Node19setNeedsStyleRecalcENS_15StyleChangeTypeE
__ZN7WebCore7Element21classAttributeChangedERKN3WTF12AtomicStringE
__ZN7WebCore16SpaceSplitString3setERKN3WTF12AtomicStringEb
__ZN7WebCore20SpaceSplitStringData6createERKN3WTF12AtomicStringE
__ZN3WTF9HashTableINS_12AtomicStringENS_12KeyValuePairIS1_PN7WebCore20SpaceSplitStringDataEEENS_24KeyValuePairKeyExtractorIS6_EENS_16AtomicStringHashENS_18HashMapValueTraitsINS_10HashTraitsIS1_EENSB_IS5_EEEESC_E3addINS_17HashMapTranslatorISE_S9_EES1_S5_EENS_18HashTableAddResultINS_17HashTableIteratorIS1_S6_S8_S9_SE_SC_EEEERKT0_RKT1_
__ZN3WTF9HashTableINS_12AtomicStringENS_12KeyValuePairIS1_PN7WebCore20SpaceSplitStringDataEEENS_24KeyValuePairKeyExtractorIS6_EENS_16AtomicStringHashENS_18HashMapValueTraitsINS_10HashTraitsIS1_EENSB_IS5_EEEESC_E4findINS_22IdentityHashTranslatorIS9_EES1_EENS_17HashTableIteratorIS1_S6_S8_S9_SE_SC_EERKT0_
__ZN3WTF9HashTableINS_12AtomicStringENS_12KeyValuePairIS1_PN7WebCore20SpaceSplitStringDataEEENS_24KeyValuePairKeyExtractorIS6_EENS_16AtomicStringHashENS_18HashMapValueTraitsINS_10HashTraitsIS1_EENSB_IS5_EEEESC_E6rehashEi
__ZN3WTF9HashTableINS_12AtomicStringENS_12KeyValuePairIS1_PN7WebCore20SpaceSplitStringDataEEENS_24KeyValuePairKeyExtractorIS6_EENS_16AtomicStringHashENS_18HashMapValueTraitsINS_10HashTraitsIS1_EENSB_IS5_EEEESC_E8reinsertERS6_
__ZN7WebCore20SpaceSplitStringData12createVectorIhEEvPKT_j
__ZN3WTF9HashTableIjNS_12KeyValuePairIjNS_6OwnPtrIN7WebCore20FontGlyphsCacheEntryEEEEENS_24KeyValuePairKeyExtractorIS6_EENS_13AlreadyHashedENS_18HashMapValueTraitsINS_10HashTraitsIjEENSB_IS5_EEEESC_E3addINS_17HashMapTranslatorISE_S9_EEjNS_10PassOwnPtrIS4_EEEENS_18HashTableAddResultINS_17HashTableIteratorIjS6_S8_S9_SE_SC_EEEERKT0_RKT1_
__ZN3WTF9HashTableIjNS_12KeyValuePairIjNS_6OwnPtrIN7WebCore20FontGlyphsCacheEntryEEEEENS_24KeyValuePairKeyExtractorIS6_EENS_13AlreadyHashedENS_18HashMapValueTraitsINS_10HashTraitsIjEENSB_IS5_EEEESC_E4findINS_22IdentityHashTranslatorIS9_EEjEENS_17HashTableIteratorIjS6_S8_S9_SE_SC_EERKT0_
__ZN3WTF9HashTableIjNS_12KeyValuePairIjNS_6OwnPtrIN7WebCore20FontGlyphsCacheEntryEEEEENS_24KeyValuePairKeyExtractorIS6_EENS_13AlreadyHashedENS_18HashMapValueTraitsINS_10HashTraitsIjEENSB_IS5_EEEESC_E6rehashEi
__ZNK7WebCore16HTMLElementStack12topStackItemEv
__ZN3WTF6VectorIN7WebCore9HTMLToken9AttributeELm10ENS_15CrashOnOverflowEE6shrinkEm
__ZN7WebCore15HTMLTreeBuilder24processStartTagForInHeadEPNS_15AtomicHTMLTokenE
__ZN7WebCore20HTMLConstructionSite19insertScriptElementEPNS_15AtomicHTMLTokenE
__ZN7WebCore17HTMLScriptElement6createERKNS_13QualifiedNameEPNS_8DocumentEbb
__ZN7WebCore13ScriptElementC2EPNS_7ElementEbb
__ZNK7WebCore8Document24scriptableDocumentParserEv
__ZNK7WebCore18HTMLDocumentParser10lineNumberEv
__ZN7WebCore17HTMLScriptElement14parseAttributeERKNS_13QualifiedNameERKN3WTF12AtomicStringE
__ZN7WebCore16HTMLElementStack4pushEN3WTF10PassRefPtrINS_13HTMLStackItemEEE
__ZNK7WebCore18HTMLDocumentParser12textPositionEv
__ZNK7WebCore15SegmentedString13currentColumnEv
__ZN7WebCore17HTMLScriptElement12insertedIntoEPNS_13ContainerNodeE
__ZN7WebCore13ScriptElement12insertedIntoEPNS_13ContainerNodeE
__ZN7WebCore20NodeRenderingContext32elementInsideRegionNeedsRendererEv
__ZNK7WebCore7Element14isInsideRegionEv
__ZN7WebCore13HTMLTokenizer19flushBufferedEndTagERNS_15SegmentedStringE
__ZN7WebCore15HTMLTreeBuilder22processCharacterBufferERNS0_28ExternalCharacterTokenBufferE
__ZN7WebCore20HTMLConstructionSite14insertTextNodeERKN3WTF6StringENS_14WhitespaceModeE
__ZN7WebCore4Text21createWithLengthLimitEPNS_8DocumentERKN3WTF6StringEjj
__ZN7WebCore4TextC1EPNS_8DocumentERKN3WTF6StringENS_4Node16ConstructionTypeE
__ZN7WebCore17HTMLScriptElement15childrenChangedEbPNS_4NodeES2_i
__ZN7WebCore13ScriptElement15childrenChangedEv
__ZN7WebCore4Text6attachERKNS_4Node13AttachContextE
__ZN7WebCore20NodeRenderingContext29createRendererForTextIfNeededEv
__ZNK7WebCore13HTMLTokenizer18bufferedCharactersEv
__ZN7WebCore9HTMLToken11beginEndTagERKN3WTF6VectorIhLm32ENS1_15CrashOnOverflowEEE
__ZN3WTF6VectorItLm256ENS_15CrashOnOverflowEE6appendIhEEvPKT_m
__ZN7WebCore16HTMLElementStack3popEv
__ZN7WebCore19HTMLParserScheduler25checkForYieldBeforeScriptERNS_11PumpSessionE
__ZN7WebCore8Document19isLayoutTimerActiveEv
__ZNK7WebCore9FrameView13layoutPendingEv
__ZN7WebCore18HTMLDocumentParser30runScriptsForPausedTreeBuilderEv
__ZN7WebCore15HTMLTreeBuilder19takeScriptToProcessERN3WTF12TextPositionE
__ZN7WebCore16HTMLScriptRunner7executeEN3WTF10PassRefPtrINS_7ElementEEERKNS1_12TextPositionE
__ZThn40_NK7WebCore18HTMLDocumentParser17hasPreloadScannerEv
__ZN7WebCore16HTMLScriptRunner9runScriptEPNS_7ElementERKN3WTF12TextPositionE
__ZN7WebCore25toScriptElementIfPossibleEPNS_7ElementE
__ZN7WebCore16MutationObserver19deliverAllMutationsEv
__ZThn40_N7WebCore18HTMLDocumentParser11inputStreamEv
__ZN7WebCore15HTMLInputStream9splitIntoERNS_15SegmentedStringE
__ZN7WebCore15SegmentedString18setCurrentPositionEN3WTF13OrdinalNumberES2_i
__ZN7WebCore13ScriptElement13prepareScriptERKN3WTF12TextPositionENS0_17LegacyTypeSupportE
__ZThn96_NK7WebCore17HTMLScriptElement19asyncAttributeValueEv
__ZThn96_NK7WebCore17HTMLScriptElement18hasSourceAttributeEv
__ZNK7WebCore13ScriptElement21isScriptTypeSupportedENS0_17LegacyTypeSupportE
__ZThn96_NK7WebCore17HTMLScriptElement18typeAttributeValueEv
__ZThn96_NK7WebCore17HTMLScriptElement22languageAttributeValueEv
__ZN7WebCore16MIMETypeRegistry29isSupportedJavaScriptMIMETypeERKN3WTF6StringE
__ZNK7WebCore13ScriptElement25isScriptForEventSupportedEv
__ZThn96_NK7WebCore17HTMLScriptElement19eventAttributeValueEv
__ZThn96_NK7WebCore17HTMLScriptElement17forAttributeValueEv
__ZThn96_NK7WebCore17HTMLScriptElement21charsetAttributeValueEv
__ZNK7WebCore13ScriptElement13scriptContentEv
__ZN7WebCore16ScriptSourceCodeC2ERKN3WTF6StringERKNS_4KURLERKNS1_12TextPositionE
__ZNK3JSC20StringSourceProvider6sourceEv
__ZN7WebCore13ScriptElement13executeScriptERKNS_16ScriptSourceCodeE
__ZNK7WebCore21ContentSecurityPolicy16allowScriptNonceERKN3WTF6StringES4_RKNS1_13OrdinalNumberERKNS_4KURLE
__ZNK7WebCore21ContentSecurityPolicy17allowInlineScriptERKN3WTF6StringERKNS1_13OrdinalNumberENS0_15ReportingStatusE
__ZN7WebCore16ScriptController8evaluateERKNS_16ScriptSourceCodeE
__ZN7WebCore16ScriptController15evaluateInWorldERKNS_16ScriptSourceCodeEPNS_15DOMWrapperWorldE
__ZN7WebCore15JSDOMWindowBase22supportsRichSourceInfoEPKN3JSC14JSGlobalObjectE
__ZNK7WebCore19InspectorController7enabledEv
__ZN7WebCore15JSDOMWindowBase17supportsProfilingEPKN3JSC14JSGlobalObjectE
__ZN7WebCore19InspectorController15profilerEnabledEv
__ZN7WebCore15jsDOMWindowSelfEPN3JSC9ExecStateENS0_7JSValueENS0_12PropertyNameE
__ZNK7WebCore9DOMWindow4selfEv
__ZN7WebCore4toJSEPN3JSC9ExecStateEPNS_17JSDOMGlobalObjectEPNS_9DOMWindowE
__ZN7WebCore14jsDOMWindowTopEPN3JSC9ExecStateENS0_7JSValueENS0_12PropertyNameE
__ZNK7WebCore9DOMWindow3topEv
__ZN7WebCore21JSMainThreadExecState21didLeaveScriptContextEv
__ZN3JSC6StrongINS_7UnknownEEC2ERNS_2VMENS_7JSValueE
__ZN7WebCore20InsertionPointRecordD2Ev
__ZN7WebCore20HTMLConstructionSite28insertSelfClosingHTMLElementEPNS_15AtomicHTMLTokenE
__ZN7WebCoreL15metaConstructorERKNS_13QualifiedNameEPNS_8DocumentEPNS_15HTMLFormElementEb
__ZN7WebCore15HTMLMetaElement6createERKNS_13QualifiedNameEPNS_8DocumentE
__ZN7WebCore15HTMLMetaElement14parseAttributeERKNS_13QualifiedNameERKN3WTF12AtomicStringE
__ZN7WebCore15HTMLMetaElement7processEv
__ZN7WebCore15HTMLMetaElement12insertedIntoEPNS_13ContainerNodeE
__ZNK7WebCore15HTMLMetaElement4nameEv
__ZN7WebCore8Document16processHttpEquivERKN3WTF6StringES4_
__ZN7WebCore9TreeScope16addElementByNameERKN3WTF12AtomicStringEPNS_7ElementE
__ZN3WTF6OwnPtrIN7WebCore18DocumentOrderedMapEEaSERKNS_10PassOwnPtrIS2_EE
__ZN3WTF10PassOwnPtrIN7WebCore18DocumentOrderedMapEED2Ev
__ZN7WebCore18DocumentOrderedMap3addEPN3WTF16AtomicStringImplEPNS_7ElementE
__ZN3WTF9HashTableIPNS_16AtomicStringImplENS_12KeyValuePairIS2_N7WebCore18DocumentOrderedMap8MapEntryEEENS_24KeyValuePairKeyExtractorIS7_EENS_7PtrHashIS2_EENS_18HashMapValueTraitsINS_10HashTraitsIS2_EENSD_IS6_EEEESE_E16lookupForWritingINS_22IdentityHashTranslatorISB_EES2_EENSt3__14pairIPS7_bEERKT0_
__ZN3WTF9HashTableIPNS_16AtomicStringImplENS_12KeyValuePairIS2_N7WebCore18DocumentOrderedMap8MapEntryEEENS_24KeyValuePairKeyExtractorIS7_EENS_7PtrHashIS2_EENS_18HashMapValueTraitsINS_10HashTraitsIS2_EENSD_IS6_EEEESE_E3addINS_17HashMapTranslatorISG_SB_EES2_S6_EENS_18HashTableAddResultINS_17HashTableIteratorIS2_S7_S9_SB_SG_SE_EEEERKT0_RKT1_
__ZN3WTF9HashTableIPNS_16AtomicStringImplENS_12KeyValuePairIS2_N7WebCore18DocumentOrderedMap8MapEntryEEENS_24KeyValuePairKeyExtractorIS7_EENS_7PtrHashIS2_EENS_18HashMapValueTraitsINS_10HashTraitsIS2_EENSD_IS6_EEEESE_E6lookupINS_22IdentityHashTranslatorISB_EES2_EEPS7_RKT0_
__ZN3WTF9HashTableIPNS_16AtomicStringImplENS_12KeyValuePairIS2_N7WebCore18DocumentOrderedMap8MapEntryEEENS_24KeyValuePairKeyExtractorIS7_EENS_7PtrHashIS2_EENS_18HashMapValueTraitsINS_10HashTraitsIS2_EENSD_IS6_EEEESE_E6rehashEi
__ZN3WTF6VectorIPN7WebCore7ElementELm0ENS_15CrashOnOverflowEEaSERKS5_
__ZN7WebCore7Element21updateNameForDocumentEPNS_12HTMLDocumentERKN3WTF12AtomicStringES6_
__ZN7WebCore20WindowNameCollection31nodeMatchesIfNameAttributeMatchEPNS_7ElementE
__ZN7WebCore22DocumentNameCollection31nodeMatchesIfNameAttributeMatchEPNS_7ElementE
__ZN7WebCoreL15linkConstructorERKNS_13QualifiedNameEPNS_8DocumentEPNS_15HTMLFormElementEb
__ZN7WebCore15HTMLLinkElement6createERKNS_13QualifiedNameEPNS_8DocumentEb
__ZN7WebCore15HTMLLinkElementC2ERKNS_13QualifiedNameEPNS_8DocumentEb
__ZN7WebCore10LinkLoaderC1EPNS_16LinkLoaderClientE
__ZN7WebCore20DOMSettableTokenListC1Ev
__ZN7WebCore16LinkRelAttributeC1Ev
__ZN7WebCore15HTMLLinkElement14parseAttributeERKNS_13QualifiedNameERKN3WTF12AtomicStringE
__ZN7WebCore16LinkRelAttributeC1ERKN3WTF6StringE
__ZN7WebCore16LinkRelAttributeC2ERKN3WTF6StringE
__ZN7WebCore15HTMLLinkElement7processEv
__ZN7WebCore15HTMLLinkElement12insertedIntoEPNS_13ContainerNodeE
__ZN7WebCore28DocumentStyleSheetCollection26addStyleSheetCandidateNodeEPNS_4NodeEb
__ZNK7WebCore7Element23getNonEmptyURLAttributeERKNS_13QualifiedNameE
__ZN7WebCore33stripLeadingAndTrailingHTMLSpacesERKN3WTF6StringE
__ZNK7WebCore8Document11completeURLERKN3WTF6StringE
__ZNK7WebCore8Document11completeURLERKN3WTF6StringERKNS_4KURLE
__ZN7WebCore8blankURLEv
__ZN7WebCore4KURLC1ERKS0_RKN3WTF6StringERKNS_12TextEncodingE
__ZNK7WebCore12TextEncoding25encodingForFormSubmissionEv
__ZNK7WebCore12TextEncoding22isNonByteBasedEncodingEv
__ZNK7WebCore20DOMSettableTokenList5valueEv
__ZN7WebCore10LinkLoader8loadLinkERKNS_16LinkRelAttributeERKN3WTF6StringES7_RKNS_4KURLEPNS_8DocumentE
__ZThn104_N7WebCore15HTMLLinkElement14shouldLoadLinkEv
__ZN7WebCore15HTMLLinkElement14shouldLoadLinkEv
__ZN7WebCore4Node23dispatchBeforeLoadEventERKN3WTF6StringE
__ZN7WebCore8Document10addIconURLERKN3WTF6StringES4_S4_NS_8IconTypeE
__ZN7WebCore11FrameLoader14didChangeIconsENS_8IconTypeE
__ZN7WebCore15HTMLLinkElement21finishParsingChildrenEv
__ZN7WebCore20HTMLConstructionSite17insertHTMLElementEPNS_15AtomicHTMLTokenE
__ZN7WebCoreL16titleConstructorERKNS_13QualifiedNameEPNS_8DocumentEPNS_15HTMLFormElementEb
__ZN7WebCore16HTMLTitleElement6createERKNS_13QualifiedNameEPNS_8DocumentE
__ZN7WebCore16HTMLTitleElement12insertedIntoEPNS_13ContainerNodeE
__ZN7WebCore8Document15setTitleElementERKNS_19StringWithDirectionEPNS_7ElementE
__ZN7WebCore8Document11updateTitleERKNS_19StringWithDirectionE
__ZN7WebCore16HTMLTitleElement15childrenChangedEbPNS_4NodeES2_i
__ZN7WebCore16HTMLTitleElement17textWithDirectionEv
__ZN7WebCore7Element13computedStyleENS_8PseudoIdE
__ZN7WebCore8Document41styleForElementIgnoringPendingStylesheetsEPNS_7ElementE
__ZN7WebCore7Element20virtualComputedStyleENS_8PseudoIdE
__ZN7WebCore21CSSDefaultStyleSheets20loadFullDefaultStyleEv
__ZN7WebCore18StyleSheetContentsD1Ev
__ZN7WebCore18StyleSheetContentsD2Ev
__ZN7WebCore13StyleRuleBase7destroyEv
__ZN7WebCore9StyleRuleD2Ev
__ZN7WebCore15CSSSelectorListD1Ev
__ZN7WebCore13QualifiedName17QualifiedNameImplD1Ev
__ZN7WebCore13QualifiedName17QualifiedNameImplD2Ev
__ZNK3WTF9HashTableIPN7WebCore13QualifiedName17QualifiedNameImplES4_NS_17IdentityExtractorENS1_17QualifiedNameHashENS1_23QualifiedNameHashTraitsES7_E4findINS_22IdentityHashTranslatorIS6_EES4_EENS_22HashTableConstIteratorIS4_S4_S5_S6_S7_S7_EERKT0_
__ZNK7WebCore13QualifiedName17QualifiedNameImpl11computeHashEv
__ZN7WebCore25ImmutableStylePropertySetD1Ev
__ZN7WebCore8CSSValue7destroyEv
__ZN7WebCore11RenderTheme22extraDefaultStyleSheetEv
__ZNK3WTF12StringAppendINS_6StringES1_EcvS1_Ev
__ZN3WTF13tryMakeStringINS_6StringES1_EENS_10PassRefPtrINS_10StringImplEEET_T0_
__ZN7WebCore9CSSParser13detectAtTokenIhEEvib
__ZN7WebCore9CSSParser11parseStringIhEEvRPT_RNS_15CSSParserStringEt
__ZN7WebCore9CSSParser12addNamespaceERKN3WTF12AtomicStringES4_
__ZN7WebCore18StyleSheetContents18parserAddNamespaceERKN3WTF12AtomicStringES4_
__ZN7WebCore9CSSParser12parseContentENS_13CSSPropertyIDEb
__ZN7WebCore20borderStyleShorthandEv
__ZN7WebCore20borderWidthShorthandEv
__ZN7WebCore9CSSParser13parseFontSizeEb
__ZN7WebCore9CSSParser15parseFontWeightEb
__ZN7WebCore9CSSParser28createFloatingSelectorVectorEv
__ZN7WebCore9CSSParser26sinkFloatingSelectorVectorEPN3WTF6VectorINS1_6OwnPtrINS_17CSSParserSelectorEEELm0ENS1_15CrashOnOverflowEEE
__ZN3WTF7HashSetIPNS_6VectorINS_6OwnPtrIN7WebCore17CSSParserSelectorEEELm0ENS_15CrashOnOverflowEEENS_7PtrHashIS8_EENS_10HashTraitsIS8_EEE6removeERKS8_
__ZN3WTF9HashTableIPNS_6VectorINS_6OwnPtrIN7WebCore17CSSParserSelectorEEELm0ENS_15CrashOnOverflowEEES8_NS_17IdentityExtractorENS_7PtrHashIS8_EENS_10HashTraitsIS8_EESD_E16lookupForWritingINS_22IdentityHashTranslatorISB_EES8_EENSt3__14pairIPS8_bEERKT0_
__ZN3WTF9HashTableIPNS_6VectorINS_6OwnPtrIN7WebCore17CSSParserSelectorEEELm0ENS_15CrashOnOverflowEEES8_NS_17IdentityExtractorENS_7PtrHashIS8_EENS_10HashTraitsIS8_EESD_E3addINS_22IdentityHashTranslatorISB_EES8_S8_EENS_18HashTableAddResultINS_17HashTableIteratorIS8_S8_S9_SB_SD_SD_EEEERKT0_RKT1_
__ZN3WTF9HashTableIPNS_6VectorINS_6OwnPtrIN7WebCore17CSSParserSelectorEEELm0ENS_15CrashOnOverflowEEES8_NS_17IdentityExtractorENS_7PtrHashIS8_EENS_10HashTraitsIS8_EESD_E6lookupINS_22IdentityHashTranslatorISB_EES8_EEPS8_RKT0_
__ZN3WTF9HashTableIPNS_6VectorINS_6OwnPtrIN7WebCore17CSSParserSelectorEEELm0ENS_15CrashOnOverflowEEES8_NS_17IdentityExtractorENS_7PtrHashIS8_EENS_10HashTraitsIS8_EESD_E6rehashEi
__ZN7WebCore17CSSParserSelector19adoptSelectorVectorERN3WTF6VectorINS1_6OwnPtrIS0_EELm0ENS1_15CrashOnOverflowEEE
__ZN7WebCore11CSSSelector15setSelectorListEN3WTF10PassOwnPtrINS_15CSSSelectorListEEE
__ZN3WTF10PassOwnPtrINS_6VectorINS_6OwnPtrIN7WebCore17CSSParserSelectorEEELm0ENS_15CrashOnOverflowEEEED2Ev
__ZN7WebCore9CSSParser38rewriteSpecifiersWithNamespaceIfNeededEPNS_17CSSParserSelectorE
__ZN7WebCore20borderColorShorthandEv
__ZN7WebCore9CSSParser27addExpandedPropertyForValueENS_13CSSPropertyIDEN3WTF10PassRefPtrINS_8CSSValueEEEb
__ZN7WebCore20shorthandForPropertyENS_13CSSPropertyIDE
__ZN7WebCore23borderAbridgedShorthandEv
__ZN7WebCore9CSSParser15parseLineHeightEb
__ZN7WebCore9CSSParser15parseTextIndentEv
__ZN7WebCore11CSSSelector12setAttributeERKNS_13QualifiedNameE
__ZN7WebCore13QualifiedName5derefEv
__ZN7WebCore16paddingShorthandEv
__ZN7WebCore9CSSParser17parseBorderRadiusENS_13CSSPropertyIDEb
__ZN7WebCoreL19completeBorderRadiiEPN3WTF6RefPtrINS_17CSSPrimitiveValueEEE
__ZN7WebCoreL24createPrimitiveValuePairEN3WTF10PassRefPtrINS_17CSSPrimitiveValueEEES3_
__ZN7WebCore17CSSPrimitiveValue4initEN3WTF10PassRefPtrINS_4PairEEE
__ZN7WebCore12CSSValuePool16createColorValueEj
__ZN3WTF9HashTableIjNS_12KeyValuePairIjNS_6RefPtrIN7WebCore17CSSPrimitiveValueEEEEENS_24KeyValuePairKeyExtractorIS6_EENS_7IntHashIjEENS_18HashMapValueTraitsINS_10HashTraitsIjEENSC_IS5_EEEESD_E16lookupForWritingINS_22IdentityHashTranslatorISA_EEjEENSt3__14pairIPS6_bEERKT0_
__ZN3WTF9HashTableIjNS_12KeyValuePairIjNS_6RefPtrIN7WebCore17CSSPrimitiveValueEEEEENS_24KeyValuePairKeyExtractorIS6_EENS_7IntHashIjEENS_18HashMapValueTraitsINS_10HashTraitsIjEENSC_IS5_EEEESD_E3addINS_17HashMapTranslatorISF_SA_EEjNS_10PassRefPtrIS4_EEEENS_18HashTableAddResultINS_17HashTableIteratorIjS6_S8_SA_SF_SD_EEEERKT0_RKT1_
__ZN3WTF9HashTableIjNS_12KeyValuePairIjNS_6RefPtrIN7WebCore17CSSPrimitiveValueEEEEENS_24KeyValuePairKeyExtractorIS6_EENS_7IntHashIjEENS_18HashMapValueTraitsINS_10HashTraitsIjEENSC_IS5_EEEESD_E6lookupINS_22IdentityHashTranslatorISA_EEjEEPS6_RKT0_
__ZN3WTF9HashTableIjNS_12KeyValuePairIjNS_6RefPtrIN7WebCore17CSSPrimitiveValueEEEEENS_24KeyValuePairKeyExtractorIS6_EENS_7IntHashIjEENS_18HashMapValueTraitsINS_10HashTraitsIjEENSC_IS5_EEEESD_E6rehashEi
__ZN7WebCore5Color13parseHexColorEPKhjRj
__ZN7WebCore9CSSParser17parseFillPropertyENS_13CSSPropertyIDERS1_S2_RN3WTF6RefPtrINS_8CSSValueEEES7_
__ZN7WebCore9CSSParser14parseFillImageEPNS_18CSSParserValueListERN3WTF6RefPtrINS_8CSSValueEEE
__ZN7WebCore9CSSParser9parseFlexEPNS_18CSSParserValueListEb
__ZN7WebCore9CSSParser24parseTransitionShorthandENS_13CSSPropertyIDEb
__ZN7WebCore9CSSParser22parseAnimationPropertyENS_13CSSPropertyIDERN3WTF6RefPtrINS_8CSSValueEEERNS_21AnimationParseContextE
__ZN7WebCore9CSSParser22parseAnimationPropertyERNS_21AnimationParseContextE
__ZN7WebCore9CSSParser17addAnimationValueERN3WTF6RefPtrINS_8CSSValueEEENS1_10PassRefPtrIS3_EE
__ZN7WebCore9CSSParser22parseAnimationDurationEv
__ZN7WebCore9CSSParser28parseAnimationTimingFunctionEv
__ZN7WebCore9CSSParser31addPropertyWithPrefixingVariantENS_13CSSPropertyIDEN3WTF10PassRefPtrINS_8CSSValueEEEbb
__ZN3WTF6VectorIN7WebCore14CSSParserValueELm4ENS_15CrashOnOverflowEE14expandCapacityEmPKS2_
__ZN3WTF6VectorIN7WebCore14CSSParserValueELm4ENS_15CrashOnOverflowEE15reserveCapacityEm
__ZN7WebCore9CSSParser23detectFunctionTypeTokenIhEEbi
__ZN7WebCore9CSSParser22createFloatingFunctionEv
__ZN3WTF9HashTableIPN7WebCore17CSSParserFunctionES3_NS_17IdentityExtractorENS_7PtrHashIS3_EENS_10HashTraitsIS3_EES8_E3addINS_22IdentityHashTranslatorIS6_EES3_S3_EENS_18HashTableAddResultINS_17HashTableIteratorIS3_S3_S4_S6_S8_S8_EEEERKT0_RKT1_
__ZN3WTF9HashTableIPN7WebCore17CSSParserFunctionES3_NS_17IdentityExtractorENS_7PtrHashIS3_EENS_10HashTraitsIS3_EES8_E6rehashEi
__ZN3WTF7HashSetIPN7WebCore17CSSParserFunctionENS_7PtrHashIS3_EENS_10HashTraitsIS3_EEE6removeERKS3_
__ZN3WTF9HashTableIPN7WebCore17CSSParserFunctionES3_NS_17IdentityExtractorENS_7PtrHashIS3_EENS_10HashTraitsIS3_EES8_E6lookupINS_22IdentityHashTranslatorIS6_EES3_EEPS3_RKT0_
__ZN3WTF9HashTableIPN7WebCore18CSSParserValueListES3_NS_17IdentityExtractorENS_7PtrHashIS3_EENS_10HashTraitsIS3_EES8_E16lookupForWritingINS_22IdentityHashTranslatorIS6_EES3_EENSt3__14pairIPS3_bEERKT0_
__ZN7WebCore9CSSParser18parseFillShorthandENS_13CSSPropertyIDEPKS1_ib
__ZNK7WebCore9CSSParser21isGeneratedImageValueEPNS_14CSSParserValueE
__ZN7WebCore9CSSParser19parseGeneratedImageEPNS_18CSSParserValueListERN3WTF6RefPtrINS_8CSSValueEEE
__ZN7WebCore9CSSParser23parseDeprecatedGradientEPNS_18CSSParserValueListERN3WTF6RefPtrINS_8CSSValueEEE
__ZN7WebCore22CSSImageGeneratorValueC2ENS_8CSSValue9ClassTypeE
__ZN7WebCoreL28parseDeprecatedGradientPointEPNS_14CSSParserValueEb
__ZN7WebCore16CSSGradientValue7addStopERKNS_20CSSGradientColorStopE
__ZN7WebCore9CSSParser12addFillValueERN3WTF6RefPtrINS_8CSSValueEEENS1_10PassRefPtrIS3_EE
__ZN7WebCore9CSSParser11parseShadowEPNS_18CSSParserValueListENS_13CSSPropertyIDE
__ZN7WebCore18ShadowParseContext12commitLengthEPNS_14CSSParserValueE
__ZN7WebCore9CSSParser20parseColorParametersEPNS_14CSSParserValueEPib
__ZN7WebCore9CSSParser9validUnitEPNS_14CSSParserValueENS0_5UnitsENS_13CSSParserModeENS0_31ReleaseParsedCalcValueConditionE
__ZN7WebCore18ShadowParseContext11commitValueEv
__ZN7WebCore11ShadowValue6createEN3WTF10PassRefPtrINS_17CSSPrimitiveValueEEES4_S4_S4_S4_S4_
__ZN7WebCore11ShadowValueC1EN3WTF10PassRefPtrINS_17CSSPrimitiveValueEEES4_S4_S4_S4_S4_
__ZN7WebCore18ShadowParseContext11commitStyleEPNS_14CSSParserValueE
__ZN7WebCore18ShadowParseContextD2Ev
__ZN7WebCore9CSSParser20parseTransformOriginENS_13CSSPropertyIDERS1_S2_S2_RN3WTF6RefPtrINS_8CSSValueEEES7_S7_
__ZN7WebCore9CSSParser29parseTransformOriginShorthandERN3WTF6RefPtrINS_8CSSValueEEES5_S5_
__ZN7WebCore9CSSParser24parse2ValuesFillPositionEPNS_18CSSParserValueListERN3WTF6RefPtrINS_8CSSValueEEES7_
__ZN7WebCore9CSSParser26parseFillPositionComponentEPNS_18CSSParserValueListERjRNS0_16FillPositionFlagENS0_23FillPositionParsingModeE
__ZN7WebCore9CSSParser14parseTransformEv
__ZN7WebCore9CSSParser19parseTransformValueEPNS_14CSSParserValueE
__ZN7WebCore22TransformOperationInfoC2ERKNS_15CSSParserStringE
__ZN7WebCore23WebKitCSSTransformValueC1ENS0_22TransformOperationTypeE
__ZN7WebCore12CSSValueListC2ENS_8CSSValue9ClassTypeENS1_18ValueListSeparatorE
__ZN3WTF9HashTableIPN7WebCore17CSSParserFunctionES3_NS_17IdentityExtractorENS_7PtrHashIS3_EENS_10HashTraitsIS3_EES8_E16lookupForWritingINS_22IdentityHashTranslatorIS6_EES3_EENSt3__14pairIPS3_bEERKT0_
__ZN3WTF6VectorIN7WebCore20CSSGradientColorStopELm2ENS_15CrashOnOverflowEE14expandCapacityEmPKS2_
__ZN3WTF6VectorIN7WebCore20CSSGradientColorStopELm2ENS_15CrashOnOverflowEE15reserveCapacityEm
__ZN3WTF11VectorMoverILb0EN7WebCore20CSSGradientColorStopEE4moveEPKS2_S5_PS2_
__ZN7WebCore9CSSParser15parseFontFamilyEv
__ZN7WebCore22FontFamilyValueBuilder6commitEv
__ZN7WebCore27webkitTextEmphasisShorthandEv
__ZN7WebCore9CSSParser22parseTextEmphasisStyleEb
__ZNK7WebCore17CSSParserSelector8isSimpleEv
__ZN7WebCore9CSSParser9parseSizeENS_13CSSPropertyIDEb
__ZN7WebCore9CSSParser18parseSizeParameterEPNS_12CSSValueListEPNS_14CSSParserValueENS0_17SizeParameterTypeE
__ZN7WebCore9CSSParser14createPageRuleEN3WTF10PassOwnPtrINS_17CSSParserSelectorEEE
__ZN7WebCore13StyleRulePageC1Ev
__ZN7WebCore13StyleRulePage13setPropertiesEN3WTF10PassRefPtrINS_16StylePropertySetEEE
__ZN7WebCore12HTMLDocument24isCaseSensitiveAttributeERKNS_13QualifiedNameE
__ZN3WTF9HashTableIPNS_16AtomicStringImplES2_NS_17IdentityExtractorENS_7PtrHashIS2_EENS_10HashTraitsIS2_EES7_E3addINS_22IdentityHashTranslatorIS5_EES2_S2_EENS_18HashTableAddResultINS_17HashTableIteratorIS2_S2_S3_S5_S7_S7_EEEERKT0_RKT1_
__ZN3WTF9HashTableIPNS_16AtomicStringImplES2_NS_17IdentityExtractorENS_7PtrHashIS2_EENS_10HashTraitsIS2_EES7_E6rehashEi
__ZN3WTF9HashTableIPNS_16AtomicStringImplES2_NS_17IdentityExtractorENS_7PtrHashIS2_EENS_10HashTraitsIS2_EES7_E16lookupForWritingINS_22IdentityHashTranslatorIS5_EES2_EENSt3__14pairIPS2_bEERKT0_
__ZN3WTF9HashTableIPNS_16AtomicStringImplES2_NS_17IdentityExtractorENS_7PtrHashIS2_EENS_10HashTraitsIS2_EES7_E6lookupINS_22IdentityHashTranslatorIS5_EES2_EEPS2_RKT0_
__ZN3WTF6VectorIN7WebCore11RuleFeatureELm0ENS_15CrashOnOverflowEE14expandCapacityEmPKS2_
__ZN3WTF6VectorIN7WebCore11RuleFeatureELm0ENS_15CrashOnOverflowEE15reserveCapacityEm
__ZN3WTF6VectorIPN7WebCore13StyleRulePageELm0ENS_15CrashOnOverflowEE14expandCapacityEmPKS3_
__ZN3WTF6VectorIPN7WebCore13StyleRulePageELm0ENS_15CrashOnOverflowEE15reserveCapacityEm
__ZN7WebCore11RenderTheme21extraQuirksStyleSheetEv
__ZN7WebCore9CSSParser16parseFontVariantEb
__ZN7WebCore13StyleResolver30findFromMatchedPropertiesCacheEjRKNS0_11MatchResultE
__ZN7WebCore13StyleResolver27addToMatchedPropertiesCacheEPKNS_11RenderStyleES3_jRKNS0_11MatchResultE
__ZN3WTF6VectorIN7WebCore13StyleResolver17MatchedPropertiesELm0ENS_15CrashOnOverflowEE6appendIS3_EEvPKT_m
__ZN3WTF6VectorIN7WebCore13StyleResolver17MatchedPropertiesELm0ENS_15CrashOnOverflowEE14expandCapacityEmPKS3_
__ZN3WTF6VectorIN7WebCore13StyleResolver17MatchedPropertiesELm0ENS_15CrashOnOverflowEE15reserveCapacityEm
__ZN3WTF20VectorTypeOperationsIN7WebCore13StyleResolver17MatchedPropertiesEE4moveEPKS3_S6_PS3_
__ZN7WebCore11RenderStyle5cloneEPKS0_
__ZN3WTF9HashTableIjNS_12KeyValuePairIjN7WebCore13StyleResolver26MatchedPropertiesCacheItemEEENS_24KeyValuePairKeyExtractorIS5_EENS_7IntHashIjEENS_18HashMapValueTraitsINS_10HashTraitsIjEENSB_IS4_EEEESC_E16lookupForWritingINS_22IdentityHashTranslatorIS9_EEjEENSt3__14pairIPS5_bEERKT0_
__ZN3WTF9HashTableIjNS_12KeyValuePairIjN7WebCore13StyleResolver26MatchedPropertiesCacheItemEEENS_24KeyValuePairKeyExtractorIS5_EENS_7IntHashIjEENS_18HashMapValueTraitsINS_10HashTraitsIjEENSB_IS4_EEEESC_E3addINS_17HashMapTranslatorISE_S9_EEjS4_EENS_18HashTableAddResultINS_17HashTableIteratorIjS5_S7_S9_SE_SC_EEEERKT0_RKT1_
__ZN3WTF9HashTableIjNS_12KeyValuePairIjN7WebCore13StyleResolver26MatchedPropertiesCacheItemEEENS_24KeyValuePairKeyExtractorIS5_EENS_7IntHashIjEENS_18HashMapValueTraitsINS_10HashTraitsIjEENSB_IS4_EEEESC_E6lookupINS_22IdentityHashTranslatorIS9_EEjEEPS5_RKT0_
__ZN3WTF9HashTableIjNS_12KeyValuePairIjN7WebCore13StyleResolver26MatchedPropertiesCacheItemEEENS_24KeyValuePairKeyExtractorIS5_EENS_7IntHashIjEENS_18HashMapValueTraitsINS_10HashTraitsIjEENSB_IS4_EEEESC_E6rehashEi
__ZN3WTF6VectorIN7WebCore13StyleResolver17MatchedPropertiesELm0ENS_15CrashOnOverflowEEC2ERKS5_
__ZN7WebCore13StyleResolver26MatchedPropertiesCacheItemD2Ev
__ZN7WebCore13StyleResolver26MatchedPropertiesCacheItemaSERKS1_
__ZN3WTF6VectorIN7WebCore13StyleResolver17MatchedPropertiesELm0ENS_15CrashOnOverflowEEaSERKS5_
__ZN3WTF6VectorIN7WebCore13StyleResolver17MatchedPropertiesELm0ENS_15CrashOnOverflowEE6shrinkEm
__ZNK7WebCore16HTMLTitleElement4textEv
__ZN7WebCore11FrameLoader8setTitleERKNS_19StringWithDirectionE
__ZN7WebCore14DocumentLoader8setTitleERKNS_19StringWithDirectionE
__ZN7WebCore11FrameLoader15willChangeTitleEPNS_14DocumentLoaderE
__ZN7WebCore11FrameLoader14didChangeTitleEPNS_14DocumentLoaderE
__ZN7WebCore17HistoryController19setCurrentItemTitleERKNS_19StringWithDirectionE
__ZN7WebCore4Node23compareDocumentPositionEPS0_
__ZNK7WebCore7Element8nodeTypeEv
__ZN3WTF9HashTableIPNS_15ListHashSetNodeIPN7WebCore4NodeELm32EEES6_NS_17IdentityExtractorENS_28ListHashSetNodeHashFunctionsINS_7PtrHashIS4_EEEENS_10HashTraitsIS6_EESD_E16lookupForWritingINS_22IdentityHashTranslatorISB_EES6_EENSt3__14pairIPS6_bEERKT0_
__ZN3WTF9HashTableIPNS_15ListHashSetNodeIPN7WebCore4NodeELm32EEES6_NS_17IdentityExtractorENS_28ListHashSetNodeHashFunctionsINS_7PtrHashIS4_EEEENS_10HashTraitsIS6_EESD_E3addINS_21ListHashSetTranslatorISA_EES4_PNS_24ListHashSetNodeAllocatorIS4_Lm32EEEEENS_18HashTableAddResultINS_17HashTableIteratorIS6_S6_S7_SB_SD_SD_EEEERKT0_RKT1_
__ZN3WTF9HashTableIPNS_15ListHashSetNodeIPN7WebCore4NodeELm32EEES6_NS_17IdentityExtractorENS_28ListHashSetNodeHashFunctionsINS_7PtrHashIS4_EEEENS_10HashTraitsIS6_EESD_E6lookupINS_21ListHashSetTranslatorISA_EES4_EEPS6_RKT0_
__ZN3WTF9HashTableIPNS_15ListHashSetNodeIPN7WebCore4NodeELm32EEES6_NS_17IdentityExtractorENS_28ListHashSetNodeHashFunctionsINS_7PtrHashIS4_EEEENS_10HashTraitsIS6_EESD_E6lookupINS_22IdentityHashTranslatorISB_EES6_EEPS6_RKT0_
__ZN3WTF9HashTableIPNS_15ListHashSetNodeIPN7WebCore4NodeELm32EEES6_NS_17IdentityExtractorENS_28ListHashSetNodeHashFunctionsINS_7PtrHashIS4_EEEENS_10HashTraitsIS6_EESD_E6rehashEi
__ZN3WTF9HashTableIPNS_15ListHashSetNodeIPN7WebCore4NodeELm32EEES6_NS_17IdentityExtractorENS_28ListHashSetNodeHashFunctionsINS_7PtrHashIS4_EEEENS_10HashTraitsIS6_EESD_E6removeERKS6_
__ZN3WTF11ListHashSetIPN7WebCore4NodeELm32ENS_7PtrHashIS3_EEE12insertBeforeENS_19ListHashSetIteratorIS3_Lm32ES5_EERKS3_
__ZN7WebCore21CachedResourceRequestC1ERKNS_15ResourceRequestERKN3WTF6StringENS_20ResourceLoadPriorityE
__ZN7WebCore20CachedResourceLoader28defaultCachedResourceOptionsEv
__ZN7WebCore21CachedResourceRequest12setInitiatorEN3WTF10PassRefPtrINS_7ElementEEE
__ZN7WebCore20CachedResourceLoader20requestCSSStyleSheetERNS_21CachedResourceRequestE
__ZNK7WebCore21ContentSecurityPolicy20allowStyleFromSourceERKNS_4KURLENS0_15ReportingStatusE
__ZN7WebCore21isAllowedByAllWithURLIXadL_ZNKS_16CSPDirectiveList20allowStyleFromSourceERKNS_4KURLENS_21ContentSecurityPolicy15ReportingStatusEEEEEbRKN3WTF6VectorINS7_6OwnPtrIS1_EELm0ENS7_15CrashOnOverflowEEES4_S6_
__ZN7WebCore14SchemeRegistry39schemeShouldBypassContentSecurityPolicyERKN3WTF6StringE
__ZNK7WebCore19MixedContentChecker21canRunInsecureContentEPNS_14SecurityOriginERKNS_4KURLE
__ZNK7WebCore8Document9topOriginEv
__ZNK7WebCore14SecurityOrigin14cachePartitionEv
__ZN7WebCore14encodeHostNameEP8NSString
__ZN7WebCore19CachedCSSStyleSheetC1ERKNS_15ResourceRequestERKN3WTF6StringE
__ZN7WebCore19CachedCSSStyleSheetC2ERKNS_15ResourceRequestERKN3WTF6StringE
__ZN7WebCore14CachedResource27addAdditionalRequestHeadersEPNS_20CachedResourceLoaderE
__ZNK7WebCore11FrameLoader16outgoingReferrerEv
__ZNK7WebCore11FrameLoader14outgoingOriginEv
__ZN7WebCore14SecurityPolicy22generateReferrerHeaderENS_14ReferrerPolicyERKNS_4KURLERKN3WTF6StringE
__ZN7WebCore11FrameLoader34addExtraFieldsToSubresourceRequestERNS_15ResourceRequestE
__ZN7WebCore19ResourceRequestBase14setCachePolicyENS_26ResourceRequestCachePolicyE
__ZN7WebCore19CachedCSSStyleSheet12didAddClientEPNS_20CachedResourceClientE
__ZN7WebCore9HTMLToken11beginEndTagEh
__ZNK7WebCore15HTMLBodyElement23isPresentationAttributeERKNS_13QualifiedNameE
__ZN7WebCore15HTMLBodyElement14parseAttributeERKNS_13QualifiedNameERKN3WTF12AtomicStringE
__ZN3WTF6VectorINS_12AtomicStringELm4ENS_15CrashOnOverflowEE14expandCapacityEmPKS1_
__ZN3WTF6VectorINS_12AtomicStringELm4ENS_15CrashOnOverflowEE15reserveCapacityEm
__ZN7WebCore9TreeScope14addElementByIdERKN3WTF12AtomicStringEPNS_7ElementE
__ZN7WebCore7Element19updateIdForDocumentEPNS_12HTMLDocumentERKN3WTF12AtomicStringES6_NS0_42HTMLDocumentNamedItemMapsUpdatingConditionE
__ZN7WebCore22DocumentNameCollection29nodeMatchesIfIdAttributeMatchEPNS_7ElementE
__ZN3WTF6VectorIjLm4ENS_15CrashOnOverflowEE14expandCapacityEmPKj
__ZN3WTF6VectorIjLm4ENS_15CrashOnOverflowEE15reserveCapacityEm
__ZN7WebCore15HTMLTreeBuilder24processStartTagForInBodyEPNS_15AtomicHTMLTokenE
__ZN7WebCore15HTMLTreeBuilder34processFakePEndTagIfPInButtonScopeEv
__ZNK7WebCore16HTMLElementStack13inButtonScopeERKN3WTF12AtomicStringE
__ZN7WebCore12_GLOBAL__N_113isScopeMarkerEPNS_13HTMLStackItemE
__ZN7WebCoreL14divConstructorERKNS_13QualifiedNameEPNS_8DocumentEPNS_15HTMLFormElementEb
__ZN7WebCore14HTMLDivElement6createERKNS_13QualifiedNameEPNS_8DocumentE
__ZN7WebCore14HTMLDivElementC2ERKNS_13QualifiedNameEPNS_8DocumentE
__ZNK7WebCore14HTMLDivElement23isPresentationAttributeERKNS_13QualifiedNameE
__ZN7WebCoreL31isNonAnchorNonNobrFormattingTagERKN3WTF12AtomicStringE
__ZN7WebCoreL11ConstructorERKNS_13QualifiedNameEPNS_8DocumentEPNS_15HTMLFormElementEb
__ZN7WebCore11HTMLElement6createERKNS_13QualifiedNameEPNS_8DocumentE
__ZN3WTF6VectorItLm256ENS_15CrashOnOverflowEE14expandCapacityEmPKt
__ZN3WTF6VectorItLm256ENS_15CrashOnOverflowEE15reserveCapacityEm
__ZN7WebCore15HTMLTreeBuilder22processEndTagForInBodyEPNS_15AtomicHTMLTokenE
__ZNK7WebCore16HTMLElementStack7inScopeERKN3WTF12AtomicStringE
__ZN7WebCore20HTMLConstructionSite22generateImpliedEndTagsEv
__ZN7WebCoreL16hasImpliedEndTagEPKNS_13HTMLStackItemE
__ZN7WebCore16HTMLElementStack14popUntilPoppedERKN3WTF12AtomicStringE
__ZN7WebCore16HTMLElementStack8popUntilERKN3WTF12AtomicStringE
__ZNK7WebCore13HTMLStackItem23isNumberedHeaderElementEv
__ZN7WebCoreL18headingConstructorERKNS_13QualifiedNameEPNS_8DocumentEPNS_15HTMLFormElementEb
__ZN7WebCore18HTMLHeadingElement6createERKNS_13QualifiedNameEPNS_8DocumentE
__ZN7WebCore15HTMLTreeBuilder31processCharacterBufferForInBodyERNS0_28ExternalCharacterTokenBufferE
__ZN7WebCore20HTMLConstructionSite38reconstructTheActiveFormattingElementsEv
__ZNK7WebCore16HTMLElementStack31hasNumberedHeaderElementInScopeEv
__ZN7WebCore16HTMLElementStack35popUntilNumberedHeaderElementPoppedEv
__ZN7WebCoreL20paragraphConstructorERKNS_13QualifiedNameEPNS_8DocumentEPNS_15HTMLFormElementEb
__ZN7WebCore20HTMLParagraphElement6createERKNS_13QualifiedNameEPNS_8DocumentE
__ZN7WebCore20HTMLConstructionSite35generateImpliedEndTagsWithExclusionERKN3WTF12AtomicStringE
__ZN7WebCore15SegmentedString37advancePastNewlineAndUpdateLineNumberEv
__ZN7WebCore16HTMLScriptRunner29executeParsingBlockingScriptsEv
__ZN7WebCore18HTMLPreloadScannerC1ERKNS_17HTMLParserOptionsERKNS_4KURLE
__ZN7WebCore18HTMLPreloadScannerC2ERKNS_17HTMLParserOptionsERKNS_4KURLE
__ZN7WebCore17CSSPreloadScannerC1Ev
__ZN7WebCore18HTMLPreloadScanner11appendToEndERKNS_15SegmentedStringE
__ZN7WebCore18HTMLPreloadScanner4scanEPNS_21HTMLResourcePreloaderERKNS_4KURLE
__ZN7WebCore13HTMLTokenizer14updateStateForERKN3WTF12AtomicStringE
__ZN7WebCore19TokenPreloadScanner10scanCommonINS_9HTMLTokenEEEvRKT_RN3WTF6VectorINS6_6OwnPtrINS_14PreloadRequestEEELm0ENS6_15CrashOnOverflowEEE
__ZN7WebCore19TokenPreloadScanner8tagIdForERKN3WTF6VectorItLm256ENS1_15CrashOnOverflowEEE
__ZN7WebCore19TokenPreloadScanner15StartTagScanner17processAttributesERKN3WTF6VectorINS_9HTMLToken9AttributeELm10ENS2_15CrashOnOverflowEEE
__ZN7WebCore19TokenPreloadScanner15StartTagScanner16processAttributeIN3WTF12AtomicStringEEEvRKT_RKNS3_6StringE
__ZN7WebCore19TokenPreloadScanner15StartTagScanner20createPreloadRequestERKNS_4KURLE
__ZN7WebCore19TokenPreloadScanner15StartTagScanner12setUrlToLoadERKN3WTF6StringE
__ZN7WebCore19TokenPreloadScanner12initiatorForENS0_5TagIdE
__ZN3WTF6VectorINS_6OwnPtrIN7WebCore14PreloadRequestEEELm0ENS_15CrashOnOverflowEE15reserveCapacityEm
__ZN7WebCore21HTMLResourcePreloader14takeAndPreloadERN3WTF6VectorINS1_6OwnPtrINS_14PreloadRequestEEELm0ENS1_15CrashOnOverflowEEE
__ZN7WebCore14PreloadRequest15resourceRequestEPNS_8DocumentE
__ZN7WebCore21CachedResourceRequest12setInitiatorERKN3WTF12AtomicStringE
__ZN7WebCore19ResourceRequestBase15setAllowCookiesEb
__ZN7WebCore20CachedResourceLoader7preloadENS_14CachedResource4TypeERNS_21CachedResourceRequestERKN3WTF6StringE
__ZN7WebCore20CachedResourceLoader14requestPreloadENS_14CachedResource4TypeERNS_21CachedResourceRequestERKN3WTF6StringE
__ZNK7WebCore21ContentSecurityPolicy21allowScriptFromSourceERKNS_4KURLENS0_15ReportingStatusE
__ZN7WebCore21isAllowedByAllWithURLIXadL_ZNKS_16CSPDirectiveList21allowScriptFromSourceERKNS_4KURLENS_21ContentSecurityPolicy15ReportingStatusEEEEEbRKN3WTF6VectorINS7_6OwnPtrIS1_EELm0ENS7_15CrashOnOverflowEEES4_S6_
__ZN7WebCore12CachedScriptC1ERKNS_15ResourceRequestERKN3WTF6StringE
__ZN7WebCore12CachedScriptC2ERKNS_15ResourceRequestERKN3WTF6StringE
__ZN7WebCore17DOMImplementation13isXMLMIMETypeERKN3WTF6StringE
__ZN3WTF6OwnPtrINS_11ListHashSetIPN7WebCore14CachedResourceELm256ENS_7PtrHashIS4_EEEEEaSERKNS_10PassOwnPtrIS7_EE
__ZN3WTF10PassOwnPtrINS_11ListHashSetIPN7WebCore14CachedResourceELm256ENS_7PtrHashIS4_EEEEED2Ev
__ZN3WTF9HashTableIPNS_15ListHashSetNodeIPN7WebCore14CachedResourceELm256EEES6_NS_17IdentityExtractorENS_28ListHashSetNodeHashFunctionsINS_7PtrHashIS4_EEEENS_10HashTraitsIS6_EESD_E16lookupForWritingINS_22IdentityHashTranslatorISB_EES6_EENSt3__14pairIPS6_bEERKT0_
__ZN3WTF9HashTableIPNS_15ListHashSetNodeIPN7WebCore14CachedResourceELm256EEES6_NS_17IdentityExtractorENS_28ListHashSetNodeHashFunctionsINS_7PtrHashIS4_EEEENS_10HashTraitsIS6_EESD_E3addINS_21ListHashSetTranslatorISA_EES4_PNS_24ListHashSetNodeAllocatorIS4_Lm256EEEEENS_18HashTableAddResultINS_17HashTableIteratorIS6_S6_S7_SB_SD_SD_EEEERKT0_RKT1_
__ZN3WTF9HashTableIPNS_15ListHashSetNodeIPN7WebCore14CachedResourceELm256EEES6_NS_17IdentityExtractorENS_28ListHashSetNodeHashFunctionsINS_7PtrHashIS4_EEEENS_10HashTraitsIS6_EESD_E6lookupINS_21ListHashSetTranslatorISA_EES4_EEPS6_RKT0_
__ZN3WTF9HashTableIPNS_15ListHashSetNodeIPN7WebCore14CachedResourceELm256EEES6_NS_17IdentityExtractorENS_28ListHashSetNodeHashFunctionsINS_7PtrHashIS4_EEEENS_10HashTraitsIS6_EESD_E6lookupINS_22IdentityHashTranslatorISB_EES6_EEPS6_RKT0_
__ZN3WTF9HashTableIPNS_15ListHashSetNodeIPN7WebCore14CachedResourceELm256EEES6_NS_17IdentityExtractorENS_28ListHashSetNodeHashFunctionsINS_7PtrHashIS4_EEEENS_10HashTraitsIS6_EESD_E6rehashEi
__ZN7WebCore14PreloadRequestD2Ev
__ZN7WebCore17SubresourceLoader16didFinishLoadingEd
__ZN7WebCore17CachedRawResource13finishLoadingEPNS_14ResourceBufferE
__ZN7WebCore14CachedResource13finishLoadingEPNS_14ResourceBufferE
__ZN7WebCore14CachedResource11checkNotifyEv
__ZN7WebCore26CachedResourceClientWalkerINS_20CachedResourceClientEEC2ERKN3WTF14HashCountedSetIPS1_NS3_7PtrHashIS5_EENS3_10HashTraitsIS5_EEEE
__ZN7WebCore14DocumentLoader14notifyFinishedEPNS_14CachedResourceE
__ZNK7WebCore14ResourceBuffer12sharedBufferEv
__ZN3WTF5DequeIN7WebCore18SegmentedSubstringELm0EE14expandCapacityEv
__ZNK7WebCore8Document11hasManifestEv
__ZNK7WebCore7Element12hasAttributeERKNS_13QualifiedNameE
__ZNK7WebCore7Element14hasAttributeNSERKN3WTF12AtomicStringES4_
__ZN7WebCore14CachedResource6finishEv
__ZN7WebCore14ResourceLoader23didFinishLoadingOnePartEd
__ZN7WebCore20ResourceLoadNotifier13didFinishLoadEPNS_14ResourceLoaderEd
__ZN7WebCore15ProgressTracker16completeProgressEm
__ZN7WebCore24InspectorInstrumentation20didFinishLoadingImplEPNS_19InstrumentingAgentsEmPNS_14DocumentLoaderEd
__ZN7WebCore17SubresourceLoader10notifyDoneEv
__ZN7WebCore20CachedResourceLoader21decrementRequestCountEPKNS_14CachedResourceE
__ZN7WebCore20CachedResourceLoader8loadDoneEPNS_14CachedResourceE
__ZN7WebCore11FrameLoader8loadDoneEv
__ZN7WebCore20CachedResourceLoader23checkForPendingPreloadsEv
__ZN7WebCore14DocumentLoader23removeSubresourceLoaderEPNS_14ResourceLoaderE
__ZN7WebCore17SubresourceLoader16releaseResourcesEv
__ZN7WebCore14CachedResource11clearLoaderEv
__ZN7WebCore14ResourceLoader16releaseResourcesEv
__ZN7WebCore17SubresourceLoaderD0Ev
__ZN7WebCore17SubresourceLoaderD2Ev
__ZN7WebCore14ResourceLoaderD2Ev
__ZN7WebCore20ResourceHandleClientD2Ev
__ZN7WebCore13PageThrottler14unthrottlePageEv
__ZN7WebCore8Document39scriptedAnimationControllerSetThrottledEb
__ZN7WebCore4Page16unthrottleTimersEv
__ZN7WebCore4Page24resumeScriptedAnimationsEv
__ZN7WebCore9FrameView21resumeAnimatingImagesEv
__ZNK7WebCore14CachedResource7isImageEv
__ZN7WebCore5Frame34dispatchVisibilityStateChangeEventEv
__ZN7WebCore8Document34dispatchVisibilityStateChangeEventEv
__ZN7WebCore19AnimationController16resumeAnimationsEv
__ZN7WebCore26AnimationControllerPrivate16resumeAnimationsEv
__ZN7WebCore26AnimationControllerPrivate27resumeAnimationsForDocumentEPNS_8DocumentE
__ZN7WebCore14TileController9drawLayerEP12WebTileLayerP9CGContext
__Z17drawLayerContentsP9CGContextP7CALayerPN7WebCore15PlatformCALayerE
__ZThn480_NK7WebCore15GraphicsLayerCA34platformCALayerContentsOrientationEv
__ZN7WebCore15GraphicsContext19setIsCALayerContextEb
__ZNK7WebCore15PlatformCALayer18acceleratesDrawingEv
-[WebTiledBackingLayer acceleratesDrawing]
__ZN7WebCore15GraphicsContext23setIsAcceleratedContextEb
__ZThn480_NK7WebCore15GraphicsLayerCA29platformCALayerContentsOpaqueEv
__ZN7WebCore8ThemeMac20setFocusRingClipRectERKNS_9FloatRectE
____Z17drawLayerContentsP9CGContextP7CALayerPN7WebCore15PlatformCALayerE_block_invoke
__ZThn480_N7WebCore15GraphicsLayerCA28platformCALayerPaintContentsERNS_15GraphicsContextERKNS_7IntRectE
__ZN7WebCore13GraphicsLayer26paintGraphicsLayerContentsERNS_15GraphicsContextERKNS_7IntRectE
__ZN7WebCore18RenderLayerBacking13paintContentsEPKNS_13GraphicsLayerERNS_15GraphicsContextEjRKNS_7IntRectE
__ZN7WebCore18RenderLayerBacking14paintIntoLayerEPKNS_13GraphicsLayerEPNS_15GraphicsContextERKNS_7IntRectEjj
__ZNK7WebCore9FrameView19baseBackgroundColorEv
__ZNK7WebCore15GraphicsContext18compositeOperationEv
__ZN7WebCore15GraphicsContext21setCompositeOperationENS_17CompositeOperatorENS_9BlendModeE
__ZN7WebCore15GraphicsContext29setPlatformCompositeOperationENS_17CompositeOperatorENS_9BlendModeE
__ZN7WebCore15GraphicsContext8fillRectERKNS_9FloatRectERKNS_5ColorENS_10ColorSpaceE
__ZN7WebCore11RenderLayer15updateClipRectsERKNS0_16ClipRectsContextE
__ZN7WebCore9FrameView18setContentIsOpaqueEb
__ZN7WebCore15GraphicsContext8fillRectERKNS_9FloatRectERKNS_5ColorENS_10ColorSpaceENS_17CompositeOperatorENS_9BlendModeE
__ZN7WebCore21RenderLayerCompositor15didPaintBackingEPNS_18RenderLayerBackingE
__ZThn480_N7WebCore15GraphicsLayerCA36platformCALayerIncrementRepaintCountEv
__ZN7WebCore14TileController18drawRepaintCounterEP12WebTileLayerP9CGContext
-[WebTileLayer incrementPaintCount]
__ZNK7WebCore14TileController34scrollingPerformanceLoggingEnabledEv
__ZN7WebCore21NetworkStorageSession28createPrivateBrowsingSessionERKN3WTF6StringE
-[WebCoreResourceHandleAsDelegate connection:didReceiveData:lengthReceived:]
__ZN7WebCore14ResourceLoader16didReceiveBufferEPNS_14ResourceHandleEN3WTF10PassRefPtrINS_12SharedBufferEEEi
__ZN7WebCore17SubresourceLoader16didReceiveBufferEN3WTF10PassRefPtrINS_12SharedBufferEEExNS_15DataPayloadTypeE
__ZN7WebCore14ResourceBuffer17adoptSharedBufferEN3WTF10PassRefPtrINS_12SharedBufferEEE
__ZN7WebCore14ResourceBufferC1EN3WTF10PassRefPtrINS_12SharedBufferEEE
__ZNK7WebCore15GraphicsLayerCA15platformCALayerEv
__ZN7WebCore15PlatformCALayer18setGeometryFlippedEb
__ZN7WebCore15GraphicsLayerCA18setAllowTiledLayerEb
__ZN7WebCore13GraphicsLayer17removeAllChildrenEv
__ZN7WebCore15HTMLTreeBuilder28ExternalCharacterTokenBuffer11takeLeadingIXadL_ZNS_11isHTMLSpaceEtEEEEN3WTF6StringEv
__ZN7WebCore17consumeHTMLEntityERNS_15SegmentedStringERN3WTF13StringBuilderERbt
__ZN7WebCore25consumeCharacterReferenceINS_16HTMLEntityParserEEEbRNS_15SegmentedStringERN3WTF13StringBuilderERbt
__ZN7WebCoreL16styleConstructorERKNS_13QualifiedNameEPNS_8DocumentEPNS_15HTMLFormElementEb
__ZN7WebCore16HTMLStyleElement6createERKNS_13QualifiedNameEPNS_8DocumentEb
__ZN7WebCore12StyleElementC2EPNS_8DocumentEb
__ZN7WebCore16HTMLStyleElement14parseAttributeERKNS_13QualifiedNameERKN3WTF12AtomicStringE
__ZN7WebCore16HTMLStyleElement12insertedIntoEPNS_13ContainerNodeE
__ZN7WebCore12StyleElement20insertedIntoDocumentEPNS_8DocumentEPNS_7ElementE
__ZN7WebCore16HTMLStyleElement15childrenChangedEbPNS_4NodeES2_i
__ZN7WebCore12StyleElement15childrenChangedEPNS_7ElementE
__ZN7WebCore16HTMLStyleElement21finishParsingChildrenEv
__ZN7WebCore12StyleElement21finishParsingChildrenEPNS_7ElementE
__ZN7WebCore12StyleElement7processEPNS_7ElementE
__ZNK7WebCore4Text8nodeTypeEv
__ZNK7WebCore13CharacterData9nodeValueEv
__ZN7WebCore12StyleElement11createSheetEPNS_7ElementEN3WTF13OrdinalNumberERKNS3_6StringE
__ZThn96_NK7WebCore16HTMLStyleElement4typeEv
__ZNK7WebCore21ContentSecurityPolicy16allowInlineStyleERKN3WTF6StringERKNS1_13OrdinalNumberENS0_15ReportingStatusE
__ZThn96_NK7WebCore16HTMLStyleElement5mediaEv
__ZN7WebCore13MediaQuerySetC1ERKN3WTF6StringEb
__ZN7WebCore13MediaQuerySet5parseERKN3WTF6StringE
__ZNK7WebCore19MediaQueryEvaluator4evalEPKNS_13MediaQuerySetEPNS_13StyleResolverE
__ZN7WebCore13CSSStyleSheet12createInlineEPNS_4NodeERKNS_4KURLERKN3WTF6StringE
__ZN7WebCore16CSSParserContextC1EPNS_8DocumentERKNS_4KURLERKN3WTF6StringE
__ZN7WebCore16CSSParserContextC2EPNS_8DocumentERKNS_4KURLERKN3WTF6StringE
__ZNK7WebCore8Document24cssStickyPositionEnabledEv
__ZNK7WebCore8Document21cssCompositingEnabledEv
__ZN7WebCore18StyleSheetContents14registerClientEPNS_13CSSStyleSheetE
__ZN3WTF6VectorIPN7WebCore13CSSStyleSheetELm0ENS_15CrashOnOverflowEE14expandCapacityEmPKS3_
__ZN3WTF6VectorIPN7WebCore13CSSStyleSheetELm0ENS_15CrashOnOverflowEE15reserveCapacityEm
__ZN7WebCore13CSSStyleSheet15setMediaQueriesEN3WTF10PassRefPtrINS_13MediaQuerySetEEE
__ZNK7WebCore11HTMLElement5titleEv
__ZN7WebCore18StyleSheetContents17parseStringAtLineERKN3WTF6StringEib
__ZNK7WebCore18StyleSheetContents19singleOwnerDocumentEv
__ZNK7WebCore13CSSStyleSheet9ownerNodeEv
__ZN7WebCore12CSSValuePool21createFontFamilyValueERKN3WTF6StringE
__ZN3WTF9HashTableINS_6StringENS_12KeyValuePairIS1_NS_6RefPtrIN7WebCore17CSSPrimitiveValueEEEEENS_24KeyValuePairKeyExtractorIS7_EENS_10StringHashENS_18HashMapValueTraitsINS_10HashTraitsIS1_EENSC_IS6_EEEESD_E15deallocateTableEPS7_i
__ZN3WTF9HashTableINS_6StringENS_12KeyValuePairIS1_NS_6RefPtrIN7WebCore17CSSPrimitiveValueEEEEENS_24KeyValuePairKeyExtractorIS7_EENS_10StringHashENS_18HashMapValueTraitsINS_10HashTraitsIS1_EENSC_IS6_EEEESD_E16lookupForWritingINS_22IdentityHashTranslatorISA_EES1_EENSt3__14pairIPS7_bEERKT0_
__ZN3WTF9HashTableINS_6StringENS_12KeyValuePairIS1_NS_6RefPtrIN7WebCore17CSSPrimitiveValueEEEEENS_24KeyValuePairKeyExtractorIS7_EENS_10StringHashENS_18HashMapValueTraitsINS_10HashTraitsIS1_EENSC_IS6_EEEESD_E3addINS_17HashMapTranslatorISF_SA_EES1_NS_10PassRefPtrIS5_EEEENS_18HashTableAddResultINS_17HashTableIteratorIS1_S7_S9_SA_SF_SD_EEEERKT0_RKT1_
__ZN3WTF9HashTableINS_6StringENS_12KeyValuePairIS1_NS_6RefPtrIN7WebCore17CSSPrimitiveValueEEEEENS_24KeyValuePairKeyExtractorIS7_EENS_10StringHashENS_18HashMapValueTraitsINS_10HashTraitsIS1_EENSC_IS6_EEEESD_E6lookupINS_22IdentityHashTranslatorISA_EES1_EEPS7_RKT0_
__ZN3WTF9HashTableINS_6StringENS_12KeyValuePairIS1_NS_6RefPtrIN7WebCore17CSSPrimitiveValueEEEEENS_24KeyValuePairKeyExtractorIS7_EENS_10StringHashENS_18HashMapValueTraitsINS_10HashTraitsIS1_EENSC_IS6_EEEESD_E6rehashEi
__ZN7WebCore17CSSPrimitiveValueC1ERKN3WTF6StringENS0_9UnitTypesE
__ZN7WebCore18StyleSheetContents11checkLoadedEv
__ZN7WebCore16HTMLStyleElement11sheetLoadedEv
__ZN7WebCore12StyleElement11sheetLoadedEPNS_8DocumentE
__ZNK7WebCore13CSSStyleSheet9isLoadingEv
__ZNK7WebCore18StyleSheetContents9isLoadingEv
__ZN7WebCore28DocumentStyleSheetCollection18removePendingSheetENS0_34RemovePendingSheetNotificationTypeE
__ZN7WebCore8Document29didRemoveAllPendingStylesheetEv
__ZNK7WebCore15HTMLLinkElement19styleSheetIsLoadingEv
__ZN3WTF6VectorINS_6RefPtrIN7WebCore10StyleSheetEEELm0ENS_15CrashOnOverflowEE15reserveCapacityEm
__ZNK7WebCore13CSSStyleSheet15isCSSStyleSheetEv
__ZNK7WebCore13CSSStyleSheet8disabledEv
__ZN3WTF6VectorINS_6RefPtrIN7WebCore13CSSStyleSheetEEELm0ENS_15CrashOnOverflowEE15reserveCapacityEm
__ZN3WTF6VectorIPN7WebCore18StyleSheetContentsELm0ENS_15CrashOnOverflowEE14expandCapacityEmPKS3_
__ZN3WTF6VectorIPN7WebCore18StyleSheetContentsELm0ENS_15CrashOnOverflowEE15reserveCapacityEm
__ZN7WebCore22InspectorCSSOMWrappers29collectFromStyleSheetIfNeededEPNS_13CSSStyleSheetE
__ZNK7WebCore13StyleResolver23colorFromPrimitiveValueEPNS_17CSSPrimitiveValueEb
__ZN7WebCore11RenderStyle8setColorERKNS_5ColorE
__ZN7WebCore23ApplyPropertyFontFamily10applyValueENS_13CSSPropertyIDEPNS_13StyleResolverEPNS_8CSSValueE
__ZNK7WebCore11RenderStyle15fontDescriptionEv
__ZNK7WebCore17CSSPrimitiveValue14getStringValueEv
__ZN3WTF6VectorINS_12AtomicStringELm1ENS_15CrashOnOverflowEE14expandCapacityEmPKS1_
__ZN3WTF6VectorINS_12AtomicStringELm1ENS_15CrashOnOverflowEE15reserveCapacityEm
__ZN3WTF12VectorBufferINS_12AtomicStringELm1EE4swapERS2_
__ZN3WTF6VectorINS_12AtomicStringELm1ENS_15CrashOnOverflowEE14shrinkCapacityEm
__ZN7WebCore21ApplyPropertyFontSize10applyValueENS_13CSSPropertyIDEPNS_13StyleResolverEPNS_8CSSValueE
__ZNK7WebCore17CSSPrimitiveValue13computeLengthIfEET_PKNS_11RenderStyleES5_fb
__ZN7WebCore13StyleResolver11setFontSizeERNS_15FontDescriptionEf
__ZN7WebCore13StyleResolver27checkForGenericFamilyChangeEPNS_11RenderStyleES2_
__ZN7WebCore13StyleResolver18checkForZoomChangeEPNS_11RenderStyleES2_
__ZN7WebCore19StyleBackgroundDataC1ERKS0_
__ZN7WebCore9FillLayerC1ERKS0_
__ZN7WebCore9FillLayerC2ERKS0_
__ZN7WebCore19ApplyPropertyLengthIXadL_ZNKS_11RenderStyle10paddingTopEvEEXadL_ZNS1_13setPaddingTopENS_6LengthEEEXadL_ZNS1_14initialPaddingEvEELNS_10LengthAutoE0ELNS_21LengthLegacyIntrinsicE0ELNS_15LengthIntrinsicE0ELNS_10LengthNoneE0ELNS_15LengthUndefinedE0EE10applyValueENS_13CSSPropertyIDEPNS_13StyleResolverEPNS_8CSSValueE
__ZN7WebCore11RenderStyle13setPaddingTopENS_6LengthE
__ZN7WebCore19ApplyPropertyLengthIXadL_ZNKS_11RenderStyle12paddingRightEvEEXadL_ZNS1_15setPaddingRightENS_6LengthEEEXadL_ZNS1_14initialPaddingEvEELNS_10LengthAutoE0ELNS_21LengthLegacyIntrinsicE0ELNS_15LengthIntrinsicE0ELNS_10LengthNoneE0ELNS_15LengthUndefinedE0EE10applyValueENS_13CSSPropertyIDEPNS_13StyleResolverEPNS_8CSSValueE
__ZN7WebCore11RenderStyle15setPaddingRightENS_6LengthE
__ZN7WebCore19ApplyPropertyLengthIXadL_ZNKS_11RenderStyle13paddingBottomEvEEXadL_ZNS1_16setPaddingBottomENS_6LengthEEEXadL_ZNS1_14initialPaddingEvEELNS_10LengthAutoE0ELNS_21LengthLegacyIntrinsicE0ELNS_15LengthIntrinsicE0ELNS_10LengthNoneE0ELNS_15LengthUndefinedE0EE10applyValueENS_13CSSPropertyIDEPNS_13StyleResolverEPNS_8CSSValueE
__ZN7WebCore11RenderStyle16setPaddingBottomENS_6LengthE
__ZN7WebCore19ApplyPropertyLengthIXadL_ZNKS_11RenderStyle11paddingLeftEvEEXadL_ZNS1_14setPaddingLeftENS_6LengthEEEXadL_ZNS1_14initialPaddingEvEELNS_10LengthAutoE0ELNS_21LengthLegacyIntrinsicE0ELNS_15LengthIntrinsicE0ELNS_10LengthNoneE0ELNS_15LengthUndefinedE0EE10applyValueENS_13CSSPropertyIDEPNS_13StyleResolverEPNS_8CSSValueE
__ZN7WebCore11RenderStyle14setPaddingLeftENS_6LengthE
__ZNK7WebCore19StyleBackgroundDataeqERKS0_
__ZNK7WebCore9FillLayereqERKS0_
__ZNK7WebCore11RenderStyle17inheritedNotEqualEPKS0_
__ZNK7WebCore11RenderStyle4diffEPKS0_Rj
__ZNK7WebCore11RenderStyle20changeRequiresLayoutEPKS0_Rj
__ZNK7WebCore11RenderStyle4clipEv
__ZNK7WebCore19TransformOperationseqERKS0_
__ZN7WebCore13RenderCounter20rendererStyleChangedEPNS_12RenderObjectEPKNS_11RenderStyleES5_
__ZNK7WebCore11RenderStyle17counterDirectivesEv
__ZN7WebCore12RenderObject33setNeedsLayoutAndPrefWidthsRecalcEv
__ZNK7WebCore9LengthBoxneERKS0_
__ZN7WebCore10ScrollView24setScrollbarOverlayStyleENS_21ScrollbarOverlayStyleE
__ZNK7WebCore12RenderObject24canHaveGeneratedChildrenEv
__ZNK7WebCore12RenderObject20getCachedPseudoStyleENS_8PseudoIdEPNS_11RenderStyleE
__ZN7WebCore18HTMLDocumentParser35executeScriptsWaitingForStylesheetsEv
__ZN7WebCore16HTMLStyleElement43notifyLoadedSheetAndAllCriticalSubresourcesEb
__ZN7WebCore11EventSenderINS_16HTMLStyleElementEE17dispatchEventSoonEPS1_
__ZN3WTF6VectorIPN7WebCore16HTMLStyleElementELm0ENS_15CrashOnOverflowEE14expandCapacityEmPKS3_
__ZN3WTF6VectorIPN7WebCore16HTMLStyleElementELm0ENS_15CrashOnOverflowEE15reserveCapacityEm
__ZN7WebCore4Text20textRendererIsNeededERKNS_20NodeRenderingContextE
__ZNK7WebCore13CharacterData22containsOnlyWhitespaceEv
__ZNK7WebCore20NodeRenderingContext14parentRendererEv
__ZNK7WebCore12RenderObject10isFrameSetEv
__ZNK7WebCore20NodeRenderingContext16previousRendererEv
__ZNK7WebCore12RenderObject14isRenderInlineEv
__ZN7WebCore22ApplyPropertyTextAlign10applyValueENS_13CSSPropertyIDEPNS_13StyleResolverEPNS_8CSSValueE
__ZN3WTF13hashTableSwapIjN7WebCore13StyleResolver26MatchedPropertiesCacheItemEEEvRNS_12KeyValuePairIT_T0_EES8_
__ZN7WebCore13StyleResolver26MatchedPropertiesCacheItemaSEOS1_
__ZN7WebCore19ApplyPropertyLengthIXadL_ZNKS_11RenderStyle5widthEvEEXadL_ZNS1_8setWidthENS_6LengthEEEXadL_ZNS1_11initialSizeEvEELNS_10LengthAutoE1ELNS_21LengthLegacyIntrinsicE1ELNS_15LengthIntrinsicE1ELNS_10LengthNoneE0ELNS_15LengthUndefinedE0EE10applyValueENS_13CSSPropertyIDEPNS_13StyleResolverEPNS_8CSSValueE
__ZN7WebCore11RenderStyle8setWidthENS_6LengthE
__ZN7WebCore9CSSParser8parseURIIhEEvRNS_15CSSParserStringE
__ZN7WebCore9CSSParser7findURIIhEEbRPT_S4_Rt
__ZN7WebCore9CSSParser16parseURIInternalIhhEEbRPT_RPT0_t
__ZN7WebCore9CSSParser11completeURLERKNS_16CSSParserContextERKN3WTF6StringE
__ZN7WebCore13CSSImageValueC1ERKN3WTF6StringE
__ZN7WebCore9CSSParser15parseFillRepeatERN3WTF6RefPtrINS_8CSSValueEEES5_
__ZN7WebCore25StyleInvalidationAnalysisC1ERKN3WTF6VectorIPNS_18StyleSheetContentsELm0ENS1_15CrashOnOverflowEEE
__ZN7WebCore25StyleInvalidationAnalysis17analyzeStyleSheetEPNS_18StyleSheetContentsE
__ZN7WebCore25StyleInvalidationAnalysis15invalidateStyleEPNS_8DocumentE
__ZN7WebCore13NodeTraversal19nextAncestorSiblingEPKNS_4NodeE
__ZN7WebCore13CSSToStyleMap12mapFillImageENS_13CSSPropertyIDEPNS_9FillLayerEPNS_8CSSValueE
__ZN7WebCore13StyleResolver10styleImageENS_13CSSPropertyIDEPNS_8CSSValueE
__ZN7WebCore13StyleResolver24cachedOrPendingFromValueENS_13CSSPropertyIDEPNS_13CSSImageValueE
__ZN7WebCore13CSSImageValue20cachedOrPendingImageEv
__ZN3WTF9HashTableIN7WebCore13CSSPropertyIDENS_12KeyValuePairIS2_NS_6RefPtrINS1_8CSSValueEEEEENS_24KeyValuePairKeyExtractorIS7_EENS_7IntHashIjEENS_18HashMapValueTraitsINS_10HashTraitsIS2_EENSD_IS6_EEEESE_E16lookupForWritingINS_22IdentityHashTranslatorISB_EES2_EENSt3__14pairIPS7_bEERKT0_
__ZN3WTF9HashTableIN7WebCore13CSSPropertyIDENS_12KeyValuePairIS2_NS_6RefPtrINS1_8CSSValueEEEEENS_24KeyValuePairKeyExtractorIS7_EENS_7IntHashIjEENS_18HashMapValueTraitsINS_10HashTraitsIS2_EENSD_IS6_EEEESE_E3addINS_17HashMapTranslatorISG_SB_EES2_NS_10PassRefPtrIS5_EEEENS_18HashTableAddResultINS_17HashTableIteratorIS2_S7_S9_SB_SG_SE_EEEERKT0_RKT1_
__ZN3WTF9HashTableIN7WebCore13CSSPropertyIDENS_12KeyValuePairIS2_NS_6RefPtrINS1_8CSSValueEEEEENS_24KeyValuePairKeyExtractorIS7_EENS_7IntHashIjEENS_18HashMapValueTraitsINS_10HashTraitsIS2_EENSD_IS6_EEEESE_E6lookupINS_22IdentityHashTranslatorISB_EES2_EEPS7_RKT0_
__ZN3WTF9HashTableIN7WebCore13CSSPropertyIDENS_12KeyValuePairIS2_NS_6RefPtrINS1_8CSSValueEEEEENS_24KeyValuePairKeyExtractorIS7_EENS_7IntHashIjEENS_18HashMapValueTraitsINS_10HashTraitsIS2_EENSD_IS6_EEEESE_E6rehashEi
__ZN7WebCore13CSSToStyleMap14mapFillRepeatXENS_13CSSPropertyIDEPNS_9FillLayerEPNS_8CSSValueE
__ZN7WebCore13CSSToStyleMap14mapFillRepeatYENS_13CSSPropertyIDEPNS_9FillLayerEPNS_8CSSValueE
__ZN7WebCore13StyleResolver16loadPendingImageEPNS_17StylePendingImageE
__ZN7WebCore13CSSImageValue11cachedImageEPNS_20CachedResourceLoaderE
__ZN7WebCore20CachedResourceLoader12requestImageERNS_21CachedResourceRequestE
__ZNK7WebCore21ContentSecurityPolicy20allowImageFromSourceERKNS_4KURLENS0_15ReportingStatusE
__ZN7WebCore21isAllowedByAllWithURLIXadL_ZNKS_16CSPDirectiveList20allowImageFromSourceERKNS_4KURLENS_21ContentSecurityPolicy15ReportingStatusEEEEEbRKN3WTF6VectorINS7_6OwnPtrIS1_EELm0ENS7_15CrashOnOverflowEEES4_S6_
__ZNK7WebCore19MixedContentChecker25canDisplayInsecureContentEPNS_14SecurityOriginERKNS_4KURLE
__ZN7WebCore14SecurityOrigin8isSecureERKNS_4KURLE
__ZN7WebCore14SchemeRegistry28shouldTreatURLSchemeAsSecureERKN3WTF6StringE
__ZN7WebCoreL13secureSchemesEv
__ZN7WebCore11CachedImageC1ERKNS_15ResourceRequestE
__ZN7WebCore11CachedImage4loadEPNS_20CachedResourceLoaderERKNS_21ResourceLoaderOptionsE
__ZN7WebCore16StyleCachedImageC1EPNS_11CachedImageE
__ZN7WebCore11CachedImage12didAddClientEPNS_20CachedResourceClientE
__ZN7WebCore17StylePendingImageD0Ev
__ZN7WebCore16StyleCachedImage9addClientEPNS_12RenderObjectE
__ZN7WebCore13StyledElement21styleAttributeChangedERKN3WTF12AtomicStringENS_7Element27AttributeModificationReasonE
__ZN7WebCore13StyledElement24setInlineStyleFromStringERKN3WTF12AtomicStringE
__ZN7WebCore9CSSParser27parseInlineStyleDeclarationERKN3WTF6StringEPNS_7ElementE
__ZN7WebCore8Document12elementSheetEv
__ZN7WebCore9CSSParser16parseDeclarationERKN3WTF6StringEPNS_18StyleSheetContentsE
__ZN7WebCore19ApplyPropertyLengthIXadL_ZNKS_11RenderStyle6heightEvEEXadL_ZNS1_9setHeightENS_6LengthEEEXadL_ZNS1_11initialSizeEvEELNS_10LengthAutoE1ELNS_21LengthLegacyIntrinsicE1ELNS_15LengthIntrinsicE0ELNS_10LengthNoneE0ELNS_15LengthUndefinedE0EE10applyValueENS_13CSSPropertyIDEPNS_13StyleResolverEPNS_8CSSValueE
__ZN7WebCore11RenderStyle9setHeightENS_6LengthE
__ZN7WebCore25HTMLFormattingElementList29closestElementInScopeWithNameERKN3WTF12AtomicStringE
__ZN7WebCore20HTMLConstructionSite23insertFormattingElementEPNS_15AtomicHTMLTokenE
__ZN7WebCoreL17anchorConstructorERKNS_13QualifiedNameEPNS_8DocumentEPNS_15HTMLFormElementEb
__ZN7WebCore17HTMLAnchorElement6createERKNS_13QualifiedNameEPNS_8DocumentE
__ZN7WebCore17HTMLAnchorElementC2ERKNS_13QualifiedNameEPNS_8DocumentE
__ZN7WebCore17HTMLAnchorElement14parseAttributeERKNS_13QualifiedNameERKN3WTF12AtomicStringE
__ZN7WebCore7Element17didAffectSelectorEi
__ZNK7WebCore16HTMLElementStack9topRecordEv
__ZN7WebCore25HTMLFormattingElementList6appendEN3WTF10PassRefPtrINS_13HTMLStackItemEEE
__ZN7WebCore25HTMLFormattingElementList23ensureNoahsArkConditionEPNS_13HTMLStackItemE
__ZN7WebCore25HTMLFormattingElementList35tryToEnsureNoahsArkConditionQuicklyEPNS_13HTMLStackItemERN3WTF6VectorIS2_Lm0ENS3_15CrashOnOverflowEEE
__ZN3WTF6VectorIN7WebCore25HTMLFormattingElementList5EntryELm0ENS_15CrashOnOverflowEE15reserveCapacityEm
__ZN7WebCore16VisitedLinkState26determineLinkStateSlowCaseEPNS_7ElementE
__ZN7WebCore15visitedLinkHashERKNS_4KURLERKN3WTF12AtomicStringE
__ZN3WTF9HashTableIyyNS_17IdentityExtractorEN7WebCore12LinkHashHashENS_10HashTraitsIyEES5_E3addINS_22IdentityHashTranslatorIS3_EEyyEENS_18HashTableAddResultINS_17HashTableIteratorIyyS1_S3_S5_S5_EEEERKT0_RKT1_
__ZN3WTF9HashTableIyyNS_17IdentityExtractorEN7WebCore12LinkHashHashENS_10HashTraitsIyEES5_E6rehashEi
__ZN7WebCore15SelectorCheckerC1EPNS_8DocumentENS0_4ModeE
__ZNK7WebCore15SelectorChecker5matchERKNS0_23SelectorCheckingContextERNS_8PseudoIdE
__ZNK7WebCore15SelectorChecker8checkOneERKNS0_23SelectorCheckingContextE
__ZN7WebCore11RenderStyle19setVisitedLinkColorERKNS_5ColorE
__ZN7WebCore27ApplyPropertyTextDecoration10applyValueENS_13CSSPropertyIDEPNS_13StyleResolverEPNS_8CSSValueE
__ZN7WebCore11RenderStyle17setTextDecorationENS_14TextDecorationE
__ZN7WebCore15StyleVisualDataC1ERKS0_
__ZN7WebCore15StyleVisualDataC2ERKS0_
__ZN7WebCore19ApplyPropertyCursor10applyValueENS_13CSSPropertyIDEPNS_13StyleResolverEPNS_8CSSValueE
__ZN7WebCore11RenderStyle15clearCursorListEv
__ZN7WebCore12RenderInlineC1EPNS_7ElementE
__ZN7WebCore12RenderInline14styleDidChangeENS_15StyleDifferenceEPKNS_11RenderStyleE
__ZN7WebCore12RenderInline15updateFromStyleEv
__ZNK7WebCore12RenderInline13requiresLayerEv
__ZNK7WebCore9LengthBox7nonZeroEv
__ZNK7WebCore12RenderInline15virtualChildrenEv
__ZN7WebCore11RenderBlock26dirtyLinesFromChangedChildEPNS_12RenderObjectE
__ZN7WebCore17RenderLineBoxList26dirtyLinesFromChangedChildEPNS_12RenderObjectES2_
__ZN7WebCore12RenderInline8addChildEPNS_12RenderObjectES2_
__ZN7WebCore12RenderInline28addChildIgnoringContinuationEPNS_12RenderObjectES2_
__ZN7WebCore11RenderStyle31createAnonymousStyleWithDisplayEPKS0_NS_8EDisplayE
__ZNK7WebCore12RenderInline14isRenderInlineEv
__ZN7WebCore11RenderBlock15createAnonymousEPNS_8DocumentE
__ZNK7WebCore12RenderObject12isListMarkerEv
__ZNK7WebCore12RenderObject18isRenderFullScreenEv
__ZNK7WebCore12RenderObject29isRenderFullScreenPlaceholderEv
__ZNK7WebCore12RenderObject19isRenderMathMLBlockEv
__ZN7WebCore20RenderBoxModelObject15setContinuationEPS0_
__ZN7WebCore12RenderInline9splitFlowEPNS_12RenderObjectEPNS_11RenderBlockES2_PNS_20RenderBoxModelObjectE
__ZN7WebCore11RenderBlock17deleteLineBoxTreeEv
__ZN7WebCore17RenderLineBoxList17deleteLineBoxTreeEPNS_11RenderArenaE
__ZN7WebCore11RenderBlock43createAnonymousWithParentRendererAndDisplayEPKNS_12RenderObjectENS_8EDisplayE
__ZNK7WebCore11RenderBlock32createAnonymousBoxWithSameTypeAsEPKNS_12RenderObjectE
__ZNK7WebCore12RenderObject23isAnonymousColumnsBlockEv
__ZNK7WebCore12RenderObject26isAnonymousColumnSpanBlockEv
__ZNK7WebCore12RenderObject17isSelectionBorderEv
__ZN7WebCore12RenderObject21willBeRemovedFromTreeEv
__ZN7WebCore12RenderObject24setNeedsBoundariesUpdateEv
__ZN7WebCore13RenderCounter23rendererRemovedFromTreeEPNS_12RenderObjectE
__ZN7WebCore12RenderInline12splitInlinesEPNS_11RenderBlockES2_S2_PNS_12RenderObjectEPNS_20RenderBoxModelObjectE
__ZNK7WebCore12RenderInline5cloneEv
__ZN3WTF9HashTableIPKN7WebCore20RenderBoxModelObjectENS_12KeyValuePairIS4_PS2_EENS_24KeyValuePairKeyExtractorIS7_EENS_7PtrHashIS4_EENS_18HashMapValueTraitsINS_10HashTraitsIS4_EENSD_IS6_EEEESE_E16lookupForWritingINS_22IdentityHashTranslatorISB_EES4_EENSt3__14pairIPS7_bEERKT0_
__ZN3WTF9HashTableIPKN7WebCore20RenderBoxModelObjectENS_12KeyValuePairIS4_PS2_EENS_24KeyValuePairKeyExtractorIS7_EENS_7PtrHashIS4_EENS_18HashMapValueTraitsINS_10HashTraitsIS4_EENSD_IS6_EEEESE_E3addINS_17HashMapTranslatorISG_SB_EES4_S6_EENS_18HashTableAddResultINS_17HashTableIteratorIS4_S7_S9_SB_SG_SE_EEEERKT0_RKT1_
__ZN3WTF9HashTableIPKN7WebCore20RenderBoxModelObjectENS_12KeyValuePairIS4_PS2_EENS_24KeyValuePairKeyExtractorIS7_EENS_7PtrHashIS4_EENS_18HashMapValueTraitsINS_10HashTraitsIS4_EENSD_IS6_EEEESE_E6lookupINS_22IdentityHashTranslatorISB_EES4_EEPS7_RKT0_
__ZN3WTF9HashTableIPKN7WebCore20RenderBoxModelObjectENS_12KeyValuePairIS4_PS2_EENS_24KeyValuePairKeyExtractorIS7_EENS_7PtrHashIS4_EENS_18HashMapValueTraitsINS_10HashTraitsIS4_EENSD_IS6_EEEESE_E6shrinkEv
__ZN7WebCore15HTMLTreeBuilder21callTheAdoptionAgencyEPNS_15AtomicHTMLTokenE
__ZNK7WebCore16HTMLElementStack8containsEPNS_7ElementE
__ZNK7WebCore16HTMLElementStack7inScopeEPNS_7ElementE
__ZNK7WebCore16HTMLElementStack4findEPNS_7ElementE
__ZNK7WebCore16HTMLElementStack33furthestBlockForFormattingElementEPNS_7ElementE
__ZN7WebCore16HTMLElementStack14popUntilPoppedEPNS_7ElementE
__ZN7WebCore25HTMLFormattingElementList6removeEPNS_7ElementE
__ZN3WTF6VectorIN7WebCore25HTMLFormattingElementList5EntryELm0ENS_15CrashOnOverflowEE6removeEm
__ZN7WebCore25HTMLFormattingElementList5EntryD2Ev
__ZNK7WebCore12RenderObject4isBREv
__ZN7WebCore23SelectorCheckerFastPathC1EPKNS_11CSSSelectorEPKNS_7ElementE
__ZNK7WebCore23SelectorCheckerFastPath7matchesEv
__ZN7WebCore20ApplyPropertyDefaultINS_6EFloatEXadL_ZNKS_11RenderStyle8floatingEvEES1_XadL_ZNS2_11setFloatingES1_EES1_XadL_ZNS2_15initialFloatingEvEEE10applyValueENS_13CSSPropertyIDEPNS_13StyleResolverEPNS_8CSSValueE
__ZN7WebCore23ApplyPropertyFontWeight10applyValueENS_13CSSPropertyIDEPNS_13StyleResolverEPNS_8CSSValueE
__ZN7WebCore11CSSProperty29resolveDirectionAwarePropertyENS_13CSSPropertyIDENS_13TextDirectionENS_11WritingModeE
__ZN7WebCore4Text18createTextRendererEPNS_11RenderArenaEPNS_11RenderStyleE
__ZN7WebCore10RenderTextC1EPNS_4NodeEN3WTF10PassRefPtrINS3_10StringImplEEE
__ZN7WebCore10RenderTextC2EPNS_4NodeEN3WTF10PassRefPtrINS3_10StringImplEEE
__ZN7WebCore10RenderText15styleWillChangeENS_15StyleDifferenceEPKNS_11RenderStyleE
__ZN7WebCore10RenderText14styleDidChangeENS_15StyleDifferenceEPKNS_11RenderStyleE
__ZNK7WebCore12TextEncoding25backslashAsCurrencySymbolEv
__ZNK7WebCore12RenderObject15virtualChildrenEv
__ZNK7WebCore11RenderStyle20hasUniquePseudoStyleEv
__ZNK7WebCore20HTMLParagraphElement23isPresentationAttributeERKNS_13QualifiedNameE
__ZN7WebCore9FrameView21setIsVisuallyNonEmptyEv
__ZNK7WebCore13StyleResolver52sharingCandidateHasIdenticalStyleAffectingAttributesEPNS_13StyledElementE
__ZNK7WebCore17CSSPrimitiveValue13computeLengthIiEET_PKNS_11RenderStyleES5_fb
__ZN7WebCore11RenderStyle12setBoxShadowEN3WTF10PassOwnPtrINS_10ShadowDataEEEb
__ZN7WebCore25StyleRareNonInheritedDataC1ERKS0_
__ZN7WebCore25StyleRareNonInheritedDataC2ERKS0_
__ZN7WebCore26ApplyPropertyComputeLengthIjXadL_ZNKS_11RenderStyle14borderTopWidthEvEEXadL_ZNS1_17setBorderTopWidthEjEEXadL_ZNS1_18initialBorderWidthEvEELNS_19ComputeLengthNormalE0ELNS_22ComputeLengthThicknessE1ELNS_20ComputeLengthSVGZoomE0EE10applyValueENS_13CSSPropertyIDEPNS_13StyleResolverEPNS_8CSSValueE
__ZNK7WebCore17CSSPrimitiveValue13computeLengthIjEET_PKNS_11RenderStyleES5_fb
__ZN7WebCore11RenderStyle17setBorderTopWidthEj
__ZN7WebCore26ApplyPropertyComputeLengthIjXadL_ZNKS_11RenderStyle16borderRightWidthEvEEXadL_ZNS1_19setBorderRightWidthEjEEXadL_ZNS1_18initialBorderWidthEvEELNS_19ComputeLengthNormalE0ELNS_22ComputeLengthThicknessE1ELNS_20ComputeLengthSVGZoomE0EE10applyValueENS_13CSSPropertyIDEPNS_13StyleResolverEPNS_8CSSValueE
__ZN7WebCore11RenderStyle19setBorderRightWidthEj
__ZN7WebCore26ApplyPropertyComputeLengthIjXadL_ZNKS_11RenderStyle17borderBottomWidthEvEEXadL_ZNS1_20setBorderBottomWidthEjEEXadL_ZNS1_18initialBorderWidthEvEELNS_19ComputeLengthNormalE0ELNS_22ComputeLengthThicknessE1ELNS_20ComputeLengthSVGZoomE0EE10applyValueENS_13CSSPropertyIDEPNS_13StyleResolverEPNS_8CSSValueE
__ZN7WebCore11RenderStyle20setBorderBottomWidthEj
__ZN7WebCore26ApplyPropertyComputeLengthIjXadL_ZNKS_11RenderStyle15borderLeftWidthEvEEXadL_ZNS1_18setBorderLeftWidthEjEEXadL_ZNS1_18initialBorderWidthEvEELNS_19ComputeLengthNormalE0ELNS_22ComputeLengthThicknessE1ELNS_20ComputeLengthSVGZoomE0EE10applyValueENS_13CSSPropertyIDEPNS_13StyleResolverEPNS_8CSSValueE
__ZN7WebCore11RenderStyle18setBorderLeftWidthEj
__ZN7WebCore20ApplyPropertyDefaultINS_12EBorderStyleEXadL_ZNKS_11RenderStyle14borderTopStyleEvEES1_XadL_ZNS2_17setBorderTopStyleES1_EES1_XadL_ZNS2_18initialBorderStyleEvEEE10applyValueENS_13CSSPropertyIDEPNS_13StyleResolverEPNS_8CSSValueE
__ZN7WebCore11RenderStyle17setBorderTopStyleENS_12EBorderStyleE
__ZN7WebCore20ApplyPropertyDefaultINS_12EBorderStyleEXadL_ZNKS_11RenderStyle16borderRightStyleEvEES1_XadL_ZNS2_19setBorderRightStyleES1_EES1_XadL_ZNS2_18initialBorderStyleEvEEE10applyValueENS_13CSSPropertyIDEPNS_13StyleResolverEPNS_8CSSValueE
__ZN7WebCore11RenderStyle19setBorderRightStyleENS_12EBorderStyleE
__ZN7WebCore20ApplyPropertyDefaultINS_12EBorderStyleEXadL_ZNKS_11RenderStyle17borderBottomStyleEvEES1_XadL_ZNS2_20setBorderBottomStyleES1_EES1_XadL_ZNS2_18initialBorderStyleEvEEE10applyValueENS_13CSSPropertyIDEPNS_13StyleResolverEPNS_8CSSValueE
__ZN7WebCore11RenderStyle20setBorderBottomStyleENS_12EBorderStyleE
__ZN7WebCore20ApplyPropertyDefaultINS_12EBorderStyleEXadL_ZNKS_11RenderStyle15borderLeftStyleEvEES1_XadL_ZNS2_18setBorderLeftStyleES1_EES1_XadL_ZNS2_18initialBorderStyleEvEEE10applyValueENS_13CSSPropertyIDEPNS_13StyleResolverEPNS_8CSSValueE
__ZN7WebCore11RenderStyle18setBorderLeftStyleENS_12EBorderStyleE
__ZN7WebCore11RenderStyle17setBorderTopColorERKNS_5ColorE
__ZN7WebCore11RenderStyle19setBorderRightColorERKNS_5ColorE
__ZN7WebCore11RenderStyle20setBorderBottomColorERKNS_5ColorE
__ZN7WebCore11RenderStyle18setBorderLeftColorERKNS_5ColorE
__ZN7WebCore11RenderStyle20setBorderImageSourceEN3WTF10PassRefPtrINS_10StyleImageEEE
__ZN7WebCore32ApplyPropertyBorderImageModifierILNS_15BorderImageTypeE0ELNS_23BorderImageModifierTypeE2EE17applyInitialValueENS_13CSSPropertyIDEPNS_13StyleResolverE
__ZN7WebCore14NinePieceImage14setImageSlicesERKNS_9LengthBoxE
__ZN7WebCore11RenderStyle14setBorderImageERKNS_14NinePieceImageE
__ZNK7WebCore18NinePieceImageDataeqERKS0_
__ZN7WebCore18NinePieceImageDataD2Ev
__ZN7WebCore32ApplyPropertyBorderImageModifierILNS_15BorderImageTypeE0ELNS_23BorderImageModifierTypeE3EE17applyInitialValueENS_13CSSPropertyIDEPNS_13StyleResolverE
__ZN7WebCore14NinePieceImage15setBorderSlicesERKNS_9LengthBoxE
__ZN7WebCore32ApplyPropertyBorderImageModifierILNS_15BorderImageTypeE0ELNS_23BorderImageModifierTypeE0EE17applyInitialValueENS_13CSSPropertyIDEPNS_13StyleResolverE
__ZN7WebCore14NinePieceImage9setOutsetERKNS_9LengthBoxE
__ZN7WebCore32ApplyPropertyBorderImageModifierILNS_15BorderImageTypeE0ELNS_23BorderImageModifierTypeE1EE17applyInitialValueENS_13CSSPropertyIDEPNS_13StyleResolverE
__ZN7WebCore25ApplyPropertyBorderRadiusIXadL_ZNKS_11RenderStyle19borderTopLeftRadiusEvEEXadL_ZNS1_22setBorderTopLeftRadiusENS_10LengthSizeEEEXadL_ZNS1_19initialBorderRadiusEvEEE10applyValueENS_13CSSPropertyIDEPNS_13StyleResolverEPNS_8CSSValueE
__ZN7WebCore25ApplyPropertyBorderRadiusIXadL_ZNKS_11RenderStyle19borderTopLeftRadiusEvEEXadL_ZNS1_22setBorderTopLeftRadiusENS_10LengthSizeEEEXadL_ZNS1_19initialBorderRadiusEvEEE8setValueEPS1_S2_
__ZN7WebCore11RenderStyle22setBorderTopLeftRadiusENS_10LengthSizeE
__ZN7WebCore25ApplyPropertyBorderRadiusIXadL_ZNKS_11RenderStyle20borderTopRightRadiusEvEEXadL_ZNS1_23setBorderTopRightRadiusENS_10LengthSizeEEEXadL_ZNS1_19initialBorderRadiusEvEEE10applyValueENS_13CSSPropertyIDEPNS_13StyleResolverEPNS_8CSSValueE
__ZN7WebCore25ApplyPropertyBorderRadiusIXadL_ZNKS_11RenderStyle20borderTopRightRadiusEvEEXadL_ZNS1_23setBorderTopRightRadiusENS_10LengthSizeEEEXadL_ZNS1_19initialBorderRadiusEvEEE8setValueEPS1_S2_
__ZN7WebCore11RenderStyle23setBorderTopRightRadiusENS_10LengthSizeE
__ZN7WebCore25ApplyPropertyBorderRadiusIXadL_ZNKS_11RenderStyle23borderBottomRightRadiusEvEEXadL_ZNS1_26setBorderBottomRightRadiusENS_10LengthSizeEEEXadL_ZNS1_19initialBorderRadiusEvEEE10applyValueENS_13CSSPropertyIDEPNS_13StyleResolverEPNS_8CSSValueE
__ZN7WebCore25ApplyPropertyBorderRadiusIXadL_ZNKS_11RenderStyle23borderBottomRightRadiusEvEEXadL_ZNS1_26setBorderBottomRightRadiusENS_10LengthSizeEEEXadL_ZNS1_19initialBorderRadiusEvEEE8setValueEPS1_S2_
__ZN7WebCore11RenderStyle26setBorderBottomRightRadiusENS_10LengthSizeE
__ZN7WebCore25ApplyPropertyBorderRadiusIXadL_ZNKS_11RenderStyle22borderBottomLeftRadiusEvEEXadL_ZNS1_25setBorderBottomLeftRadiusENS_10LengthSizeEEEXadL_ZNS1_19initialBorderRadiusEvEEE10applyValueENS_13CSSPropertyIDEPNS_13StyleResolverEPNS_8CSSValueE
__ZN7WebCore25ApplyPropertyBorderRadiusIXadL_ZNKS_11RenderStyle22borderBottomLeftRadiusEvEEXadL_ZNS1_25setBorderBottomLeftRadiusENS_10LengthSizeEEEXadL_ZNS1_19initialBorderRadiusEvEEE8setValueEPS1_S2_
__ZN7WebCore11RenderStyle25setBorderBottomLeftRadiusENS_10LengthSizeE
__ZN7WebCore12RenderInline15virtualChildrenEv
__ZN7WebCore12RenderInline26dirtyLinesFromChangedChildEPNS_12RenderObjectE
__ZNK7WebCore12RenderObject13isRenderBlockEv
__ZN7WebCore12RenderObject23setAncestorLineBoxDirtyEb
__ZN3WTF9HashTableIPKN7WebCore12RenderObjectES4_NS_17IdentityExtractorENS_7PtrHashIS4_EENS_10HashTraitsIS4_EES9_E3addINS_22IdentityHashTranslatorIS7_EES4_S4_EENS_18HashTableAddResultINS_17HashTableIteratorIS4_S4_S5_S7_S9_S9_EEEERKT0_RKT1_
__ZN3WTF9HashTableIPKN7WebCore12RenderObjectES4_NS_17IdentityExtractorENS_7PtrHashIS4_EENS_10HashTraitsIS4_EES9_E6rehashEi
__ZN3WTF9HashTableIPKN7WebCore12RenderObjectES4_NS_17IdentityExtractorENS_7PtrHashIS4_EENS_10HashTraitsIS4_EES9_E6lookupINS_22IdentityHashTranslatorIS7_EES4_EEPS4_RKT0_
__ZNK7WebCore12RenderInline24culledInlineFirstLineBoxEv
__ZN7WebCore15HTMLTreeBuilder19processFakeStartTagERKNS_13QualifiedNameERKN3WTF6VectorINS_9AttributeELm0ENS4_15CrashOnOverflowEEE
__ZN7WebCore13StyleResolver35styleSharingCandidateMatchesRuleSetEPNS_7RuleSetE
__ZN7WebCore20ElementRuleCollector19hasAnyMatchingRulesEPNS_7RuleSetE
__ZN7WebCore11RenderStyle20copyNonInheritedFromEPKS0_
__ZNK7WebCore11RenderStyle19inheritedDataSharedEPKS0_
__ZN3WTF9HashTableIyyNS_17IdentityExtractorEN7WebCore12LinkHashHashENS_10HashTraitsIyEES5_E4findINS_22IdentityHashTranslatorIS3_EEyEENS_17HashTableIteratorIyyS1_S3_S5_S5_EERKT0_
__ZN3WTF9HashTableIPKN7WebCore12RenderObjectES4_NS_17IdentityExtractorENS_7PtrHashIS4_EENS_10HashTraitsIS4_EES9_E16lookupForWritingINS_22IdentityHashTranslatorIS7_EES4_EENSt3__14pairIPS4_bEERKT0_
__ZN7WebCoreL13hrConstructorERKNS_13QualifiedNameEPNS_8DocumentEPNS_15HTMLFormElementEb
__ZN7WebCore13HTMLHRElement6createERKNS_13QualifiedNameEPNS_8DocumentE
__ZN7WebCore13HTMLHRElementC2ERKNS_13QualifiedNameEPNS_8DocumentE
__ZN7WebCoreL16olistConstructorERKNS_13QualifiedNameEPNS_8DocumentEPNS_15HTMLFormElementEb
__ZN7WebCore16HTMLOListElement6createERKNS_13QualifiedNameEPNS_8DocumentE
__ZN7WebCore16HTMLOListElementC2ERKNS_13QualifiedNameEPNS_8DocumentE
__ZN7WebCore20ApplyPropertyDefaultINS_14EListStyleTypeEXadL_ZNKS_11RenderStyle13listStyleTypeEvEES1_XadL_ZNS2_16setListStyleTypeES1_EES1_XadL_ZNS2_20initialListStyleTypeEvEEE10applyValueENS_13CSSPropertyIDEPNS_13StyleResolverEPNS_8CSSValueE
__ZN7WebCore20ApplyPropertyDefaultINS_18EListStylePositionEXadL_ZNKS_11RenderStyle17listStylePositionEvEES1_XadL_ZNS2_20setListStylePositionES1_EES1_XadL_ZNS2_24initialListStylePositionEvEEE10applyValueENS_13CSSPropertyIDEPNS_13StyleResolverEPNS_8CSSValueE
__ZNK7WebCore13HTMLStackItem13isSpecialNodeEv
__ZN7WebCoreL13liConstructorERKNS_13QualifiedNameEPNS_8DocumentEPNS_15HTMLFormElementEb
__ZN7WebCore13HTMLLIElement6createERKNS_13QualifiedNameEPNS_8DocumentE
__ZN7WebCore13HTMLLIElementC2ERKNS_13QualifiedNameEPNS_8DocumentE
__ZN7WebCore13HTMLLIElement6attachERKNS_4Node13AttachContextE
__ZN7WebCore14RenderListItemC1EPNS_7ElementE
__ZN7WebCore14RenderListItem14styleDidChangeENS_15StyleDifferenceEPKNS_11RenderStyleE
__ZN7WebCore16RenderListMarker15createAnonymousEPNS_14RenderListItemE
__ZN7WebCore16RenderListMarker15styleWillChangeENS_15StyleDifferenceEPKNS_11RenderStyleE
__ZN7WebCore16RenderListMarker14styleDidChangeENS_15StyleDifferenceEPKNS_11RenderStyleE
__ZNK7WebCore11RenderStyle14listStyleImageEv
__ZN7WebCore14RenderListItem16insertedIntoTreeEv
__ZN7WebCore14RenderListItem23updateListMarkerNumbersEv
__ZN7WebCoreL12nextListItemEPKNS_4NodeEPKNS_14RenderListItemE
__ZN7WebCore13NodeTraversal19nextIncludingPseudoEPKNS_4NodeES3_
__ZNK7WebCore4Node21pseudoAwareFirstChildEv
__ZNK7WebCore7Element13pseudoElementENS_8PseudoIdE
__ZNK7WebCore4Node22pseudoAwareNextSiblingEv
__ZNK7WebCore14RenderListItem10isListItemEv
__ZN7WebCore14RenderListItem18clearExplicitValueEv
__ZNK7WebCore16HTMLElementStack15inListItemScopeERKN3WTF12AtomicStringE
__ZN7WebCore13CharacterData16parserAppendDataERKN3WTF6StringEjj
__ZN7WebCore4Text18updateTextRendererEjj
-[WebCoreResourceHandleAsDelegate connection:willCacheResponse:]
-[WebCoreResourceHandleAsDelegate connectionDidFinishLoading:]
__ZN7WebCore14ResourceLoader16didFinishLoadingEPNS_14ResourceHandleEd
__ZN7WebCore21ResourceLoadScheduler20servePendingRequestsENS_20ResourceLoadPriorityE
__ZN3WTF6VectorIPN7WebCore21ResourceLoadScheduler15HostInformationELm0ENS_15CrashOnOverflowEE14expandCapacityEmPKS4_
__ZN3WTF6VectorIPN7WebCore21ResourceLoadScheduler15HostInformationELm0ENS_15CrashOnOverflowEE15reserveCapacityEm
__ZN7WebCore21ResourceLoadScheduler6removeEPNS_14ResourceLoaderE
__ZN7WebCore21ResourceLoadScheduler15HostInformation6removeEPNS_14ResourceLoaderE
__ZN7WebCore14ResourceHandle9setClientEPNS_20ResourceHandleClientE
-[WebCoreResourceHandleAsDelegate detachHandle]
__ZN7WebCore5TimerINS_11EventSenderINS_16HTMLStyleElementEEEE5firedEv
__ZN7WebCore11EventSenderINS_16HTMLStyleElementEE10timerFiredEPNS_5TimerIS2_EE
__ZN7WebCore16HTMLStyleElement20dispatchPendingEventEPNS_11EventSenderIS0_EE
__ZN7WebCore5TimerINS_20CachedResourceLoaderEE5firedEv
__ZN7WebCore20CachedResourceLoader41garbageCollectDocumentResourcesTimerFiredEPNS_5TimerIS0_EE
__ZN7WebCore20CachedResourceLoader31garbageCollectDocumentResourcesEv
__ZN7WebCore5TimerINS_21ResourceLoadSchedulerEE5firedEv
__ZN7WebCore21ResourceLoadScheduler17requestTimerFiredEPNS_5TimerIS0_EE
__ZN3WTF7HashMapINS_6StringEPN7WebCore21ResourceLoadScheduler15HostInformationENS_10StringHashENS_10HashTraitsIS1_EENS7_IS5_EEE4takeERKS1_
__ZN7WebCore21ResourceLoadScheduler15HostInformationD2Ev
__ZN3WTF5DequeINS_6RefPtrIN7WebCore14ResourceLoaderEEELm0EE10destroyAllEv
__ZN7WebCore4Page27privateBrowsingStateChangedEv
__ZN7WebCore8Document29privateBrowsingStateDidChangeEv
__ZN7WebCore11CachedImage16responseReceivedERKNS_16ResourceResponseE
__ZN7WebCore11CachedImage13addDataBufferEPNS_14ResourceBufferE
__ZN7WebCore11CachedImage24addIncrementalDataBufferEPNS_14ResourceBufferE
__ZN7WebCore11CachedImage11createImageEv
__ZNK7WebCore5Image17usesContainerSizeEv
__ZThn816_N7WebCore11CachedImage18decodedSizeChangedEPKNS_5ImageEi
__ZN7WebCore14CachedResource14setDecodedSizeEj
__ZN7WebCore11MemoryCache32insertInLiveDecodedResourcesListEPNS_14CachedResourceE
__ZNK7WebCore11CachedImage10canBeDrawnEv
__ZNK7WebCore11BitmapImage4sizeEv
__ZNK7WebCore11BitmapImage10updateSizeEv
__ZNK7WebCore11ImageSource4sizeENS_27RespectImageOrientationEnumE
__ZN7WebCore11CachedImage15notifyObserversEPKNS_7IntRectE
__ZN7WebCore26CachedResourceClientWalkerINS_17CachedImageClientEEC2ERKN3WTF14HashCountedSetIPNS_20CachedResourceClientENS3_7PtrHashIS6_EENS3_10HashTraitsIS6_EEEE
__ZN7WebCore17CachedImageClient12imageChangedEPNS_11CachedImageEPKNS_7IntRectE
__ZN7WebCore12RenderObject12imageChangedEPNS_11CachedImageEPKNS_7IntRectE
__ZN7WebCore9RenderBox12imageChangedEPvPKNS_7IntRectE
__ZN7WebCore9RenderBox25repaintLayerRectsForImageEPvPKNS_9FillLayerEb
__ZNK7WebCore16StyleCachedImage4dataEv
__ZNK7WebCore16StyleCachedImage9canRenderEPKNS_12RenderObjectEf
__ZN7WebCore11CachedImage20imageSizeForRendererEPKNS_12RenderObjectEf
__ZNK7WebCore11BitmapImage13isBitmapImageEv
__ZNK7WebCore12RenderObject29shouldRespectImageOrientationEv
__ZNK7WebCore5Image10isSVGImageEv
__ZNK7WebCore20RenderBoxModelObject32calculateBackgroundImageGeometryEPKNS_22RenderLayerModelObjectEPKNS_9FillLayerERKNS_10LayoutRectERNS0_23BackgroundImageGeometryEPNS_12RenderObjectE
__ZNK7WebCore20RenderBoxModelObject21calculateFillTileSizeEPKNS_9FillLayerERKNS_7IntSizeE
__ZNK7WebCore9FillLayer4sizeEv
__ZNK7WebCore20RenderBoxModelObject33calculateImageIntrinsicDimensionsEPNS_10StyleImageERKNS_7IntSizeENS0_25ScaleByEffectiveZoomOrNotE
__ZN7WebCore16StyleCachedImage26computeIntrinsicDimensionsEPKNS_12RenderObjectERNS_6LengthES5_RNS_9FloatSizeE
__ZN7WebCore11CachedImage26computeIntrinsicDimensionsERNS_6LengthES2_RNS_9FloatSizeE
__ZN7WebCore5Image26computeIntrinsicDimensionsERNS_6LengthES2_RNS_9FloatSizeE
__ZNK7WebCore10StyleImage16imageScaleFactorEv
__ZN7WebCore16StyleCachedImage27setContainerSizeForRendererEPKNS_12RenderObjectERKNS_7IntSizeEf
__ZN7WebCore11CachedImage27setContainerSizeForRendererEPKNS_17CachedImageClientERKNS_7IntSizeEf
__ZN7WebCore5Image16setContainerSizeERKNS_7IntSizeE
__ZNK7WebCore12RenderObject16repaintRectangleERKNS_10LayoutRectEb
__ZN7WebCore14ResourceLoader17willCacheResponseEPNS_14ResourceHandleEP19NSCachedURLResponse
__ZN7WebCore11CachedImage13finishLoadingEPNS_14ResourceBufferE
__ZN7WebCore20CachedResourceClient14notifyFinishedEPNS_14CachedResourceE
__ZN7WebCore17isMatchingElementINS_14HTMLCollectionEEEbPKT_PNS_7ElementE
__ZNK7WebCore16LiveNodeListBase27itemBeforeOrAfterCachedItemEjPNS_13ContainerNodeE
__ZNK7WebCore14HTMLCollection23traverseForwardToOffsetEjPNS_7ElementERjS3_PNS_13ContainerNodeE
__ZN7WebCore13NodeTraversal19nextAncestorSiblingEPKNS_4NodeES3_
__ZNK7WebCore15HTMLLinkElement8iconTypeEv
__ZNK7WebCore15HTMLLinkElement4hrefEv
__ZNK7WebCore15HTMLLinkElement9iconSizesEv
__ZNK7WebCore15HTMLLinkElement4typeEv
__ZN3WTF6VectorIN7WebCore7IconURLELm0ENS_15CrashOnOverflowEE14appendSlowCaseIS2_EEvRKT_
__ZN3WTF6VectorIN7WebCore7IconURLELm0ENS_15CrashOnOverflowEE14expandCapacityEmPKS2_
__ZN3WTF6VectorIN7WebCore7IconURLELm0ENS_15CrashOnOverflowEE15reserveCapacityEm
__ZN3WTF20VectorTypeOperationsIN7WebCore7IconURLEE4moveEPKS2_S5_PS2_
__ZN7WebCore7IconURLaSERKS0_
__ZN7WebCoreeqERKNS_7IconURLES2_
__ZN7WebCore14DocumentLoader29getIconLoadDecisionForIconURLERKN3WTF6StringE
__ZNK7WebCore11FrameLoader14initialRequestEv
__ZNK7WebCore12RenderObject12isRenderGridEv
__ZN7WebCore12RenderInline27updateAlwaysCreateLineBoxesEb
__ZNK7WebCore11RenderStyle16textEmphasisMarkEv
__ZN7WebCore9FontCache11getFontDataERKNS_15FontDescriptionERiPNS_12FontSelectorE
__ZN7WebCore15CSSFontSelector11getFontDataERKNS_15FontDescriptionERKN3WTF12AtomicStringE
__ZN7WebCore9FontCache25getCachedFontPlatformDataERKNS_15FontDescriptionERKN3WTF12AtomicStringEb
__ZN7WebCore9FontCache12platformInitEv
__ZN3WTF9HashTableIN7WebCore24FontPlatformDataCacheKeyENS_12KeyValuePairIS2_NS_6OwnPtrINS1_16FontPlatformDataEEEEENS_24KeyValuePairKeyExtractorIS7_EENS1_28FontPlatformDataCacheKeyHashENS_18HashMapValueTraitsINS1_30FontPlatformDataCacheKeyTraitsENS_10HashTraitsIS6_EEEESC_E15deallocateTableEPS7_i
__ZN3WTF9HashTableIN7WebCore24FontPlatformDataCacheKeyENS_12KeyValuePairIS2_NS_6OwnPtrINS1_16FontPlatformDataEEEEENS_24KeyValuePairKeyExtractorIS7_EENS1_28FontPlatformDataCacheKeyHashENS_18HashMapValueTraitsINS1_30FontPlatformDataCacheKeyTraitsENS_10HashTraitsIS6_EEEESC_E16lookupForWritingINS_22IdentityHashTranslatorISA_EES2_EENSt3__14pairIPS7_bEERKT0_
__ZN3WTF9HashTableIN7WebCore24FontPlatformDataCacheKeyENS_12KeyValuePairIS2_NS_6OwnPtrINS1_16FontPlatformDataEEEEENS_24KeyValuePairKeyExtractorIS7_EENS1_28FontPlatformDataCacheKeyHashENS_18HashMapValueTraitsINS1_30FontPlatformDataCacheKeyTraitsENS_10HashTraitsIS6_EEEESC_E34removeWithoutEntryConsistencyCheckENS_17HashTableIteratorIS2_S7_S9_SA_SF_SC_EE
__ZN3WTF9HashTableIN7WebCore24FontPlatformDataCacheKeyENS_12KeyValuePairIS2_NS_6OwnPtrINS1_16FontPlatformDataEEEEENS_24KeyValuePairKeyExtractorIS7_EENS1_28FontPlatformDataCacheKeyHashENS_18HashMapValueTraitsINS1_30FontPlatformDataCacheKeyTraitsENS_10HashTraitsIS6_EEEESC_E3addINS_17HashMapTranslatorISF_SA_EES2_NS_10PassOwnPtrIS5_EEEENS_18HashTableAddResultINS_17HashTableIteratorIS2_S7_S9_SA_SF_SC_EEEERKT0_RKT1_
__ZN3WTF9HashTableIN7WebCore24FontPlatformDataCacheKeyENS_12KeyValuePairIS2_NS_6OwnPtrINS1_16FontPlatformDataEEEEENS_24KeyValuePairKeyExtractorIS7_EENS1_28FontPlatformDataCacheKeyHashENS_18HashMapValueTraitsINS1_30FontPlatformDataCacheKeyTraitsENS_10HashTraitsIS6_EEEESC_E6lookupINS_22IdentityHashTranslatorISA_EES2_EEPS7_RKT0_
__ZN3WTF9HashTableIN7WebCore24FontPlatformDataCacheKeyENS_12KeyValuePairIS2_NS_6OwnPtrINS1_16FontPlatformDataEEEEENS_24KeyValuePairKeyExtractorIS7_EENS1_28FontPlatformDataCacheKeyHashENS_18HashMapValueTraitsINS1_30FontPlatformDataCacheKeyTraitsENS_10HashTraitsIS6_EEEESC_E6rehashEi
__ZN7WebCore9FontCache22createFontPlatformDataERKNS_15FontDescriptionERKN3WTF12AtomicStringE
+[WebFontCache fontWithFamily:traits:weight:size:]
+[WebFontCache internalFontWithFamily:traits:weight:size:]
__ZNK7WebCore14SimpleFontData9isLoadingEv
__ZNK7WebCore11FontMetrics35hasIdenticalAscentDescentAndLineGapERKS0_
__ZNK7WebCore11RenderStyle10lineHeightEv
__ZN7WebCore12RenderInline14dirtyLineBoxesEb
__ZN3WTF7HashSetIPKN7WebCore12RenderObjectENS_7PtrHashIS4_EENS_10HashTraitsIS4_EEE6removeERKS4_
__ZN7WebCore11RenderBlock19layoutRunsAndFloatsERNS_15LineLayoutStateEb
__ZN7WebCore11RenderBlock22determineStartPositionERNS_15LineLayoutStateERNS_12BidiResolverINS_14InlineIteratorENS_7BidiRunEEE
__ZN7WebCore10BidiStatusC2ENS_13TextDirectionEb
__ZN7WebCore11BidiContext6createEhN3WTF7Unicode9DirectionEbNS_19BidiEmbeddingSourceEPS0_
__ZN3WTF6RefPtrIN7WebCore11BidiContextEED1Ev
__ZN7WebCoreL29bidiFirstSkippingEmptyInlinesEPNS_12RenderObjectEPNS_12BidiResolverINS_14InlineIteratorENS_7BidiRunEEE
__ZN7WebCore12BidiResolverINS_14InlineIteratorENS_7BidiRunEE23commitExplicitEmbeddingEv
__ZN7WebCore11RenderBlock26layoutRunsAndFloatsInRangeERNS_15LineLayoutStateERNS_12BidiResolverINS_14InlineIteratorENS_7BidiRunEEERKS4_RKNS_10BidiStatusEj
__ZN7WebCore11RenderBlock36updateShapeAndSegmentsForCurrentLineERPNS_15ShapeInsideInfoERNS_10LayoutUnitERNS_15LineLayoutStateE
__ZN7WebCore11RenderBlock11LineBreaker13nextLineBreakERNS_12BidiResolverINS_14InlineIteratorENS_7BidiRunEEERNS_8LineInfoERNS0_14RenderTextInfoEPNS0_14FloatingObjectEjRN3WTF6VectorINS_15WordMeasurementELm64ENSD_15CrashOnOverflowEEE
__ZN7WebCore11RenderBlock11LineBreaker16nextSegmentBreakERNS_12BidiResolverINS_14InlineIteratorENS_7BidiRunEEERNS_8LineInfoERNS0_14RenderTextInfoEPNS0_14FloatingObjectEjRN3WTF6VectorINS_15WordMeasurementELm64ENSD_15CrashOnOverflowEEE
__ZN7WebCore9LineWidthC2EPNS_11RenderBlockEbNS_15IndentTextOrNotE
__ZN7WebCore9LineWidth20updateAvailableWidthENS_10LayoutUnitE
__ZNK7WebCore11RenderBlock10lineHeightEbNS_17LineDirectionModeENS_16LinePositionModeE
__ZNK7WebCore11RenderStyle18computedLineHeightEPNS_10RenderViewE
__ZNK7WebCore11RenderBlock19regionAtBlockOffsetENS_10LayoutUnitE
__ZNK7WebCore11RenderBlock27logicalLeftOffsetForContentEPNS_12RenderRegionE
__ZNK7WebCore11RenderBlock24logicalLeftOffsetForLineENS_10LayoutUnitES1_bPS1_S1_NS_27ShapeOutsideFloatOffsetModeE
__ZNK7WebCore11RenderBlock28logicalRightOffsetForContentEPNS_12RenderRegionE
__ZNK7WebCore11RenderBlock25logicalRightOffsetForLineENS_10LayoutUnitES1_bPS1_S1_NS_27ShapeOutsideFloatOffsetModeE
__ZN7WebCore11RenderBlock11LineBreaker21skipLeadingWhitespaceERNS_12BidiResolverINS_14InlineIteratorENS_7BidiRunEEERNS_8LineInfoEPNS0_14FloatingObjectERNS_9LineWidthE
__ZN7WebCoreL15requiresLineBoxERKNS_14InlineIteratorERKNS_8LineInfoENS_18WhitespacePositionE
__ZN7WebCoreL21alwaysRequiresLineBoxEPNS_12RenderObjectE
__ZNK7WebCore12RenderInline11marginStartEPKNS_11RenderStyleE
__ZN7WebCoreL13computeMarginEPKNS_12RenderInlineERKNS_6LengthE
__ZNK7WebCore12RenderInline25inlineElementContinuationEv
__ZNK7WebCore11RenderBlock25inlineElementContinuationEv
__ZN7WebCoreL25requiresLineBoxForContentEPNS_12RenderInlineERKNS_8LineInfoE
__ZN7WebCore11RenderBlock14RenderTextInfoD2Ev
__ZN3WTF14deleteOwnedPtrIN7WebCore10TextLayoutEEEvPT_
__ZN7WebCore4Font12deleteLayoutEPNS_10TextLayoutE
__ZN7WebCore11RenderBlock21linkToEndLineIfNeededERNS_15LineLayoutStateE
__ZN7WebCore11RenderBlock18repaintDirtyFloatsERN3WTF6VectorINS0_13FloatWithRectELm0ENS1_15CrashOnOverflowEEE
__ZN7WebCore11RenderBlock24setMaxMarginBeforeValuesENS_10LayoutUnitES1_
__ZN7WebCore11RenderBlock23setMaxMarginAfterValuesENS_10LayoutUnitES1_
__ZNK7WebCore11RenderBlock11isBlockFlowEv
__ZNK7WebCore12RenderInline9marginEndEPKNS_11RenderStyleE
__ZNK7WebCore12RenderObject9isCounterEv
__ZN7WebCore10RenderText14dirtyLineBoxesEb
__ZNK7WebCore12RenderObject15isSVGInlineTextEv
__ZNK7WebCore10FontGlyphs14determinePitchERKNS_15FontDescriptionE
__ZNK7WebCore11RenderStyle11wordSpacingEv
__ZN7WebCoreL18inlineLogicalWidthEPNS_12RenderObjectEbb
__ZNK7WebCore10RenderText11isWordBreakEv
__ZNK7WebCore4Font12createLayoutEPNS_10RenderTextEfb
__ZN7WebCore11RenderBlock16constructTextRunEPNS_12RenderObjectERKNS_4FontEPKNS_10RenderTextEPNS_11RenderStyleEj
__ZNK7WebCore4Font8codePathERKNS_7TextRunE
__ZN7WebCore21LazyLineBreakIterator29resetStringAndReleaseIteratorEN3WTF6StringERKNS1_12AtomicStringE
__ZN7WebCore11RenderBlock16constructTextRunEPNS_12RenderObjectERKNS_4FontEPKtiPNS_11RenderStyleEj
__ZN7WebCore33nextBreakablePositionIgnoringNBSPERNS_21LazyLineBreakIteratorEi
__ZN7WebCore11RenderBlock16constructTextRunEPNS_12RenderObjectERKNS_4FontEPKNS_10RenderTextEjjPNS_11RenderStyleEj
__ZN7WebCore13WidthIterator15advanceInternalINS_18Latin1TextIteratorEEEjRT_PNS_11GlyphBufferE
__ZN7WebCore15TrailingObjects31updateMidpointsForTrailingBoxesERNS_13MidpointStateINS_14InlineIteratorEEERKS2_NS0_23CollapseFirstSpaceOrNotE
__ZN7WebCore11RenderBlock44adjustLogicalLineTopAndLogicalHeightIfNeededEPNS_15ShapeInsideInfoENS_10LayoutUnitERNS_15LineLayoutStateERNS_12BidiResolverINS_14InlineIteratorENS_7BidiRunEEEPNS0_14FloatingObjectERS7_RN3WTF6VectorINS_15WordMeasurementELm64ENSE_15CrashOnOverflowEEE
__ZN7WebCoreL27constructBidiRunsForSegmentERNS_12BidiResolverINS_14InlineIteratorENS_7BidiRunEEERNS_11BidiRunListIS2_EERKS1_NS_23VisualDirectionOverrideEb
__ZN7WebCore12BidiResolverINS_14InlineIteratorENS_7BidiRunEE21createBidiRunsForLineERKS1_NS_23VisualDirectionOverrideEb
__ZN7WebCore12BidiResolverINS_14InlineIteratorENS_7BidiRunEE9appendRunEv
__ZNK7WebCore10RenderText6lengthEv
__ZN7WebCore11RenderBlock19appendRunsForObjectERNS_11BidiRunListINS_7BidiRunEEEiiPNS_12RenderObjectERNS_12BidiResolverINS_14InlineIteratorES2_EE
__ZN7WebCore7BidiRunnwEmPNS_11RenderArenaE
__ZN7WebCoreL14bidiNextSharedINS_12BidiResolverINS_14InlineIteratorENS_7BidiRunEEEEEPNS_12RenderObjectES6_S6_PT_NS_19EmptyInlineBehaviorEPb
__ZN7WebCoreL14bidiNextSharedINS_12BidiResolverINS_14InlineIteratorENS_7BidiRunEEEEEPNS_12RenderObjectES6_S6_PT_NS_19EmptyInlineBehaviorEPb
__ZN7WebCore12BidiResolverINS_14InlineIteratorENS_7BidiRunEE21reorderRunsFromLevelsEv
__ZN7WebCore11RenderBlock20handleTrailingSpacesERNS_11BidiRunListINS_7BidiRunEEEPNS_11BidiContextE
__ZN7WebCore11RenderBlock27createLineBoxesFromBidiRunsERNS_11BidiRunListINS_7BidiRunEEERKNS_14InlineIteratorERNS_8LineInfoERNS_21VerticalPositionCacheEPS2_RN3WTF6VectorINS_15WordMeasurementELm64ENSD_15CrashOnOverflowEEE
__ZN7WebCore11RenderBlock13constructLineERNS_11BidiRunListINS_7BidiRunEEERKNS_8LineInfoE
__ZN7WebCore10RenderText19createInlineTextBoxEv
__ZN7WebCore10RenderText13createTextBoxEv
__ZN7WebCore9InlineBoxnwEmPNS_11RenderArenaE
__ZN7WebCore11RenderBlock15createLineBoxesEPNS_12RenderObjectERKNS_8LineInfoEPNS_9InlineBoxEb
__ZN7WebCore11RenderBlock28createAndAppendRootInlineBoxEv
__ZN7WebCore11RenderBlock19createRootInlineBoxEv
__ZN7WebCore13RootInlineBoxC1EPNS_11RenderBlockE
__ZN7WebCore17RenderLineBoxList13appendLineBoxEPNS_13InlineFlowBoxE
__ZN7WebCore13InlineFlowBox9addToLineEPNS_9InlineBoxE
__ZNK7WebCore11RenderStyle13letterSpacingEv
__ZNK7WebCore9InlineBox15isInlineFlowBoxEv
__ZNK7WebCore13InlineTextBox15isInlineTextBoxEv
__ZN7WebCore13InlineFlowBox28determineSpacingForFlowBoxesEbbPNS_12RenderObjectE
__ZN7WebCore9InlineBox14setConstructedEv
__ZNK7WebCore9InlineBox18isSVGRootInlineBoxEv
__ZN7WebCore11RenderBlock38computeInlineDirectionPositionsForLineEPNS_13RootInlineBoxERKNS_8LineInfoEPNS_7BidiRunES7_bRN3WTF7HashMapIPKNS_13InlineTextBoxENSt3__14pairINS8_6VectorIPKNS_14SimpleFontDataELm0ENS8_15CrashOnOverflowEEENS_13GlyphOverflowEEENS8_7PtrHashISC_EENS8_10HashTraitsISC_EENSP_ISM_EEEERNS_21VerticalPositionCacheERNSF_INS_15WordMeasurementELm64ESJ_EE
__ZNK7WebCore11RenderBlock20textAlignmentForLineEb
__ZN7WebCoreL28updateLogicalInlinePositionsEPNS_11RenderBlockERfS2_S2_bNS_15IndentTextOrNotENS_10LayoutUnitE
__ZN7WebCore11RenderBlock41computeInlineDirectionPositionsForSegmentEPNS_13RootInlineBoxERKNS_8LineInfoENS_10ETextAlignERfS7_PNS_7BidiRunES9_RN3WTF7HashMapIPKNS_13InlineTextBoxENSt3__14pairINSA_6VectorIPKNS_14SimpleFontDataELm0ENSA_15CrashOnOverflowEEENS_13GlyphOverflowEEENSA_7PtrHashISE_EENSA_10HashTraitsISE_EENSR_ISO_EEEERNS_21VerticalPositionCacheERNSH_INS_15WordMeasurementELm64ESL_EE
__ZN7WebCore13InlineFlowBox26getFlowSpacingLogicalWidthEv
__ZNK7WebCore13InlineFlowBox17borderLogicalLeftEv
__ZNK7WebCore13InlineFlowBox18borderLogicalRightEv
__ZNK7WebCore13InlineTextBox11isLineBreakEv
__ZNK7WebCore13RootInlineBox12fitsToGlyphsEv
__ZNK7WebCore10RenderText5widthEjjfbPN3WTF7HashSetIPKNS_14SimpleFontDataENS1_7PtrHashIS5_EENS1_10HashTraitsIS5_EEEEPNS_13GlyphOverflowE
__ZNK7WebCore10RenderText5widthEjjRKNS_4FontEfPN3WTF7HashSetIPKNS_14SimpleFontDataENS4_7PtrHashIS8_EENS4_10HashTraitsIS8_EEEEPNS_13GlyphOverflowE
__ZN7WebCore11RenderBlock30updateLogicalWidthForAlignmentERKNS_10ETextAlignEPNS_7BidiRunERfS6_S6_i
__ZN7WebCore13InlineFlowBox27placeBoxesInInlineDirectionEfRbRN3WTF7HashMapIPKNS_13InlineTextBoxENSt3__14pairINS2_6VectorIPKNS_14SimpleFontDataELm0ENS2_15CrashOnOverflowEEENS_13GlyphOverflowEEENS2_7PtrHashIS6_EENS2_10HashTraitsIS6_EENSJ_ISG_EEEE
__ZN7WebCore13InlineFlowBox30placeBoxRangeInInlineDirectionEPNS_9InlineBoxES2_RfS3_S3_RbRN3WTF7HashMapIPKNS_13InlineTextBoxENSt3__14pairINS5_6VectorIPKNS_14SimpleFontDataELm0ENS5_15CrashOnOverflowEEENS_13GlyphOverflowEEENS5_7PtrHashIS9_EENS5_10HashTraitsIS9_EENSM_ISJ_EEEE
__ZN7WebCore11RenderBlock37computeBlockDirectionPositionsForLineEPNS_13RootInlineBoxEPNS_7BidiRunERN3WTF7HashMapIPKNS_13InlineTextBoxENSt3__14pairINS5_6VectorIPKNS_14SimpleFontDataELm0ENS5_15CrashOnOverflowEEENS_13GlyphOverflowEEENS5_7PtrHashIS9_EENS5_10HashTraitsIS9_EENSM_ISJ_EEEERNS_21VerticalPositionCacheE
__ZN7WebCore13RootInlineBox26alignBoxesInBlockDirectionENS_10LayoutUnitERN3WTF7HashMapIPKNS_13InlineTextBoxENSt3__14pairINS2_6VectorIPKNS_14SimpleFontDataELm0ENS2_15CrashOnOverflowEEENS_13GlyphOverflowEEENS2_7PtrHashIS6_EENS2_10HashTraitsIS6_EENSJ_ISG_EEEERNS_21VerticalPositionCacheE
__ZNK7WebCore13InlineFlowBox27requiresIdeographicBaselineERKN3WTF7HashMapIPKNS_13InlineTextBoxENSt3__14pairINS1_6VectorIPKNS_14SimpleFontDataELm0ENS1_15CrashOnOverflowEEENS_13GlyphOverflowEEENS1_7PtrHashIS5_EENS1_10HashTraitsIS5_EENSI_ISF_EEEE
__ZN7WebCore13InlineFlowBox24computeLogicalBoxHeightsEPNS_13RootInlineBoxERNS_10LayoutUnitES4_RiS5_RbS6_bRN3WTF7HashMapIPKNS_13InlineTextBoxENSt3__14pairINS7_6VectorIPKNS_14SimpleFontDataELm0ENS7_15CrashOnOverflowEEENS_13GlyphOverflowEEENS7_7PtrHashISB_EENS7_10HashTraitsISB_EENSO_ISL_EEEENS_12FontBaselineERNS_21VerticalPositionCacheE
__ZNK7WebCore13RootInlineBox15isRootInlineBoxEv
__ZNK7WebCore13RootInlineBox22ascentAndDescentForBoxEPNS_9InlineBoxERN3WTF7HashMapIPKNS_13InlineTextBoxENSt3__14pairINS3_6VectorIPKNS_14SimpleFontDataELm0ENS3_15CrashOnOverflowEEENS_13GlyphOverflowEEENS3_7PtrHashIS7_EENS3_10HashTraitsIS7_EENSK_ISH_EEEERiSP_RbSQ_
__ZNK7WebCore13InlineFlowBox15isInlineFlowBoxEv
__ZNK7WebCore13RootInlineBox16baselinePositionENS_12FontBaselineE
__ZNK7WebCore11RenderBlock16baselinePositionENS_12FontBaselineEbNS_17LineDirectionModeENS_16LinePositionModeE
__ZNK7WebCore11RenderStyle11fontMetricsEv
__ZNK7WebCore13RootInlineBox10lineHeightEv
__ZN7WebCore13InlineFlowBox26placeBoxesInBlockDirectionENS_10LayoutUnitES1_ibRS1_S2_RbS2_S2_S3_S3_NS_12FontBaselineE
__ZN7WebCore9InlineBox14adjustPositionEff
__ZNK7WebCore9InlineBox13logicalHeightEv
__ZNK7WebCore13RootInlineBox27beforeAnnotationsAdjustmentEv
__ZNK7WebCore13RootInlineBox18lineSnapAdjustmentENS_10LayoutUnitE
__ZN7WebCore10RenderText15positionLineBoxEPNS_9InlineBoxE
__ZN7WebCore9InlineBox9markDirtyEb
__ZN7WebCore13InlineFlowBox15computeOverflowENS_10LayoutUnitES1_RN3WTF7HashMapIPKNS_13InlineTextBoxENSt3__14pairINS2_6VectorIPKNS_14SimpleFontDataELm0ENS2_15CrashOnOverflowEEENS_13GlyphOverflowEEENS2_7PtrHashIS6_EENS2_10HashTraitsIS6_EENSJ_ISG_EEEE
__ZN7WebCore7BidiRun7destroyEv
__ZN7WebCore13RootInlineBox16setLineBreakInfoEPNS_12RenderObjectEjRKNS_10BidiStatusE
__ZN7WebCore11RenderBlock7newLineENS_6EClearE
__ZN7WebCore11RenderBlock17positionNewFloatsEv
__ZNK7WebCore13InlineFlowBox32computeUnderAnnotationAdjustmentENS_10LayoutUnitE
__ZNK7WebCore13RootInlineBox24paddedLayoutOverflowRectENS_10LayoutUnitE
__ZN7WebCore19enclosingLayoutRectERKNS_9FloatRectE
__ZN7WebCore10WidthCache14SmallStringKeyC2IKhEEPT_t
__ZN3WTF6VectorIN7WebCore14InlineIteratorELm0ENS_15CrashOnOverflowEE15reserveCapacityEm
__ZNK7WebCore10RenderText26isAllCollapsibleWhitespaceEv
__ZNK7WebCore12RenderObject14isDescendantOfEPKS0_
__ZN3WTF5MoverINS_12KeyValuePairIN7WebCore24FontPlatformDataCacheKeyENS_6OwnPtrINS2_16FontPlatformDataEEEEELb1EE4moveERS7_S9_
__ZN7WebCore10RenderText29computePreferredLogicalWidthsEfRN3WTF7HashSetIPKNS_14SimpleFontDataENS1_7PtrHashIS5_EENS1_10HashTraitsIS5_EEEERNS_13GlyphOverflowE
__ZN7WebCore12RenderInline28createAndAppendInlineFlowBoxEv
__ZN7WebCore12RenderInline19createInlineFlowBoxEv
__ZN7WebCore9InlineBox26clearKnownToHaveNoOverflowEv
__ZNK7WebCore13InlineFlowBox17rendererLineBoxesEv
__ZN7WebCore13InlineFlowBox14setConstructedEv
__ZNK7WebCore12RenderInline10marginLeftEv
__ZNK7WebCore12RenderInline11marginRightEv
__ZN7WebCore13RootInlineBox22verticalPositionForBoxEPNS_9InlineBoxERNS_21VerticalPositionCacheE
__ZN3WTF9HashTableIPN7WebCore12RenderObjectENS_12KeyValuePairIS3_iEENS_24KeyValuePairKeyExtractorIS5_EENS_7PtrHashIS3_EENS_18HashMapValueTraitsINS_10HashTraitsIS3_EENSB_IiEEEESC_E16lookupForWritingINS_22IdentityHashTranslatorIS9_EES3_EENSt3__14pairIPS5_bEERKT0_
__ZN3WTF9HashTableIPN7WebCore12RenderObjectENS_12KeyValuePairIS3_iEENS_24KeyValuePairKeyExtractorIS5_EENS_7PtrHashIS3_EENS_18HashMapValueTraitsINS_10HashTraitsIS3_EENSB_IiEEEESC_E3addINS_17HashMapTranslatorISE_S9_EES3_iEENS_18HashTableAddResultINS_17HashTableIteratorIS3_S5_S7_S9_SE_SC_EEEERKT0_RKT1_
__ZN3WTF9HashTableIPN7WebCore12RenderObjectENS_12KeyValuePairIS3_iEENS_24KeyValuePairKeyExtractorIS5_EENS_7PtrHashIS3_EENS_18HashMapValueTraitsINS_10HashTraitsIS3_EENSB_IiEEEESC_E6lookupINS_22IdentityHashTranslatorIS9_EES3_EEPS5_RKT0_
__ZNK7WebCore9InlineBox16baselinePositionENS_12FontBaselineE
__ZNK7WebCore12RenderInline16baselinePositionENS_12FontBaselineEbNS_17LineDirectionModeENS_16LinePositionModeE
__ZNK7WebCore12RenderInline10lineHeightEbNS_17LineDirectionModeENS_16LinePositionModeE
__ZNK7WebCore9InlineBox10lineHeightEv
__ZNK7WebCore9InlineBox15isRootInlineBoxEv
__ZNK7WebCore12RenderObject9isRubyRunEv
__ZNK7WebCore9InlineBox15isInlineTextBoxEv
__ZN7WebCore13InlineFlowBox14adjustPositionEff
__ZN7WebCore13InlineFlowBox26addBoxShadowVisualOverflowERNS_10LayoutRectE
__ZN7WebCore13InlineFlowBox29addBorderOutsetVisualOverflowERNS_10LayoutRectE
__ZNK7WebCore20RenderBoxModelObject22relativePositionOffsetEv
__ZN7WebCore13InlineFlowBox27setOverflowFromLogicalRectsERKNS_10LayoutRectES3_NS_10LayoutUnitES4_
__ZN7WebCore13InlineFlowBox17setLayoutOverflowERKNS_10LayoutRectENS_10LayoutUnitES4_
__ZN7WebCore13InlineFlowBox17setVisualOverflowERKNS_10LayoutRectENS_10LayoutUnitES4_
__ZN7WebCore14RenderListItem6layoutEv
__ZN7WebCore14RenderListItem20updateMarkerLocationEv
__ZN7WebCoreL23getParentOfFirstLineBoxEPNS_11RenderBlockEPNS_12RenderObjectE
__ZN7WebCore16RenderListMarker23updateMarginsAndContentEv
__ZN7WebCore16RenderListMarker13updateContentEv
__ZNK7WebCore16RenderListMarker7isImageEv
__ZNK7WebCore14RenderListItem14updateValueNowEv
__ZNK7WebCore14RenderListItem9calcValueEv
__ZN7WebCoreL16previousListItemEPKNS_4NodeEPKNS_14RenderListItemE
__ZN7WebCore13NodeTraversal23previousIncludingPseudoEPKNS_4NodeES3_
__ZNK7WebCore4Node26pseudoAwarePreviousSiblingEv
__ZNK7WebCore4Node20pseudoAwareLastChildEv
__ZNK7WebCore12RenderObject10isListItemEv
__ZN7WebCore14listMarkerTextENS_14EListStyleTypeEi
__ZN7WebCore16RenderListMarker13updateMarginsEv
__ZN7WebCore11RenderStyle14setMarginStartENS_6LengthE
__ZN7WebCore11RenderStyle12setMarginEndENS_6LengthE
__ZN7WebCore9RenderBox14dirtyLineBoxesEb
__ZN3WTF6VectorIPN7WebCore9RenderBoxELm0ENS_15CrashOnOverflowEE14expandCapacityEmPKS3_
__ZN3WTF6VectorIPN7WebCore9RenderBoxELm0ENS_15CrashOnOverflowEE15reserveCapacityEm
__ZN7WebCore16RenderListMarker6layoutEv
__ZNK7WebCore9RenderBox24minPreferredLogicalWidthEv
__ZN7WebCore16RenderListMarker29computePreferredLogicalWidthsEv
__ZN7WebCore7TextRunC2ERKN3WTF6StringEffjNS_13TextDirectionEbbj
__ZNK7WebCore16RenderListMarker12isListMarkerEv
__ZN7WebCoreL36shouldSkipWhitespaceAfterStartObjectEPNS_11RenderBlockEPNS_12RenderObjectERNS_13MidpointStateINS_14InlineIteratorEEE
__ZNK7WebCore16RenderListMarker8isInsideEv
__ZN7WebCore21LazyLineBreakIterator3getEj
__ZN7WebCore24acquireLineBreakIteratorEPKhiRKN3WTF12AtomicStringEPKtj
__ZN7WebCore21LineBreakIteratorPool10sharedPoolEv
__ZN7WebCore21LineBreakIteratorPool4takeERKN3WTF12AtomicStringE
__ZN3WTF9HashTableIP14UBreakIteratorNS_12KeyValuePairIS2_NS_12AtomicStringEEENS_24KeyValuePairKeyExtractorIS5_EENS_7PtrHashIS2_EENS_18HashMapValueTraitsINS_10HashTraitsIS2_EENSB_IS4_EEEESC_E16lookupForWritingINS_22IdentityHashTranslatorIS9_EES2_EENSt3__14pairIPS5_bEERKT0_
__ZN3WTF9HashTableIP14UBreakIteratorNS_12KeyValuePairIS2_NS_12AtomicStringEEENS_24KeyValuePairKeyExtractorIS5_EENS_7PtrHashIS2_EENS_18HashMapValueTraitsINS_10HashTraitsIS2_EENSB_IS4_EEEESC_E3addINS_17HashMapTranslatorISE_S9_EES2_S4_EENS_18HashTableAddResultINS_17HashTableIteratorIS2_S5_S7_S9_SE_SC_EEEERKT0_RKT1_
__ZN3WTF9HashTableIP14UBreakIteratorNS_12KeyValuePairIS2_NS_12AtomicStringEEENS_24KeyValuePairKeyExtractorIS5_EENS_7PtrHashIS2_EENS_18HashMapValueTraitsINS_10HashTraitsIS2_EENSB_IS4_EEEESC_E6lookupINS_22IdentityHashTranslatorIS9_EES2_EEPS5_RKT0_
__ZN3WTF9HashTableIP14UBreakIteratorNS_12KeyValuePairIS2_NS_12AtomicStringEEENS_24KeyValuePairKeyExtractorIS5_EENS_7PtrHashIS2_EENS_18HashMapValueTraitsINS_10HashTraitsIS2_EENSB_IS4_EEEESC_E6rehashEi
__ZN3WTF9HashTableIP14UBreakIteratorNS_12KeyValuePairIS2_NS_12AtomicStringEEENS_24KeyValuePairKeyExtractorIS5_EENS_7PtrHashIS2_EENS_18HashMapValueTraitsINS_10HashTraitsIS2_EENSB_IS4_EEEESC_E8reinsertERS5_
__ZN7WebCoreL9textCloneEP5UTextPKS0_aP10UErrorCode
__ZN7WebCoreL16textLatin1AccessEP5UTextxa
__ZN7WebCoreL9textCloseEP5UText
__ZN7WebCoreL16textNativeLengthEP5UText
__ZNK7WebCore12RenderObject6lengthEv
__ZN7WebCore16RenderListMarker15createInlineBoxEv
__ZN7WebCore9RenderBox15createInlineBoxEv
__ZNK7WebCore9InlineBox11isLineBreakEv
__ZNK7WebCore9RenderBox10marginLeftEv
__ZNK7WebCore9RenderBox11marginRightEv
__ZNK7WebCore16RenderListMarker16baselinePositionENS_12FontBaselineEbNS_17LineDirectionModeENS_16LinePositionModeE
__ZNK7WebCore16RenderListMarker10lineHeightEbNS_17LineDirectionModeENS_16LinePositionModeE
__ZNK7WebCore13InlineTextBox16baselinePositionENS_12FontBaselineE
__ZNK7WebCore13InlineTextBox10lineHeightEv
__ZNK7WebCore13InlineTextBox23getEmphasisMarkPositionEPNS_11RenderStyleERNS_20TextEmphasisPositionE
__ZN7WebCore9RenderBox15positionLineBoxEPNS_9InlineBoxE
__ZN7WebCore24releaseLineBreakIteratorEPNS_17TextBreakIteratorE
__ZN7WebCore21LineBreakIteratorPool3putEP14UBreakIterator
__ZN3WTF7HashMapIP14UBreakIteratorNS_12AtomicStringENS_7PtrHashIS2_EENS_10HashTraitsIS2_EENS6_IS3_EEE4takeERKS2_
__ZN7WebCore14RenderListItem23addOverflowFromChildrenEv
__ZN7WebCore14RenderListItem18positionListMarkerEv
__ZNK7WebCore17ScrollbarThemeMac16buttonsPlacementEv
__ZThn64_NK7WebCore9Scrollbar10currentPosEv
__ZThn64_NK7WebCore9Scrollbar11visibleSizeEv
__ZThn64_NK7WebCore9Scrollbar9totalSizeEv
__ZN7WebCore23ScrollbarThemeComposite11trackLengthEPNS_20ScrollbarThemeClientE
__ZN7WebCore17ScrollbarThemeMac18minimumThumbLengthEPNS_20ScrollbarThemeClientE
__ZN7WebCore15GraphicsLayerCA37flushCompositingStateForThisLayerOnlyEv
-[WebLayer setNeedsDisplay]
__ZThn480_NK7WebCore15GraphicsLayerCA27platformCALayerDrawsContentEv
-[WebLayer setNeedsDisplayInRect:]
-[WebLayer display]
-[WebLayer drawInContext:]
__ZN3WTF6VectorIN7WebCore20GraphicsContextStateELm0ENS_15CrashOnOverflowEE14appendSlowCaseIS2_EEvRKT_
__ZN3WTF6VectorIN7WebCore20GraphicsContextStateELm0ENS_15CrashOnOverflowEE14expandCapacityEmPKS2_
__ZN3WTF6VectorIN7WebCore20GraphicsContextStateELm0ENS_15CrashOnOverflowEE15reserveCapacityEm
__ZN7WebCore15GraphicsContext17savePlatformStateEv
__ZN7WebCore15GraphicsContext30setShouldSubpixelQuantizeFontsEb
__ZN7WebCore9RenderBox36computeBackgroundIsKnownToBeObscuredEv
__ZNK7WebCore9RenderBox26getBackgroundPaintedExtentERNS_10LayoutRectE
__ZNK7WebCore9RenderBox33foregroundIsKnownToBeOpaqueInRectERKNS_10LayoutRectEj
__ZNK7WebCore9RenderBox33backgroundIsKnownToBeOpaqueInRectERKNS_10LayoutRectE
__ZNK7WebCore16StyleCachedImage15knownToBeOpaqueEPKNS_12RenderObjectE
__ZN7WebCore11CachedImage27currentFrameKnownToBeOpaqueEPKNS_12RenderObjectE
__ZN7WebCore11CachedImage16imageForRendererEPKNS_12RenderObjectE
__ZN7WebCore11BitmapImage26nativeImageForCurrentFrameEv
__ZN7WebCore11BitmapImage27currentFrameKnownToBeOpaqueEv
__ZNK7WebCore16StyleCachedImage5imageEPNS_12RenderObjectERKNS_7IntSizeE
__ZN7WebCore22ImageQualityController23shouldPaintAtLowQualityEPNS_15GraphicsContextEPNS_20RenderBoxModelObjectEPNS_5ImageEPKvRKNS_10LayoutSizeE
__ZNK7WebCore4Page34inLowQualityImageInterpolationModeEv
__ZN7WebCore22ImageQualityController3setEPNS_20RenderBoxModelObjectEPN3WTF7HashMapIPKvNS_10LayoutSizeENS3_7PtrHashIS6_EENS3_10HashTraitsIS6_EENSA_IS7_EEEES6_RKS7_
__ZN7WebCore15GraphicsContext14drawTiledImageEPNS_5ImageENS_10ColorSpaceERKNS_7IntRectERKNS_8IntPointERKNS_7IntSizeENS_17CompositeOperatorEbNS_9BlendModeE
__ZN7WebCore5Image9drawTiledEPNS_15GraphicsContextERKNS_9FloatRectERKNS_10FloatPointERKNS_9FloatSizeENS_10ColorSpaceENS_17CompositeOperatorENS_9BlendModeE
__ZN7WebCore11BitmapImage21mayFillWithSolidColorEv
__ZNK7WebCore5Image16hasRelativeWidthEv
__ZNK7WebCore5Image17hasRelativeHeightEv
__ZN7WebCore11BitmapImage4drawEPNS_15GraphicsContextERKNS_9FloatRectES5_NS_10ColorSpaceENS_17CompositeOperatorENS_9BlendModeE
__ZN7WebCore11BitmapImage4drawEPNS_15GraphicsContextERKNS_9FloatRectES5_NS_10ColorSpaceENS_17CompositeOperatorENS_9BlendModeENS_27RespectImageOrientationEnumE
__ZN7WebCore11BitmapImage14startAnimationEb
__ZN7WebCore11BitmapImage13shouldAnimateEv
__ZNK7WebCore11BitmapImage16currentFrameSizeEv
__ZN7WebCore15GraphicsContext15drawNativeImageEP7CGImageRKNS_9FloatSizeENS_10ColorSpaceERKNS_9FloatRectES9_NS_17CompositeOperatorENS_9BlendModeENS_16ImageOrientationE
__ZN7WebCore5Image19imageWithColorSpaceEP7CGImageNS_10ColorSpaceE
__ZThn816_N7WebCore11CachedImage7didDrawEPKNS_5ImageE
__ZN7WebCore14CachedResource20didAccessDecodedDataEd
__ZN7WebCore11MemoryCache34removeFromLiveDecodedResourcesListEPNS_14CachedResourceE
__ZNK7WebCore14CachedResource9wasPurgedEv
__ZN7WebCore20RenderBoxModelObject11paintBorderERKNS_9PaintInfoERKNS_10LayoutRectEPKNS_11RenderStyleENS_24BackgroundBleedAvoidanceEbb
__ZN7WebCore20RenderBoxModelObject19paintNinePieceImageEPNS_15GraphicsContextERKNS_10LayoutRectEPKNS_11RenderStyleERKNS_14NinePieceImageENS_17CompositeOperatorE
__ZNK7WebCore20RenderBoxModelObject17getBorderEdgeInfoEPNS_10BorderEdgeEPKNS_11RenderStyleEbb
__ZNK7WebCore11RenderStyle19getRoundedBorderForERKNS_10LayoutRectEPNS_10RenderViewEbb
__ZN7WebCore11RoundedRectC1ERKNS_7IntRectERKNS0_5RadiiE
__ZNK7WebCore11RenderStyle24getRoundedInnerBorderForERKNS_10LayoutRectEbb
__ZNK7WebCore11RenderStyle24getRoundedInnerBorderForERKNS_10LayoutRectEiiiibb
__ZNK7WebCore11RoundedRect5Radii6isZeroEv
__ZN7WebCore20RenderBoxModelObject16paintBorderSidesEPNS_15GraphicsContextEPKNS_11RenderStyleERKNS_11RoundedRectES8_RKNS_8IntPointEPKNS_10BorderEdgeEjNS_24BackgroundBleedAvoidanceEbbbPKNS_5ColorE
__ZN7WebCore4PathC1Ev
__ZN7WebCore20RenderBoxModelObject18paintOneBorderSideEPNS_15GraphicsContextEPKNS_11RenderStyleERKNS_11RoundedRectES8_RKNS_7IntRectENS_7BoxSideESC_SC_PKNS_10BorderEdgeEPKNS_4PathENS_24BackgroundBleedAvoidanceEbbbPKNS_5ColorE
__ZN7WebCoreL17joinRequiresMitreENS_7BoxSideES0_PKNS_10BorderEdgeEb
__ZN7WebCoreL27colorNeedsAntiAliasAtCornerENS_7BoxSideES0_PKNS_10BorderEdgeE
__ZN7WebCore12RenderObject18drawLineForBoxSideEPNS_15GraphicsContextEiiiiNS_7BoxSideENS_5ColorENS_12EBorderStyleEiib
__ZNK7WebCore5Color4darkEv
__ZNK7WebCore15GraphicsContext11strokeStyleEv
__ZN7WebCore15GraphicsContext14setStrokeStyleENS_11StrokeStyleE
__ZN7WebCore15GraphicsContext17drawConvexPolygonEmPKNS_10FloatPointEb
__ZNK7WebCore15GraphicsContext15shouldAntialiasEv
__ZN7WebCore4Path6moveToERKNS_10FloatPointE
__ZN7WebCore4Path9addLineToERKNS_10FloatPointE
__ZN7WebCore4Path12closeSubpathEv
__ZN7WebCore15GraphicsContext8drawPathERKNS_4PathE
__ZNK7WebCore4Path7isEmptyEv
__ZN7WebCore4PathD1Ev
__ZN7WebCore14RenderListItem5paintERNS_9PaintInfoERKNS_11LayoutPointE
__ZNK7WebCore17RenderLineBoxList21anyLineIntersectsRectEPNS_20RenderBoxModelObjectERKNS_10LayoutRectERKNS_11LayoutPointEbNS_10LayoutUnitE
__ZN7WebCore9InlineBox4rootEv
__ZNK7WebCore17RenderLineBoxList19rangeIntersectsRectEPNS_20RenderBoxModelObjectENS_10LayoutUnitES3_RKNS_10LayoutRectERKNS_11LayoutPointE
__ZNK7WebCore9RenderBox18flipForWritingModeENS_10LayoutUnitE
__ZNK7WebCore17RenderLineBoxList23lineIntersectsDirtyRectEPNS_20RenderBoxModelObjectEPNS_13InlineFlowBoxERKNS_9PaintInfoERKNS_11LayoutPointE
__ZNK7WebCore13RootInlineBox12selectionTopEv
__ZN7WebCore13RootInlineBox5paintERNS_9PaintInfoERKNS_11LayoutPointENS_10LayoutUnitES6_
__ZN7WebCore13InlineFlowBox5paintERNS_9PaintInfoERKNS_11LayoutPointENS_10LayoutUnitES6_
__ZN7WebCore9InlineBox18flipForWritingModeERNS_10LayoutRectE
__ZN7WebCore13InlineFlowBox19paintBoxDecorationsERNS_9PaintInfoERKNS_11LayoutPointE
__ZNK7WebCore13InlineFlowBox16roundedFrameRectEv
__ZN7WebCore13InlineTextBox5paintERNS_9PaintInfoERKNS_11LayoutPointENS_10LayoutUnitES6_
__ZNK7WebCore13InlineTextBox19logicalOverflowRectEv
__ZN7WebCore13InlineTextBox14selectionStateEv
__ZN7WebCore9InlineBox25locationIncludingFlippingEv
__ZN7WebCore13InlineTextBox20paintDocumentMarkersEPNS_15GraphicsContextERKNS_10FloatPointEPNS_11RenderStyleERKNS_4FontEb
__ZN7WebCore24DocumentMarkerController10markersForEPNS_4NodeENS_14DocumentMarker11MarkerTypesE
__ZN7WebCore4Page26addRelevantRepaintedObjectEPNS_12RenderObjectERKNS_10LayoutRectE
__ZNK7WebCore13InlineTextBox16constructTextRunEPNS_11RenderStyleERKNS_4FontEN3WTF6StringEiPNS_24BufferForAppendingHyphenE
__ZN7WebCore21updateGraphicsContextEPNS_15GraphicsContextERKNS_5ColorES4_fNS_10ColorSpaceE
__ZN7WebCoreL20paintTextWithShadowsEPNS_15GraphicsContextERKNS_4FontERKNS_7TextRunERKN3WTF12AtomicStringEiiiiRKNS_10FloatPointERKNS_9FloatRectEPKNS_10ShadowDataEbb
__ZN7WebCore15GraphicsContext8drawTextERKNS_4FontERKNS_7TextRunERKNS_10FloatPointEii
__ZNK7WebCore4Font14drawSimpleTextEPNS_15GraphicsContextERKNS_7TextRunERKNS_10FloatPointEii
__ZNK7WebCore4Font33getGlyphsAndAdvancesForSimpleTextERKNS_7TextRunEiiRNS_11GlyphBufferENS0_20ForTextEmphasisOrNotE
__ZNK7WebCore13RootInlineBox15selectionBottomEv
__ZNK7WebCore13InlineFlowBox33boxShadowCanBeAppliedToBackgroundERKNS_9FillLayerE
__ZN7WebCore13InlineFlowBox15paintFillLayersERKNS_9PaintInfoERKNS_5ColorEPKNS_9FillLayerERKNS_10LayoutRectENS_17CompositeOperatorE
__ZN7WebCore13InlineFlowBox14paintFillLayerERKNS_9PaintInfoERKNS_5ColorEPKNS_9FillLayerERKNS_10LayoutRectENS_17CompositeOperatorE
__ZN7WebCore15GraphicsContext9setShadowERKNS_9FloatSizeEfRKNS_5ColorENS_10ColorSpaceE
__ZN7WebCore15GraphicsContext17setPlatformShadowERKNS_9FloatSizeEfRKNS_5ColorENS_10ColorSpaceE
__ZNK7WebCore9FloatSizecv6CGSizeEv
__ZNK7WebCore20RenderBoxModelObject46backgroundRoundedRectAdjustedForBleedAvoidanceEPNS_15GraphicsContextERKNS_10LayoutRectENS_24BackgroundBleedAvoidanceEPNS_13InlineFlowBoxERKNS_10LayoutSizeEbb
__ZN7WebCore11RoundedRect5Radii5scaleEf
__ZN7WebCore11RoundedRect19includeLogicalEdgesERKNS0_5RadiiEbbb
__ZNK7WebCore11RoundedRect12isRenderableEv
__ZN7WebCore15GraphicsContext15fillRoundedRectERKNS_11RoundedRectERKNS_5ColorENS_10ColorSpaceENS_9BlendModeE
__ZN7WebCore15GraphicsContext15fillRoundedRectERKNS_7IntRectERKNS_7IntSizeES6_S6_S6_RKNS_5ColorENS_10ColorSpaceE
__ZN7WebCore4Path14addRoundedRectERKNS_9FloatRectERKNS_9FloatSizeES6_S6_S6_NS0_19RoundedRectStrategyE
__ZN7WebCore4Path29platformAddPathForRoundedRectERKNS_9FloatRectERKNS_9FloatSizeES6_S6_S6_
__ZN7WebCore15GraphicsContext8fillPathERKNS_4PathE
__ZNK7WebCore15GraphicsContext8fillRuleEv
__ZN7WebCore20GraphicsContextStateaSERKS0_
__ZN7WebCore15GraphicsContext20restorePlatformStateEv
__ZN7WebCore13InlineFlowBox14paintBoxShadowERKNS_9PaintInfoEPNS_11RenderStyleENS_11ShadowStyleERKNS_10LayoutRectE
__ZN7WebCore11RoundedRect5Radii6expandEiiii
__ZN7WebCoreL20allCornersClippedOutERKNS_11RoundedRectERKNS_10LayoutRectE
__ZN7WebCore4Path14addRoundedRectERKNS_11RoundedRectE
__ZN7WebCore15GraphicsContext11setFillRuleENS_8WindRuleE
__ZNK7WebCore9InlineBox4rootEv
__ZN7WebCore13InlineTextBox15paintDecorationEPNS_15GraphicsContextERKNS_10FloatPointENS_14TextDecorationENS_19TextDecorationStyleEPKNS_10ShadowDataE
__ZN7WebCore12RenderObject23getTextDecorationColorsEiRNS_5ColorES2_S2_bb
__ZNK7WebCore12RenderObject5styleEb
__ZNK7WebCore12RenderObject10isRubyTextEv
__ZN7WebCore15GraphicsContext18setStrokeThicknessEf
__ZN7WebCore15GraphicsContext26setPlatformStrokeThicknessEf
__ZN7WebCore15GraphicsContext14setStrokeColorERKNS_5ColorENS_10ColorSpaceE
__ZN7WebCore15GraphicsContext22setPlatformStrokeColorERKNS_5ColorENS_10ColorSpaceE
__ZN7WebCore15GraphicsContext15drawLineForTextERKNS_10FloatPointEfb
__ZNK7WebCore15GraphicsContext15strokeThicknessEv
__ZN7WebCore15GraphicsContext19roundToDevicePixelsERKNS_9FloatRectENS0_12RoundingModeE
__ZN7WebCore9InlineBox5paintERNS_9PaintInfoERKNS_11LayoutPointENS_10LayoutUnitES6_
__ZN7WebCore16RenderListMarker5paintERNS_9PaintInfoERKNS_11LayoutPointE
__ZN7WebCore16RenderListMarker21getRelativeMarkerRectEv
__ZN7WebCore11RenderBlock16constructTextRunEPNS_12RenderObjectERKNS_4FontERKN3WTF6StringEPNS_11RenderStyleEjj
__ZN7WebCore10ScrollView15paintScrollbarsEPNS_15GraphicsContextERKNS_7IntRectE
__ZN7WebCore9FrameView17paintScrollCornerEPNS_15GraphicsContextERKNS_7IntRectE
__ZN7WebCore10ScrollView17paintScrollCornerEPNS_15GraphicsContextERKNS_7IntRectE
__ZN7WebCore23ScrollbarThemeComposite17paintScrollCornerEPNS_10ScrollViewEPNS_15GraphicsContextERKNS_7IntRectE
__ZThn480_N7WebCore15GraphicsLayerCA30platformCALayerLayerDidDisplayEP7CALayer
__ZN7WebCore15GraphicsLayerCA15layerDidDisplayEP7CALayer
__ZN7WebCore15GraphicsContext20setShouldSmoothFontsEb
__ZN7WebCore15GraphicsContext28setPlatformShouldSmoothFontsEb
__ZN7WebCore21RenderLayerCompositor13paintContentsEPKNS_13GraphicsLayerERNS_15GraphicsContextEjRKNS_7IntRectE
__ZN7WebCore9Scrollbar5paintEPNS_15GraphicsContextERKNS_7IntRectE
__ZN7WebCore17ScrollbarThemeMac5paintEPNS_20ScrollbarThemeClientEPNS_15GraphicsContextERKNS_7IntRectE
__ZThn64_NK7WebCore9Scrollbar7maximumEv
__ZNK7WebCore15GraphicsContext16isCALayerContextEv
__ZN7WebCore27LocalCurrentGraphicsContextC1EPNS_15GraphicsContextE
__ZN7WebCore27LocalCurrentGraphicsContextC2EPNS_15GraphicsContextE
-[WebScrollbarPainterDelegate convertRectToBacking:]
-[WebScrollbarPainterDelegate convertRectFromBacking:]
__ZN7WebCore27LocalCurrentGraphicsContextD1Ev
__ZN7WebCoreL24iconLoadDecisionCallbackENS_16IconLoadDecisionEPv
__ZN7WebCore14IconController24continueLoadWithDecisionENS_16IconLoadDecisionE
__ZN7WebCore12EnumCallbackINS_16IconLoadDecisionEED0Ev
__ZN3WTF24StringWrapperCFAllocatorL22deallocateOnMainThreadEPv
-[WebScrollbarPainterDelegate scrollerImp:animateKnobAlphaTo:duration:]
__ZThn64_NK7WebCore9FrameView32scrollbarAnimationsAreSuppressedEv
-[WebScrollbarPainterDelegate setUpAlphaAnimation:scrollerPainter:part:animateAlphaTo:duration:]
-[WebScrollbarPainterDelegate scrollAnimator]
__ZThn64_NK7WebCore9FrameView29shouldSuspendScrollAnimationsEv
__ZNK7WebCore9Scrollbar23convertToContainingViewERKNS_7IntRectE
__ZThn64_NK7WebCore10ScrollView36convertFromScrollbarToContainingViewEPKNS_9ScrollbarERKNS_7IntRectE
__ZThn64_N7WebCore9FrameView27setVisibleScrollerThumbRectERKNS_7IntRectE
-[WebScrollbarPartAnimation .cxx_construct]
-[WebScrollbarPartAnimation initWithScrollbar:featureToAnimate:animateFrom:animateTo:duration:]
-[WebScrollbarPartAnimation startAnimation]
-[WebScrollbarPainterDelegate scrollerImp:overlayScrollerStateChangedTo:]
-[WebScrollbarPartAnimation setCurrentProgress:]
__ZN7WebCore15GraphicsContext9clearRectERKNS_9FloatRectE
__ZN7WebCore15GraphicsContext22applyDeviceScaleFactorEf
__ZN7WebCore15GraphicsContext5scaleERKNS_9FloatSizeE
__ZN7WebCore15GraphicsContext30platformApplyDeviceScaleFactorEf
__ZN7WebCore9FrameView24paintContentsForSnapshotEPNS_15GraphicsContextERKNS_7IntRectENS0_18SelectionInSnaphotENS0_26CoordinateSpaceForSnapshotE
__ZN7WebCore10RenderView13notifyWidgetsENS_18WidgetNotificationE
__ZNK7WebCore15GraphicsContext16hasBlurredShadowEv
__ZN3WTF9HashTableIPN7WebCore20RenderBoxModelObjectENS_12KeyValuePairIS3_NS_7HashMapIPKvNS1_10LayoutSizeENS_7PtrHashIS7_EENS_10HashTraitsIS7_EENSB_IS8_EEEEEENS_24KeyValuePairKeyExtractorISF_EENS9_IS3_EENS_18HashMapValueTraitsINSB_IS3_EENSB_ISE_EEEESK_E16lookupForWritingINS_22IdentityHashTranslatorISI_EES3_EENSt3__14pairIPSF_bEERKT0_
__ZN3WTF9HashTableIPN7WebCore20RenderBoxModelObjectENS_12KeyValuePairIS3_NS_7HashMapIPKvNS1_10LayoutSizeENS_7PtrHashIS7_EENS_10HashTraitsIS7_EENSB_IS8_EEEEEENS_24KeyValuePairKeyExtractorISF_EENS9_IS3_EENS_18HashMapValueTraitsINSB_IS3_EENSB_ISE_EEEESK_E3addINS_17HashMapTranslatorISM_SI_EES3_SE_EENS_18HashTableAddResultINS_17HashTableIteratorIS3_SF_SH_SI_SM_SK_EEEERKT0_RKT1_
__ZN3WTF9HashTableIPN7WebCore20RenderBoxModelObjectENS_12KeyValuePairIS3_NS_7HashMapIPKvNS1_10LayoutSizeENS_7PtrHashIS7_EENS_10HashTraitsIS7_EENSB_IS8_EEEEEENS_24KeyValuePairKeyExtractorISF_EENS9_IS3_EENS_18HashMapValueTraitsINSB_IS3_EENSB_ISE_EEEESK_E6lookupINS_22IdentityHashTranslatorISI_EES3_EEPSF_RKT0_
__ZN3WTF9HashTableIPN7WebCore20RenderBoxModelObjectENS_12KeyValuePairIS3_NS_7HashMapIPKvNS1_10LayoutSizeENS_7PtrHashIS7_EENS_10HashTraitsIS7_EENSB_IS8_EEEEEENS_24KeyValuePairKeyExtractorISF_EENS9_IS3_EENS_18HashMapValueTraitsINSB_IS3_EENSB_ISE_EEEESK_E6rehashEi
__ZN3WTF9HashTableIPKvNS_12KeyValuePairIS2_N7WebCore10LayoutSizeEEENS_24KeyValuePairKeyExtractorIS6_EENS_7PtrHashIS2_EENS_18HashMapValueTraitsINS_10HashTraitsIS2_EENSC_IS5_EEEESD_E16lookupForWritingINS_22IdentityHashTranslatorISA_EES2_EENSt3__14pairIPS6_bEERKT0_
__ZN3WTF9HashTableIPKvNS_12KeyValuePairIS2_N7WebCore10LayoutSizeEEENS_24KeyValuePairKeyExtractorIS6_EENS_7PtrHashIS2_EENS_18HashMapValueTraitsINS_10HashTraitsIS2_EENSC_IS5_EEEESD_E3addINS_17HashMapTranslatorISF_SA_EES2_S5_EENS_18HashTableAddResultINS_17HashTableIteratorIS2_S6_S8_SA_SF_SD_EEEERKT0_RKT1_
__ZN3WTF9HashTableIPKvNS_12KeyValuePairIS2_N7WebCore10LayoutSizeEEENS_24KeyValuePairKeyExtractorIS6_EENS_7PtrHashIS2_EENS_18HashMapValueTraitsINS_10HashTraitsIS2_EENSC_IS5_EEEESD_E3addINS_22IdentityHashTranslatorISA_EES2_S6_EENS_18HashTableAddResultINS_17HashTableIteratorIS2_S6_S8_SA_SF_SD_EEEERKT0_RKT1_
__ZN3WTF9HashTableIPKvNS_12KeyValuePairIS2_N7WebCore10LayoutSizeEEENS_24KeyValuePairKeyExtractorIS6_EENS_7PtrHashIS2_EENS_18HashMapValueTraitsINS_10HashTraitsIS2_EENSC_IS5_EEEESD_E6lookupINS_22IdentityHashTranslatorISA_EES2_EEPS6_RKT0_
__ZN3WTF9HashTableIPKvNS_12KeyValuePairIS2_N7WebCore10LayoutSizeEEENS_24KeyValuePairKeyExtractorIS6_EENS_7PtrHashIS2_EENS_18HashMapValueTraitsINS_10HashTraitsIS2_EENSC_IS5_EEEESD_E6rehashEi
__ZN3WTF9HashTableIPKvNS_12KeyValuePairIS2_N7WebCore10LayoutSizeEEENS_24KeyValuePairKeyExtractorIS6_EENS_7PtrHashIS2_EENS_18HashMapValueTraitsINS_10HashTraitsIS2_EENSC_IS5_EEEESD_EaSERKSG_
__ZN7WebCore10ShadowBlurC1ERKNS_20GraphicsContextStateE
__ZN7WebCore10ShadowBlurC2ERKNS_20GraphicsContextStateE
__ZN7WebCore10ShadowBlur14drawRectShadowEPNS_15GraphicsContextERKNS_9FloatRectERKNS_11RoundedRect5RadiiE
__ZNK7WebCore15GraphicsContext10clipBoundsEv
__ZN7WebCore10ShadowBlur26calculateLayerBoundingRectEPNS_15GraphicsContextERKNS_9FloatRectERKNS_7IntRectE
__ZNK7WebCore7IntRect8containsERKS0_
__ZN7WebCore10ShadowBlur24drawRectShadowWithTilingEPNS_15GraphicsContextERKNS_9FloatRectERKNS_11RoundedRect5RadiiERKNS_7IntSizeESC_
__ZN7WebCore13ScratchBuffer16getScratchBufferERKNS_7IntSizeE
__ZN7WebCore11ImageBufferC1ERKNS_7IntSizeEfNS_10ColorSpaceENS_13RenderingModeERb
__ZN7WebCore11ImageBufferC2ERKNS_7IntSizeEfNS_10ColorSpaceENS_13RenderingModeERb
__ZN7WebCore15ImageBufferDataC1ERKNS_7IntSizeE
__ZNK7WebCore9FloatSize22isExpressibleAsIntSizeEv
__ZN7WebCore13ScratchBuffer21setCachedShadowValuesERKNS_9FloatSizeERKNS_5ColorENS_10ColorSpaceERKNS_9FloatRectERKNS_11RoundedRect5RadiiES3_
__ZNK7WebCore11ImageBuffer7contextEv
__ZN7WebCore10ShadowBlur16blurShadowBufferERKNS_7IntSizeE
__ZNK7WebCore11ImageBuffer24getUnmultipliedImageDataERKNS_7IntRectENS0_16CoordinateSystemE
__ZNK7WebCore15GraphicsContext20isAcceleratedContextEv
__ZNK7WebCore15ImageBufferData7getDataERKNS_7IntRectERKNS_7IntSizeEbbf
__ZN3WTF14TypedArrayBaseIhE19createUninitializedINS_17Uint8ClampedArrayEEENS_10PassRefPtrIT_EEj
__ZN3WTF14TypedArrayBaseIhE6createINS_17Uint8ClampedArrayEEENS_10PassRefPtrIT_EENS4_INS_11ArrayBufferEEEjj
__ZN7WebCore10ShadowBlur14blurLayerImageEPhRKNS_7IntSizeEi
__ZN7WebCore11ImageBuffer12putByteArrayENS_8MultiplyEPN3WTF17Uint8ClampedArrayERKNS_7IntSizeERKNS_7IntRectERKNS_8IntPointENS0_16CoordinateSystemE
__ZN7WebCore15ImageBufferData7putDataERPN3WTF17Uint8ClampedArrayERKNS_7IntSizeERKNS_7IntRectERKNS_8IntPointES7_bbf
__ZN3WTF17Uint8ClampedArrayD0Ev
__ZN7WebCore15GraphicsContext8fillRectERKNS_9FloatRectE
__ZN7WebCore10ShadowBlur15drawLayerPiecesEPNS_15GraphicsContextERKNS_9FloatRectERKNS_11RoundedRect5RadiiERKNS_7IntSizeESC_NS0_15ShadowDirectionE
__ZN7WebCore15GraphicsContext11clearShadowEv
__ZN7WebCore15GraphicsContext19clearPlatformShadowEv
__ZN7WebCore15GraphicsContext15drawImageBufferEPNS_11ImageBufferENS_10ColorSpaceERKNS_9FloatRectES6_NS_17CompositeOperatorENS_9BlendModeEb
__ZN7WebCore11ImageBuffer4drawEPNS_15GraphicsContextENS_10ColorSpaceERKNS_9FloatRectES6_NS_17CompositeOperatorENS_9BlendModeEb
__ZNK7WebCore11ImageBuffer15copyNativeImageENS_16BackingStoreCopyE
__ZN7WebCore13subimageCacheEv
__ZN7WebCore22SubimageCacheWithTimer11getSubimageEP7CGImageRKNS_9FloatRectE
__ZN3WTF9HashTableIN7WebCore22SubimageCacheWithTimer18SubimageCacheEntryES3_NS_17IdentityExtractorENS2_17SubimageCacheHashENS2_24SubimageCacheEntryTraitsES6_E16lookupForWritingINS_22IdentityHashTranslatorIS5_EES3_EENSt3__14pairIPS3_bEERKT0_
__ZN3WTF9HashTableIN7WebCore22SubimageCacheWithTimer18SubimageCacheEntryES3_NS_17IdentityExtractorENS2_17SubimageCacheHashENS2_24SubimageCacheEntryTraitsES6_E18addPassingHashCodeINS_24HashSetTranslatorAdapterINS1_18SubimageCacheAdderEEENS1_15SubimageRequestESC_EENS_18HashTableAddResultINS_17HashTableIteratorIS3_S3_S4_S5_S6_S6_EEEERKT0_RKT1_
__ZN3WTF9HashTableIN7WebCore22SubimageCacheWithTimer18SubimageCacheEntryES3_NS_17IdentityExtractorENS2_17SubimageCacheHashENS2_24SubimageCacheEntryTraitsES6_E20fullLookupForWritingINS_24HashSetTranslatorAdapterINS1_18SubimageCacheAdderEEENS1_15SubimageRequestEEENSt3__14pairINSE_IPS3_bEEjEERKT0_
__ZN3WTF9HashTableIN7WebCore22SubimageCacheWithTimer18SubimageCacheEntryES3_NS_17IdentityExtractorENS2_17SubimageCacheHashENS2_24SubimageCacheEntryTraitsES6_E6lookupINS_22IdentityHashTranslatorIS5_EES3_EEPS3_RKT0_
__ZN3WTF9HashTableIN7WebCore22SubimageCacheWithTimer18SubimageCacheEntryES3_NS_17IdentityExtractorENS2_17SubimageCacheHashENS2_24SubimageCacheEntryTraitsES6_E6rehashEi
__ZN7WebCore18SubimageCacheAdder9translateERNS_22SubimageCacheWithTimer18SubimageCacheEntryERKNS_15SubimageRequestEj
__ZN3WTF5MoverIN7WebCore22SubimageCacheWithTimer18SubimageCacheEntryELb1EE4moveERS3_S5_
__ZN3WTF9HashTableIP7CGImageNS_12KeyValuePairIS2_jEENS_24KeyValuePairKeyExtractorIS4_EENS_7PtrHashIS2_EENS_18HashMapValueTraitsINS_10HashTraitsIS2_EENSA_IjEEEESB_E16lookupForWritingINS_22IdentityHashTranslatorIS8_EES2_EENSt3__14pairIPS4_bEERKT0_
__ZN3WTF9HashTableIP7CGImageNS_12KeyValuePairIS2_jEENS_24KeyValuePairKeyExtractorIS4_EENS_7PtrHashIS2_EENS_18HashMapValueTraitsINS_10HashTraitsIS2_EENSA_IjEEEESB_E3addINS_17HashMapTranslatorISD_S8_EES2_jEENS_18HashTableAddResultINS_17HashTableIteratorIS2_S4_S6_S8_SD_SB_EEEERKT0_RKT1_
__ZN3WTF9HashTableIP7CGImageNS_12KeyValuePairIS2_jEENS_24KeyValuePairKeyExtractorIS4_EENS_7PtrHashIS2_EENS_18HashMapValueTraitsINS_10HashTraitsIS2_EENSA_IjEEEESB_E6lookupINS_22IdentityHashTranslatorIS8_EES2_EEPS4_RKT0_
__ZN3WTF9HashTableIP7CGImageNS_12KeyValuePairIS2_jEENS_24KeyValuePairKeyExtractorIS4_EENS_7PtrHashIS2_EENS_18HashMapValueTraitsINS_10HashTraitsIS2_EENSA_IjEEEESB_E6shrinkEv
__ZN7WebCore5TimerINS_22ImageQualityControllerEE5firedEv
__ZN7WebCore22ImageQualityController28highQualityRepaintTimerFiredEPNS_5TimerIS0_EE
-[WebScrollbarPainterControllerDelegate mouseLocationInContentAreaForScrollerImpPair:]
__ZThn64_NK7WebCore9FrameView22lastKnownMousePositionEv
__ZNK7WebCore12EventHandler22lastKnownMousePositionEv
__ZNK7WebCore8IntPointcv7CGPointEv
-[WebScrollbarPainterControllerDelegate scrollerImpPair:convertContentPoint:toScrollerImp:]
__ZNK7WebCore9Scrollbar25convertFromContainingViewERKNS_8IntPointE
__ZThn64_NK7WebCore10ScrollView36convertFromContainingViewToScrollbarEPKNS_9ScrollbarERKNS_8IntPointE
-[WebScrollbarPartAnimation .cxx_destruct]
__ZN7WebCore22DeferrableOneShotTimerINS_22SubimageCacheWithTimerEE5firedEv
__ZN7WebCore22SubimageCacheWithTimer25invalidateCacheTimerFiredEPNS_22DeferrableOneShotTimerIS0_EE
__ZN7WebCore5TimerINS_13ScratchBufferEE5firedEv
__ZN7WebCore13ScratchBuffer10timerFiredEPNS_5TimerIS0_EE
__ZN7WebCore11ImageBufferD1Ev
__ZN7WebCore23ApplicationCacheStorage5emptyEv
__ZN7WebCore31CrossOriginPreflightResultCache6sharedEv
__ZN7WebCore31CrossOriginPreflightResultCache5emptyEv
__ZN7WebCore12IconDatabase14removeAllIconsEv
__ZN7WebCore10IconRecordD1Ev
__ZN7WebCore10IconRecordD2Ev
__ZN7WebCore9FrameData5clearEb
__ZN7WebCore22SubimageCacheWithTimer10clearImageEP7CGImage
-[WebCoreSharedBufferData dealloc]
_WebCoreObjCScheduleDeallocateOnMainThread
-[WebCoreSharedBufferData .cxx_destruct]
__ZN7WebCore12IconDatabase27deleteAllPreparedStatementsEv
__ZNK3WTF12StringAppendIPKcNS_6StringEEcvS3_Ev
__ZN3WTF13tryMakeStringIPKcNS_6StringEEENS_10PassRefPtrINS_10StringImplEEET_T0_
__ZN7WebCore14SQLiteDatabaseD1Ev
__ZN7WebCore14SQLiteDatabaseD2Ev
__ZN7WebCore10deleteFileERKN3WTF6StringE
__ZN7WebCore20deleteEmptyDirectoryERKN3WTF6StringE
__ZN7WebCore14SQLiteDatabase16runVacuumCommandEv
__ZN7WebCore23RemovedAllIconsWorkItem11performWorkEv
__ZN7WebCore23RemovedAllIconsWorkItemD0Ev
-[WebTiledBackingLayer dealloc]
-[WebTiledBackingLayer .cxx_destruct]
__ZN7WebCore15FocusController15setFocusedFrameEN3WTF10PassRefPtrINS_5FrameEEE
__ZN7WebCore14FrameSelection10setFocusedEb
__ZN7WebCore14FrameSelection20setSelectionFromNoneEv
__ZN7WebCore8Document36updateLayoutIgnorePendingStylesheetsEv
__ZN3WTF9HashTableIPN7WebCore12FontSelectorES3_NS_17IdentityExtractorENS_7PtrHashIS3_EENS_10HashTraitsIS3_EES8_E16lookupForWritingINS_22IdentityHashTranslatorIS6_EES3_EENSt3__14pairIPS3_bEERKT0_
__ZN3WTF9HashTableIPN7WebCore12FontSelectorES3_NS_17IdentityExtractorENS_7PtrHashIS3_EENS_10HashTraitsIS3_EES8_E6lookupINS_22IdentityHashTranslatorIS6_EES3_EEPS3_RKT0_
__ZN7WebCore8Document12updateLayoutEv
__ZN7WebCore11RenderBlock24repaintOverhangingFloatsEb
__ZN7WebCore11RenderBlock20hasOverhangingFloatsEv
__ZN7WebCoreL24fontDataForGenericFamilyEPNS_8DocumentERKNS_15FontDescriptionERKN3WTF12AtomicStringE
__ZN7WebCore9FontCache17getCachedFontDataERKNS_15FontDescriptionERKN3WTF12AtomicStringEbNS0_12ShouldRetainE
__ZN7WebCore14ClipRectsCacheD2Ev
__ZN7WebCore14FrameSelection19invalidateCaretRectEv
__ZNK7WebCore6Chrome19focusedFrameChangedEPNS_5FrameE
__ZN7WebCoreL39dispatchEventsOnWindowAndFocusedElementEPNS_8DocumentEb
__ZN7WebCore29ScrollingTreeScrollingNodeMacD0Ev
__ZN7WebCore29ScrollingTreeScrollingNodeMacD2Ev
__ZN7WebCore26ScrollingTreeScrollingNodeD2Ev
__ZN7WebCore17ScrollingTreeNodeD2Ev
__ZN7WebCore12CachedScript11setEncodingERKN3WTF6StringE
__ZN7WebCore14CachedResource13addDataBufferEPNS_14ResourceBufferE
__ZN7WebCore14ResourceBuffer6appendEPKcj
__ZN7WebCore12CachedScript13finishLoadingEPNS_14ResourceBufferE
__ZN7WebCore19CachedCSSStyleSheet11setEncodingERKN3WTF6StringE
__ZN7WebCore19CachedCSSStyleSheet13finishLoadingEPNS_14ResourceBufferE
__ZN7WebCore19TextResourceDecoder18checkForCSSCharsetEPKcmRb
__ZN7WebCore19CachedCSSStyleSheet11checkNotifyEv
__ZN7WebCore26CachedResourceClientWalkerINS_22CachedStyleSheetClientEEC2ERKN3WTF14HashCountedSetIPNS_20CachedResourceClientENS3_7PtrHashIS6_EENS3_10HashTraitsIS6_EEEE
__ZThn96_N7WebCore15HTMLLinkElement16setCSSStyleSheetERKN3WTF6StringERKNS_4KURLES4_PKNS_19CachedCSSStyleSheetE
__ZN7WebCore15HTMLLinkElement16setCSSStyleSheetERKN3WTF6StringERKNS_4KURLES4_PKNS_19CachedCSSStyleSheetE
__ZN7WebCore19CachedCSSStyleSheet23restoreParsedStyleSheetERKNS_16CSSParserContextE
__ZN7WebCore13CSSStyleSheet6createEN3WTF10PassRefPtrINS_18StyleSheetContentsEEEPNS_4NodeE
__ZN7WebCore18StyleSheetContents21parseAuthorStyleSheetEPKNS_19CachedCSSStyleSheetEPKNS_14SecurityOriginE
__ZNK7WebCore19CachedCSSStyleSheet9sheetTextEbPb
__ZNK7WebCore14ResourceBuffer7isEmptyEv
__ZNK7WebCore19CachedCSSStyleSheet11canUseSheetEbPb
__ZN7WebCore28extractMIMETypeFromMediaTypeERKN3WTF6StringE
__ZN7WebCore9CSSParser17parseFillPositionEPNS_18CSSParserValueListERN3WTF6RefPtrINS_8CSSValueEEES7_
__ZN7WebCoreL19parseBackgroundClipEPNS_14CSSParserValueERN3WTF6RefPtrINS_8CSSValueEEE
__ZN7WebCore9CSSParser20parseBackgroundColorEv
__ZN7WebCore17CSSPrimitiveValueD1Ev
__ZN7WebCore17CSSPrimitiveValue7cleanupEv
__ZN7WebCore21borderBottomShorthandEv
__ZN7WebCore9CSSParser26createPrimitiveStringValueEPNS_14CSSParserValueE
__ZN7WebCore9CSSParser9parseFontEb
__ZN7WebCore4PairD0Ev
__ZN7WebCore9CSSParser16parseBorderImageENS_13CSSPropertyIDERN3WTF6RefPtrINS_8CSSValueEEEb
__ZN7WebCore9CSSParser21parseBorderImageSliceENS_13CSSPropertyIDERN3WTF6RefPtrINS_24CSSBorderImageSliceValueEEE
__ZN7WebCore28BorderImageSliceParseContext12commitNumberEPNS_14CSSParserValueE
__ZN7WebCore28BorderImageSliceParseContext22commitBorderImageSliceEv
__ZN7WebCore17CSSPrimitiveValue6createIN3WTF10PassRefPtrINS_4QuadEEEEENS3_IS0_EET_
__ZN7WebCore17CSSPrimitiveValue4initEN3WTF10PassRefPtrINS_4QuadEEE
__ZN7WebCore24CSSBorderImageSliceValueC1EN3WTF10PassRefPtrINS_17CSSPrimitiveValueEEEb
__ZN7WebCore9CSSParser22parseBorderImageRepeatERN3WTF6RefPtrINS_8CSSValueEEE
__ZN7WebCore23BorderImageParseContext23commitWebKitBorderImageEv
__ZN7WebCore22createBorderImageValueEN3WTF10PassRefPtrINS_8CSSValueEEES3_S3_S3_S3_
__ZN7WebCore23BorderImageParseContextD2Ev
__ZN7WebCore18listStyleShorthandEv
__ZN7WebCore9CSSParser15currentLocationEv
__ZN7WebCore9CSSParser11syntaxErrorERKNS0_8LocationENS0_15SyntaxErrorTypeE
__ZN7WebCore9CSSParser8logErrorERKN3WTF6StringEi
__ZN7WebCore11PageConsole10addMessageENS_13MessageSourceENS_12MessageLevelERKN3WTF6StringES6_jjNS3_10PassRefPtrINS_15ScriptCallStackEEEPN3JSC9ExecStateEm
__ZN7WebCore21InspectorConsoleAgent19addMessageToConsoleENS_13MessageSourceENS_11MessageTypeENS_12MessageLevelERKN3WTF6StringES7_jjPN3JSC9ExecStateEm
__ZN7WebCore9CSSParser13parseSVGValueENS_13CSSPropertyIDEb
__ZN7WebCore9CSSParser29parseDeprecatedLinearGradientEPNS_18CSSParserValueListERN3WTF6RefPtrINS_8CSSValueEEENS_17CSSGradientRepeatE
__ZN7WebCore9CSSParser23parseGradientColorStopsEPNS_18CSSParserValueListEPNS_16CSSGradientValueEb
__ZN7WebCore9CSSParser22rollbackLastPropertiesEi
__ZN7WebCore9CSSParser19parseLinearGradientEPNS_18CSSParserValueListERN3WTF6RefPtrINS_8CSSValueEEENS_17CSSGradientRepeatE
__ZN7WebCore16CSSGradientValueD2Ev
__ZN7WebCore22CSSImageGeneratorValueD2Ev
__ZN7WebCore20borderRightShorthandEv
__ZN7WebCore19borderLeftShorthandEv
__ZN7WebCore18borderTopShorthandEv
__ZN3WTF6VectorINS_6RefPtrIN7WebCore8CSSValueEEELm4ENS_15CrashOnOverflowEE15reserveCapacityEm
__ZN7WebCore9CSSParser13parseFillSizeENS_13CSSPropertyIDERb
__ZN7WebCore18StyleSheetContents17notifyLoadedSheetEPKNS_19CachedCSSStyleSheetE
__ZN7WebCore15HTMLLinkElement11sheetLoadedEv
__ZN7WebCore10RenderView30repaintViewAndCompositedLayersEv
__ZN7WebCore21RenderLayerCompositor23repaintCompositedLayersEPKNS_7IntRectE
__ZN7WebCore21RenderLayerCompositor21recursiveRepaintLayerEPNS_11RenderLayerEPKNS_7IntRectE
__ZN7WebCore11RenderLayer22setBackingNeedsRepaintEv
__ZN7WebCore9FillLayer15initialFillSizeENS_14EFillLayerTypeE
__ZN7WebCore20ApplyPropertyDefaultINS_9EOverflowEXadL_ZNKS_11RenderStyle9overflowYEvEES1_XadL_ZNS2_12setOverflowYES1_EES1_XadL_ZNS2_16initialOverflowYEvEEE10applyValueENS_13CSSPropertyIDEPNS_13StyleResolverEPNS_8CSSValueE
__ZN7WebCore20ApplyPropertyDefaultINS_9EOverflowEXadL_ZNKS_11RenderStyle9overflowXEvEES1_XadL_ZNS2_12setOverflowXES1_EES1_XadL_ZNS2_16initialOverflowXEvEEE10applyValueENS_13CSSPropertyIDEPNS_13StyleResolverEPNS_8CSSValueE
__ZNK7WebCore17CSSPrimitiveValue14getDoubleValueEv
__ZN7WebCore20ApplyPropertyDefaultINS_9EPositionEXadL_ZNKS_11RenderStyle8positionEvEES1_XadL_ZNS2_11setPositionES1_EES1_XadL_ZNS2_15initialPositionEvEEE10applyValueENS_13CSSPropertyIDEPNS_13StyleResolverEPNS_8CSSValueE
__ZN7WebCore11RenderBlock23removePositionedObjectsEPS0_NS_20ContainingBlockStateE
__ZNK7WebCore12RenderObject20isSVGHiddenContainerEv
__ZN7WebCore12RenderObject10moveLayersEPNS_11RenderLayerES2_
__ZNK7WebCore12RenderObject22getUncachedPseudoStyleERKNS_18PseudoStyleRequestEPNS_11RenderStyleES5_
__ZN7WebCore13StyleResolver21pseudoStyleForElementEPNS_7ElementERKNS_18PseudoStyleRequestEPNS_11RenderStyleE
__ZNK7WebCore11RenderBlock19virtualContinuationEv
__ZNK7WebCore11RenderLayer23usesCompositedScrollingEv
__ZN7WebCore10RenderText15willBeDestroyedEv
__ZN7WebCore10RenderText25removeAndDestroyTextBoxesEv
__ZN7WebCore9InlineBox6removeEv
__ZN7WebCore13InlineFlowBox11removeChildEPNS_9InlineBoxE
__ZN7WebCore9InlineBox14dirtyLineBoxesEv
__ZN7WebCore13RootInlineBox12childRemovedEPNS_9InlineBoxE
__ZN7WebCore13InlineTextBox7destroyEPNS_11RenderArenaE
__ZN7WebCore9InlineBox7destroyEPNS_11RenderArenaE
__ZN7WebCore13InlineTextBoxD0Ev
__ZN7WebCore9InlineBoxdlEPvm
__ZN7WebCore12RenderObject15virtualChildrenEv
__ZNK7WebCore10RenderText29clippedOverflowRectForRepaintEPKNS_22RenderLayerModelObjectE
__ZN7WebCore13InlineFlowBox10deleteLineEPNS_11RenderArenaE
__ZN7WebCore13RootInlineBox29removeLineBoxFromRenderObjectEv
__ZN7WebCore17RenderLineBoxList13removeLineBoxEPNS_13InlineFlowBoxE
__ZN7WebCore13RootInlineBox7destroyEPNS_11RenderArenaE
__ZN7WebCore13RootInlineBox17detachEllipsisBoxEPNS_11RenderArenaE
__ZN7WebCore13RootInlineBoxD0Ev
__ZN7WebCore10RenderTextD0Ev
__ZN7WebCore16HTMLScriptRunner35executeScriptsWaitingForStylesheetsEv
__ZN7WebCore16HTMLScriptRunner28executeParsingBlockingScriptEv
__ZN7WebCore16HTMLScriptRunner36executePendingScriptAndDispatchEventERNS_13PendingScriptE
__ZNK7WebCore16HTMLScriptRunner23sourceFromPendingScriptERKNS_13PendingScriptERb
__ZNK7WebCore4Node11textContentEb
__ZN7WebCoreL17appendTextContentEPKNS_4NodeEbRbRN3WTF13StringBuilderE
__ZN7WebCore13PendingScript22releaseElementAndClearEv
__ZN7WebCore23jsDOMWindowFrameElementEPN3JSC9ExecStateENS0_7JSValueENS0_12PropertyNameE
__ZNK7WebCore9DOMWindow12frameElementEv
__ZN7WebCore23shouldAllowAccessToNodeEPN3JSC9ExecStateEPNS_4NodeE
__ZN7WebCore15BindingSecurity23shouldAllowAccessToNodeEPN3JSC9ExecStateEPNS_4NodeE
__ZN7WebCore11JSDOMWindow3putEPN3JSC6JSCellEPNS1_9ExecStateENS1_12PropertyNameENS1_7JSValueERNS1_15PutPropertySlotE
__ZN3JSC14JSGlobalObject22hasOwnPropertyForWriteEPNS_9ExecStateENS_12PropertyNameE
__ZN3JSC14symbolTableGetINS_14JSGlobalObjectEEEbPT_NS_12PropertyNameERNS_12PropertySlotERb
__ZN7WebCore18setJSDOMWindowNameEPN3JSC9ExecStateEPNS0_8JSObjectENS0_7JSValueE
__ZN7WebCore9DOMWindow7setNameERKN3WTF6StringE
__ZN7WebCore18HTMLDocumentParser33resumeParsingAfterScriptExecutionEv
__ZN7WebCore13ScriptElement21handleSourceAttributeERKN3WTF6StringE
__ZThn96_NK7WebCore17HTMLScriptElement20sourceAttributeValueEv
__ZN7WebCore13ScriptElement13requestScriptERKN3WTF6StringE
__ZN7WebCore20CachedResourceLoader13requestScriptERNS_21CachedResourceRequestE
__ZN3WTF9HashTableINS_6StringENS_12KeyValuePairIS1_PN7WebCore14CachedResourceEEENS_24KeyValuePairKeyExtractorIS6_EENS_10StringHashENS_18HashMapValueTraitsINS_10HashTraitsIS1_EENSB_IS5_EEEESC_E16lookupForWritingINS_22IdentityHashTranslatorIS9_EES1_EENSt3__14pairIPS6_bEERKT0_
__ZN3WTF9HashTableINS_6StringENS_12KeyValuePairIS1_PN7WebCore14CachedResourceEEENS_24KeyValuePairKeyExtractorIS6_EENS_10StringHashENS_18HashMapValueTraitsINS_10HashTraitsIS1_EENSB_IS5_EEEESC_E3addINS_17HashMapTranslatorISE_S9_EES1_S5_EENS_18HashTableAddResultINS_17HashTableIteratorIS1_S6_S8_S9_SE_SC_EEEERKT0_RKT1_
__ZN3WTF9HashTableINS_6StringENS_12KeyValuePairIS1_PN7WebCore14CachedResourceEEENS_24KeyValuePairKeyExtractorIS6_EENS_10StringHashENS_18HashMapValueTraitsINS_10HashTraitsIS1_EENSB_IS5_EEEESC_E6lookupINS_22IdentityHashTranslatorIS9_EES1_EEPS6_RKT0_
__ZN3WTF9HashTableINS_6StringENS_12KeyValuePairIS1_PN7WebCore14CachedResourceEEENS_24KeyValuePairKeyExtractorIS6_EENS_10StringHashENS_18HashMapValueTraitsINS_10HashTraitsIS1_EENSB_IS5_EEEESC_E6rehashEi
__ZN7WebCore14CachedResource13makePurgeableEb
__ZNK7WebCore14CachedResource8canReuseERKNS_15ResourceRequestE
__ZN7WebCore20CachedResourceLoader49shouldContinueAfterNotifyingLoadedFromMemoryCacheEPNS_14CachedResourceE
__ZN7WebCore11FrameLoader29loadedResourceFromMemoryCacheEPNS_14CachedResourceERNS_15ResourceRequestE
__ZNK7WebCore14CachedResource14stillNeedsLoadEv
__ZThn96_NK7WebCore17HTMLScriptElement19deferAttributeValueEv
__ZNK7WebCore16HTMLScriptRunner20requestPendingScriptERNS_13PendingScriptEPNS_7ElementE
__ZN7WebCore13PendingScript15setCachedScriptEPNS_12CachedScriptE
__ZN7WebCore13PendingScript14notifyFinishedEPNS_14CachedResourceE
__ZN7WebCore16ScriptSourceCodeC2EPNS_12CachedScriptE
__ZNK7WebCore26CachedScriptSourceProvider6sourceEv
__ZN7WebCore12CachedScript6scriptEv
__ZN7WebCore14CachedResource12removeClientEPNS_20CachedResourceClientE
__ZN3WTF7HashMapIPN7WebCore20CachedResourceClientENS_6OwnPtrINS1_14CachedResource22CachedResourceCallbackEEENS_7PtrHashIS3_EENS_10HashTraitsIS3_EENSA_IS7_EEE4takeERKS3_
__ZN3WTF14HashCountedSetIPN7WebCore20CachedResourceClientENS_7PtrHashIS3_EENS_10HashTraitsIS3_EEE6removeERKS3_
__ZN7WebCore14CachedResource15didRemoveClientEPNS_20CachedResourceClientE
__ZN7WebCore19jsDOMWindowLocationEPN3JSC9ExecStateENS0_7JSValueENS0_12PropertyNameE
__ZNK7WebCore9DOMWindow8locationEv
__ZN7WebCore8LocationC1EPNS_5FrameE
__ZN7WebCore4toJSEPN3JSC9ExecStateEPNS_17JSDOMGlobalObjectEPNS_8LocationE
__ZN7WebCore15getDOMStructureINS_10JSLocationEEEPN3JSC9StructureEPNS2_9ExecStateEPNS_17JSDOMGlobalObjectE
__ZN7WebCore10JSLocation15createPrototypeEPN3JSC9ExecStateEPNS1_14JSGlobalObjectE
__ZN7WebCore12cacheWrapperINS_8LocationEEEvPNS_15DOMWrapperWorldEPT_PNS_12JSDOMWrapperE
__ZN7WebCore20jsDOMWindowNavigatorEPN3JSC9ExecStateENS0_7JSValueENS0_12PropertyNameE
__ZNK7WebCore9DOMWindow9navigatorEv
__ZN7WebCore9NavigatorC1EPNS_5FrameE
__ZN7WebCore4toJSEPN3JSC9ExecStateEPNS_17JSDOMGlobalObjectEPNS_9NavigatorE
__ZN7WebCore15getDOMStructureINS_11JSNavigatorEEEPN3JSC9StructureEPNS2_9ExecStateEPNS_17JSDOMGlobalObjectE
__ZN7WebCore11JSNavigator15createPrototypeEPN3JSC9ExecStateEPNS1_14JSGlobalObjectE
__ZN7WebCore12cacheWrapperINS_9NavigatorEEEvPNS_15DOMWrapperWorldEPT_PNS_12JSDOMWrapperE
__ZN7WebCore11JSNavigator18getOwnPropertySlotEPN3JSC6JSCellEPNS1_9ExecStateENS1_12PropertyNameERNS1_12PropertySlotE
__ZN3JSC18getStaticValueSlotIN7WebCore11JSNavigatorENS1_12JSDOMWrapperEEEbPNS_9ExecStateEPKNS_9HashTableEPT_NS_12PropertyNameERNS_12PropertySlotE
__ZN7WebCore20jsNavigatorUserAgentEPN3JSC9ExecStateENS0_7JSValueENS0_12PropertyNameE
__ZNK7WebCore9Navigator9userAgentEv
__ZNK7WebCore11FrameLoader9userAgentERKNS_4KURLE
__ZN7WebCore17jsStringWithCacheEPN3JSC9ExecStateERKN3WTF6StringE
__ZN3JSC9WeakGCMapIPN3WTF10StringImplENS_8JSStringENS1_7PtrHashIS3_EENS1_10HashTraitsIS3_EEE3addERKS3_NS_8PassWeakIS4_EE
__ZN3WTF9HashTableIPNS_10StringImplENS_12KeyValuePairIS2_N3JSC4WeakINS4_8JSStringEEEEENS_24KeyValuePairKeyExtractorIS8_EENS_7PtrHashIS2_EENS_18HashMapValueTraitsINS_10HashTraitsIS2_EENSE_IS7_EEEESF_E16lookupForWritingINS_22IdentityHashTranslatorISC_EES2_EENSt3__14pairIPS8_bEERKT0_
__ZN3WTF9HashTableIPNS_10StringImplENS_12KeyValuePairIS2_N3JSC4WeakINS4_8JSStringEEEEENS_24KeyValuePairKeyExtractorIS8_EENS_7PtrHashIS2_EENS_18HashMapValueTraitsINS_10HashTraitsIS2_EENSE_IS7_EEEESF_E3addINS_17HashMapTranslatorISH_SC_EES2_NS4_8PassWeakIS6_EEEENS_18HashTableAddResultINS_17HashTableIteratorIS2_S8_SA_SC_SH_SF_EEEERKT0_RKT1_
__ZN3WTF9HashTableIPNS_10StringImplENS_12KeyValuePairIS2_N3JSC4WeakINS4_8JSStringEEEEENS_24KeyValuePairKeyExtractorIS8_EENS_7PtrHashIS2_EENS_18HashMapValueTraitsINS_10HashTraitsIS2_EENSE_IS7_EEEESF_E6lookupINS_22IdentityHashTranslatorISC_EES2_EEPS8_RKT0_
__ZN3WTF9HashTableIPNS_10StringImplENS_12KeyValuePairIS2_N3JSC4WeakINS4_8JSStringEEEEENS_24KeyValuePairKeyExtractorIS8_EENS_7PtrHashIS2_EENS_18HashMapValueTraitsINS_10HashTraitsIS2_EENSE_IS7_EEEESF_E6rehashEi
__ZN3JSC8jsStringEPNS_9ExecStateERKN3WTF6StringE
__ZN3JSC8JSString6createERNS_2VMEN3WTF10PassRefPtrINS3_10StringImplEEE
__ZN7WebCore14JSHTMLDocument18getOwnPropertySlotEPN3JSC6JSCellEPNS1_9ExecStateENS1_12PropertyNameERNS1_12PropertySlotE
__ZN7WebCore14JSHTMLDocument18canGetItemsForNameEPN3JSC9ExecStateEPNS_12HTMLDocumentENS1_12PropertyNameE
__ZN3JSC18getStaticValueSlotIN7WebCore14JSHTMLDocumentENS1_10JSDocumentEEEbPNS_9ExecStateEPKNS_9HashTableEPT_NS_12PropertyNameERNS_12PropertySlotE
__ZN3JSC18getStaticValueSlotIN7WebCore6JSNodeENS1_12JSDOMWrapperEEEbPNS_9ExecStateEPKNS_9HashTableEPT_NS_12PropertyNameERNS_12PropertySlotE
__ZN7WebCore14jsNodeNodeTypeEPN3JSC9ExecStateENS0_7JSValueENS0_12PropertyNameE
__ZN7WebCore23JSHTMLDocumentPrototype18getOwnPropertySlotEPN3JSC6JSCellEPNS1_9ExecStateENS1_12PropertyNameERNS1_12PropertySlotE
__ZN3JSC21getStaticFunctionSlotINS_8JSObjectEEEbPNS_9ExecStateEPKNS_9HashTableEPS1_NS_12PropertyNameERNS_12PropertySlotE
__ZN7WebCore19JSDocumentPrototype18getOwnPropertySlotEPN3JSC6JSCellEPNS1_9ExecStateENS1_12PropertyNameERNS1_12PropertySlotE
__ZN7WebCore15JSNodePrototype18getOwnPropertySlotEPN3JSC6JSCellEPNS1_9ExecStateENS1_12PropertyNameERNS1_12PropertySlotE
__ZN3JSC21getStaticPropertySlotIN7WebCore15JSNodePrototypeENS_8JSObjectEEEbPNS_9ExecStateEPKNS_9HashTableEPT_NS_12PropertyNameERNS_12PropertySlotE
__ZN7WebCore40jsDocumentPrototypeFunctionCreateElementEPN3JSC9ExecStateE
__ZN7WebCore26valueToStringWithNullCheckEPN3JSC9ExecStateENS0_7JSValueE
__ZN7WebCore12HTMLDocument13createElementERKN3WTF12AtomicStringERi
__ZN7WebCore8Document11isValidNameERKN3WTF6StringE
__ZN7WebCore16toJSNewlyCreatedEPN3JSC9ExecStateEPNS_17JSDOMGlobalObjectEPNS_7ElementE
__ZN7WebCore19createJSHTMLWrapperEPN3JSC9ExecStateEPNS_17JSDOMGlobalObjectEN3WTF10PassRefPtrINS_11HTMLElementEEE
__ZN3WTF9HashTableIPNS_16AtomicStringImplENS_12KeyValuePairIS2_PFPN7WebCore12JSDOMWrapperEPN3JSC9ExecStateEPNS4_17JSDOMGlobalObjectENS_10PassRefPtrINS4_10SVGElementEEEEEENS_24KeyValuePairKeyExtractorISH_EENS_7PtrHashIS2_EENS_18HashMapValueTraitsINS_10HashTraitsIS2_EENSN_ISG_EEEESO_E16lookupForWritingINS_22IdentityHashTranslatorISL_EES2_EENSt3__14pairIPSH_bEERKT0_
__ZN3WTF9HashTableIPNS_16AtomicStringImplENS_12KeyValuePairIS2_PFPN7WebCore12JSDOMWrapperEPN3JSC9ExecStateEPNS4_17JSDOMGlobalObjectENS_10PassRefPtrINS4_10SVGElementEEEEEENS_24KeyValuePairKeyExtractorISH_EENS_7PtrHashIS2_EENS_18HashMapValueTraitsINS_10HashTraitsIS2_EENSN_ISG_EEEESO_E3addINS_17HashMapTranslatorISQ_SL_EES2_SG_EENS_18HashTableAddResultINS_17HashTableIteratorIS2_SH_SJ_SL_SQ_SO_EEEERKT0_RKT1_
__ZN3WTF9HashTableIPNS_16AtomicStringImplENS_12KeyValuePairIS2_PFPN7WebCore12JSDOMWrapperEPN3JSC9ExecStateEPNS4_17JSDOMGlobalObjectENS_10PassRefPtrINS4_10SVGElementEEEEEENS_24KeyValuePairKeyExtractorISH_EENS_7PtrHashIS2_EENS_18HashMapValueTraitsINS_10HashTraitsIS2_EENSN_ISG_EEEESO_E6lookupINS_22IdentityHashTranslatorISL_EES2_EEPSH_RKT0_
__ZN3WTF9HashTableIPNS_16AtomicStringImplENS_12KeyValuePairIS2_PFPN7WebCore12JSDOMWrapperEPN3JSC9ExecStateEPNS4_17JSDOMGlobalObjectENS_10PassRefPtrINS4_11HTMLElementEEEEEENS_24KeyValuePairKeyExtractorISH_EENS_7PtrHashIS2_EENS_18HashMapValueTraitsINS_10HashTraitsIS2_EENSN_ISG_EEEESO_E16lookupForWritingINS_22IdentityHashTranslatorISL_EES2_EENSt3__14pairIPSH_bEERKT0_
__ZN3WTF9HashTableIPNS_16AtomicStringImplENS_12KeyValuePairIS2_PFPN7WebCore12JSDOMWrapperEPN3JSC9ExecStateEPNS4_17JSDOMGlobalObjectENS_10PassRefPtrINS4_11HTMLElementEEEEEENS_24KeyValuePairKeyExtractorISH_EENS_7PtrHashIS2_EENS_18HashMapValueTraitsINS_10HashTraitsIS2_EENSN_ISG_EEEESO_E3addINS_17HashMapTranslatorISQ_SL_EES2_SG_EENS_18HashTableAddResultINS_17HashTableIteratorIS2_SH_SJ_SL_SQ_SO_EEEERKT0_RKT1_
__ZN3WTF9HashTableIPNS_16AtomicStringImplENS_12KeyValuePairIS2_PFPN7WebCore12JSDOMWrapperEPN3JSC9ExecStateEPNS4_17JSDOMGlobalObjectENS_10PassRefPtrINS4_11HTMLElementEEEEEENS_24KeyValuePairKeyExtractorISH_EENS_7PtrHashIS2_EENS_18HashMapValueTraitsINS_10HashTraitsIS2_EENSN_ISG_EEEESO_E6lookupINS_22IdentityHashTranslatorISL_EES2_EEPSH_RKT0_
__ZN7WebCoreL27createHTMLDivElementWrapperEPN3JSC9ExecStateEPNS_17JSDOMGlobalObjectEN3WTF10PassRefPtrINS_11HTMLElementEEE
__ZN7WebCore15getDOMStructureINS_16JSHTMLDivElementEEEPN3JSC9StructureEPNS2_9ExecStateEPNS_17JSDOMGlobalObjectE
__ZN7WebCore16JSHTMLDivElement15createPrototypeEPN3JSC9ExecStateEPNS1_14JSGlobalObjectE
__ZN7WebCore22JSHTMLElementPrototype4selfEPN3JSC9ExecStateEPNS1_14JSGlobalObjectE
__ZN7WebCore15getDOMStructureINS_13JSHTMLElementEEEPN3JSC9StructureEPNS2_9ExecStateEPNS_17JSDOMGlobalObjectE
__ZN7WebCore13JSHTMLElement15createPrototypeEPN3JSC9ExecStateEPNS1_14JSGlobalObjectE
__ZN7WebCore18JSElementPrototype4selfEPN3JSC9ExecStateEPNS1_14JSGlobalObjectE
__ZN7WebCore15getDOMStructureINS_9JSElementEEEPN3JSC9StructureEPNS2_9ExecStateEPNS_17JSDOMGlobalObjectE
__ZN7WebCore9JSElement15createPrototypeEPN3JSC9ExecStateEPNS1_14JSGlobalObjectE
__ZN7WebCore16JSHTMLDivElement6createEPN3JSC9StructureEPNS_17JSDOMGlobalObjectEN3WTF10PassRefPtrINS_14HTMLDivElementEEE
__ZN7WebCore16JSHTMLDivElementC1EPN3JSC9StructureEPNS_17JSDOMGlobalObjectEN3WTF10PassRefPtrINS_14HTMLDivElementEEE
__ZN7WebCore13JSHTMLElementC2EPN3JSC9StructureEPNS_17JSDOMGlobalObjectEN3WTF10PassRefPtrINS_11HTMLElementEEE
__ZN7WebCore9JSElementC2EPN3JSC9StructureEPNS_17JSDOMGlobalObjectEN3WTF10PassRefPtrINS_7ElementEEE
__ZN7WebCore16JSHTMLDivElement14finishCreationERN3JSC2VME
__ZN7WebCore13JSHTMLElement14finishCreationERN3JSC2VME
__ZN7WebCore9JSElement14finishCreationERN3JSC2VME
__ZN7WebCore12cacheWrapperINS_14HTMLDivElementEEEvPNS_15DOMWrapperWorldEPT_PNS_12JSDOMWrapperE
__ZN7WebCore15setDOMExceptionEPN3JSC9ExecStateEi
__ZN7WebCore16JSHTMLDivElement18getOwnPropertySlotEPN3JSC6JSCellEPNS1_9ExecStateENS1_12PropertyNameERNS1_12PropertySlotE
__ZN7WebCore13JSHTMLElement18getOwnPropertySlotEPN3JSC6JSCellEPNS1_9ExecStateENS1_12PropertyNameERNS1_12PropertySlotE
__ZN3JSC18getStaticValueSlotIN7WebCore13JSHTMLElementENS1_9JSElementEEEbPNS_9ExecStateEPKNS_9HashTableEPT_NS_12PropertyNameERNS_12PropertySlotE
__ZN7WebCore22JSHTMLElementPrototype18getOwnPropertySlotEPN3JSC6JSCellEPNS1_9ExecStateENS1_12PropertyNameERNS1_12PropertySlotE
__ZN7WebCore18JSElementPrototype18getOwnPropertySlotEPN3JSC6JSCellEPNS1_9ExecStateENS1_12PropertyNameERNS1_12PropertySlotE
__ZN3JSC21getStaticPropertySlotIN7WebCore18JSElementPrototypeENS_8JSObjectEEEbPNS_9ExecStateEPKNS_9HashTableEPT_NS_12PropertyNameERNS_12PropertySlotE
__ZN7WebCore38jsElementPrototypeFunctionSetAttributeEPN3JSC9ExecStateE
__ZN7WebCore7Element12setAttributeERKN3WTF12AtomicStringES4_Ri
__ZNK7WebCore7Element20synchronizeAttributeERKN3WTF12AtomicStringE
__ZN7WebCore7Element20setAttributeInternalEjRKNS_13QualifiedNameERKN3WTF12AtomicStringENS0_30SynchronizationOfLazyAttributeE
__ZN7WebCore7Element20addAttributeInternalERKNS_13QualifiedNameERKN3WTF12AtomicStringENS0_30SynchronizationOfLazyAttributeE
__ZN7WebCore7Element19willModifyAttributeERKNS_13QualifiedNameERKN3WTF12AtomicStringES7_
__ZN7WebCore7Element23createUniqueElementDataEv
__ZN7WebCore17UniqueElementData12addAttributeERKNS_13QualifiedNameERKN3WTF12AtomicStringE
__ZN7WebCore7Element15didAddAttributeERKNS_13QualifiedNameERKN3WTF12AtomicStringE
__ZN7WebCore4Node28dispatchSubtreeModifiedEventEv
__ZN7WebCore16JSHTMLDivElement3putEPN3JSC6JSCellEPNS1_9ExecStateENS1_12PropertyNameENS1_7JSValueERNS1_15PutPropertySlotE
__ZN7WebCore13JSHTMLElement3putEPN3JSC6JSCellEPNS1_9ExecStateENS1_12PropertyNameENS1_7JSValueERNS1_15PutPropertySlotE
__ZN3JSC8putEntryIN7WebCore13JSHTMLElementEEEvPNS_9ExecStateEPKNS_9HashEntryENS_12PropertyNameENS_7JSValueEPT_b
__ZN7WebCore25setJSHTMLElementInnerHTMLEPN3JSC9ExecStateEPNS0_8JSObjectENS0_7JSValueE
__ZN7WebCore11HTMLElement12setInnerHTMLERKN3WTF6StringERi
__ZN7WebCore31createFragmentForInnerOuterHTMLERKN3WTF6StringEPNS_7ElementENS_19ParserContentPolicyERi
__ZN7WebCore16DocumentFragment6createEPNS_8DocumentE
__ZN7WebCore16DocumentFragment9parseHTMLERKN3WTF6StringEPNS_7ElementENS_19ParserContentPolicyE
__ZN7WebCore18HTMLDocumentParser21parseDocumentFragmentERKN3WTF6StringEPNS_16DocumentFragmentEPNS_7ElementENS_19ParserContentPolicyE
__ZN7WebCore18HTMLDocumentParserC2EPNS_16DocumentFragmentEPNS_7ElementENS_19ParserContentPolicyE
__ZN7WebCore15HTMLTreeBuilderC1EPNS_18HTMLDocumentParserEPNS_16DocumentFragmentEPNS_7ElementENS_19ParserContentPolicyERKNS_17HTMLParserOptionsE
__ZN7WebCore15HTMLTreeBuilderC2EPNS_18HTMLDocumentParserEPNS_16DocumentFragmentEPNS_7ElementENS_19ParserContentPolicyERKNS_17HTMLParserOptionsE
__ZN7WebCore20HTMLConstructionSiteC1EPNS_16DocumentFragmentENS_19ParserContentPolicyEj
__ZN7WebCore16HTMLElementStack12pushRootNodeEN3WTF10PassRefPtrINS_13HTMLStackItemEEE
__ZN7WebCore15HTMLTreeBuilder31resetInsertionModeAppropriatelyEv
__ZNK7WebCore16HTMLElementStack8rootNodeEv
__ZN7WebCore13HTMLStackItemC2EN3WTF10PassRefPtrINS_13ContainerNodeEEENS0_8ItemTypeE
__ZNK7WebCore7Element9localNameEv
__ZN7WebCore20HTMLConstructionSite7setFormEPNS_15HTMLFormElementE
__ZN7WebCore10XSSAuditor15initForFragmentEv
__ZN7WebCore18HTMLDocumentParser6insertERKNS_15SegmentedStringE
__ZN7WebCore15SegmentedStringC1ERKS0_
__ZN7WebCore15SegmentedStringC2ERKS0_
__ZN7WebCore15SegmentedString21setExcludeLineNumbersEv
__ZN7WebCore26ChildNodeInsertionNotifier26notifyNodeInsertedIntoTreeEPNS_13ContainerNodeE
__ZN7WebCore26ChildNodeInsertionNotifier32notifyDescendantInsertedIntoTreeEPNS_13ContainerNodeE
__ZN7WebCore20HTMLConstructionSite12inQuirksModeEv
__ZNK7WebCore16HTMLElementStack13inButtonScopeERKNS_13QualifiedNameE
__ZN7WebCoreL16tableConstructorERKNS_13QualifiedNameEPNS_8DocumentEPNS_15HTMLFormElementEb
__ZN7WebCore16HTMLTableElement6createERKNS_13QualifiedNameEPNS_8DocumentE
__ZN7WebCore16HTMLTableElementC2ERKNS_13QualifiedNameEPNS_8DocumentE
__ZN7WebCore15HTMLTreeBuilder23processEndTagForInTableEPNS_15AtomicHTMLTokenE
__ZNK7WebCore16HTMLElementStack12inTableScopeERKNS_13QualifiedNameE
__ZNK7WebCore16HTMLElementStack12inTableScopeERKN3WTF12AtomicStringE
__ZN7WebCoreL16inputConstructorERKNS_13QualifiedNameEPNS_8DocumentEPNS_15HTMLFormElementEb
__ZN7WebCore16HTMLInputElement6createERKNS_13QualifiedNameEPNS_8DocumentEPNS_15HTMLFormElementEb
__ZN7WebCore26HTMLTextFormControlElementC2ERKNS_13QualifiedNameEPNS_8DocumentEPNS_15HTMLFormElementE
__ZN7WebCore31HTMLFormControlElementWithStateC2ERKNS_13QualifiedNameEPNS_8DocumentEPNS_15HTMLFormElementE
__ZN7WebCore22HTMLFormControlElementC2ERKNS_13QualifiedNameEPNS_8DocumentEPNS_15HTMLFormElementE
__ZN7WebCore16LabelableElementC2ERKNS_13QualifiedNameEPNS_8DocumentE
__ZN7WebCore21FormAssociatedElementC2Ev
__ZN7WebCore21FormAssociatedElement7setFormEPNS_15HTMLFormElementE
__ZN7WebCore9InputType10createTextEPNS_16HTMLInputElementE
__ZN7WebCore13TextInputType6createEPNS_16HTMLInputElementE
__ZN7WebCore18TextFieldInputTypeC2EPNS_16HTMLInputElementE
__ZN7WebCore7Element25ensureUserAgentShadowRootEv
__ZN7WebCore7Element12ensureShadowEv
__ZN7WebCore18ContentDistributorC1Ev
__ZN7WebCore13ElementShadow13addShadowRootEPNS_7ElementENS_10ShadowRoot14ShadowRootTypeE
__ZN7WebCore10ShadowRootC1EPNS_8DocumentENS0_14ShadowRootTypeE
__ZN7WebCore16DocumentFragmentC2EPNS_8DocumentENS_4Node16ConstructionTypeE
__ZN7WebCore9TreeScopeC2EPNS_13ContainerNodeEPNS_8DocumentE
__ZN7WebCore9TreeScope18setParentTreeScopeEPS0_
__ZN7WebCore18ContentDistributor23didShadowBoundaryChangeEPNS_7ElementE
__ZN7WebCore18ContentDistributor22invalidateDistributionEPNS_7ElementE
__ZN7WebCore18ContentDistributor10invalidateEPNS_7ElementE
__ZN7WebCore18ContentDistributor24ensureInsertionPointListEPNS_10ShadowRootE
__ZN7WebCore16HTMLInputElement25didAddUserAgentShadowRootEPNS_10ShadowRootE
__ZN7WebCore18TextFieldInputType19createShadowSubtreeEv
__ZNK7WebCore18TextFieldInputType20shouldHaveSpinButtonEv
__ZNK7WebCore11RenderTheme20shouldHaveSpinButtonEPNS_16HTMLInputElementE
__ZNK7WebCore16HTMLInputElement11isSteppableEv
__ZNK7WebCore9InputType11isSteppableEv
__ZNK7WebCore18TextFieldInputType14needsContainerEv
__ZN7WebCore27TextControlInnerTextElement6createEPNS_8DocumentE
__ZNK7WebCore7Element19userAgentShadowRootEv
__ZN7WebCore13ContainerNode11appendChildEN3WTF10PassRefPtrINS_4NodeEEERiNS_14AttachBehaviorE
__ZN7WebCoreL16checkAcceptChildEPNS_13ContainerNodeEPNS_4NodeES3_
__ZNK7WebCore4Node14customPseudoIdEv
__ZNK7WebCore16DocumentFragment8nodeTypeEv
__ZNK7WebCore4Node29containsIncludingHostElementsEPKS0_
__ZNK7WebCore10ShadowRoot16childTypeAllowedENS_4Node8NodeTypeE
__ZN7WebCoreL37collectChildrenAndRemoveFromOldParentEPNS_4NodeERN3WTF6VectorINS2_6RefPtrIS0_EELm11ENS2_15CrashOnOverflowEEERi
__ZNK7WebCore4Node8containsEPKS0_
__ZNK7WebCore4Node14isDescendantOfEPKS0_
__ZNK7WebCore16TreeScopeAdopter18moveTreeToNewScopeEPNS_4NodeE
__ZN7WebCoreL24updateTreeAfterInsertionEPNS_13ContainerNodeEPNS_4NodeENS_14AttachBehaviorE
__ZN7WebCore10ShadowRoot15childrenChangedEbPNS_4NodeES2_i
__ZN7WebCore8Document32updateRangesAfterChildrenChangedEPNS_13ContainerNodeE
__ZNK7WebCore16HTMLInputElement23isPresentationAttributeERKNS_13QualifiedNameE
__ZN7WebCore16HTMLInputElement14parseAttributeERKNS_13QualifiedNameERKN3WTF12AtomicStringE
__ZN7WebCore16HTMLInputElement10updateTypeEv
__ZN7WebCore9InputType6createEPNS_16HTMLInputElementERKN3WTF12AtomicStringE
__ZN7WebCore14InputTypeNames6buttonEv
__ZN7WebCore14InputTypeNames8checkboxEv
__ZN7WebCore14InputTypeNames5emailEv
__ZN7WebCore14InputTypeNames4fileEv
__ZN7WebCore14InputTypeNames6hiddenEv
__ZN7WebCore14InputTypeNames5imageEv
__ZN7WebCore14InputTypeNames6numberEv
__ZN7WebCore14InputTypeNames8passwordEv
__ZN7WebCore14InputTypeNames5radioEv
__ZN7WebCore14InputTypeNames5rangeEv
__ZN7WebCore14InputTypeNames5resetEv
__ZN7WebCore14InputTypeNames6searchEv
__ZN7WebCore14InputTypeNames6submitEv
__ZN7WebCore14InputTypeNames9telephoneEv
__ZN7WebCore14InputTypeNames3urlEv
__ZN3WTF9HashTableINS_12AtomicStringENS_12KeyValuePairIS1_PFNS_10PassOwnPtrIN7WebCore9InputTypeEEEPNS4_16HTMLInputElementEEEENS_24KeyValuePairKeyExtractorISB_EENS_15CaseFoldingHashENS_18HashMapValueTraitsINS_10HashTraitsIS1_EENSG_ISA_EEEESH_E16lookupForWritingINS_22IdentityHashTranslatorISE_EES1_EENSt3__14pairIPSB_bEERKT0_
__ZN3WTF9HashTableINS_12AtomicStringENS_12KeyValuePairIS1_PFNS_10PassOwnPtrIN7WebCore9InputTypeEEEPNS4_16HTMLInputElementEEEENS_24KeyValuePairKeyExtractorISB_EENS_15CaseFoldingHashENS_18HashMapValueTraitsINS_10HashTraitsIS1_EENSG_ISA_EEEESH_E3addINS_17HashMapTranslatorISJ_SE_EES1_SA_EENS_18HashTableAddResultINS_17HashTableIteratorIS1_SB_SD_SE_SJ_SH_EEEERKT0_RKT1_
__ZN3WTF9HashTableINS_12AtomicStringENS_12KeyValuePairIS1_PFNS_10PassOwnPtrIN7WebCore9InputTypeEEEPNS4_16HTMLInputElementEEEENS_24KeyValuePairKeyExtractorISB_EENS_15CaseFoldingHashENS_18HashMapValueTraitsINS_10HashTraitsIS1_EENSG_ISA_EEEESH_E6lookupINS_22IdentityHashTranslatorISE_EES1_EEPSB_RKT0_
__ZN3WTF9HashTableINS_12AtomicStringENS_12KeyValuePairIS1_PFNS_10PassOwnPtrIN7WebCore9InputTypeEEEPNS4_16HTMLInputElementEEEENS_24KeyValuePairKeyExtractorISB_EENS_15CaseFoldingHashENS_18HashMapValueTraitsINS_10HashTraitsIS1_EENSG_ISA_EEEESH_E6rehashEi
__ZN3WTF9HashTableINS_12AtomicStringENS_12KeyValuePairIS1_PFNS_10PassOwnPtrIN7WebCore9InputTypeEEEPNS4_16HTMLInputElementEEEENS_24KeyValuePairKeyExtractorISB_EENS_15CaseFoldingHashENS_18HashMapValueTraitsINS_10HashTraitsIS1_EENSG_ISA_EEEESH_E8reinsertERSB_
__ZN7WebCore17CheckboxInputType6createEPNS_16HTMLInputElementE
__ZNK7WebCore13TextInputType15formControlTypeEv
__ZN7WebCore14InputTypeNames4textEv
__ZNK7WebCore17CheckboxInputType15formControlTypeEv
__ZNK7WebCore9InputType13isRadioButtonEv
__ZN7WebCore9InputType32storesValueSeparateFromAttributeEv
__ZN7WebCore16HTMLInputElement23needsSuspensionCallbackEv
__ZN7WebCore9InputType31shouldResetOnDocumentActivationEv
__ZN7WebCore9InputType37shouldRespectHeightAndWidthAttributesEv
__ZN7WebCore18TextFieldInputType20destroyShadowSubtreeEv
__ZN7WebCore9InputType20destroyShadowSubtreeEv
__ZN7WebCore8Document26removeFocusedNodeOfSubtreeEPNS_4NodeEb
__ZN7WebCore8Document32removeFullScreenElementOfSubtreeEPNS_4NodeEb
__ZN7WebCore8Document25nodeChildrenWillBeRemovedEPNS_13ContainerNodeE
__ZN7WebCore12EventHandler17nodeWillBeRemovedEPNS_4NodeE
__ZN7WebCore14FrameSelection17nodeWillBeRemovedEPNS_4NodeE
__ZN7WebCore19DragCaretController17nodeWillBeRemovedEPNS_4NodeE
__ZN7WebCore4Node37notifyMutationObserversNodeWillDetachEv
__ZN7WebCoreL26dispatchChildRemovalEventsEPNS_4NodeE
__ZN7WebCore7Element11removedFromEPNS_13ContainerNodeE
__ZN7WebCore24ChildNodeRemovalNotifier31notifyDescendantRemovedFromTreeEPNS_13ContainerNodeE
__ZN7WebCore27TextControlInnerTextElementD0Ev
__ZN7WebCore13TextInputTypeD0Ev
__ZN7WebCore18TextFieldInputTypeD2Ev
__ZN7WebCore9InputTypeD2Ev
__ZN7WebCore9InputType19createShadowSubtreeEv
__ZN7WebCore22HTMLFormControlElement25setNeedsWillValidateCheckEv
__ZNK7WebCore16HTMLInputElement18recalcWillValidateEv
__ZNK7WebCore9InputType18supportsValidationEv
__ZNK7WebCore22HTMLFormControlElement18recalcWillValidateEv
__ZNK7WebCore22HTMLFormControlElement21isDisabledFormControlEv
__ZNK7WebCore22HTMLFormControlElement27updateAncestorDisabledStateEv
__ZNK7WebCore7Element21isDisabledFormControlEv
__ZN7WebCore22HTMLFormControlElement21setNeedsValidityCheckEv
__ZN7WebCore21FormAssociatedElement8validityEv
__ZNK7WebCore13ValidityState5validEv
__ZNK7WebCore21FormAssociatedElement5validEv
__ZThn96_NK7WebCore16HTMLInputElement12typeMismatchEv
__ZNK7WebCore22HTMLFormControlElement12willValidateEv
__ZNK7WebCore9InputType12typeMismatchEv
__ZThn96_NK7WebCore16HTMLInputElement12stepMismatchEv
__ZNK7WebCore16HTMLInputElement5valueEv
__ZN7WebCore9InputType20getTypeSpecificValueERN3WTF6StringE
__ZNK7WebCore22BaseCheckableInputType13fallbackValueEv
__ZNK7WebCore9InputType12stepMismatchERKN3WTF6StringE
__ZThn96_NK7WebCore16HTMLInputElement14rangeUnderflowEv
__ZNK7WebCore9InputType14rangeUnderflowERKN3WTF6StringE
__ZThn96_NK7WebCore16HTMLInputElement13rangeOverflowEv
__ZNK7WebCore9InputType13rangeOverflowERKN3WTF6StringE
__ZThn96_NK7WebCore16HTMLInputElement7tooLongEv
__ZNK7WebCore16HTMLInputElement7tooLongEv
__ZNK7WebCore9InputType10isTextTypeEv
__ZThn96_NK7WebCore16HTMLInputElement15patternMismatchEv
__ZNK7WebCore9InputType15patternMismatchERKN3WTF6StringE
__ZThn96_NK7WebCore16HTMLInputElement12valueMissingEv
__ZNK7WebCore17CheckboxInputType12valueMissingERKN3WTF6StringE
__ZNK7WebCore22HTMLFormControlElement10isRequiredEv
__ZThn96_NK7WebCore16HTMLInputElement11hasBadInputEv
__ZNK7WebCore9InputType11hasBadInputEv
__ZThn96_NK7WebCore22HTMLFormControlElement20isFormControlElementEv
__ZN7WebCore22BaseCheckableInputType32storesValueSeparateFromAttributeEv
__ZN7WebCore16HTMLInputElement19updateValueIfNeededEv
__ZN7WebCore22HTMLFormControlElement34setFormControlValueMatchesRendererEb
__ZN7WebCore9InputType20updateInnerTextValueEv
__ZN7WebCore22HTMLFormControlElement41setChangedSinceLastFormControlChangeEventEb
__ZN7WebCore31HTMLFormControlElementWithState22notifyFormStateChangedEv
__ZN7WebCore9InputType16attributeChangedEv
__ZNK7WebCore4Node15isAttributeNodeEv
__ZN7WebCore16HTMLInputElement12insertedIntoEPNS_13ContainerNodeE
__ZN7WebCore26HTMLTextFormControlElement12insertedIntoEPNS_13ContainerNodeE
__ZN7WebCore31HTMLFormControlElementWithState12insertedIntoEPNS_13ContainerNodeE
__ZN7WebCore22HTMLFormControlElement12insertedIntoEPNS_13ContainerNodeE
__ZN7WebCore21FormAssociatedElement12insertedIntoEPNS_13ContainerNodeE
__ZN7WebCore21FormAssociatedElement14resetFormOwnerEv
__ZN7WebCore21FormAssociatedElement18findAssociatedFormEPKNS_11HTMLElementEPNS_15HTMLFormElementE
__ZN7WebCore16HTMLInputElement21finishParsingChildrenEv
__ZN7WebCore31HTMLFormControlElementWithState21finishParsingChildrenEv
__ZN7WebCore8Document14formControllerEv
__ZN7WebCore14FormControllerC1Ev
__ZN7WebCore19CheckedRadioButtonsC1Ev
__ZN7WebCore14FormController22restoreControlStateForERNS_31HTMLFormControlElementWithStateE
__ZNK7WebCore16HTMLInputElement36shouldSaveAndRestoreFormControlStateEv
__ZNK7WebCore9InputType36shouldSaveAndRestoreFormControlStateEv
__ZNK7WebCore31HTMLFormControlElementWithState36shouldSaveAndRestoreFormControlStateEv
__ZN7WebCore4Node21finishParsingChildrenEv
__ZN7WebCore27replaceChildrenWithFragmentEPNS_13ContainerNodeEN3WTF10PassRefPtrINS_16DocumentFragmentEEERi
__ZNK7WebCore7Element16childTypeAllowedENS_4Node8NodeTypeE
__ZN7WebCore47willCreatePossiblyOrphanedTreeByRemovalSlowCaseEPNS_4NodeE
__ZN7WebCore20mainWorldScriptStateEPNS_5FrameE
__ZN7WebCoreL30createHTMLAnchorElementWrapperEPN3JSC9ExecStateEPNS_17JSDOMGlobalObjectEN3WTF10PassRefPtrINS_11HTMLElementEEE
__ZN7WebCore15getDOMStructureINS_19JSHTMLAnchorElementEEEPN3JSC9StructureEPNS2_9ExecStateEPNS_17JSDOMGlobalObjectE
__ZN7WebCore19JSHTMLAnchorElement15createPrototypeEPN3JSC9ExecStateEPNS1_14JSGlobalObjectE
__ZN7WebCore19JSHTMLAnchorElement6createEPN3JSC9StructureEPNS_17JSDOMGlobalObjectEN3WTF10PassRefPtrINS_17HTMLAnchorElementEEE
__ZN7WebCore19JSHTMLAnchorElementC1EPN3JSC9StructureEPNS_17JSDOMGlobalObjectEN3WTF10PassRefPtrINS_17HTMLAnchorElementEEE
__ZN7WebCore19JSHTMLAnchorElement14finishCreationERN3JSC2VME
__ZN7WebCore12cacheWrapperINS_17HTMLAnchorElementEEEvPNS_15DOMWrapperWorldEPT_PNS_12JSDOMWrapperE
__ZN7WebCore15HTMLLinkElement11removedFromEPNS_13ContainerNodeE
__ZN7WebCore16HTMLInputElement11removedFromEPNS_13ContainerNodeE
__ZN7WebCore31HTMLFormControlElementWithState11removedFromEPNS_13ContainerNodeE
__ZN7WebCore22HTMLFormControlElement11removedFromEPNS_13ContainerNodeE
__ZN7WebCore21FormAssociatedElement11removedFromEPNS_13ContainerNodeE
__ZN7WebCore4Node11removedFromEPNS_13ContainerNodeE
__ZN7WebCore16DocumentFragmentD0Ev
__ZN7WebCore46jsElementPrototypeFunctionGetElementsByTagNameEPN3JSC9ExecStateE
__ZN7WebCore4Node20getElementsByTagNameERKN3WTF12AtomicStringE
__ZN7WebCore17NodeListsNodeData22addCacheWithAtomicNameINS_15HTMLTagNodeListEEEN3WTF10PassRefPtrIT_EEPNS_4NodeENS_14CollectionTypeERKNS3_12AtomicStringE
__ZN7WebCore15HTMLTagNodeListC1EN3WTF10PassRefPtrINS_4NodeEEERKNS1_12AtomicStringE
__ZN7WebCore11TagNodeListC2EN3WTF10PassRefPtrINS_4NodeEEENS_14CollectionTypeERKNS1_12AtomicStringES8_
__ZN7WebCore4toJSEPN3JSC9ExecStateEPNS_17JSDOMGlobalObjectEPNS_8NodeListE
__ZN7WebCore15getDOMStructureINS_10JSNodeListEEEPN3JSC9StructureEPNS2_9ExecStateEPNS_17JSDOMGlobalObjectE
__ZN7WebCore10JSNodeList15createPrototypeEPN3JSC9ExecStateEPNS1_14JSGlobalObjectE
__ZN7WebCore12cacheWrapperINS_8NodeListEEEvPNS_15DOMWrapperWorldEPT_PNS_12JSDOMWrapperE
__ZN7WebCore10JSNodeList25getOwnPropertySlotByIndexEPN3JSC6JSCellEPNS1_9ExecStateEjRNS1_12PropertySlotE
__ZN7WebCore10JSNodeList11indexGetterEPN3JSC9ExecStateENS1_7JSValueEj
__ZN7WebCore10JSNodeList18getOwnPropertySlotEPN3JSC6JSCellEPNS1_9ExecStateENS1_12PropertyNameERNS1_12PropertySlotE
__ZN7WebCore16jsNodeListLengthEPN3JSC9ExecStateENS0_7JSValueENS0_12PropertyNameE
__ZN7WebCoreL17selectConstructorERKNS_13QualifiedNameEPNS_8DocumentEPNS_15HTMLFormElementEb
__ZN7WebCore17HTMLSelectElement6createERKNS_13QualifiedNameEPNS_8DocumentEPNS_15HTMLFormElementE
__ZN7WebCore9TypeAheadC1EPNS_19TypeAheadDataSourceE
__ZN7WebCoreL30createHTMLSelectElementWrapperEPN3JSC9ExecStateEPNS_17JSDOMGlobalObjectEN3WTF10PassRefPtrINS_11HTMLElementEEE
__ZN7WebCore15getDOMStructureINS_19JSHTMLSelectElementEEEPN3JSC9StructureEPNS2_9ExecStateEPNS_17JSDOMGlobalObjectE
__ZN7WebCore19JSHTMLSelectElement15createPrototypeEPN3JSC9ExecStateEPNS1_14JSGlobalObjectE
__ZN7WebCore19JSHTMLSelectElement6createEPN3JSC9StructureEPNS_17JSDOMGlobalObjectEN3WTF10PassRefPtrINS_17HTMLSelectElementEEE
__ZN7WebCore19JSHTMLSelectElementC1EPN3JSC9StructureEPNS_17JSDOMGlobalObjectEN3WTF10PassRefPtrINS_17HTMLSelectElementEEE
__ZN7WebCore19JSHTMLSelectElement14finishCreationERN3JSC2VME
__ZN7WebCore12cacheWrapperINS_17HTMLSelectElementEEEvPNS_15DOMWrapperWorldEPT_PNS_12JSDOMWrapperE
__ZN7WebCore19JSHTMLSelectElement18getOwnPropertySlotEPN3JSC6JSCellEPNS1_9ExecStateENS1_12PropertyNameERNS1_12PropertySlotE
__ZN7WebCore37getStaticValueSlotEntryWithoutCachingINS_19JSHTMLSelectElementEEEPKN3JSC9HashEntryEPNS2_9ExecStateENS2_12PropertyNameE
__ZN7WebCore37getStaticValueSlotEntryWithoutCachingINS_9JSElementEEEPKN3JSC9HashEntryEPNS2_9ExecStateENS2_12PropertyNameE
__ZN7WebCore28JSHTMLSelectElementPrototype18getOwnPropertySlotEPN3JSC6JSCellEPNS1_9ExecStateENS1_12PropertyNameERNS1_12PropertySlotE
__ZN7WebCoreL17optionConstructorERKNS_13QualifiedNameEPNS_8DocumentEPNS_15HTMLFormElementEb
__ZN7WebCore17HTMLOptionElement6createERKNS_13QualifiedNameEPNS_8DocumentE
__ZN7WebCore17HTMLOptionElementC2ERKNS_13QualifiedNameEPNS_8DocumentE
__ZN7WebCoreL30createHTMLOptionElementWrapperEPN3JSC9ExecStateEPNS_17JSDOMGlobalObjectEN3WTF10PassRefPtrINS_11HTMLElementEEE
__ZN7WebCore15getDOMStructureINS_19JSHTMLOptionElementEEEPN3JSC9StructureEPNS2_9ExecStateEPNS_17JSDOMGlobalObjectE
__ZN7WebCore19JSHTMLOptionElement15createPrototypeEPN3JSC9ExecStateEPNS1_14JSGlobalObjectE
__ZN7WebCore19JSHTMLOptionElement6createEPN3JSC9StructureEPNS_17JSDOMGlobalObjectEN3WTF10PassRefPtrINS_17HTMLOptionElementEEE
__ZN7WebCore19JSHTMLOptionElementC1EPN3JSC9StructureEPNS_17JSDOMGlobalObjectEN3WTF10PassRefPtrINS_17HTMLOptionElementEEE
__ZN7WebCore19JSHTMLOptionElement14finishCreationERN3JSC2VME
__ZN7WebCore12cacheWrapperINS_17HTMLOptionElementEEEvPNS_15DOMWrapperWorldEPT_PNS_12JSDOMWrapperE
__ZN7WebCore34jsNodePrototypeFunctionAppendChildEPN3JSC9ExecStateE
__ZN7WebCore6JSNode11appendChildEPN3JSC9ExecStateE
__ZN7WebCore6toNodeEN3JSC7JSValueE
__ZN7WebCore4Node11appendChildEN3WTF10PassRefPtrIS0_EERiNS_14AttachBehaviorE
__ZN7WebCore17HTMLSelectElement15childrenChangedEbPNS_4NodeES2_i
__ZN7WebCore17HTMLSelectElement18setRecalcListItemsEv
__ZNK7WebCore21FormAssociatedElement12typeMismatchEv
__ZNK7WebCore21FormAssociatedElement12stepMismatchEv
__ZNK7WebCore21FormAssociatedElement14rangeUnderflowEv
__ZNK7WebCore21FormAssociatedElement13rangeOverflowEv
__ZNK7WebCore21FormAssociatedElement7tooLongEv
__ZNK7WebCore21FormAssociatedElement15patternMismatchEv
__ZThn96_NK7WebCore17HTMLSelectElement12valueMissingEv
__ZNK7WebCore21FormAssociatedElement11hasBadInputEv
__ZN7WebCore8Document24invalidateNodeListCachesEPKNS_13QualifiedNameE
__ZN7WebCore17HTMLOptionElement12insertedIntoEPNS_13ContainerNodeE
__ZN7WebCore17HTMLSelectElement17scrollToSelectionEv
__ZNK7WebCore17HTMLSelectElement12usesMenuListEv
__ZNK7WebCore11RenderTheme26delegatesMenuListRenderingEv
__ZN7WebCoreL29createHTMLInputElementWrapperEPN3JSC9ExecStateEPNS_17JSDOMGlobalObjectEN3WTF10PassRefPtrINS_11HTMLElementEEE
__ZN7WebCore15getDOMStructureINS_18JSHTMLInputElementEEEPN3JSC9StructureEPNS2_9ExecStateEPNS_17JSDOMGlobalObjectE
__ZN7WebCore18JSHTMLInputElement15createPrototypeEPN3JSC9ExecStateEPNS1_14JSGlobalObjectE
__ZN7WebCore18JSHTMLInputElement6createEPN3JSC9StructureEPNS_17JSDOMGlobalObjectEN3WTF10PassRefPtrINS_16HTMLInputElementEEE
__ZN7WebCore18JSHTMLInputElementC1EPN3JSC9StructureEPNS_17JSDOMGlobalObjectEN3WTF10PassRefPtrINS_16HTMLInputElementEEE
__ZN7WebCore18JSHTMLInputElement14finishCreationERN3JSC2VME
__ZN7WebCore12cacheWrapperINS_16HTMLInputElementEEEvPNS_15DOMWrapperWorldEPT_PNS_12JSDOMWrapperE
__ZN7WebCore16jsNodeFirstChildEPN3JSC9ExecStateENS0_7JSValueENS0_12PropertyNameE
__ZN7WebCore15getDOMStructureINS_6JSTextEEEPN3JSC9StructureEPNS2_9ExecStateEPNS_17JSDOMGlobalObjectE
__ZN7WebCore6JSText15createPrototypeEPN3JSC9ExecStateEPNS1_14JSGlobalObjectE
__ZN7WebCore24JSCharacterDataPrototype4selfEPN3JSC9ExecStateEPNS1_14JSGlobalObjectE
__ZN7WebCore15getDOMStructureINS_15JSCharacterDataEEEPN3JSC9StructureEPNS2_9ExecStateEPNS_17JSDOMGlobalObjectE
__ZN7WebCore15JSCharacterData15createPrototypeEPN3JSC9ExecStateEPNS1_14JSGlobalObjectE
__ZN7WebCore6JSText6createEPN3JSC9StructureEPNS_17JSDOMGlobalObjectEN3WTF10PassRefPtrINS_4TextEEE
__ZN7WebCore6JSTextC1EPN3JSC9StructureEPNS_17JSDOMGlobalObjectEN3WTF10PassRefPtrINS_4TextEEE
__ZN7WebCore15JSCharacterDataC2EPN3JSC9StructureEPNS_17JSDOMGlobalObjectEN3WTF10PassRefPtrINS_13CharacterDataEEE
__ZN7WebCore6JSText14finishCreationERN3JSC2VME
__ZN7WebCore15JSCharacterData14finishCreationERN3JSC2VME
__ZN7WebCore12cacheWrapperINS_4TextEEEvPNS_15DOMWrapperWorldEPT_PNS_12JSDOMWrapperE
__ZN7WebCore6JSText18getOwnPropertySlotEPN3JSC6JSCellEPNS1_9ExecStateENS1_12PropertyNameERNS1_12PropertySlotE
__ZN7WebCore15JSCharacterData18getOwnPropertySlotEPN3JSC6JSCellEPNS1_9ExecStateENS1_12PropertyNameERNS1_12PropertySlotE
__ZN3WTF5MoverINS_12KeyValuePairINSt3__14pairIhNS_12AtomicStringEEEPN7WebCore16LiveNodeListBaseEEELb1EE4moveERS9_SB_
__ZN7WebCore19JSHTMLAnchorElement18getOwnPropertySlotEPN3JSC6JSCellEPNS1_9ExecStateENS1_12PropertyNameERNS1_12PropertySlotE
__ZN7WebCore28JSHTMLAnchorElementPrototype18getOwnPropertySlotEPN3JSC6JSCellEPNS1_9ExecStateENS1_12PropertyNameERNS1_12PropertySlotE
__ZN7WebCore38jsElementPrototypeFunctionGetAttributeEPN3JSC9ExecStateE
__ZNK7WebCore7Element12getAttributeERKN3WTF12AtomicStringE
__ZNK7WebCore11ElementData21getAttributeItemIndexERKN3WTF12AtomicStringEb
__ZN7WebCore14jsStringOrNullEPN3JSC9ExecStateERKN3WTF6StringE
__ZN7WebCore14jsElementStyleEPN3JSC9ExecStateENS0_7JSValueENS0_12PropertyNameE
__ZN7WebCore13StyledElement5styleEv
__ZN7WebCore13StyledElement24ensureMutableInlineStyleEv
__ZN7WebCore17UniqueElementDataC2ERKNS_20ShareableElementDataE
__ZN3WTF6RefPtrIN7WebCore16StylePropertySetEEaSERKS3_
__ZN3WTF6VectorIN7WebCore9AttributeELm4ENS_15CrashOnOverflowEE15reserveCapacityEm
__ZN7WebCore11ElementData5derefEv
__ZNK7WebCore16StylePropertySet11mutableCopyEv
__ZN7WebCore23MutableStylePropertySetC2ERKNS_16StylePropertySetE
__ZNK7WebCore16StylePropertySet17PropertyReference13toCSSPropertyEv
__ZN7WebCore23MutableStylePropertySet31ensureInlineCSSStyleDeclarationEPNS_13StyledElementE
__ZN3WTF9HashTableIPN7WebCore23MutableStylePropertySetENS_12KeyValuePairIS3_NS_6OwnPtrINS1_30PropertySetCSSStyleDeclarationEEEEENS_24KeyValuePairKeyExtractorIS8_EENS_7PtrHashIS3_EENS_18HashMapValueTraitsINS_10HashTraitsIS3_EENSE_IS7_EEEESF_E16lookupForWritingINS_22IdentityHashTranslatorISC_EES3_EENSt3__14pairIPS8_bEERKT0_
__ZN3WTF9HashTableIPN7WebCore23MutableStylePropertySetENS_12KeyValuePairIS3_NS_6OwnPtrINS1_30PropertySetCSSStyleDeclarationEEEEENS_24KeyValuePairKeyExtractorIS8_EENS_7PtrHashIS3_EENS_18HashMapValueTraitsINS_10HashTraitsIS3_EENSE_IS7_EEEESF_E3addINS_17HashMapTranslatorISH_SC_EES3_NS_10PassOwnPtrIS6_EEEENS_18HashTableAddResultINS_17HashTableIteratorIS3_S8_SA_SC_SH_SF_EEEERKT0_RKT1_
__ZN3WTF9HashTableIPN7WebCore23MutableStylePropertySetENS_12KeyValuePairIS3_NS_6OwnPtrINS1_30PropertySetCSSStyleDeclarationEEEEENS_24KeyValuePairKeyExtractorIS8_EENS_7PtrHashIS3_EENS_18HashMapValueTraitsINS_10HashTraitsIS3_EENSE_IS7_EEEESF_E6lookupINS_22IdentityHashTranslatorISC_EES3_EEPS8_RKT0_
__ZN3WTF9HashTableIPN7WebCore23MutableStylePropertySetENS_12KeyValuePairIS3_NS_6OwnPtrINS1_30PropertySetCSSStyleDeclarationEEEEENS_24KeyValuePairKeyExtractorIS8_EENS_7PtrHashIS3_EENS_18HashMapValueTraitsINS_10HashTraitsIS3_EENSE_IS7_EEEESF_E6rehashEi
__ZN7WebCore4toJSEPN3JSC9ExecStateEPNS_17JSDOMGlobalObjectEPNS_19CSSStyleDeclarationE
__ZN7WebCore15getDOMStructureINS_21JSCSSStyleDeclarationEEEPN3JSC9StructureEPNS2_9ExecStateEPNS_17JSDOMGlobalObjectE
__ZN7WebCore21JSCSSStyleDeclaration15createPrototypeEPN3JSC9ExecStateEPNS1_14JSGlobalObjectE
__ZN7WebCore30PropertySetCSSStyleDeclaration3refEv
__ZN7WebCore12cacheWrapperINS_19CSSStyleDeclarationEEEvPNS_15DOMWrapperWorldEPT_PNS_12JSDOMWrapperE
__ZN7WebCore21JSCSSStyleDeclaration18getOwnPropertySlotEPN3JSC6JSCellEPNS1_9ExecStateENS1_12PropertyNameERNS1_12PropertySlotE
__ZN7WebCore21JSCSSStyleDeclaration26getOwnPropertySlotDelegateEPN3JSC9ExecStateENS1_12PropertyNameERNS1_12PropertySlotE
__ZN7WebCoreL33cssPropertyIDForJSCSSPropertyNameEN3JSC12PropertyNameE
__ZN3WTF9HashTableINS_6StringENS_12KeyValuePairIS1_N7WebCore15CSSPropertyInfoEEENS_24KeyValuePairKeyExtractorIS5_EENS_10StringHashENS_18HashMapValueTraitsINS_10HashTraitsIS1_EENSA_IS4_EEEESB_E16lookupForWritingINS_22IdentityHashTranslatorIS8_EES1_EENSt3__14pairIPS5_bEERKT0_
__ZN3WTF9HashTableINS_6StringENS_12KeyValuePairIS1_N7WebCore15CSSPropertyInfoEEENS_24KeyValuePairKeyExtractorIS5_EENS_10StringHashENS_18HashMapValueTraitsINS_10HashTraitsIS1_EENSA_IS4_EEEESB_E3addINS_17HashMapTranslatorISD_S8_EES1_S4_EENS_18HashTableAddResultINS_17HashTableIteratorIS1_S5_S7_S8_SD_SB_EEEERKT0_RKT1_
__ZN3WTF9HashTableINS_6StringENS_12KeyValuePairIS1_N7WebCore15CSSPropertyInfoEEENS_24KeyValuePairKeyExtractorIS5_EENS_10StringHashENS_18HashMapValueTraitsINS_10HashTraitsIS1_EENSA_IS4_EEEESB_E6lookupINS_22IdentityHashTranslatorIS8_EES1_EEPS5_RKT0_
__ZN3WTF9HashTableINS_6StringENS_12KeyValuePairIS1_N7WebCore15CSSPropertyInfoEEENS_24KeyValuePairKeyExtractorIS5_EENS_10StringHashENS_18HashMapValueTraitsINS_10HashTraitsIS1_EENSA_IS4_EEEESB_E6rehashEi
__ZN7WebCoreL25cssPropertyGetterCallbackEPN3JSC9ExecStateENS0_7JSValueEj
__ZN7WebCoreL17cssPropertyGetterEPN3JSC9ExecStateEPNS_21JSCSSStyleDeclarationEj
__ZN7WebCore30PropertySetCSSStyleDeclaration27getPropertyCSSValueInternalENS_13CSSPropertyIDE
__ZNK7WebCore16StylePropertySet19getPropertyCSSValueENS_13CSSPropertyIDE
__ZNK7WebCore8CSSValue7cssTextEv
__ZNK7WebCore17CSSPrimitiveValue13customCSSTextEv
__ZN3WTF9HashTableIPKN7WebCore17CSSPrimitiveValueENS_12KeyValuePairIS4_NS_6StringEEENS_24KeyValuePairKeyExtractorIS7_EENS_7PtrHashIS4_EENS_18HashMapValueTraitsINS_10HashTraitsIS4_EENSD_IS6_EEEESE_E16lookupForWritingINS_22IdentityHashTranslatorISB_EES4_EENSt3__14pairIPS7_bEERKT0_
__ZN3WTF9HashTableIPKN7WebCore17CSSPrimitiveValueENS_12KeyValuePairIS4_NS_6StringEEENS_24KeyValuePairKeyExtractorIS7_EENS_7PtrHashIS4_EENS_18HashMapValueTraitsINS_10HashTraitsIS4_EENSD_IS6_EEEESE_E3addINS_17HashMapTranslatorISG_SB_EES4_S6_EENS_18HashTableAddResultINS_17HashTableIteratorIS4_S7_S9_SB_SG_SE_EEEERKT0_RKT1_
__ZN3WTF9HashTableIPKN7WebCore17CSSPrimitiveValueENS_12KeyValuePairIS4_NS_6StringEEENS_24KeyValuePairKeyExtractorIS7_EENS_7PtrHashIS4_EENS_18HashMapValueTraitsINS_10HashTraitsIS4_EENSD_IS6_EEEESE_E6lookupINS_22IdentityHashTranslatorISB_EES4_EEPS7_RKT0_
__ZN3WTF9HashTableIPKN7WebCore17CSSPrimitiveValueENS_12KeyValuePairIS4_NS_6StringEEENS_24KeyValuePairKeyExtractorIS7_EENS_7PtrHashIS4_EENS_18HashMapValueTraitsINS_10HashTraitsIS4_EENSD_IS6_EEEESE_E6rehashEi
__ZN3JSC9WeakGCMapIPN3WTF10StringImplENS_8JSStringENS1_7PtrHashIS3_EENS1_10HashTraitsIS3_EEE5gcMapEv
__ZN7WebCoreL19valueOrPropertyNameEi
__ZN7WebCore12getValueNameEt
__ZN7WebCore18JSHTMLInputElement18getOwnPropertySlotEPN3JSC6JSCellEPNS1_9ExecStateENS1_12PropertyNameERNS1_12PropertySlotE
__ZN7WebCore23jsHTMLInputElementValueEPN3JSC9ExecStateENS0_7JSValueENS0_12PropertyNameE
__ZN7WebCore19JSHTMLOptionElement18getOwnPropertySlotEPN3JSC6JSCellEPNS1_9ExecStateENS1_12PropertyNameERNS1_12PropertySlotE
__ZN7WebCore27jsHTMLOptionElementSelectedEPN3JSC9ExecStateENS0_7JSValueENS0_12PropertyNameE
__ZN7WebCore17HTMLOptionElement8selectedEv
__ZN7WebCore17HTMLSelectElement28updateListItemSelectedStatesEv
__ZNK7WebCore17HTMLSelectElement15recalcListItemsEb
__ZN3WTF6VectorIPN7WebCore11HTMLElementELm0ENS_15CrashOnOverflowEE14expandCapacityEmPKS3_
__ZN3WTF6VectorIPN7WebCore11HTMLElementELm0ENS_15CrashOnOverflowEE15reserveCapacityEm
__ZNK7WebCore17HTMLOptionElement21isDisabledFormControlEv
__ZN7WebCore17HTMLOptionElement16setSelectedStateEb
__ZN7WebCore17HTMLSelectElement23invalidateSelectedItemsEv
__ZN7WebCore18jsElementClassNameEPN3JSC9ExecStateENS0_7JSValueENS0_12PropertyNameE
__ZN7WebCoreL15formConstructorERKNS_13QualifiedNameEPNS_8DocumentEPNS_15HTMLFormElementEb
__ZN7WebCore15HTMLFormElement6createERKNS_13QualifiedNameEPNS_8DocumentE
__ZN7WebCore15HTMLFormElementC2ERKNS_13QualifiedNameEPNS_8DocumentE
__ZN7WebCoreL28createHTMLFormElementWrapperEPN3JSC9ExecStateEPNS_17JSDOMGlobalObjectEN3WTF10PassRefPtrINS_11HTMLElementEEE
__ZN7WebCore15getDOMStructureINS_17JSHTMLFormElementEEEPN3JSC9StructureEPNS2_9ExecStateEPNS_17JSDOMGlobalObjectE
__ZN7WebCore17JSHTMLFormElement15createPrototypeEPN3JSC9ExecStateEPNS1_14JSGlobalObjectE
__ZN7WebCore17JSHTMLFormElement6createEPN3JSC9StructureEPNS_17JSDOMGlobalObjectEN3WTF10PassRefPtrINS_15HTMLFormElementEEE
__ZN7WebCore17JSHTMLFormElementC1EPN3JSC9StructureEPNS_17JSDOMGlobalObjectEN3WTF10PassRefPtrINS_15HTMLFormElementEEE
__ZN7WebCore17JSHTMLFormElement14finishCreationERN3JSC2VME
__ZN7WebCore12cacheWrapperINS_15HTMLFormElementEEEvPNS_15DOMWrapperWorldEPT_PNS_12JSDOMWrapperE
__ZN7WebCore17JSHTMLFormElement18getOwnPropertySlotEPN3JSC6JSCellEPNS1_9ExecStateENS1_12PropertyNameERNS1_12PropertySlotE
__ZN7WebCore17JSHTMLFormElement18canGetItemsForNameEPN3JSC9ExecStateEPNS_15HTMLFormElementENS1_12PropertyNameE
__ZN7WebCore15HTMLFormElement16getNamedElementsERKN3WTF12AtomicStringERNS1_6VectorINS1_6RefPtrINS_4NodeEEELm0ENS1_15CrashOnOverflowEEE
__ZN7WebCore17NodeListsNodeData22addCacheWithAtomicNameINS_26HTMLFormControlsCollectionEEEN3WTF10PassRefPtrIT_EEPNS_4NodeENS_14CollectionTypeE
__ZN7WebCore26HTMLFormControlsCollection6createEPNS_4NodeENS_14CollectionTypeE
__ZN3WTF9HashTableIPN7WebCore16LiveNodeListBaseES3_NS_17IdentityExtractorENS_7PtrHashIS3_EENS_10HashTraitsIS3_EES8_E3addINS_22IdentityHashTranslatorIS6_EES3_S3_EENS_18HashTableAddResultINS_17HashTableIteratorIS3_S3_S4_S6_S8_S8_EEEERKT0_RKT1_
__ZN3WTF9HashTableIPN7WebCore16LiveNodeListBaseES3_NS_17IdentityExtractorENS_7PtrHashIS3_EENS_10HashTraitsIS3_EES8_E6rehashEi
__ZNK7WebCore14HTMLCollection10namedItemsERKN3WTF12AtomicStringERNS1_6VectorINS1_6RefPtrINS_4NodeEEELm0ENS1_15CrashOnOverflowEEE
__ZNK7WebCore26HTMLFormControlsCollection15updateNameCacheEv
__ZN3WTF9HashTableIPNS_16AtomicStringImplENS_12KeyValuePairIS2_NS_6OwnPtrINS_6VectorIPN7WebCore7ElementELm0ENS_15CrashOnOverflowEEEEEEENS_24KeyValuePairKeyExtractorISC_EENS_7PtrHashIS2_EENS_18HashMapValueTraitsINS_10HashTraitsIS2_EENSI_ISB_EEEESJ_E16lookupForWritingINS_22IdentityHashTranslatorISG_EES2_EENSt3__14pairIPSC_bEERKT0_
__ZN3WTF9HashTableIPNS_16AtomicStringImplENS_12KeyValuePairIS2_NS_6OwnPtrINS_6VectorIPN7WebCore7ElementELm0ENS_15CrashOnOverflowEEEEEEENS_24KeyValuePairKeyExtractorISC_EENS_7PtrHashIS2_EENS_18HashMapValueTraitsINS_10HashTraitsIS2_EENSI_ISB_EEEESJ_E3addINS_17HashMapTranslatorISL_SG_EES2_NS_10PassOwnPtrISA_EEEENS_18HashTableAddResultINS_17HashTableIteratorIS2_SC_SE_SG_SL_SJ_EEEERKT0_RKT1_
__ZN3WTF9HashTableIPNS_16AtomicStringImplENS_12KeyValuePairIS2_NS_6OwnPtrINS_6VectorIPN7WebCore7ElementELm0ENS_15CrashOnOverflowEEEEEEENS_24KeyValuePairKeyExtractorISC_EENS_7PtrHashIS2_EENS_18HashMapValueTraitsINS_10HashTraitsIS2_EENSI_ISB_EEEESJ_E5clearEv
__ZN3WTF9HashTableIPNS_16AtomicStringImplENS_12KeyValuePairIS2_NS_6OwnPtrINS_6VectorIPN7WebCore7ElementELm0ENS_15CrashOnOverflowEEEEEEENS_24KeyValuePairKeyExtractorISC_EENS_7PtrHashIS2_EENS_18HashMapValueTraitsINS_10HashTraitsIS2_EENSI_ISB_EEEESJ_E6lookupINS_22IdentityHashTranslatorISG_EES2_EEPSC_RKT0_
__ZN3WTF9HashTableIPNS_16AtomicStringImplENS_12KeyValuePairIS2_NS_6OwnPtrINS_6VectorIPN7WebCore7ElementELm0ENS_15CrashOnOverflowEEEEEEENS_24KeyValuePairKeyExtractorISC_EENS_7PtrHashIS2_EENS_18HashMapValueTraitsINS_10HashTraitsIS2_EENSI_ISB_EEEESJ_E6rehashEi
__ZN7WebCore26HTMLFormControlsCollectionD0Ev
__ZN3WTF7HashSetIPN7WebCore16LiveNodeListBaseENS_7PtrHashIS3_EENS_10HashTraitsIS3_EEE6removeERKS3_
__ZN3WTF9HashTableIPN7WebCore16LiveNodeListBaseES3_NS_17IdentityExtractorENS_7PtrHashIS3_EENS_10HashTraitsIS3_EES8_E6lookupINS_22IdentityHashTranslatorIS6_EES3_EEPS3_RKT0_
__ZN7WebCore37getStaticValueSlotEntryWithoutCachingINS_17JSHTMLFormElementEEEPKN3JSC9HashEntryEPNS2_9ExecStateENS2_12PropertyNameE
__ZN7WebCore24jsHTMLFormElementEnctypeEPN3JSC9ExecStateENS0_7JSValueENS0_12PropertyNameE
__ZN7WebCoreL24createHTMLElementWrapperEPN3JSC9ExecStateEPNS_17JSDOMGlobalObjectEN3WTF10PassRefPtrINS_11HTMLElementEEE
__ZN7WebCore13JSHTMLElement6createEPN3JSC9StructureEPNS_17JSDOMGlobalObjectEN3WTF10PassRefPtrINS_11HTMLElementEEE
__ZN7WebCore13JSHTMLElementC1EPN3JSC9StructureEPNS_17JSDOMGlobalObjectEN3WTF10PassRefPtrINS_11HTMLElementEEE
__ZN7WebCore12cacheWrapperINS_11HTMLElementEEEvPNS_15DOMWrapperWorldEPT_PNS_12JSDOMWrapperE
__ZN7WebCore32jsNodePrototypeFunctionCloneNodeEPN3JSC9ExecStateE
__ZN7WebCore7Element9cloneNodeEb
__ZN7WebCore7Element40cloneElementWithoutAttributesAndChildrenEv
__ZN7WebCore8Document13createElementERKNS_13QualifiedNameEb
__ZN7WebCore7Element26cloneAttributesFromElementERKS0_
__ZN7WebCore7Element37copyNonAttributePropertiesFromElementERKS0_
__ZN7WebCore13ContainerNode15cloneChildNodesEPS0_
__ZN7WebCoreL35cloneChildNodesAvoidingDeleteButtonEPNS_13ContainerNodeES1_PNS_11HTMLElementE
__ZN7WebCore22jsHTMLElementOuterHTMLEPN3JSC9ExecStateENS0_7JSValueENS0_12PropertyNameE
__ZNK7WebCore11HTMLElement9outerHTMLEv
__ZN7WebCore12createMarkupEPKNS_4NodeENS_13EChildrenOnlyEPN3WTF6VectorIPS0_Lm0ENS4_15CrashOnOverflowEEENS_13EAbsoluteURLsEPNS5_INS_13QualifiedNameELm0ES7_EE
__ZN7WebCore17MarkupAccumulatorC1EPN3WTF6VectorIPNS_4NodeELm0ENS1_15CrashOnOverflowEEENS_13EAbsoluteURLsEPKNS_5RangeE
__ZN7WebCore17MarkupAccumulator14serializeNodesEPNS_4NodeES2_NS_13EChildrenOnlyEPN3WTF6VectorINS_13QualifiedNameELm0ENS4_15CrashOnOverflowEEE
__ZN7WebCore17MarkupAccumulator28serializeNodesWithNamespacesEPNS_4NodeES2_NS_13EChildrenOnlyEPKN3WTF7HashMapIPNS4_16AtomicStringImplES7_NS4_7PtrHashIS7_EENS4_10HashTraitsIS7_EESB_EEPNS4_6VectorINS_13QualifiedNameELm0ENS4_15CrashOnOverflowEEE
__ZN7WebCore17MarkupAccumulator14appendStartTagEPNS_4NodeEPN3WTF7HashMapIPNS3_16AtomicStringImplES6_NS3_7PtrHashIS6_EENS3_10HashTraitsIS6_EESA_EE
__ZN7WebCore17MarkupAccumulator17appendStartMarkupERN3WTF13StringBuilderEPKNS_4NodeEPNS1_7HashMapIPNS1_16AtomicStringImplES9_NS1_7PtrHashIS9_EENS1_10HashTraitsIS9_EESD_EE
__ZN7WebCore17MarkupAccumulator13appendElementERN3WTF13StringBuilderEPNS_7ElementEPNS1_7HashMapIPNS1_16AtomicStringImplES8_NS1_7PtrHashIS8_EENS1_10HashTraitsIS8_EESC_EE
__ZN7WebCore17MarkupAccumulator13appendOpenTagERN3WTF13StringBuilderEPNS_7ElementEPNS1_7HashMapIPNS1_16AtomicStringImplES8_NS1_7PtrHashIS8_EENS1_10HashTraitsIS8_EESC_EE
__ZNK7WebCore7Element22nodeNamePreservingCaseEv
__ZNK7WebCore13QualifiedName8toStringEv
__ZNK7WebCore7Element13hasAttributesEv
__ZN7WebCore17MarkupAccumulator22appendCustomAttributesERN3WTF13StringBuilderEPNS_7ElementEPNS1_7HashMapIPNS1_16AtomicStringImplES8_NS1_7PtrHashIS8_EENS1_10HashTraitsIS8_EESC_EE
__ZN7WebCore17MarkupAccumulator14appendCloseTagERN3WTF13StringBuilderEPNS_7ElementE
__ZNK7WebCore11HTMLElement19ieForbidsInsertHTMLEv
__ZN7WebCore17MarkupAccumulator12appendEndTagEPNS_4NodeE
__ZN7WebCore17MarkupAccumulator15appendEndMarkupERN3WTF13StringBuilderEPKNS_4NodeE
__ZN7WebCore17MarkupAccumulatorD1Ev
__ZN7WebCore18JSHTMLInputElement3putEPN3JSC6JSCellEPNS1_9ExecStateENS1_12PropertyNameENS1_7JSValueERNS1_15PutPropertySlotE
__ZN3JSC8putEntryIN7WebCore18JSHTMLInputElementEEEvPNS_9ExecStateEPKNS_9HashEntryENS_12PropertyNameENS_7JSValueEPT_b
__ZN7WebCore28setJSHTMLInputElementCheckedEPN3JSC9ExecStateEPNS0_8JSObjectENS0_7JSValueE
__ZN7WebCore16HTMLInputElement10setCheckedEbNS_22TextFieldEventBehaviorE
__ZN7WebCore27JSHTMLInputElementPrototype18getOwnPropertySlotEPN3JSC6JSCellEPNS1_9ExecStateENS1_12PropertyNameERNS1_12PropertySlotE
__ZN7WebCore16HTMLInputElement37copyNonAttributePropertiesFromElementERKNS_7ElementE
__ZN7WebCore25jsHTMLInputElementCheckedEPN3JSC9ExecStateENS0_7JSValueENS0_12PropertyNameE
__ZN7WebCore19JSHTMLSelectElement3putEPN3JSC6JSCellEPNS1_9ExecStateENS1_12PropertyNameENS1_7JSValueERNS1_15PutPropertySlotE
__ZN3JSC8putEntryIN7WebCore19JSHTMLSelectElementEEEvPNS_9ExecStateEPKNS_9HashEntryENS_12PropertyNameENS_7JSValueEPT_b
__ZN7WebCore30setJSHTMLSelectElementDisabledEPN3JSC9ExecStateEPNS0_8JSObjectENS0_7JSValueE
__ZN7WebCore7Element19setBooleanAttributeERKNS_13QualifiedNameEb
__ZN7WebCore7Element12setAttributeERKNS_13QualifiedNameERKN3WTF12AtomicStringE
__ZNK7WebCore17HTMLSelectElement23isPresentationAttributeERKNS_13QualifiedNameE
__ZN7WebCore17HTMLSelectElement14parseAttributeERKNS_13QualifiedNameERKN3WTF12AtomicStringE
__ZN7WebCore22HTMLFormControlElement14parseAttributeERKNS_13QualifiedNameERKN3WTF12AtomicStringE
__ZN7WebCore22HTMLFormControlElement24disabledAttributeChangedEv
__ZN7WebCore27jsHTMLOptionElementDisabledEPN3JSC9ExecStateENS0_7JSValueENS0_12PropertyNameE
__ZN7WebCore26setJSHTMLInputElementValueEPN3JSC9ExecStateEPNS0_8JSObjectENS0_7JSValueE
__ZN7WebCore16HTMLInputElement8setValueERKN3WTF6StringERiNS_22TextFieldEventBehaviorE
__ZNK7WebCore9InputType12isFileUploadEv
__ZN7WebCore16HTMLInputElement8setValueERKN3WTF6StringENS_22TextFieldEventBehaviorE
__ZN7WebCore9InputType11canSetValueERKN3WTF6StringE
__ZN7WebCore16ScopedEventQueue8instanceEv
__ZN3WTF10PassOwnPtrIN7WebCore16ScopedEventQueueEED2Ev
__ZN3WTF6OwnPtrIN7WebCore16ScopedEventQueueEED2Ev
__ZN7WebCore16ScopedEventQueue21incrementScopingLevelEv
__ZNK7WebCore18TextFieldInputType13sanitizeValueERKN3WTF6StringE
__ZN7WebCoreL16isASCIILineBreakEt
__ZN7WebCore31numCharactersInGraphemeClustersERKN3WTF6StringEj
__ZNK7WebCore9InputType13fallbackValueEv
__ZN7WebCore18TextFieldInputType8setValueERKN3WTF6StringEbNS_22TextFieldEventBehaviorE
__ZN7WebCore9InputType8setValueERKN3WTF6StringEbNS_22TextFieldEventBehaviorE
__ZN7WebCore16HTMLInputElement16setValueInternalERKN3WTF6StringENS_22TextFieldEventBehaviorE
__ZNK7WebCore17BaseTextInputType10isTextTypeEv
__ZNK7WebCore16HTMLInputElement9maxLengthEv
__ZNK7WebCore17BaseTextInputType15patternMismatchERKN3WTF6StringE
__ZNK7WebCore18TextFieldInputType12valueMissingERKN3WTF6StringE
__ZN7WebCore18TextFieldInputType20updateInnerTextValueEv
__ZNK7WebCore16HTMLInputElement14suggestedValueEv
__ZNK7WebCore22HTMLFormControlElement31formControlValueMatchesRendererEv
__ZNK7WebCore9InputType12visibleValueEv
__ZN7WebCore26HTMLTextFormControlElement17setInnerTextValueERKN3WTF6StringE
__ZNK7WebCore16HTMLInputElement17isTextFormControlEv
__ZNK7WebCore16HTMLInputElement11isTextFieldEv
__ZNK7WebCore18TextFieldInputType11isTextFieldEv
__ZNK7WebCore26HTMLTextFormControlElement14innerTextValueEv
__ZNK7WebCore16HTMLInputElement16innerTextElementEv
__ZNK7WebCore18TextFieldInputType16innerTextElementEv
__ZN7WebCore11HTMLElement12setInnerTextERKN3WTF6StringERi
__ZN7WebCore23replaceChildrenWithTextEPNS_13ContainerNodeERKN3WTF6StringERi
__ZN7WebCore4Text6createEPNS_8DocumentERKN3WTF6StringE
__ZN7WebCore26HTMLTextFormControlElement27updatePlaceholderVisibilityEb
__ZNK7WebCore16HTMLInputElement19supportsPlaceholderEv
__ZNK7WebCore17BaseTextInputType19supportsPlaceholderEv
__ZNK7WebCore16HTMLInputElement18placeholderElementEv
__ZNK7WebCore18TextFieldInputType18placeholderElementEv
__ZN7WebCore16HTMLInputElement21updatePlaceholderTextEv
__ZN7WebCore18TextFieldInputType21updatePlaceholderTextEv
__ZNK7WebCore26HTMLTextFormControlElement19strippedPlaceholderEv
__ZN7WebCore16ScopedEventQueue21decrementScopingLevelEv
__ZN7WebCore16ScopedEventQueue17dispatchAllEventsEv
__ZN7WebCore14RadioInputType6createEPNS_16HTMLInputElementE
__ZNK7WebCore14RadioInputType15formControlTypeEv
__ZN7WebCore4TextD0Ev
__ZNK7WebCore14RadioInputType12valueMissingERKN3WTF6StringE
__ZN7WebCore16HTMLInputElement28isInRequiredRadioButtonGroupEv
__ZNK7WebCore14RadioInputType13isRadioButtonEv
__ZN7WebCore9InputType21valueAttributeChangedEv
__ZNK7WebCore9InputType13sanitizeValueERKN3WTF6StringE
__ZN7WebCore17NodeListsNodeData16invalidateCachesEPKNS_13QualifiedNameE
__ZNK7WebCore16LiveNodeListBase15invalidateCacheEv
__ZN7WebCore49jsDocumentPrototypeFunctionCreateDocumentFragmentEPN3JSC9ExecStateE
__ZN7WebCore8Document22createDocumentFragmentEv
__ZN7WebCore15getDOMStructureINS_18JSDocumentFragmentEEEPN3JSC9StructureEPNS2_9ExecStateEPNS_17JSDOMGlobalObjectE
__ZN7WebCore18JSDocumentFragment15createPrototypeEPN3JSC9ExecStateEPNS1_14JSGlobalObjectE
__ZN7WebCore18JSDocumentFragment6createEPN3JSC9StructureEPNS_17JSDOMGlobalObjectEN3WTF10PassRefPtrINS_16DocumentFragmentEEE
__ZN7WebCore18JSDocumentFragmentC1EPN3JSC9StructureEPNS_17JSDOMGlobalObjectEN3WTF10PassRefPtrINS_16DocumentFragmentEEE
__ZN7WebCore18JSDocumentFragment14finishCreationERN3JSC2VME
__ZN7WebCore12cacheWrapperINS_16DocumentFragmentEEEvPNS_15DOMWrapperWorldEPT_PNS_12JSDOMWrapperE
__ZN7WebCore18JSDocumentFragment18getOwnPropertySlotEPN3JSC6JSCellEPNS1_9ExecStateENS1_12PropertyNameERNS1_12PropertySlotE
__ZN7WebCore27JSDocumentFragmentPrototype18getOwnPropertySlotEPN3JSC6JSCellEPNS1_9ExecStateENS1_12PropertyNameERNS1_12PropertySlotE
__ZN7WebCore15jsNodeLastChildEPN3JSC9ExecStateENS0_7JSValueENS0_12PropertyNameE
__ZNK7WebCore16DocumentFragment16childTypeAllowedENS_4Node8NodeTypeE
__ZN7WebCore13ContainerNode11removeChildEPNS_4NodeERi
__ZN7WebCore8Document17nodeWillBeRemovedEPNS_4NodeE
__ZN7WebCore16DocumentFragment9cloneNodeEb
__ZN7WebCore20ShareableElementDataC2ERKNS_17UniqueElementDataE
__ZN7WebCore11ElementDataC2ERKS0_b
__ZN3WTF6VectorIN7WebCore9AttributeELm4ENS_15CrashOnOverflowEED2Ev
__ZN7WebCore11ElementDataD2Ev
__ZNK7WebCore9InputType19supportsPlaceholderEv
__ZN7WebCore34jsNodePrototypeFunctionRemoveChildEPN3JSC9ExecStateE
__ZN7WebCore6JSNode11removeChildEPN3JSC9ExecStateE
__ZN7WebCore4Node11removeChildEPS0_Ri
__ZN7WebCore15HTMLLinkElementD0Ev
__ZN7WebCore15HTMLLinkElementD2Ev
__ZN7WebCore11EventSenderINS_15HTMLLinkElementEE11cancelEventEPS1_
__ZN7WebCore20DOMSettableTokenList5derefEv
__ZN7WebCore20DOMSettableTokenListD0Ev
__ZN7WebCore10LinkLoaderD1Ev
__ZN7WebCore16HTMLTableElementD0Ev
__ZN7WebCore23MutableStylePropertySet6createENS_13CSSParserModeE
__ZN7WebCore21JSCSSStyleDeclaration3putEPN3JSC6JSCellEPNS1_9ExecStateENS1_12PropertyNameENS1_7JSValueERNS1_15PutPropertySlotE
__ZN7WebCore21JSCSSStyleDeclaration11putDelegateEPN3JSC9ExecStateENS1_12PropertyNameENS1_7JSValueERNS1_15PutPropertySlotE
__ZN7WebCore8Settings42shouldRespectPriorityInCSSAttributeSettersEv
__ZN7WebCore30PropertySetCSSStyleDeclaration19setPropertyInternalENS_13CSSPropertyIDERKN3WTF6StringEbRi
__ZN7WebCore12_GLOBAL__N_127StyleAttributeMutationScopeC1EPNS_30PropertySetCSSStyleDeclarationE
__ZNK7WebCore25InlineCSSStyleDeclaration13parentElementEv
__ZN7WebCore30PropertySetCSSStyleDeclaration10willMutateEv
__ZNK7WebCore25InlineCSSStyleDeclaration16parentStyleSheetEv
__ZN7WebCore23MutableStylePropertySet11setPropertyENS_13CSSPropertyIDERKN3WTF6StringEbPNS_18StyleSheetContentsE
__ZN7WebCore9CSSParser10parseValueEPNS_23MutableStylePropertySetENS_13CSSPropertyIDERKN3WTF6StringEbNS_13CSSParserModeEPNS_18StyleSheetContentsE
__ZN7WebCore23MutableStylePropertySet17addParsedPropertyERKNS_11CSSPropertyE
__ZNK7WebCore16StylePropertySet19propertyIsImportantENS_13CSSPropertyIDE
__ZN7WebCore23MutableStylePropertySet11setPropertyERKNS_11CSSPropertyEPS1_
__ZN7WebCore23MutableStylePropertySet23removeShorthandPropertyENS_13CSSPropertyIDE
__ZN7WebCore23MutableStylePropertySet21findCSSPropertyWithIDENS_13CSSPropertyIDE
__ZN7WebCore23MutableStylePropertySet30appendPrefixingVariantPropertyERKNS_11CSSPropertyE
__ZN7WebCore25InlineCSSStyleDeclaration9didMutateENS_30PropertySetCSSStyleDeclaration12MutationTypeE
__ZN3WTF6OwnPtrINS_7HashMapIPN7WebCore8CSSValueENS_6RefPtrIS3_EENS_7PtrHashIS4_EENS_10HashTraitsIS4_EENS9_IS6_EEEEE5clearEv
__ZN7WebCore12_GLOBAL__N_127StyleAttributeMutationScopeD1Ev
__ZN7WebCore44jsDOMWindowPrototypeFunctionGetComputedStyleEPN3JSC9ExecStateE
__ZN7WebCore9toElementEN3JSC7JSValueE
__ZN7WebCore37valueToStringWithUndefinedOrNullCheckEPN3JSC9ExecStateENS0_7JSValueE
__ZNK7WebCore9DOMWindow16getComputedStyleEPNS_7ElementERKN3WTF6StringE
__ZN7WebCore27CSSComputedStyleDeclarationC1EN3WTF10PassRefPtrINS_4NodeEEEbRKNS1_6StringE
__ZN7WebCore27CSSComputedStyleDeclarationC2EN3WTF10PassRefPtrINS_4NodeEEEbRKNS1_6StringE
__ZN7WebCore11CSSSelector8pseudoIdENS0_10PseudoTypeE
__ZN7WebCore27CSSComputedStyleDeclaration3refEv
__ZN7WebCore27CSSComputedStyleDeclaration5derefEv
__ZN7WebCore27CSSComputedStyleDeclaration27getPropertyCSSValueInternalENS_13CSSPropertyIDE
__ZNK7WebCore22ComputedStyleExtractor13propertyValueENS_13CSSPropertyIDENS_13EUpdateLayoutE
__ZNK7WebCore9RenderBox25cachedSizeForOverflowClipEv
__ZNK7WebCore9RenderBox21scrolledContentOffsetEv
__ZNK7WebCore12RenderObject20localToContainerQuadERKNS_9FloatQuadEPKNS_22RenderLayerModelObjectEjPb
__ZNK7WebCore9RenderBox19mapLocalToContainerEPKNS_22RenderLayerModelObjectERNS_14TransformStateEjPb
__ZNK7WebCore14TransformState11mappedPointEPb
__ZN7WebCore10FloatPoint4moveERKNS_10LayoutSizeE
__ZNK7WebCore9RenderBox19offsetFromContainerEPNS_12RenderObjectERKNS_11LayoutPointEPb
__ZNK7WebCore20RenderBoxModelObject11paintOffsetEv
__ZNK7WebCore10RenderView19mapLocalToContainerEPKNS_22RenderLayerModelObjectERNS_14TransformStateEjPb
__ZN7WebCore14TransformState7flattenEPb
__ZN7WebCore14TransformState22applyAccumulatedOffsetEv
__ZN7WebCore14TransformState26translateMappedCoordinatesERKNS_10LayoutSizeE
__ZNK7WebCore9RenderBox30computePercentageLogicalHeightERKNS_6LengthE
__ZNK7WebCore9RenderBox46skipContainingBlockForPercentHeightCalculationEPKS0_
__ZNK7WebCore9RenderBox40constrainContentBoxLogicalHeightByMinMaxENS_10LayoutUnitE
__ZNK7WebCore9RenderBox27computeContentLogicalHeightERKNS_6LengthE
__ZN7WebCore11RenderLayer27updateScrollInfoAfterLayoutEv
__ZN7WebCore11RenderLayer23computeScrollDimensionsEv
__ZNK7WebCore11RenderLayer13overflowRightEv
__ZNK7WebCore11RenderLayer12overflowLeftEv
__ZNK7WebCore11RenderLayer14overflowBottomEv
__ZNK7WebCore11RenderLayer11overflowTopEv
__ZN7WebCore14ScrollableArea15setScrollOriginERKNS_8IntPointE
__ZNK7WebCore11RenderLayer17clampScrollOffsetERKNS_7IntSizeE
__ZNK7WebCore9RenderBox23pixelSnappedClientWidthEv
__ZNK7WebCore9RenderBox24pixelSnappedClientHeightEv
__ZN7WebCore11RenderLayer27updateScrollbarsAfterLayoutEv
__ZNK7WebCore11RenderLayer31hasScrollableHorizontalOverflowEv
__ZNK7WebCore11RenderLayer29hasScrollableVerticalOverflowEv
__ZN7WebCore11RenderLayer23updateScrollableAreaSetEb
__ZN7WebCore27CSSComputedStyleDeclaration24getPropertyValueInternalENS_13CSSPropertyIDE
__ZNK7WebCore27CSSComputedStyleDeclaration16getPropertyValueENS_13CSSPropertyIDE
__ZN7WebCore20jsDocumentReadyStateEPN3JSC9ExecStateENS0_7JSValueENS0_12PropertyNameE
__ZNK7WebCore8Document10readyStateEv
__ZN7WebCore19jsStringOrUndefinedEPN3JSC9ExecStateERKN3WTF6StringE
__ZN7WebCore39jsNodePrototypeFunctionAddEventListenerEPN3JSC9ExecStateE
__ZN7WebCore15JSEventListenerC1EPN3JSC8JSObjectES3_bPNS_15DOMWrapperWorldE
__ZN7WebCore15JSEventListenerC2EPN3JSC8JSObjectES3_bPNS_15DOMWrapperWorldE
__ZN7WebCore28ThreadLocalInspectorCounters7currentEv
__ZN7WebCore4Node16addEventListenerERKN3WTF12AtomicStringENS1_10PassRefPtrINS_13EventListenerEEEb
__ZN7WebCore11EventTarget16addEventListenerERKN3WTF12AtomicStringENS1_10PassRefPtrINS_13EventListenerEEEb
__ZN7WebCore4Node21ensureEventTargetDataEv
__ZN7WebCore16EventListenerMap3addERKN3WTF12AtomicStringENS1_10PassRefPtrINS_13EventListenerEEEb
__ZN3WTF10PassOwnPtrINS_6VectorIN7WebCore23RegisteredEventListenerELm1ENS_15CrashOnOverflowEEEED2Ev
__ZN7WebCoreL19addListenerToVectorEPN3WTF6VectorINS_23RegisteredEventListenerELm1ENS0_15CrashOnOverflowEEENS0_10PassRefPtrINS_13EventListenerEEEb
__ZN7WebCore8Document23addListenerTypeIfNeededERKN3WTF12AtomicStringE
__ZN7WebCore44jsDOMWindowPrototypeFunctionAddEventListenerEPN3JSC9ExecStateE
__ZN7WebCore11JSDOMWindow16addEventListenerEPN3JSC9ExecStateE
__ZN7WebCore9DOMWindow16addEventListenerERKN3WTF12AtomicStringENS1_10PassRefPtrINS_13EventListenerEEEb
__ZN7WebCore9DOMWindow21ensureEventTargetDataEv
__ZN7WebCore25jsDocumentDocumentElementEPN3JSC9ExecStateENS0_7JSValueENS0_12PropertyNameE
__ZN7WebCoreL28createHTMLHtmlElementWrapperEPN3JSC9ExecStateEPNS_17JSDOMGlobalObjectEN3WTF10PassRefPtrINS_11HTMLElementEEE
__ZN7WebCore15getDOMStructureINS_17JSHTMLHtmlElementEEEPN3JSC9StructureEPNS2_9ExecStateEPNS_17JSDOMGlobalObjectE
__ZN7WebCore17JSHTMLHtmlElement15createPrototypeEPN3JSC9ExecStateEPNS1_14JSGlobalObjectE
__ZN7WebCore17JSHTMLHtmlElement6createEPN3JSC9StructureEPNS_17JSDOMGlobalObjectEN3WTF10PassRefPtrINS_15HTMLHtmlElementEEE
__ZN7WebCore17JSHTMLHtmlElementC1EPN3JSC9StructureEPNS_17JSDOMGlobalObjectEN3WTF10PassRefPtrINS_15HTMLHtmlElementEEE
__ZN7WebCore17JSHTMLHtmlElement14finishCreationERN3JSC2VME
__ZN7WebCore12cacheWrapperINS_15HTMLHtmlElementEEEvPNS_15DOMWrapperWorldEPT_PNS_12JSDOMWrapperE
__ZN7WebCore17JSHTMLHtmlElement18getOwnPropertySlotEPN3JSC6JSCellEPNS1_9ExecStateENS1_12PropertyNameERNS1_12PropertySlotE
__ZN7WebCore16jsNodeChildNodesEPN3JSC9ExecStateENS0_7JSValueENS0_12PropertyNameE
__ZN7WebCore4Node10childNodesEv
__ZN7WebCore17NodeListsNodeData19ensureChildNodeListEPNS_4NodeE
__ZN7WebCore13ChildNodeListC1EN3WTF10PassRefPtrINS_4NodeEEE
__ZN7WebCoreL28createHTMLHeadElementWrapperEPN3JSC9ExecStateEPNS_17JSDOMGlobalObjectEN3WTF10PassRefPtrINS_11HTMLElementEEE
__ZN7WebCore15getDOMStructureINS_17JSHTMLHeadElementEEEPN3JSC9StructureEPNS2_9ExecStateEPNS_17JSDOMGlobalObjectE
__ZN7WebCore17JSHTMLHeadElement15createPrototypeEPN3JSC9ExecStateEPNS1_14JSGlobalObjectE
__ZN7WebCore17JSHTMLHeadElement6createEPN3JSC9StructureEPNS_17JSDOMGlobalObjectEN3WTF10PassRefPtrINS_15HTMLHeadElementEEE
__ZN7WebCore17JSHTMLHeadElementC1EPN3JSC9StructureEPNS_17JSDOMGlobalObjectEN3WTF10PassRefPtrINS_15HTMLHeadElementEEE
__ZN7WebCore17JSHTMLHeadElement14finishCreationERN3JSC2VME
__ZN7WebCore12cacheWrapperINS_15HTMLHeadElementEEEvPNS_15DOMWrapperWorldEPT_PNS_12JSDOMWrapperE
__ZN7WebCoreL28createHTMLBodyElementWrapperEPN3JSC9ExecStateEPNS_17JSDOMGlobalObjectEN3WTF10PassRefPtrINS_11HTMLElementEEE
__ZN7WebCore15getDOMStructureINS_17JSHTMLBodyElementEEEPN3JSC9StructureEPNS2_9ExecStateEPNS_17JSDOMGlobalObjectE
__ZN7WebCore17JSHTMLBodyElement15createPrototypeEPN3JSC9ExecStateEPNS1_14JSGlobalObjectE
__ZN7WebCore17JSHTMLBodyElement6createEPN3JSC9StructureEPNS_17JSDOMGlobalObjectEN3WTF10PassRefPtrINS_15HTMLBodyElementEEE
__ZN7WebCore17JSHTMLBodyElementC1EPN3JSC9StructureEPNS_17JSDOMGlobalObjectEN3WTF10PassRefPtrINS_15HTMLBodyElementEEE
__ZN7WebCore17JSHTMLBodyElement14finishCreationERN3JSC2VME
__ZN7WebCore12cacheWrapperINS_15HTMLBodyElementEEEvPNS_15DOMWrapperWorldEPT_PNS_12JSDOMWrapperE
__ZN7WebCore17JSHTMLHeadElement18getOwnPropertySlotEPN3JSC6JSCellEPNS1_9ExecStateENS1_12PropertyNameERNS1_12PropertySlotE
__ZN7WebCore35jsNodePrototypeFunctionInsertBeforeEPN3JSC9ExecStateE
__ZN7WebCore6JSNode12insertBeforeEPN3JSC9ExecStateE
__ZN7WebCore4Node12insertBeforeEN3WTF10PassRefPtrIS0_EEPS0_RiNS_14AttachBehaviorE
__ZN7WebCore13ContainerNode12insertBeforeEN3WTF10PassRefPtrINS_4NodeEEEPS3_RiNS_14AttachBehaviorE
__ZN7WebCore4Node10lazyAttachENS0_17ShouldSetAttachedE
__ZN7WebCore41jsDocumentPrototypeFunctionGetElementByIdEPN3JSC9ExecStateE
__ZNK7WebCore8Document14getElementByIdERKN3WTF12AtomicStringE
__ZNK7WebCore9TreeScope14getElementByIdERKN3WTF12AtomicStringE
__ZNK7WebCore18DocumentOrderedMap14getElementByIdEPN3WTF16AtomicStringImplEPKNS_9TreeScopeE
__ZNK7WebCore18DocumentOrderedMap3getIXadL_ZNS_12keyMatchesIdEPN3WTF16AtomicStringImplEPNS_7ElementEEEEES6_S4_PKNS_9TreeScopeE
__ZN7WebCore24ChildNodeRemovalNotifier35notifyDescendantRemovedFromDocumentEPNS_13ContainerNodeE
__ZN7WebCore9TreeScope19removeElementByNameERKN3WTF12AtomicStringEPNS_7ElementE
__ZN7WebCore18DocumentOrderedMap6removeEPN3WTF16AtomicStringImplEPNS_7ElementE
__ZN7WebCore40jsDocumentPrototypeFunctionCreateCommentEPN3JSC9ExecStateE
__ZN7WebCore8Document13createCommentERKN3WTF6StringE
__ZN7WebCore7Comment6createEPNS_8DocumentERKN3WTF6StringE
__ZN7WebCore16toJSNewlyCreatedEPN3JSC9ExecStateEPNS_17JSDOMGlobalObjectEPNS_4NodeE
__ZNK7WebCore7Comment8nodeTypeEv
__ZN7WebCore15getDOMStructureINS_9JSCommentEEEPN3JSC9StructureEPNS2_9ExecStateEPNS_17JSDOMGlobalObjectE
__ZN7WebCore9JSComment15createPrototypeEPN3JSC9ExecStateEPNS1_14JSGlobalObjectE
__ZN7WebCore9JSComment6createEPN3JSC9StructureEPNS_17JSDOMGlobalObjectEN3WTF10PassRefPtrINS_7CommentEEE
__ZN7WebCore9JSCommentC1EPN3JSC9StructureEPNS_17JSDOMGlobalObjectEN3WTF10PassRefPtrINS_7CommentEEE
__ZN7WebCore9JSComment14finishCreationERN3JSC2VME
__ZN7WebCore12cacheWrapperINS_7CommentEEEvPNS_15DOMWrapperWorldEPT_PNS_12JSDOMWrapperE
__ZN7WebCore13ContainerNode12replaceChildEN3WTF10PassRefPtrINS_4NodeEEEPS3_RiNS_14AttachBehaviorE
__ZN7WebCore42jsElementPrototypeFunctionQuerySelectorAllEPN3JSC9ExecStateE
__ZN7WebCore4Node16querySelectorAllERKN3WTF12AtomicStringERi
__ZN7WebCore8Document18selectorQueryCacheEv
__ZN7WebCore18SelectorQueryCache3addERKN3WTF12AtomicStringEPNS_8DocumentERi
__ZN7WebCore9CSSParser13parseSelectorERKN3WTF6StringERNS_15CSSSelectorListE
__ZNK7WebCore15CSSSelectorList18hasInvalidSelectorEv
__ZN7WebCoreL18forEachTagSelectorINS_33SelectorHasInvalidSelectorFunctorEEEbRT_PKNS_11CSSSelectorE
__ZN7WebCore15CSSSelectorList32selectorsNeedNamespaceResolutionEv
__ZN7WebCoreL18forEachTagSelectorINS_39SelectorNeedsNamespaceResolutionFunctorEEEbRT_PKNS_11CSSSelectorE
__ZN7WebCore15CSSSelectorListC1ERKS0_
__ZN7WebCore11CSSSelectorC2ERKS0_
__ZN7WebCore16SelectorDataList10initializeERKNS_15CSSSelectorListE
__ZN3WTF9HashTableINS_12AtomicStringENS_12KeyValuePairIS1_NS_6OwnPtrIN7WebCore13SelectorQueryEEEEENS_24KeyValuePairKeyExtractorIS7_EENS_16AtomicStringHashENS_18HashMapValueTraitsINS_10HashTraitsIS1_EENSC_IS6_EEEESD_E12deleteBucketERS7_
__ZN3WTF9HashTableINS_12AtomicStringENS_12KeyValuePairIS1_NS_6OwnPtrIN7WebCore13SelectorQueryEEEEENS_24KeyValuePairKeyExtractorIS7_EENS_16AtomicStringHashENS_18HashMapValueTraitsINS_10HashTraitsIS1_EENSC_IS6_EEEESD_E3addINS_17HashMapTranslatorISF_SA_EES1_NS_10PassOwnPtrIS5_EEEENS_18HashTableAddResultINS_17HashTableIteratorIS1_S7_S9_SA_SF_SD_EEEERKT0_RKT1_
__ZN3WTF9HashTableINS_12AtomicStringENS_12KeyValuePairIS1_NS_6OwnPtrIN7WebCore13SelectorQueryEEEEENS_24KeyValuePairKeyExtractorIS7_EENS_16AtomicStringHashENS_18HashMapValueTraitsINS_10HashTraitsIS1_EENSC_IS6_EEEESD_E4findINS_22IdentityHashTranslatorISA_EES1_EENS_17HashTableIteratorIS1_S7_S9_SA_SF_SD_EERKT0_
__ZN3WTF9HashTableINS_12AtomicStringENS_12KeyValuePairIS1_NS_6OwnPtrIN7WebCore13SelectorQueryEEEEENS_24KeyValuePairKeyExtractorIS7_EENS_16AtomicStringHashENS_18HashMapValueTraitsINS_10HashTraitsIS1_EENSC_IS6_EEEESD_E6rehashEi
__ZN3WTF9HashTableINS_12AtomicStringENS_12KeyValuePairIS1_NS_6OwnPtrIN7WebCore13SelectorQueryEEEEENS_24KeyValuePairKeyExtractorIS7_EENS_16AtomicStringHashENS_18HashMapValueTraitsINS_10HashTraitsIS1_EENSC_IS6_EEEESD_E8reinsertERS7_
__ZN3WTF17HashMapTranslatorINS_18HashMapValueTraitsINS_10HashTraitsINS_12AtomicStringEEENS2_INS_6OwnPtrIN7WebCore13SelectorQueryEEEEEEENS_16AtomicStringHashEE9translateINS_12KeyValuePairIS3_S8_EES3_NS_10PassOwnPtrIS7_EEEEvRT_RKT0_RKT1_
__ZNK7WebCore16SelectorDataList8queryAllEPNS_4NodeE
__ZNK7WebCore16SelectorDataList7executeILb0EEEvPNS_4NodeERN3WTF6VectorINS4_6RefPtrIS2_EELm0ENS4_15CrashOnOverflowEEE
__ZNK7WebCore14StaticNodeList6lengthEv
__ZN7WebCore47jsElementPrototypeFunctionWebkitMatchesSelectorEPN3JSC9ExecStateE
__ZN7WebCore7Element21webkitMatchesSelectorERKN3WTF6StringERi
__ZNK7WebCore16SelectorDataList7matchesEPNS_7ElementE
__ZNK7WebCore16SelectorDataList15selectorMatchesERKNS0_12SelectorDataEPNS_7ElementEPKNS_4NodeE
__ZNK7WebCore23SelectorCheckerFastPath24matchesRightmostSelectorENS_15SelectorChecker16VisitedMatchTypeE
__ZN7WebCore24ExceptionCodeDescriptionC1Ei
__ZN7WebCore24ExceptionCodeDescriptionC2Ei
__ZN7WebCore14EventException21initializeDescriptionEiPNS_24ExceptionCodeDescriptionE
__ZN7WebCore13FileException21initializeDescriptionEiPNS_24ExceptionCodeDescriptionE
__ZN7WebCore14RangeException21initializeDescriptionEiPNS_24ExceptionCodeDescriptionE
__ZN7WebCore12SQLException21initializeDescriptionEiPNS_24ExceptionCodeDescriptionE
__ZN7WebCore12SVGException21initializeDescriptionEiPNS_24ExceptionCodeDescriptionE
__ZN7WebCore23XMLHttpRequestException21initializeDescriptionEiPNS_24ExceptionCodeDescriptionE
__ZN7WebCore14XPathException21initializeDescriptionEiPNS_24ExceptionCodeDescriptionE
__ZN7WebCore16DOMCoreException21initializeDescriptionEiPNS_24ExceptionCodeDescriptionE
__ZN7WebCore13ExceptionBaseC2ERKNS_24ExceptionCodeDescriptionE
__ZN3WTFplINS_12StringAppendINS1_INS_6StringEPKcEES4_EES4_S2_EENS1_INS1_IT_T0_EET1_EERKS9_SA_
__ZNK3WTF12StringAppendINS0_INS0_INS0_INS_6StringEPKcEES3_EES3_EES1_EcvS1_Ev
__ZN3WTF13tryMakeStringINS_12StringAppendINS1_INS1_INS_6StringEPKcEES4_EES4_EES2_EENS_10PassRefPtrINS_10StringImplEEET_T0_
__ZN3WTF12StringAppendINS0_INS_6StringEPKcEES3_E7writeToEPh
__ZN7WebCore4toJSEPN3JSC9ExecStateEPNS_17JSDOMGlobalObjectEPNS_16DOMCoreExceptionE
__ZN7WebCore15getDOMStructureINS_18JSDOMCoreExceptionEEEPN3JSC9StructureEPNS2_9ExecStateEPNS_17JSDOMGlobalObjectE
__ZN7WebCore18JSDOMCoreException15createPrototypeEPN3JSC9ExecStateEPNS1_14JSGlobalObjectE
__ZN7WebCore12cacheWrapperINS_16DOMCoreExceptionEEEvPNS_15DOMWrapperWorldEPT_PNS_12JSDOMWrapperE
__ZN3WTF10RefCountedIN7WebCore13ExceptionBaseEE5derefEv
__ZN7WebCore18JSDOMCoreException18getOwnPropertySlotEPN3JSC6JSCellEPNS1_9ExecStateENS1_12PropertyNameERNS1_12PropertySlotE
__ZN7WebCore25getHashTableForGlobalDataERN3JSC2VMEPKNS0_9HashTableE
__ZN7WebCore21DOMObjectHashTableMap6mapForERN3JSC2VME
__ZN7WebCore21DOMObjectHashTableMap3getEPKN3JSC9HashTableE
__ZN3WTF9HashTableIPKN3JSC9HashTableENS_12KeyValuePairIS4_S2_EENS_24KeyValuePairKeyExtractorIS6_EENS_7PtrHashIS4_EENS_18HashMapValueTraitsINS_10HashTraitsIS4_EENSC_IS2_EEEESD_E16lookupForWritingINS_22IdentityHashTranslatorISA_EES4_EENSt3__14pairIPS6_bEERKT0_
__ZN3WTF9HashTableIPKN3JSC9HashTableENS_12KeyValuePairIS4_S2_EENS_24KeyValuePairKeyExtractorIS6_EENS_7PtrHashIS4_EENS_18HashMapValueTraitsINS_10HashTraitsIS4_EENSC_IS2_EEEESD_E3addINS_17HashMapTranslatorISF_SA_EES4_S2_EENS_18HashTableAddResultINS_17HashTableIteratorIS4_S6_S8_SA_SF_SD_EEEERKT0_RKT1_
__ZN3WTF9HashTableIPKN3JSC9HashTableENS_12KeyValuePairIS4_S2_EENS_24KeyValuePairKeyExtractorIS6_EENS_7PtrHashIS4_EENS_18HashMapValueTraitsINS_10HashTraitsIS4_EENSC_IS2_EEEESD_E6lookupINS_22IdentityHashTranslatorISA_EES4_EEPS6_RKT0_
__ZN3WTF9HashTableIPKN3JSC9HashTableENS_12KeyValuePairIS4_S2_EENS_24KeyValuePairKeyExtractorIS6_EENS_7PtrHashIS4_EENS_18HashMapValueTraitsINS_10HashTraitsIS4_EENSC_IS2_EEEESD_E6rehashEi
__ZN3JSC18getStaticValueSlotIN7WebCore18JSDOMCoreExceptionENS1_12JSDOMWrapperEEEbPNS_9ExecStateEPKNS_9HashTableEPT_NS_12PropertyNameERNS_12PropertySlotE
__ZN7WebCore27JSDOMCoreExceptionPrototype18getOwnPropertySlotEPN3JSC6JSCellEPNS1_9ExecStateENS1_12PropertyNameERNS1_12PropertySlotE
__ZN3JSC21getStaticPropertySlotIN7WebCore27JSDOMCoreExceptionPrototypeENS_8JSObjectEEEbPNS_9ExecStateEPKNS_9HashTableEPT_NS_12PropertyNameERNS_12PropertySlotE
__ZN7WebCore48jsElementPrototypeFunctionGetElementsByClassNameEPN3JSC9ExecStateE
__ZN7WebCore4Node22getElementsByClassNameERKN3WTF6StringE
__ZN7WebCore17NodeListsNodeData16addCacheWithNameINS_13ClassNodeListEEEN3WTF10PassRefPtrIT_EEPNS_4NodeENS_14CollectionTypeERKNS3_6StringE
__ZN7WebCore13ClassNodeListC1EN3WTF10PassRefPtrINS_4NodeEEERKNS1_6StringE
__ZN7WebCore13ClassNodeListC2EN3WTF10PassRefPtrINS_4NodeEEERKNS1_6StringE
__ZN7WebCore20firstMatchingElementINS_13ClassNodeListEEEPNS_7ElementEPKT_PNS_13ContainerNodeE
__ZN7WebCore20SpaceSplitStringData11containsAllERS0_
__ZN7WebCore9JSElement3putEPN3JSC6JSCellEPNS1_9ExecStateENS1_12PropertyNameENS1_7JSValueERNS1_15PutPropertySlotE
__ZN3JSC8putEntryIN7WebCore9JSElementEEEvPNS_9ExecStateEPKNS_9HashEntryENS_12PropertyNameENS_7JSValueEPT_b
__ZN7WebCore21setJSElementClassNameEPN3JSC9ExecStateEPNS0_8JSObjectENS0_7JSValueE
__ZN7WebCore7Element12attrIfExistsERKNS_13QualifiedNameE
__ZN7WebCore21jsDocumentDefaultViewEPN3JSC9ExecStateENS0_7JSValueENS0_12PropertyNameE
__ZN7WebCore10JSLocation18getOwnPropertySlotEPN3JSC6JSCellEPNS1_9ExecStateENS1_12PropertyNameERNS1_12PropertySlotE
__ZN7WebCore10JSLocation26getOwnPropertySlotDelegateEPN3JSC9ExecStateENS1_12PropertyNameERNS1_12PropertySlotE
__ZN7WebCore24shouldAllowAccessToFrameEPN3JSC9ExecStateEPNS_5FrameERN3WTF6StringE
__ZN7WebCore15BindingSecurity24shouldAllowAccessToFrameEPN3JSC9ExecStateEPNS_5FrameENS_23SecurityReportingOptionE
__ZN3JSC18getStaticValueSlotIN7WebCore10JSLocationENS1_12JSDOMWrapperEEEbPNS_9ExecStateEPKNS_9HashTableEPT_NS_12PropertyNameERNS_12PropertySlotE
__ZN7WebCore14jsLocationHrefEPN3JSC9ExecStateENS0_7JSValueENS0_12PropertyNameE
__ZNK7WebCore8Location4hrefEv
__ZN7WebCore36jsDOMWindowXMLHttpRequestConstructorEPN3JSC9ExecStateENS0_7JSValueENS0_12PropertyNameE
__ZN7WebCore16JSXMLHttpRequest14getConstructorEPN3JSC9ExecStateEPNS1_14JSGlobalObjectE
__ZN7WebCore17getDOMConstructorINS_27JSXMLHttpRequestConstructorEEEPN3JSC8JSObjectEPNS2_9ExecStateEPKNS_17JSDOMGlobalObjectE
__ZN7WebCore27JSXMLHttpRequestConstructor14finishCreationEPN3JSC9ExecStateEPNS_17JSDOMGlobalObjectE
__ZN7WebCore15getDOMStructureINS_16JSXMLHttpRequestEEEPN3JSC9StructureEPNS2_9ExecStateEPNS_17JSDOMGlobalObjectE
__ZN7WebCore16JSXMLHttpRequest15createPrototypeEPN3JSC9ExecStateEPNS1_14JSGlobalObjectE
__ZN3JSC8JSObject17putDirectInternalILNS0_7PutModeE1EEEbRNS_2VMENS_12PropertyNameENS_7JSValueEjRNS_15PutPropertySlotEPNS_6JSCellE
__ZN3JSC8JSObject43setStructureAndReallocateStorageIfNecessaryERNS_2VMEPNS_9StructureE
