single module:__ZN3KJS5Lexer3lexEv
single module:__ZN3KJS5ValueD4Ev
single module:__ZN3KJS5ValueD1Ev
single module:__Znwm
single module:__ZN3KJS5ValueC4ERKS0_
single module:__ZN3KJS5ValueD2Ev
single module:__ZN3KJS16FunctionCallNode8evaluateEPNS_9ExecStateE
single module:__Z10kjsyyparsev
single module:__ZdlPv
single module:__ZN3KJS5ValueC1ERKS0_
single module:__ZNK3KJS9Reference8getValueEPNS_9ExecStateE
single module:__ZN3KJS8ValueImp12setGcAllowedEv
single module:__ZN3KJS5ValueC4EPNS_8ValueImpE
single module:__ZN3KJS7UString7releaseEv
single module:__ZN3KJS5Lexer5shiftEj
single module:__ZN3KJS13AccessorNode217evaluateReferenceEPNS_9ExecStateE
single module:__ZN3KJS7UString6attachEPNS0_3RepE
single module:__ZNK3KJS8ValueImp12dispatchTypeEv
single module:__ZN3KJS18SourceElementsNode7executeEPNS_9ExecStateE
single module:__ZN3KJS5Lexer8record16ENS_5UCharE
single module:__ZN3KJS5Lexer13isIdentLetterEt
single module:__ZNK3KJS9ObjectImp4typeEv
single module:__ZN3KJS5ValueC2EPNS_8ValueImpE
single module:__ZN3KJS10AssignNode8evaluateEPNS_9ExecStateE
single module:__ZN3KJS3addEPNS_9ExecStateERKNS_5ValueES4_c
single module:__ZN3KJS5Lexer16isLineTerminatorEv
single module:__ZN3KJS6Lookup9findEntryEPKNS_9HashTableEPKNS_5UCharEj
single module:__ZN3KJS5Lexer4currEv
single module:__Z8kjsyylexv
single module:__ZNK3KJS9Reference7getBaseEPNS_9ExecStateE
single module:__ZN3KJS13AccessorNode28evaluateEPNS_9ExecStateE
single module:__ZN3KJS4NodeC4Ev
single module:__ZN3KJS6StringC4ERKNS_7UStringE
single module:__ZN3KJS17ExprStatementNode7executeEPNS_9ExecStateE
single module:__ZN3KJS9ReferenceC4ERKNS_6ObjectERKNS_10IdentifierE
single module:__ZN3KJS8ThisNode8evaluateEPNS_9ExecStateE
single module:__ZN3KJS5ValueC1EPNS_8ValueImpE
single module:__ZNK3KJS9ObjectImp3getEPNS_9ExecStateERKNS_10IdentifierE
single module:__ZN3KJS5ValueaSERKS0_
single module:__ZN3KJS14InterpreterImp8evaluateERKNS_7UStringERKNS_5ValueE
single module:__ZN3KJS11FunctionImp4callEPNS_9ExecStateERNS_6ObjectERKNS_4ListE
single module:__ZNK3KJS5Lexer12isWhiteSpaceEv
single module:__ZNK3KJS8ValueImp16dispatchToObjectEPNS_9ExecStateE
single module:__ZNK3KJS9ObjectImp8toObjectEPNS_9ExecStateE
single module:__ZN3KJS18StringProtoFuncImp4callEPNS_9ExecStateERNS_6ObjectERKNS_4ListE
single module:__Znam
single module:__ZN3KJS6Object11dynamicCastERKNS_5ValueE
single module:__ZdaPv
single module:__ZN3KJS7UString3Rep6createEPNS_5UCharEi
single module:__ZN3KJS5Lexer7setDoneENS0_5StateE
single module:__ZN3KJS10Identifier3addEPKNS_5UCharEi
single module:__ZN3KJS5Lexer15matchPunctuatorEtttt
single module:__ZN3KJS10ContextImpC4ERNS_6ObjectEPNS_14InterpreterImpES2_NS_8CodeTypeEPS0_PNS_11FunctionImpEPKNS_4ListE
single module:__ZN3KJS5Lexer14isDecimalDigitEt
single module:__ZN3KJS4NodeC2Ev
single module:__ZNK3KJS11PropertyMap3getERKNS_10IdentifierE
single module:__ZNK3KJS8ValueImp16dispatchToStringEPNS_9ExecStateE
single module:__ZN3KJS7UString3Rep7destroyEv
single module:__Z9keysMatchPKN3KJS5UCharEjPKc
single module:__ZN3KJS11ResolveNode17evaluateReferenceEPNS_9ExecStateE
single module:__ZN3KJS5ValueC2ERKS0_
single module:__ZN3KJS11ResolveNode8evaluateEPNS_9ExecStateE
single module:__ZN3KJS9Reference8putValueEPNS_9ExecStateERKNS_5ValueE
single module:__ZN3KJS7UStringC4EPKNS_5UCharEi
single module:__ZNK3KJS9StringImp8toStringEPNS_9ExecStateE
single module:__ZNK3KJS8ValueImp19dispatchToPrimitiveEPNS_9ExecStateENS_4TypeE
single module:__ZN3KJS6Lookup4findEPKNS_9HashTableEPKNS_5UCharEj
single module:__ZN3KJS7UStringaSERKS0_
single module:__ZN3KJS13StatementNode12hitStatementEPNS_9ExecStateE
single module:__ZN3KJS9ReferenceC4EPNS_9ObjectImpERKNS_10IdentifierE
single module:__ZN3KJS19DeclaredFunctionImp7executeEPNS_9ExecStateE
single module:__ZNK3KJS9ObjectImp11hasPropertyEPNS_9ExecStateERKNS_10IdentifierE
single module:__ZN3KJS10ContextImpD4Ev
single module:__ZN3KJS4NodeD2Ev
single module:__ZN3KJS4NodeD4Ev
single module:__ZN3KJS7AddNode8evaluateEPNS_9ExecStateE
single module:__ZN3KJS7UStringC4ERKS0_S2_
single module:__ZN3KJS8ValueImpnwEm
single module:__ZN3KJS9Collector8allocateEm
single module:__ZN3KJS8ValueImpC2Ev
single module:__ZN3KJS8ValueImpC4Ev
single module:__ZN3KJS6Lookup4hashEPKNS_5UCharEj
single module:__ZN3KJS9ReferenceC1ERKNS_6ObjectERKNS_10IdentifierE
single module:__ZN3KJS16ArgumentListNode12evaluateListEPNS_9ExecStateE
single module:__ZN3KJS10StringNode8evaluateEPNS_9ExecStateE
single module:__ZN3KJS8relationEPNS_9ExecStateERKNS_5ValueES4_
single module:__ZN3KJS6IfNode7executeEPNS_9ExecStateE
single module:__ZN3KJS10Identifier3addEPKc
single module:__ZN3KJS13StatementNodeC4Ev
single module:__ZN3KJS11Interpreter3impEv
single module:__ZN3KJS10Identifier4nullEv
single module:__ZN3KJS18SourceElementsNode15processFuncDeclEPNS_9ExecStateE
single module:__ZN3KJS13ActivationImpC4EPNS_11FunctionImpERKNS_4ListE
single module:__ZN3KJS18SourceElementsNode15processVarDeclsEPNS_9ExecStateE
single module:__ZN3KJS17FunctionObjectImp9constructEPNS_9ExecStateERKNS_4ListE
single module:__ZNK3KJS9StringImp11toPrimitiveEPNS_9ExecStateENS_4TypeE
single module:__ZN3KJS15RegExpObjectImp9constructEPNS_9ExecStateERKNS_4ListE
single module:__ZN3KJS9Collector7collectEv
single module:__ZN3KJS8ValueImpD2Ev
single module:__ZN3KJS8ValueImpD4Ev
single module:__ZN3KJS11PropertyMap3putERKNS_10IdentifierEPNS_8ValueImpEi
single module:__ZN3KJS6StringC1ERKNS_7UStringE
single module:__ZN3KJS9UndefinedC4Ev
single module:__ZN3KJS9ObjectImp3putEPNS_9ExecStateERKNS_10IdentifierERKNS_5ValueEi
single module:__ZN3KJS6NumberC4Ed
single module:__ZN3KJS10Identifier5equalEPNS_7UString3RepEPKNS_5UCharEi
single module:__ZN3KJS9BlockNode7executeEPNS_9ExecStateE
single module:__ZNK3KJS9ObjectImp8inheritsEPKNS_9ClassInfoE
single module:__ZNK3KJS8ValueImp7toInt32EPNS_9ExecStateE
single module:__ZN3KJS10NegateNode8evaluateEPNS_9ExecStateE
single module:__ZN3KJS14RelationalNode8evaluateEPNS_9ExecStateE
single module:_kjs_strtod
single module:__ZN3KJS10Identifier5equalEPNS_7UString3RepEPKc
single module:__ZN3KJS7UString3Rep11computeHashEPKNS_5UCharEi
single module:__ZN3KJS4ListC1Ev
single module:__ZN3KJS4ListC4Ev
single module:__ZNK3KJS9ObjectImp6canPutEPNS_9ExecStateERKNS_10IdentifierE
single module:__ZNK3KJS9ObjectImp21findPropertyHashEntryERKNS_10IdentifierE
single module:__ZN3KJS13StatementNode15processFuncDeclEPNS_9ExecStateE
single module:__ZN3KJS4List11derefValuesEv
single module:__ZN3KJS4List7releaseEv
single module:__ZN3KJS11VarDeclNode8evaluateEPNS_9ExecStateE
single module:__ZN3KJS13ArgumentsNode12evaluateListEPNS_9ExecStateE
single module:__ZNK3KJS9ObjectImp12defaultValueEPNS_9ExecStateENS_4TypeE
single module:__ZN3KJS10roundValueEPNS_9ExecStateERKNS_5ValueE
single module:__ZN3KJS10LabelStackD1Ev
single module:__ZN3KJS10LabelStackD4Ev
single module:__ZN3KJS10LabelStack5clearEv
single module:__ZN3KJS9ObjectImpC4Ev
single module:__ZN3KJS14InterpreterImp16initGlobalObjectEv
single module:__ZN3KJS7UString3Rep11computeHashEPKc
single module:__ZN3KJS9ObjectImpC4EPS0_
single module:__ZN3KJS7UStringC4EPKc
single module:__ZN3KJS5isNaNEd
single module:__ZN3KJS6Parser5parseEPKNS_5UCharEjPiS4_PNS_7UStringE
single module:__ZN3KJS13StatementNodeC2Ev
single module:__ZN3KJS10ScopeChain4pushEPNS_9ObjectImpE
single module:__ZN3KJS6Lookup9findEntryEPKNS_9HashTableERKNS_10IdentifierE
single module:__ZN3KJS9ReferenceC1EPNS_9ObjectImpERKNS_10IdentifierE
single module:__ZN3KJS11FunctionImp17processParametersEPNS_9ExecStateERKNS_4ListE
single module:__ZNK3KJS8ValueImp16dispatchToNumberEPNS_9ExecStateE
single module:__ZN3KJS18SourceElementsNode5derefEv
single module:__ZN3KJS13AccessorNode25derefEv
single module:__ZN3KJS16FunctionCallNode5derefEv
single module:__ZN3KJS10ScopeChain7releaseEv
single module:__ZN3KJS7AddNode5derefEv
single module:__ZN3KJS11PropertyMapC1Ev
single module:__ZN3KJS11PropertyMapC4Ev
single module:__ZN3KJS9ObjectImp9putDirectERKNS_10IdentifierEPNS_8ValueImpEi
single module:__ZN3KJS11PropertyMap6expandEv
single module:__ZN3KJS9UndefinedC1Ev
single module:__ZN3KJS7UStringC1Ev
single module:__ZN3KJS7UStringC4Ev
single module:__ZN3KJS6NumberC1Ed
single module:__ZNK3KJS11Interpreter12globalObjectEv
single module:__ZN3KJS7UStringaSEPKc
single module:__ZN3KJS16FunctionBodyNodeC4EPNS_18SourceElementsNodeE
single module:__ZN3KJS13StatementNode6setLocEiii
single module:__ZN3KJS7UStringC1EPKNS_5UCharEi
single module:__ZNK3KJS11PropertyMap3getERKNS_10IdentifierERi
single module:__ZN3KJS16VarStatementNode7executeEPNS_9ExecStateE
single module:__ZNK3KJS4List4copyEv
single module:__ZNK3KJS13ActivationImp11hasPropertyEPNS_9ExecStateERKNS_10IdentifierE
single module:__ZNK3KJS9StringImp8toObjectEPNS_9ExecStateE
single module:__ZN3KJS4List6appendEPNS_8ValueImpE
single module:__ZN3KJS15StringObjectImp9constructEPNS_9ExecStateERKNS_4ListE
single module:__ZNK3KJS4List5impAtEi
single module:__ZNK3KJS18StringPrototypeImp3getEPNS_9ExecStateERKNS_10IdentifierE
single module:__ZN3KJS9Reference9isMutableEv
single module:__ZNK3KJS6Number5valueEv
single module:__ZN3KJS8isPosInfEd
single module:__ZN3KJS8isNegInfEd
single module:__ZN3KJS7UString6appendERKS0_
single module:__ZN3KJS9BlockNode5derefEv
single module:__ZN3KJS17ExprStatementNode5derefEv
single module:__ZN3KJS10RegExpNode8evaluateEPNS_9ExecStateE
single module:__ZN3KJS9ObjectImpD4Ev
single module:__ZN3KJS9ObjectImpC2Ev
single module:__ZN3KJS19InternalFunctionImpC4EPNS_20FunctionPrototypeImpE
single module:__ZN3KJS9ObjectImpC2EPS0_
single module:__ZN3KJS11PropertyMap6insertEPNS_7UString3RepEPNS_8ValueImpEi
single module:__ZN3KJS7BooleanC4Eb
single module:__ZN3KJS6NumberC4Ei
single module:__ZN3KJS11Interpreter8evaluateERKNS_7UStringERKNS_5ValueES3_
single module:__ZN3KJS11VarDeclNodeC4ERKNS_10IdentifierEPNS_14AssignExprNodeE
single module:__ZN3KJS18SourceElementsNode3refEv
single module:__ZN3KJS13AccessorNode23refEv
single module:__ZN3KJS16FunctionCallNode3refEv
single module:__ZN3KJS10ContextImpC1ERNS_6ObjectEPNS_14InterpreterImpES2_NS_8CodeTypeEPS0_PNS_11FunctionImpEPKNS_4ListE
single module:__ZN3KJS10ScopeChainaSERKS0_
single module:__ZN3KJS15ObjectObjectImp9constructEPNS_9ExecStateERKNS_4ListE
single module:__ZN3KJS9ObjectImpC4ERKNS_6ObjectE
single module:__ZN3KJS10ScopeChain3popEv
single module:__ZN3KJS15VarDeclListNode8evaluateEPNS_9ExecStateE
single module:__ZN3KJS13ActivationImpC1EPNS_11FunctionImpERKNS_4ListE
single module:__ZN3KJS4ListC1Eb
single module:__ZN3KJS4ListC4Eb
single module:__ZN3KJS19DeclaredFunctionImp15processVarDeclsEPNS_9ExecStateE
single module:__ZN3KJS9BlockNode15processVarDeclsEPNS_9ExecStateE
single module:__ZN3KJS6IfNode15processVarDeclsEPNS_9ExecStateE
single module:__ZN3KJS17StringInstanceImpC4EPNS_9ObjectImpERKNS_7UStringE
single module:__ZNK3KJS17StringInstanceImp3getEPNS_9ExecStateERKNS_10IdentifierE
single module:__ZNK3KJS9ObjectImp8toStringEPNS_9ExecStateE
single module:__ZN3KJS7UStringixEi
single module:__ZN3KJS14UCharReferenceaSENS_5UCharE
single module:__ZN3KJS13GlobalFuncImp4callEPNS_9ExecStateERNS_6ObjectERKNS_4ListE
single module:__ZNK3KJS8ValueImp16dispatchToUInt32ERj
single module:__ZNK3KJS9ObjectImp9classInfoEv
single module:__ZN3KJS9GroupNode8evaluateEPNS_9ExecStateE
single module:__ZN3KJS17BinaryLogicalNode8evaluateEPNS_9ExecStateE
single module:__ZN3KJS9EqualNode8evaluateEPNS_9ExecStateE
single module:__ZNK3KJS13ActivationImp3getEPNS_9ExecStateERKNS_10IdentifierE
single module:__ZN3KJS10NumberNode8evaluateEPNS_9ExecStateE
single module:__ZN3KJS5equalEPNS_9ExecStateERKNS_5ValueES4_
single module:__ZNK3KJS8ValueImp17dispatchToBooleanEPNS_9ExecStateE
single module:__ZN3KJS10ContextImpD1Ev
single module:__ZN3KJS10AssignNode5derefEv
single module:__ZN3KJS13ArgumentsNode5derefEv
single module:__ZN3KJS11ProgramNodeC4EPNS_18SourceElementsNodeE
single module:__ZN3KJS7UStringC1ERKS0_S2_
single module:__ZN3KJS6RegExp5matchERKNS_7UStringEiPiPS4_
single module:__ZNK3KJS7UString6substrEii
single module:__ZN3KJS7ForNode7executeEPNS_9ExecStateE
single module:__ZN3KJS11PostfixNode8evaluateEPNS_9ExecStateE
single module:__ZN3KJS7UString4fromEi
single module:__ZN3KJS7UString4fromEl
single module:__ZN3KJS8NullNode8evaluateEPNS_9ExecStateE
single module:__ZN3KJS11Interpreter21shouldPrintExceptionsEv
single module:__ZN3KJS11InterpreterC2ERKNS_6ObjectE
single module:__ZN3KJS11InterpreterC4ERKNS_6ObjectE
single module:__ZN3KJS14InterpreterImpC1EPNS_11InterpreterERKNS_6ObjectE
single module:__ZN3KJS14InterpreterImpC4EPNS_11InterpreterERKNS_6ObjectE
single module:__Z25initializeInterpreterLockv
single module:__ZN3KJS14InterpreterImp10globalInitEv
single module:__ZN3KJS10Identifier4initEv
single module:__ZN3KJS10Identifier6expandEv
single module:__ZN3KJS10Identifier6rehashEi
single module:__ZN3KJS20FunctionPrototypeImpC1EPNS_9ExecStateE
single module:__ZN3KJS20FunctionPrototypeImpC4EPNS_9ExecStateE
single module:__ZN3KJS19InternalFunctionImpC2EPNS_20FunctionPrototypeImpE
single module:__ZN3KJS20FunctionProtoFuncImpC1EPNS_9ExecStateEPNS_20FunctionPrototypeImpEii
single module:__ZN3KJS20FunctionProtoFuncImpC4EPNS_9ExecStateEPNS_20FunctionPrototypeImpEii
single module:__ZN3KJS9ObjectImp9putDirectERKNS_10IdentifierEii
single module:__ZN3KJS9NumberImp6createEi
single module:__ZN3KJS18ObjectPrototypeImpC1EPNS_9ExecStateEPNS_20FunctionPrototypeImpE
single module:__ZN3KJS18ObjectPrototypeImpC4EPNS_9ExecStateEPNS_20FunctionPrototypeImpE
single module:__ZN3KJS18ObjectProtoFuncImpC1EPNS_9ExecStateEPNS_20FunctionPrototypeImpEii
single module:__ZN3KJS18ObjectProtoFuncImpC4EPNS_9ExecStateEPNS_20FunctionPrototypeImpEii
single module:__ZN3KJS9ObjectImp12setPrototypeERKNS_5ValueE
single module:__ZN3KJS17ArrayPrototypeImpC1EPNS_9ExecStateEPNS_18ObjectPrototypeImpE
single module:__ZN3KJS17ArrayPrototypeImpC4EPNS_9ExecStateEPNS_18ObjectPrototypeImpE
single module:__ZN3KJS16ArrayInstanceImpC2EPNS_9ObjectImpEj
single module:__ZN3KJS16ArrayInstanceImpC4EPNS_9ObjectImpEj
single module:__ZN3KJS4NullC1Ev
single module:__ZN3KJS4NullC4Ev
single module:__ZN3KJS9ObjectImp16setInternalValueERKNS_5ValueE
single module:__ZN3KJS18StringPrototypeImpC1EPNS_9ExecStateEPNS_18ObjectPrototypeImpE
single module:__ZN3KJS18StringPrototypeImpC4EPNS_9ExecStateEPNS_18ObjectPrototypeImpE
single module:__ZN3KJS17StringInstanceImpC2EPNS_9ObjectImpE
single module:__ZN3KJS17StringInstanceImpC4EPNS_9ObjectImpE
single module:__ZN3KJS7UStringC1EPKc
single module:__ZN3KJS19BooleanPrototypeImpC1EPNS_9ExecStateEPNS_18ObjectPrototypeImpEPNS_20FunctionPrototypeImpE
single module:__ZN3KJS19BooleanPrototypeImpC4EPNS_9ExecStateEPNS_18ObjectPrototypeImpEPNS_20FunctionPrototypeImpE
single module:__ZN3KJS18BooleanInstanceImpC2EPNS_9ObjectImpE
single module:__ZN3KJS18BooleanInstanceImpC4EPNS_9ObjectImpE
single module:__ZN3KJS19BooleanProtoFuncImpC1EPNS_9ExecStateEPNS_20FunctionPrototypeImpEii
single module:__ZN3KJS19BooleanProtoFuncImpC4EPNS_9ExecStateEPNS_20FunctionPrototypeImpEii
single module:__ZN3KJS7BooleanC1Eb
single module:__ZN3KJS18NumberPrototypeImpC1EPNS_9ExecStateEPNS_18ObjectPrototypeImpEPNS_20FunctionPrototypeImpE
single module:__ZN3KJS18NumberPrototypeImpC4EPNS_9ExecStateEPNS_18ObjectPrototypeImpEPNS_20FunctionPrototypeImpE
single module:__ZN3KJS17NumberInstanceImpC2EPNS_9ObjectImpE
single module:__ZN3KJS17NumberInstanceImpC4EPNS_9ObjectImpE
single module:__ZN3KJS9ObjectImp16setInternalValueEPNS_8ValueImpE
single module:__ZN3KJS18NumberProtoFuncImpC1EPNS_9ExecStateEPNS_20FunctionPrototypeImpEii
single module:__ZN3KJS18NumberProtoFuncImpC4EPNS_9ExecStateEPNS_20FunctionPrototypeImpEii
single module:__ZN3KJS16DatePrototypeImpC1EPNS_9ExecStateEPNS_18ObjectPrototypeImpE
single module:__ZN3KJS16DatePrototypeImpC4EPNS_9ExecStateEPNS_18ObjectPrototypeImpE
single module:__ZN3KJS15DateInstanceImpC2EPNS_9ObjectImpE
single module:__ZN3KJS15DateInstanceImpC4EPNS_9ObjectImpE
single module:__ZN3KJS9NumberImp6createEd
single module:__ZN3KJS18RegExpPrototypeImpC1EPNS_9ExecStateEPNS_18ObjectPrototypeImpEPNS_20FunctionPrototypeImpE
single module:__ZN3KJS18RegExpPrototypeImpC4EPNS_9ExecStateEPNS_18ObjectPrototypeImpEPNS_20FunctionPrototypeImpE
single module:__ZN3KJS18RegExpProtoFuncImpC1EPNS_9ExecStateEPNS_20FunctionPrototypeImpEii
single module:__ZN3KJS18RegExpProtoFuncImpC4EPNS_9ExecStateEPNS_20FunctionPrototypeImpEii
single module:__ZN3KJS17ErrorPrototypeImpC1EPNS_9ExecStateEPNS_18ObjectPrototypeImpEPNS_20FunctionPrototypeImpE
single module:__ZN3KJS17ErrorPrototypeImpC4EPNS_9ExecStateEPNS_18ObjectPrototypeImpEPNS_20FunctionPrototypeImpE
single module:__ZN3KJS17ErrorProtoFuncImpC1EPNS_9ExecStateEPNS_20FunctionPrototypeImpE
single module:__ZN3KJS17ErrorProtoFuncImpC4EPNS_9ExecStateEPNS_20FunctionPrototypeImpE
single module:__ZN3KJS15ObjectObjectImpC1EPNS_9ExecStateEPNS_18ObjectPrototypeImpEPNS_20FunctionPrototypeImpE
single module:__ZN3KJS15ObjectObjectImpC4EPNS_9ExecStateEPNS_18ObjectPrototypeImpEPNS_20FunctionPrototypeImpE
single module:__ZN3KJS17FunctionObjectImpC1EPNS_9ExecStateEPNS_20FunctionPrototypeImpE
single module:__ZN3KJS17FunctionObjectImpC4EPNS_9ExecStateEPNS_20FunctionPrototypeImpE
single module:__ZN3KJS14ArrayObjectImpC1EPNS_9ExecStateEPNS_20FunctionPrototypeImpEPNS_17ArrayPrototypeImpE
single module:__ZN3KJS14ArrayObjectImpC4EPNS_9ExecStateEPNS_20FunctionPrototypeImpEPNS_17ArrayPrototypeImpE
single module:__ZN3KJS6NumberC1Ei
single module:__ZN3KJS15StringObjectImpC1EPNS_9ExecStateEPNS_20FunctionPrototypeImpEPNS_18StringPrototypeImpE
single module:__ZN3KJS15StringObjectImpC4EPNS_9ExecStateEPNS_20FunctionPrototypeImpEPNS_18StringPrototypeImpE
single module:__ZN3KJS19StringObjectFuncImpC1EPNS_9ExecStateEPNS_20FunctionPrototypeImpE
single module:__ZN3KJS19StringObjectFuncImpC4EPNS_9ExecStateEPNS_20FunctionPrototypeImpE
single module:__ZN3KJS16BooleanObjectImpC1EPNS_9ExecStateEPNS_20FunctionPrototypeImpEPNS_19BooleanPrototypeImpE
single module:__ZN3KJS16BooleanObjectImpC4EPNS_9ExecStateEPNS_20FunctionPrototypeImpEPNS_19BooleanPrototypeImpE
single module:__ZN3KJS15NumberObjectImpC1EPNS_9ExecStateEPNS_20FunctionPrototypeImpEPNS_18NumberPrototypeImpE
single module:__ZN3KJS15NumberObjectImpC4EPNS_9ExecStateEPNS_20FunctionPrototypeImpEPNS_18NumberPrototypeImpE
single module:__ZN3KJS13DateObjectImpC1EPNS_9ExecStateEPNS_20FunctionPrototypeImpEPNS_16DatePrototypeImpE
single module:__ZN3KJS13DateObjectImpC4EPNS_9ExecStateEPNS_20FunctionPrototypeImpEPNS_16DatePrototypeImpE
single module:__ZN3KJS17DateObjectFuncImpC1EPNS_9ExecStateEPNS_20FunctionPrototypeImpEii
single module:__ZN3KJS17DateObjectFuncImpC4EPNS_9ExecStateEPNS_20FunctionPrototypeImpEii
single module:__ZN3KJS15RegExpObjectImpC1EPNS_9ExecStateEPNS_20FunctionPrototypeImpEPNS_18RegExpPrototypeImpE
single module:__ZN3KJS15RegExpObjectImpC4EPNS_9ExecStateEPNS_20FunctionPrototypeImpEPNS_18RegExpPrototypeImpE
single module:__ZN3KJS14ErrorObjectImpC1EPNS_9ExecStateEPNS_20FunctionPrototypeImpEPNS_17ErrorPrototypeImpE
single module:__ZN3KJS14ErrorObjectImpC4EPNS_9ExecStateEPNS_20FunctionPrototypeImpEPNS_17ErrorPrototypeImpE
single module:__ZN3KJS23NativeErrorPrototypeImpC1EPNS_9ExecStateEPNS_17ErrorPrototypeImpENS_9ErrorTypeENS_7UStringES6_
single module:__ZN3KJS23NativeErrorPrototypeImpC4EPNS_9ExecStateEPNS_17ErrorPrototypeImpENS_9ErrorTypeENS_7UStringES6_
single module:__ZN3KJS14NativeErrorImpC1EPNS_9ExecStateEPNS_20FunctionPrototypeImpERKNS_6ObjectE
single module:__ZN3KJS14NativeErrorImpC4EPNS_9ExecStateEPNS_20FunctionPrototypeImpERKNS_6ObjectE
single module:__ZN3KJS16ArrayInstanceImp3putEPNS_9ExecStateERKNS_10IdentifierERKNS_5ValueEi
single module:__ZNK3KJS7UString7toULongEPb
single module:__ZNK3KJS7UString8toDoubleEb
single module:__ZNK3KJS7UString6is8BitEv
single module:__ZNK3KJS7UString5asciiEv
single module:__ZN3KJS17StringInstanceImp3putEPNS_9ExecStateERKNS_10IdentifierERKNS_5ValueEi
single module:__ZN3KJS13GlobalFuncImpC1EPNS_9ExecStateEPNS_20FunctionPrototypeImpEii
single module:__ZN3KJS13GlobalFuncImpC4EPNS_9ExecStateEPNS_20FunctionPrototypeImpEii
single module:__ZN3KJS13MathObjectImpC1EPNS_9ExecStateEPNS_18ObjectPrototypeImpE
single module:__ZN3KJS13MathObjectImpC4EPNS_9ExecStateEPNS_18ObjectPrototypeImpE
single module:__ZN3KJS11Interpreter10globalExecEv
single module:__ZN3KJS11Interpreter13setCompatModeENS0_10CompatModeE
single module:__ZN3KJS5LexerC1Ev
single module:__ZN3KJS5LexerC4Ev
single module:__ZN3KJS5Lexer7setCodeEPKNS_5UCharEj
single module:__ZN3KJS5Lexer8nextLineEv
single module:__Z10kjsyyerrorPKc
single module:__Z9automaticv
single module:__ZN3KJS9BlockNode11reverseListEv
single module:__ZN3KJS12FuncDeclNode20reverseParameterListEv
single module:__ZN3KJS11VarDeclNodeC1ERKNS_10IdentifierEPNS_14AssignExprNodeE
single module:__ZN3KJS16VarStatementNode11reverseListEv
single module:__ZN3KJS13ArgumentsNode11reverseListEv
single module:__ZN3KJS16ArgumentListNodeC1EPNS_4NodeE
single module:__ZN3KJS16ArgumentListNodeC4EPNS_4NodeE
single module:__ZN3KJS5Lexer7record8Et
single module:__ZN3KJS10ReturnNode3refEv
single module:__ZN3KJS17ExprStatementNode3refEv
single module:__ZN3KJS10AssignNode3refEv
single module:__ZN3KJS16VarStatementNode3refEv
single module:__ZN3KJS15VarDeclListNode3refEv
single module:__ZN3KJS11VarDeclNode3refEv
single module:__ZN3KJS14AssignExprNode3refEv
single module:__ZN3KJS12FuncDeclNode3refEv
single module:__ZN3KJS9BlockNode3refEv
single module:__ZN3KJS13ArgumentsNode3refEv
single module:__ZN3KJS16ArgumentListNode3refEv
single module:__ZN3KJS9GroupNode3refEv
single module:__ZN3KJS17BinaryLogicalNode3refEv
single module:__ZN3KJS9EqualNode3refEv
single module:__ZN3KJS10NegateNode3refEv
single module:__ZN3KJS14RelationalNode3refEv
single module:__ZN3KJS6IfNode3refEv
single module:__ZN3KJS14LogicalNotNode3refEv
single module:__ZN3KJS11NewExprNode3refEv
single module:__ZN3KJS12FuncDeclNode15processFuncDeclEPNS_9ExecStateE
single module:__ZN3KJS19DeclaredFunctionImpC1EPNS_9ExecStateERKNS_10IdentifierEPNS_16FunctionBodyNodeERKNS_10ScopeChainE
single module:__ZN3KJS19DeclaredFunctionImpC4EPNS_9ExecStateERKNS_10IdentifierEPNS_16FunctionBodyNodeERKNS_10ScopeChainE
single module:__ZN3KJS11FunctionImpC2EPNS_9ExecStateERKNS_10IdentifierE
single module:__ZN3KJS11FunctionImpC4EPNS_9ExecStateERKNS_10IdentifierE
single module:__ZNK3KJS11Interpreter24builtinFunctionPrototypeEv
single module:__ZNK3KJS11Interpreter13builtinObjectEv
single module:__ZNK3KJS11Interpreter22builtinObjectPrototypeEv
single module:__ZN3KJS9ObjectImpC1ERKNS_6ObjectE
single module:__ZN3KJS11FunctionImp3putEPNS_9ExecStateERKNS_10IdentifierERKNS_5ValueEi
single module:__ZN3KJS16FunctionBodyNode15processFuncDeclEPNS_9ExecStateE
single module:__ZN3KJS14AssignExprNode8evaluateEPNS_9ExecStateE
single module:__ZN3KJS11BooleanNode8evaluateEPNS_9ExecStateE
single module:__ZN3KJS11NewExprNode8evaluateEPNS_9ExecStateE
single module:__ZNK3KJS19DeclaredFunctionImp19implementsConstructEv
single module:__ZN3KJS19DeclaredFunctionImp9constructEPNS_9ExecStateERKNS_4ListE
single module:__ZNK3KJS11FunctionImp3getEPNS_9ExecStateERKNS_10IdentifierE
single module:__ZN3KJS16VarStatementNode15processVarDeclsEPNS_9ExecStateE
single module:__ZN3KJS15VarDeclListNode15processVarDeclsEPNS_9ExecStateE
single module:__ZN3KJS11VarDeclNode15processVarDeclsEPNS_9ExecStateE
single module:__ZN3KJS13ActivationImp3putEPNS_9ExecStateERKNS_10IdentifierERKNS_5ValueEi
single module:__ZN3KJS9ObjectImpC2ERKNS_6ObjectE
single module:__ZNK3KJS11Interpreter13builtinStringEv
single module:__ZNK3KJS11Interpreter22builtinStringPrototypeEv
single module:__ZN3KJS17StringInstanceImpC1EPNS_9ObjectImpERKNS_7UStringE
single module:__ZN3KJS18StringProtoFuncImpC1EPNS_9ExecStateEii
single module:__ZN3KJS18StringProtoFuncImpC4EPNS_9ExecStateEii
single module:__ZNK3KJS18StringProtoFuncImp14implementsCallEv
single module:__ZNK3KJS9ObjectImp11toPrimitiveEPNS_9ExecStateENS_4TypeE
single module:__ZN3KJS4List5emptyEv
single module:__ZNK3KJS9ObjectImp13internalValueEv
single module:__ZNK3KJS14UCharReference3refEv
single module:__ZNK3KJS5UChar7toLowerEv
single module:__ZN3KJS7UString6detachEv
single module:__ZNK3KJS13GlobalFuncImp14implementsCallEv
single module:__ZNK3KJS7UString7cstringEv
single module:__ZN3KJS7CStringC1EPKc
single module:__ZN3KJS7CStringC4EPKc
single module:__ZNK3KJS8ValueImp8toUInt32ERj
single module:___floatdidf
single module:__ZN3KJS7CStringD1Ev
single module:__ZN3KJS7CStringD4Ev
single module:__ZNK3KJS7UString4findERKS0_i
single module:__ZNK3KJS10BooleanImp9toBooleanEPNS_9ExecStateE
single module:__ZN3KJS12FuncDeclNode5derefEv
single module:__ZN3KJS10ReturnNode5derefEv
single module:__ZN3KJS10Identifier6removeEPNS_7UString3RepE
single module:__ZN3KJS10Identifier5equalEPNS_7UString3RepES3_
single module:__ZN3KJS16VarStatementNode5derefEv
single module:__ZN3KJS15VarDeclListNode5derefEv
single module:__ZN3KJS11VarDeclNode5derefEv
single module:__ZN3KJS14AssignExprNode5derefEv
single module:__ZN3KJS16ArgumentListNode5derefEv
single module:__ZN3KJS9GroupNode5derefEv
single module:__ZN3KJS17BinaryLogicalNode5derefEv
single module:__ZN3KJS9EqualNode5derefEv
single module:__ZN3KJS10NegateNode5derefEv
single module:__ZN3KJS14RelationalNode5derefEv
single module:__ZN3KJS11ProgramNodeC1EPNS_18SourceElementsNodeE
single module:__ZN3KJS16FunctionBodyNodeC2EPNS_18SourceElementsNodeE
single module:__ZNK3KJS5Lexer12isOctalDigitEt
single module:__ZN3KJS9WhileNode5derefEv
single module:__ZN3KJS8MultNode5derefEv
single module:__ZN3KJS6IfNode5derefEv
single module:__ZN3KJS13ParameterNode5derefEv
single module:__ZN3KJS10TypeOfNode5derefEv
single module:__ZNK3KJS5Lexer10isHexDigitEt
single module:__ZN3KJS9ForInNodeC1EPNS_4NodeES2_PNS_13StatementNodeE
single module:__ZN3KJS9ForInNodeC4EPNS_4NodeES2_PNS_13StatementNodeE
single module:__ZN3KJS16ArgumentListNodeC1EPS0_PNS_4NodeE
single module:__ZN3KJS16ArgumentListNodeC4EPS0_PNS_4NodeE
single module:__ZN3KJS16FunctionBodyNodeC1EPNS_18SourceElementsNodeE
single module:__ZNK3KJS11FunctionImp14implementsCallEv
single module:__ZNK3KJS11Interpreter15builtinFunctionEv
single module:__ZN3KJS10Identifier3addEPNS_7UString3RepE
single module:__ZN3KJS11FunctionImp12addParameterERKNS_10IdentifierE
single module:__ZN3KJS5Lexer10scanRegExpEv
single module:__ZN3KJS8MultNode8evaluateEPNS_9ExecStateE
single module:__ZNK3KJS13MathObjectImp3getEPNS_9ExecStateERKNS_10IdentifierE
single module:__ZN3KJS11MathFuncImpC1EPNS_9ExecStateEii
single module:__ZN3KJS11MathFuncImpC4EPNS_9ExecStateEii
single module:__ZNK3KJS11MathFuncImp14implementsCallEv
single module:__ZN3KJS11MathFuncImp4callEPNS_9ExecStateERNS_6ObjectERKNS_4ListE
single module:saveFP
single module:__ZNK3KJS12UndefinedImp8toNumberEPNS_9ExecStateE
single module:restFP
single module:__ZN3KJS4multEPNS_9ExecStateERKNS_5ValueES4_c
single module:__ZNK3KJS9NumberImp8toNumberEPNS_9ExecStateE
single module:__ZNK3KJS15StringObjectImp19implementsConstructEv
single module:__ZNK3KJS9NumberImp8toStringEPNS_9ExecStateE
single module:__ZN3KJS7UString4fromEd
single module:_kjs_dtoa
single module:_d2b
single module:_Balloc
single module:_lo0bits
single module:_rv_alloc
single module:_i2b
single module:_pow5mult
single module:_multadd
single module:_mult
single module:_Bfree
single module:_hi0bits
single module:_lshift
single module:_quorem
single module:_cmp
single module:_diff
single module:_pcre_compile
single module:_check_escape
single module:_compile_regex
single module:_compile_branch
single module:_is_anchored
single module:_first_significant_code
single module:_find_firstchar
single module:__ZN3KJS6RegExpC4ERKNS_7UStringEi
single module:_pcre_fullinfo
single module:__ZNK3KJS11Interpreter13builtinRegExpEv
single module:__ZN3KJS15RegExpObjectImp14registerRegexpEPKNS_6RegExpERKNS_7UStringE
single module:__ZNK3KJS7CString4sizeEv
single module:_pcre_exec
single module:_match
single module:__ZN3KJS7UString4nullEv
single module:__ZNK3KJS11Interpreter22builtinRegExpPrototypeEv
single module:__ZN3KJS9RegExpImpC1EPNS_18RegExpPrototypeImpE
single module:__ZN3KJS9RegExpImpC4EPNS_18RegExpPrototypeImpE
single module:__ZN3KJS6RegExpC1ERKNS_7UStringEi
single module:__ZNK3KJS12UndefinedImp9toBooleanEPNS_9ExecStateE
single module:__ZN3KJS7AddNode3refEv
single module:__ZN3KJS13AccessorNode13refEv
single module:__ZN3KJS11NewExprNode5derefEv
single module:__ZN3KJS14LogicalNotNode8evaluateEPNS_9ExecStateE
single module:__ZN3KJS9CommaNode8evaluateEPNS_9ExecStateE
single module:__ZN3KJS13AccessorNode18evaluateEPNS_9ExecStateE
single module:__ZN3KJS13AccessorNode117evaluateReferenceEPNS_9ExecStateE
single module:__ZN3KJS9ReferenceC1ERKNS_6ObjectEj
single module:__ZN3KJS9ReferenceC4ERKNS_6ObjectEj
single module:__ZNK3KJS9ObjectImp3getEPNS_9ExecStateEj
single module:__ZN3KJS7UString4fromEj
single module:__ZN3KJS9ObjectImpD2Ev
single module:__ZN3KJS11PropertyMapD1Ev
single module:__ZN3KJS11PropertyMapD4Ev
single module:__ZN3KJS9RegExpImpD1Ev
single module:__ZN3KJS9RegExpImpD4Ev
single module:__ZN3KJS6RegExpD1Ev
single module:__ZN3KJS6RegExpD4Ev
single module:__ZN3KJS7ForNode15processVarDeclsEPNS_9ExecStateE
single module:__ZNK3KJS6String5valueEv
single module:__ZNK3KJS16ArrayInstanceImp3getEPNS_9ExecStateERKNS_10IdentifierE
single module:__ZN3KJS6NumberC1Ej
single module:__ZN3KJS6NumberC4Ej
single module:__ZNK3KJS16ArrayInstanceImp3getEPNS_9ExecStateEj
single module:__ZN3KJS9WhileNode15processVarDeclsEPNS_9ExecStateE
single module:__ZN3KJS15ConditionalNode8evaluateEPNS_9ExecStateE
single module:__ZN3KJS9WhileNode7executeEPNS_9ExecStateE
single module:__ZNK3KJS7NullImp9toBooleanEPNS_9ExecStateE
