_WKURLRequestSetDefaultTimeoutInterval
__ZN6WebKit13WebURLRequest25setDefaultTimeoutIntervalEd
__ZN6WebKit10WebContext11allContextsEv
__ZN6WebKitL8contextsEv
_WKStringCreateWithCFString
__ZN6WebKit9WebStringC2ERKN3WTF6StringE
__ZN6WebKit9APIObjectC2Ev
_WKPageCopyStandardUserAgentWithApplicationName
__ZN6WebKit12WebPageProxy17standardUserAgentERKN3WTF6StringE
__ZN3WTF10makeStringIPKcNS_6StringES2_S3_S2_S3_EES3_T_T0_T1_T2_T3_T4_
__ZN3WTF13tryMakeStringIPKcNS_6StringES2_S3_S2_S3_EENS_10PassRefPtrINS_10StringImplEEET_T0_T1_T2_T3_T4_
_WKStringCopyCFString
_WKRelease
__ZN6WebKit9WebStringD0Ev
_WKContextSetInvalidMessageFunction
__ZN6WebKit10WebContext25setInvalidMessageCallbackEPFvPK14OpaqueWKStringE
_WKContextCreateWithInjectedBundlePath
__ZN6WebKit10WebContext6createERKN3WTF6StringE
__ZN6WebKit10WebContextC2ENS_12ProcessModelERKN3WTF6StringE
__ZN7CoreIPC18MessageReceiverMapC1Ev
__ZN6WebKit12WebPageGroup6createERKN3WTF6StringEbb
__ZN6WebKit12WebPageGroupC2ERKN3WTF6StringEbb
__ZN3WTF10makeStringIPKcNS_6StringEEES3_T_T0_
__ZN3WTF13tryMakeStringIPKcNS_6StringEEENS_10PassRefPtrINS_10StringImplEEET_T0_
__ZN3WTF6StringaSEOS0_
__ZN3WTF6RefPtrINS_10StringImplEEaSERKNS_10PassRefPtrIS1_EE
__ZN3WTF6RefPtrINS_10StringImplEEaSERKS2_
__ZN6WebKitL15webPageGroupMapEv
__ZN6WebKit15PluginInfoStoreC1Ev
__ZN6WebKit19VisitedLinkProviderC1EPNS_10WebContextE
__ZN6WebKit19VisitedLinkProviderC2EPNS_10WebContextE
__ZN6WebKit16VisitedLinkTableC1Ev
__ZN6WebKit23PlugInAutoStartProviderC1EPNS_10WebContextE
__ZN6WebKit14StorageManager6createEv
__ZN6WebKit14StorageManagerC2Ev
__ZN9WorkQueue6createEPKc
__ZN9WorkQueue18platformInitializeEPKc
__ZN6WebKit27LocalStorageDatabaseTracker6createEN3WTF10PassRefPtrI9WorkQueueEE
__ZN6WebKit10WebContext18platformInitializeEv
__ZN6WebKit10WebContext29registerNotificationObserversEv
__ZN3WTF9RetainPtrI8NSObjectEaSI11objc_objectEERS2_PT_
__ZN6WebKitL28enableOcclusionNotificationsEv
_WKRegisterOcclusionNotificationHandler
__ZN7CoreIPC18MessageReceiverMap18addMessageReceiverENS_15StringReferenceEPNS_15MessageReceiverE
__ZN7CoreIPC15StringReference4Hash4hashERKS0_
__ZN3WTF12StringHasher28addCharactersAssumingAlignedIhXadL_ZNS0_16defaultConverterEhEEEEvPKT_j
__ZNK3WTF12StringHasher13avalancheBitsEv
__ZN3WTF12StringHasher12addCharacterEt
__ZN6WebKit15WebIconDatabase6createEPNS_10WebContextE
__ZN6WebKit15WebIconDatabaseC2EPNS_10WebContextE
__ZN6WebKit10WebContext18addMessageReceiverEN7CoreIPC15StringReferenceEPNS1_15MessageReceiverE
__ZN7CoreIPCeqERKNS_15StringReferenceES2_
__ZN6WebKit24WebPluginSiteDataManager6createEPNS_10WebContextE
__ZN6WebKit10WebContext13addSupplementINS_31WebApplicationCacheManagerProxyEEEvv
__ZN6WebKit31WebApplicationCacheManagerProxy14supplementNameEv
__ZN6WebKit31WebApplicationCacheManagerProxy6createEPNS_10WebContextE
__ZN3WTF9HashTableIN7CoreIPC15StringReferenceENS_12KeyValuePairIS2_PNS1_15MessageReceiverEEENS_24KeyValuePairKeyExtractorIS6_EENS2_4HashENS_18HashMapValueTraitsINS_10HashTraitsIS2_EENSB_IS5_EEEESC_E13allocateTableEi
__ZN3WTF9HashTableIN7CoreIPC15StringReferenceENS_12KeyValuePairIS2_PNS1_15MessageReceiverEEENS_24KeyValuePairKeyExtractorIS6_EENS2_4HashENS_18HashMapValueTraitsINS_10HashTraitsIS2_EENSB_IS5_EEEESC_E16lookupForWritingINS_22IdentityHashTranslatorIS9_EES2_EENSt3__14pairIPS6_bEERKT0_
__ZN3WTF9HashTableIN7CoreIPC15StringReferenceENS_12KeyValuePairIS2_PNS1_15MessageReceiverEEENS_24KeyValuePairKeyExtractorIS6_EENS2_4HashENS_18HashMapValueTraitsINS_10HashTraitsIS2_EENSB_IS5_EEEESC_E3addINS_17HashMapTranslatorISE_S9_EES2_S5_EENS_18HashTableAddResultINS_17HashTableIteratorIS2_S6_S8_S9_SE_SC_EEEERKT0_RKT1_
__ZN3WTF9HashTableIN7CoreIPC15StringReferenceENS_12KeyValuePairIS2_PNS1_15MessageReceiverEEENS_24KeyValuePairKeyExtractorIS6_EENS2_4HashENS_18HashMapValueTraitsINS_10HashTraitsIS2_EENSB_IS5_EEEESC_E4findINS_22IdentityHashTranslatorIS9_EES2_EENS_17HashTableIteratorIS2_S6_S8_S9_SE_SC_EERKT0_
__ZN3WTF9HashTableIN7CoreIPC15StringReferenceENS_12KeyValuePairIS2_PNS1_15MessageReceiverEEENS_24KeyValuePairKeyExtractorIS6_EENS2_4HashENS_18HashMapValueTraitsINS_10HashTraitsIS2_EENSB_IS5_EEEESC_E6expandEv
__ZN3WTF9HashTableIN7CoreIPC15StringReferenceENS_12KeyValuePairIS2_PNS1_15MessageReceiverEEENS_24KeyValuePairKeyExtractorIS6_EENS2_4HashENS_18HashMapValueTraitsINS_10HashTraitsIS2_EENSB_IS5_EEEESC_E6lookupINS_22IdentityHashTranslatorIS9_EES2_EEPS6_RKT0_
__ZN3WTF9HashTableIN7CoreIPC15StringReferenceENS_12KeyValuePairIS2_PNS1_15MessageReceiverEEENS_24KeyValuePairKeyExtractorIS6_EENS2_4HashENS_18HashMapValueTraitsINS_10HashTraitsIS2_EENSB_IS5_EEEESC_E6rehashEi
__ZN6WebKit10WebContext13addSupplementINS_21WebCookieManagerProxyEEEvv
__ZN6WebKit21WebCookieManagerProxy14supplementNameEv
__ZN6WebKit21WebCookieManagerProxy6createEPNS_10WebContextE
__ZN6WebKit10WebContext13addSupplementINS_26WebGeolocationManagerProxyEEEvv
__ZN6WebKit26WebGeolocationManagerProxy14supplementNameEv
__ZN6WebKit26WebGeolocationManagerProxy6createEPNS_10WebContextE
__ZN6WebKit10WebContext13addSupplementINS_25WebKeyValueStorageManagerEEEvv
__ZN6WebKit25WebKeyValueStorageManager14supplementNameEv
__ZN6WebKit25WebKeyValueStorageManager6createEPNS_10WebContextE
__ZN3WTF9HashTableIPKcNS_12KeyValuePairIS2_NS_6RefPtrIN6WebKit20WebContextSupplementEEEEENS_24KeyValuePairKeyExtractorIS8_EENS_7PtrHashIS2_EENS_18HashMapValueTraitsINS_10HashTraitsIS2_EENSE_IS7_EEEESF_E15deallocateTableEPS8_i
__ZN3WTF9HashTableIPKcNS_12KeyValuePairIS2_NS_6RefPtrIN6WebKit20WebContextSupplementEEEEENS_24KeyValuePairKeyExtractorIS8_EENS_7PtrHashIS2_EENS_18HashMapValueTraitsINS_10HashTraitsIS2_EENSE_IS7_EEEESF_E16lookupForWritingINS_22IdentityHashTranslatorISC_EES2_EENSt3__14pairIPS8_bEERKT0_
__ZN3WTF9HashTableIPKcNS_12KeyValuePairIS2_NS_6RefPtrIN6WebKit20WebContextSupplementEEEEENS_24KeyValuePairKeyExtractorIS8_EENS_7PtrHashIS2_EENS_18HashMapValueTraitsINS_10HashTraitsIS2_EENSE_IS7_EEEESF_E3addINS_17HashMapTranslatorISH_SC_EES2_NS_10PassRefPtrIS6_EEEENS_18HashTableAddResultINS_17HashTableIteratorIS2_S8_SA_SC_SH_SF_EEEERKT0_RKT1_
__ZN3WTF9HashTableIPKcNS_12KeyValuePairIS2_NS_6RefPtrIN6WebKit20WebContextSupplementEEEEENS_24KeyValuePairKeyExtractorIS8_EENS_7PtrHashIS2_EENS_18HashMapValueTraitsINS_10HashTraitsIS2_EENSE_IS7_EEEESF_E4findINS_22IdentityHashTranslatorISC_EES2_EENS_17HashTableIteratorIS2_S8_SA_SC_SH_SF_EERKT0_
__ZN3WTF9HashTableIPKcNS_12KeyValuePairIS2_NS_6RefPtrIN6WebKit20WebContextSupplementEEEEENS_24KeyValuePairKeyExtractorIS8_EENS_7PtrHashIS2_EENS_18HashMapValueTraitsINS_10HashTraitsIS2_EENSE_IS7_EEEESF_E5beginEv
__ZN3WTF9HashTableIPKcNS_12KeyValuePairIS2_NS_6RefPtrIN6WebKit20WebContextSupplementEEEEENS_24KeyValuePairKeyExtractorIS8_EENS_7PtrHashIS2_EENS_18HashMapValueTraitsINS_10HashTraitsIS2_EENSE_IS7_EEEESF_E6expandEv
__ZN3WTF9HashTableIPKcNS_12KeyValuePairIS2_NS_6RefPtrIN6WebKit20WebContextSupplementEEEEENS_24KeyValuePairKeyExtractorIS8_EENS_7PtrHashIS2_EENS_18HashMapValueTraitsINS_10HashTraitsIS2_EENSE_IS7_EEEESF_E6lookupINS_22IdentityHashTranslatorISC_EES2_EEPS8_RKT0_
__ZN3WTF9HashTableIPKcNS_12KeyValuePairIS2_NS_6RefPtrIN6WebKit20WebContextSupplementEEEEENS_24KeyValuePairKeyExtractorIS8_EENS_7PtrHashIS2_EENS_18HashMapValueTraitsINS_10HashTraitsIS2_EENSE_IS7_EEEESF_E6rehashEi
__ZN6WebKit10WebContext13addSupplementINS_25WebMediaCacheManagerProxyEEEvv
__ZN6WebKit25WebMediaCacheManagerProxy14supplementNameEv
__ZN6WebKit25WebMediaCacheManagerProxy6createEPNS_10WebContextE
__ZN6WebKit10WebContext13addSupplementINS_27WebNotificationManagerProxyEEEvv
__ZN6WebKit27WebNotificationManagerProxy14supplementNameEv
__ZN6WebKit27WebNotificationManagerProxy6createEPNS_10WebContextE
__ZN6WebKit10WebContext13addSupplementINS_28WebResourceCacheManagerProxyEEEvv
__ZN6WebKit28WebResourceCacheManagerProxy14supplementNameEv
__ZN6WebKit28WebResourceCacheManagerProxy6createEPNS_10WebContextE
__ZN6WebKit10WebContext13addSupplementINS_23WebDatabaseManagerProxyEEEvv
__ZN6WebKit23WebDatabaseManagerProxy14supplementNameEv
__ZN6WebKit23WebDatabaseManagerProxy6createEPNS_10WebContextE
__ZN3WTF6VectorIPN6WebKit10WebContextELm0ENS_15CrashOnOverflowEE14appendSlowCaseIS3_EEvRKT_
__ZN3WTF6VectorIPN6WebKit10WebContextELm0ENS_15CrashOnOverflowEE14expandCapacityEmPKS3_
__ZN3WTF6VectorIPN6WebKit10WebContextELm0ENS_15CrashOnOverflowEE15reserveCapacityEm
__ZN3WTF16VectorBufferBaseIPN6WebKit10WebContextEE14allocateBufferEm
__ZNK6WebKit10WebContext21localStorageDirectoryEv
__ZNK6WebKit10WebContext36platformDefaultLocalStorageDirectoryEv
__ZN6WebKit14StorageManager24setLocalStorageDirectoryERKN3WTF6StringE
__ZN6WebKit27LocalStorageDatabaseTracker24setLocalStorageDirectoryERKN3WTF6StringE
__ZN3WTF4bindIMN6WebKit27LocalStorageDatabaseTrackerEFvRKNS_6StringEEPS2_S3_EENS_8FunctionIFNS_15FunctionWrapperIT_E10ResultTypeEvEEESB_RKT0_RKT1_
__ZN9WorkQueue8dispatchERKN3WTF8FunctionIFvvEEE
____ZN9WorkQueue8dispatchERKN3WTF8FunctionIFvvEEE_block_invoke
__ZN3WTF17BoundFunctionImplINS_15FunctionWrapperIMN6WebKit27LocalStorageDatabaseTrackerEFvRKNS_6StringEEEEFvPS3_S4_EEclEv
_WKContextSetIconDatabasePath
__ZN6WebKit27LocalStorageDatabaseTracker32setLocalStorageDirectoryInternalERKN3WTF6StringE
__ZN6WebKit10WebContext19setIconDatabasePathERKN3WTF6StringE
__ZN6WebKit15WebIconDatabase15setDatabasePathERKN3WTF6StringE
__ZN3WTF20ThreadSafeRefCountedI9WorkQueueE5derefEv
__ZN3WTF17BoundFunctionImplINS_15FunctionWrapperIMN6WebKit27LocalStorageDatabaseTrackerEFvRKNS_6StringEEEEFvPS3_S4_EED0Ev
__ZN3WTF17BoundFunctionImplINS_15FunctionWrapperIMN6WebKit27LocalStorageDatabaseTrackerEFvRKNS_6StringEEEEFvPS3_S4_EED2Ev
__ZN3WTF20ThreadSafeRefCountedIN6WebKit27LocalStorageDatabaseTrackerEE5derefEv
__ZN3WTF17BoundFunctionImplINS_15FunctionWrapperIMN6WebKit27LocalStorageDatabaseTrackerEFvvEEEFvPS3_EEclEv
__ZN6WebKit27LocalStorageDatabaseTracker23importOriginIdentifiersEv
__ZN6WebKit27LocalStorageDatabaseTracker19openTrackerDatabaseENS0_23DatabaseOpeningStrategyE
__ZNK6WebKit27LocalStorageDatabaseTracker19trackerDatabasePathEv
__ZNK6WebKit27LocalStorageDatabaseTracker12databasePathERKN3WTF6StringE
_WKContextGetIconDatabase
_WKRetain
_WKIconDatabaseSetIconDatabaseClient
__ZN6WebKit15WebIconDatabase28initializeIconDatabaseClientEPK20WKIconDatabaseClient
__ZN6WebKit9APIClientI20WKIconDatabaseClientLi1EE10initializeEPKS1_
_WKPageGroupCreateWithIdentifier
_WKMutableDictionaryCreate
__ZN6WebKit17MutableDictionaryC1Ev
__ZN6WebKit19ImmutableDictionaryC2Ev
_WKDictionarySetItem
__ZN6WebKit17MutableDictionary3setERKN3WTF6StringEPNS_9APIObjectE
__ZN3WTF7HashMapINS_6StringENS_6RefPtrIN6WebKit9APIObjectEEENS_10StringHashENS_10HashTraitsIS1_EENS7_IS5_EEE3setERKS1_NS_10PassRefPtrIS4_EE
__ZN3WTF9HashTableINS_6StringENS_12KeyValuePairIS1_NS_6RefPtrIN6WebKit9APIObjectEEEEENS_24KeyValuePairKeyExtractorIS7_EENS_10StringHashENS_18HashMapValueTraitsINS_10HashTraitsIS1_EENSC_IS6_EEEESD_E15deallocateTableEPS7_i
__ZN3WTF9HashTableINS_6StringENS_12KeyValuePairIS1_NS_6RefPtrIN6WebKit9APIObjectEEEEENS_24KeyValuePairKeyExtractorIS7_EENS_10StringHashENS_18HashMapValueTraitsINS_10HashTraitsIS1_EENSC_IS6_EEEESD_E16lookupForWritingINS_22IdentityHashTranslatorISA_EES1_EENSt3__14pairIPS7_bEERKT0_
__ZN3WTF9HashTableINS_6StringENS_12KeyValuePairIS1_NS_6RefPtrIN6WebKit9APIObjectEEEEENS_24KeyValuePairKeyExtractorIS7_EENS_10StringHashENS_18HashMapValueTraitsINS_10HashTraitsIS1_EENSC_IS6_EEEESD_E3addINS_17HashMapTranslatorISF_SA_EES1_NS_10PassRefPtrIS5_EEEENS_18HashTableAddResultINS_17HashTableIteratorIS1_S7_S9_SA_SF_SD_EEEERKT0_RKT1_
__ZN3WTF9HashTableINS_6StringENS_12KeyValuePairIS1_NS_6RefPtrIN6WebKit9APIObjectEEEEENS_24KeyValuePairKeyExtractorIS7_EENS_10StringHashENS_18HashMapValueTraitsINS_10HashTraitsIS1_EENSC_IS6_EEEESD_E4findINS_22IdentityHashTranslatorISA_EES1_EENS_17HashTableIteratorIS1_S7_S9_SA_SF_SD_EERKT0_
__ZN3WTF9HashTableINS_6StringENS_12KeyValuePairIS1_NS_6RefPtrIN6WebKit9APIObjectEEEEENS_24KeyValuePairKeyExtractorIS7_EENS_10StringHashENS_18HashMapValueTraitsINS_10HashTraitsIS1_EENSC_IS6_EEEESD_E6expandEv
__ZN3WTF9HashTableINS_6StringENS_12KeyValuePairIS1_NS_6RefPtrIN6WebKit9APIObjectEEEEENS_24KeyValuePairKeyExtractorIS7_EENS_10StringHashENS_18HashMapValueTraitsINS_10HashTraitsIS1_EENSC_IS6_EEEESD_E6lookupINS_22IdentityHashTranslatorISA_EES1_EEPS7_RKT0_
__ZN3WTF9HashTableINS_6StringENS_12KeyValuePairIS1_NS_6RefPtrIN6WebKit9APIObjectEEEEENS_24KeyValuePairKeyExtractorIS7_EENS_10StringHashENS_18HashMapValueTraitsINS_10HashTraitsIS1_EENSC_IS6_EEEESD_E6rehashEi
__ZN3WTF9HashTableINS_6StringENS_12KeyValuePairIS1_NS_6RefPtrIN6WebKit9APIObjectEEEEENS_24KeyValuePairKeyExtractorIS7_EENS_10StringHashENS_18HashMapValueTraitsINS_10HashTraitsIS1_EENSC_IS6_EEEESD_E6removeEPS7_
__ZN3WTF17HashMapTranslatorINS_18HashMapValueTraitsINS_10HashTraitsINS_6StringEEENS2_INS_6RefPtrIN6WebKit9APIObjectEEEEEEENS_10StringHashEE9translateINS_12KeyValuePairIS3_S8_EES3_NS_10PassRefPtrIS7_EEEEvRT_RKT0_RKT1_
_WKPageGroupGetPreferences
__ZNK6WebKit12WebPageGroup11preferencesEv
__ZN6WebKit14WebPreferencesC1ERKN3WTF6StringE
__ZN6WebKit14WebPreferencesC2ERKN3WTF6StringE
__ZN6WebKit19WebPreferencesStoreC1Ev
__ZN6WebKit14WebPreferences23platformInitializeStoreEv
__ZN6WebKit17WebPreferencesKey20javaScriptEnabledKeyEv
__ZN6WebKitL28setBoolValueIfInUserDefaultsERKN3WTF6StringES3_RNS_19WebPreferencesStoreE
__ZN6WebKitL7makeKeyERKN3WTF6StringES3_
__ZN3WTF10makeStringINS_6StringEPKcS1_EES1_T_T0_T1_
__ZN3WTF13tryMakeStringINS_6StringEPKcS1_EENS_10PassRefPtrINS_10StringImplEEET_T0_T1_
__ZN6WebKit25nsStringFromWebCoreStringERKN3WTF6StringE
__ZN6WebKit9WebString6createERKN3WTF6StringE
__ZN6WebKit17WebPreferencesKey26javaScriptMarkupEnabledKeyEv
__ZN6WebKit17WebPreferencesKey27loadsImagesAutomaticallyKeyEv
__ZN6WebKit17WebPreferencesKey47loadsSiteIconsIgnoringImageLoadingPreferenceKeyEv
__ZN6WebKit17WebPreferencesKey17pluginsEnabledKeyEv
__ZN6WebKit17WebPreferencesKey14javaEnabledKeyEv
__ZN6WebKit17WebPreferencesKey27javaEnabledForLocalFilesKeyEv
__ZN6WebKit19WebPreferencesStore18setBoolValueForKeyERKN3WTF6StringEb
__ZN6WebKitL11valueForKeyIN3WTF7HashMapINS1_6StringEbNS1_10StringHashENS1_10HashTraitsIS3_EENS5_IbEEEEEENT_10MappedTypeERKS9_RKNS9_7KeyTypeE
__ZN6WebKit18defaultValueForKeyIbEET_RKN3WTF6StringE
__ZN3WTF9HashTableINS_6StringENS_12KeyValuePairIS1_bEENS_24KeyValuePairKeyExtractorIS3_EENS_10StringHashENS_18HashMapValueTraitsINS_10HashTraitsIS1_EENS8_IbEEEES9_E12deleteBucketERS3_
__ZN3WTF9HashTableINS_6StringENS_12KeyValuePairIS1_bEENS_24KeyValuePairKeyExtractorIS3_EENS_10StringHashENS_18HashMapValueTraitsINS_10HashTraitsIS1_EENS8_IbEEEES9_E15deallocateTableEPS3_i
__ZN3WTF9HashTableINS_6StringENS_12KeyValuePairIS1_bEENS_24KeyValuePairKeyExtractorIS3_EENS_10StringHashENS_18HashMapValueTraitsINS_10HashTraitsIS1_EENS8_IbEEEES9_E16lookupForWritingINS_22IdentityHashTranslatorIS6_EES1_EENSt3__14pairIPS3_bEERKT0_
__ZN3WTF9HashTableINS_6StringENS_12KeyValuePairIS1_bEENS_24KeyValuePairKeyExtractorIS3_EENS_10StringHashENS_18HashMapValueTraitsINS_10HashTraitsIS1_EENS8_IbEEEES9_E3addINS_17HashMapTranslatorISB_S6_EES1_bEENS_18HashTableAddResultINS_17HashTableIteratorIS1_S3_S5_S6_SB_S9_EEEERKT0_RKT1_
__ZN3WTF9HashTableINS_6StringENS_12KeyValuePairIS1_bEENS_24KeyValuePairKeyExtractorIS3_EENS_10StringHashENS_18HashMapValueTraitsINS_10HashTraitsIS1_EENS8_IbEEEES9_E3addINS_22IdentityHashTranslatorIS6_EES1_S3_EENS_18HashTableAddResultINS_17HashTableIteratorIS1_S3_S5_S6_SB_S9_EEEERKT0_RKT1_
__ZN3WTF9HashTableINS_6StringENS_12KeyValuePairIS1_bEENS_24KeyValuePairKeyExtractorIS3_EENS_10StringHashENS_18HashMapValueTraitsINS_10HashTraitsIS1_EENS8_IbEEEES9_E4findINS_22IdentityHashTranslatorIS6_EES1_EENS_17HashTableIteratorIS1_S3_S5_S6_SB_S9_EERKT0_
__ZN3WTF9HashTableINS_6StringENS_12KeyValuePairIS1_bEENS_24KeyValuePairKeyExtractorIS3_EENS_10StringHashENS_18HashMapValueTraitsINS_10HashTraitsIS1_EENS8_IbEEEES9_E6expandEv
__ZN3WTF9HashTableINS_6StringENS_12KeyValuePairIS1_bEENS_24KeyValuePairKeyExtractorIS3_EENS_10StringHashENS_18HashMapValueTraitsINS_10HashTraitsIS1_EENS8_IbEEEES9_E6lookupINS_22IdentityHashTranslatorIS6_EES1_EEPS3_RKT0_
__ZN3WTF9HashTableINS_6StringENS_12KeyValuePairIS1_bEENS_24KeyValuePairKeyExtractorIS3_EENS_10StringHashENS_18HashMapValueTraitsINS_10HashTraitsIS1_EENS8_IbEEEES9_E6rehashEi
__ZN3WTF9HashTableINS_6StringENS_12KeyValuePairIS1_bEENS_24KeyValuePairKeyExtractorIS3_EENS_10StringHashENS_18HashMapValueTraitsINS_10HashTraitsIS1_EENS8_IbEEEES9_E6removeEPS3_
__ZN3WTF9HashTableINS_6StringENS_12KeyValuePairIS1_bEENS_24KeyValuePairKeyExtractorIS3_EENS_10StringHashENS_18HashMapValueTraitsINS_10HashTraitsIS1_EENS8_IbEEEES9_EC2ERKSC_
__ZN3WTF9HashTableINS_6StringENS_12KeyValuePairIS1_bEENS_24KeyValuePairKeyExtractorIS3_EENS_10StringHashENS_18HashMapValueTraitsINS_10HashTraitsIS1_EENS8_IbEEEES9_EaSERKSC_
__ZN6WebKit17WebPreferencesKey36offlineWebApplicationCacheEnabledKeyEv
__ZN6WebKit17WebPreferencesKey22localStorageEnabledKeyEv
__ZN6WebKit17WebPreferencesKey19databasesEnabledKeyEv
__ZN6WebKit17WebPreferencesKey20xssAuditorEnabledKeyEv
__ZN6WebKit17WebPreferencesKey25frameFlatteningEnabledKeyEv
__ZN6WebKit17WebPreferencesKey25developerExtrasEnabledKeyEv
__ZN6WebKit17WebPreferencesKey25privateBrowsingEnabledKeyEv
__ZN6WebKit17WebPreferencesKey24textAreasAreResizableKeyEv
__ZN6WebKit17WebPreferencesKey40javaScriptCanOpenWindowsAutomaticallyKeyEv
__ZN6WebKit17WebPreferencesKey27hyperlinkAuditingEnabledKeyEv
__ZN6WebKit17WebPreferencesKey26needsSiteSpecificQuirksKeyEv
__ZN6WebKit17WebPreferencesKey32acceleratedCompositingEnabledKeyEv
__ZN6WebKit17WebPreferencesKey23forceCompositingModeKeyEv
__ZN6WebKit17WebPreferencesKey28acceleratedDrawingEnabledKeyEv
__ZN6WebKit17WebPreferencesKey31canvasUsesAcceleratedDrawingKeyEv
__ZN6WebKit17WebPreferencesKey28compositingBordersVisibleKeyEv
__ZN6WebKit17WebPreferencesKey36compositingRepaintCountersVisibleKeyEv
__ZN6WebKit17WebPreferencesKey33tiledScrollingIndicatorVisibleKeyEv
__ZN6WebKit17WebPreferencesKey15webGLEnabledKeyEv
__ZN6WebKit17WebPreferencesKey28multithreadedWebGLEnabledKeyEv
__ZN6WebKit17WebPreferencesKey30forceSoftwareWebGLRenderingKeyEv
__ZN6WebKit17WebPreferencesKey29accelerated2dCanvasEnabledKeyEv
__ZN6WebKit17WebPreferencesKey20cssRegionsEnabledKeyEv
__ZN6WebKit17WebPreferencesKey24cssCompositingEnabledKeyEv
__ZN6WebKit17WebPreferencesKey28regionBasedColumnsEnabledKeyEv
__ZN6WebKit17WebPreferencesKey28forceFTPDirectoryListingsKeyEv
__ZN6WebKit17WebPreferencesKey14tabsToLinksKeyEv
__ZN6WebKit17WebPreferencesKey24dnsPrefetchingEnabledKeyEv
__ZN6WebKit17WebPreferencesKey29webArchiveDebugModeEnabledKeyEv
__ZN6WebKit17WebPreferencesKey34localFileContentSniffingEnabledKeyEv
__ZN6WebKit17WebPreferencesKey16usesPageCacheKeyEv
__ZN6WebKit17WebPreferencesKey27pageCacheSupportsPluginsKeyEv
__ZN6WebKit17WebPreferencesKey29authorAndUserStylesEnabledKeyEv
__ZN6WebKit17WebPreferencesKey30paginateDuringLayoutEnabledKeyEv
__ZN6WebKit17WebPreferencesKey18domPasteAllowedKeyEv
__ZN6WebKit17WebPreferencesKey31javaScriptCanAccessClipboardKeyEv
__ZN6WebKit17WebPreferencesKey25shouldPrintBackgroundsKeyEv
__ZN6WebKit17WebPreferencesKey20fullScreenEnabledKeyEv
__ZN6WebKit17WebPreferencesKey35asynchronousSpellCheckingEnabledKeyEv
__ZN6WebKit17WebPreferencesKey21webSecurityEnabledKeyEv
__ZN6WebKit17WebPreferencesKey35allowUniversalAccessFromFileURLsKeyEv
__ZN6WebKit17WebPreferencesKey30allowFileAccessFromFileURLsKeyEv
__ZN6WebKit17WebPreferencesKey24isAVFoundationEnabledKeyEv
__ZN6WebKit17WebPreferencesKey35mediaPlaybackRequiresUserGestureKeyEv
__ZN6WebKit17WebPreferencesKey28mediaPlaybackAllowsInlineKeyEv
__ZN6WebKit17WebPreferencesKey26inspectorStartsAttachedKeyEv
__ZN6WebKit17WebPreferencesKey35inspectorUsesWebKitUserInterfaceKeyEv
__ZN6WebKit17WebPreferencesKey32showsToolTipOverTruncatedTextKeyEv
__ZN6WebKit17WebPreferencesKey24mockScrollbarsEnabledKeyEv
__ZN6WebKit17WebPreferencesKey18webAudioEnabledKeyEv
__ZN6WebKit17WebPreferencesKey24applicationChromeModeKeyEv
__ZN6WebKit17WebPreferencesKey33suppressesIncrementalRenderingKeyEv
__ZN6WebKit17WebPreferencesKey32backspaceKeyNavigationEnabledKeyEv
__ZN6WebKit17WebPreferencesKey23caretBrowsingEnabledKeyEv
__ZN6WebKit17WebPreferencesKey25shouldDisplaySubtitlesKeyEv
__ZN6WebKit17WebPreferencesKey24shouldDisplayCaptionsKeyEv
__ZN6WebKit17WebPreferencesKey32shouldDisplayTextDescriptionsKeyEv
__ZN6WebKit17WebPreferencesKey23notificationsEnabledKeyEv
__ZN6WebKit17WebPreferencesKey32shouldRespectImageOrientationKeyEv
__ZN6WebKit17WebPreferencesKey40wantsBalancedSetDefersLoadingBehaviorKeyEv
__ZN6WebKit17WebPreferencesKey31requestAnimationFrameEnabledKeyEv
__ZN6WebKit17WebPreferencesKey27diagnosticLoggingEnabledKeyEv
__ZN6WebKit17WebPreferencesKey42asynchronousPluginInitializationEnabledKeyEv
__ZN6WebKit17WebPreferencesKey55asynchronousPluginInitializationEnabledForAllPluginsKeyEv
__ZN6WebKit17WebPreferencesKey45artificialPluginInitializationDelayEnabledKeyEv
__ZN6WebKit17WebPreferencesKey20tabToLinksEnabledKeyEv
__ZN6WebKit17WebPreferencesKey35interactiveFormValidationEnabledKeyEv
__ZN6WebKit17WebPreferencesKey37scrollingPerformanceLoggingEnabledKeyEv
__ZN6WebKit17WebPreferencesKey24storageBlockingPolicyKeyEv
__ZN6WebKit17WebPreferencesKey24scrollAnimatorEnabledKeyEv
__ZN6WebKit17WebPreferencesKey32screenFontSubstitutionEnabledKeyEv
__ZN6WebKit17WebPreferencesKey16cookieEnabledKeyEv
__ZN6WebKit17WebPreferencesKey28plugInSnapshottingEnabledKeyEv
__ZN6WebKit17WebPreferencesKey21snapshotAllPlugInsKeyEv
__ZN6WebKit17WebPreferencesKey43autostartOriginPlugInSnapshottingEnabledKeyEv
__ZN6WebKit17WebPreferencesKey40primaryPlugInSnapshotDetectionEnabledKeyEv
__ZN6WebKit17WebPreferencesKey19pdfPluginEnabledKeyEv
__ZN6WebKit17WebPreferencesKey23usesEncodingDetectorKeyEv
__ZN6WebKit17WebPreferencesKey24textAutosizingEnabledKeyEv
__ZN6WebKit17WebPreferencesKey33aggressiveTileRetentionEnabledKeyEv
__ZN6WebKit17WebPreferencesKey17isQTKitEnabledKeyEv
__ZN6WebKit17WebPreferencesKey41logsPageMessagesToSystemConsoleEnabledKeyEv
__ZN6WebKit17WebPreferencesKey47pageVisibilityBasedProcessSuppressionEnabledKeyEv
__ZN6WebKit17WebPreferencesKey27smartInsertDeleteEnabledKeyEv
__ZN6WebKit17WebPreferencesKey34selectTrailingWhitespaceEnabledKeyEv
__ZN6WebKit17WebPreferencesKey29showsURLsInToolTipsEnabledKeyEv
__ZN6WebKit17WebPreferencesKey49acceleratedCompositingForOverflowScrollEnabledKeyEv
__ZN6WebKit17WebPreferencesKey38hiddenPageDOMTimerThrottlingEnabledKeyEv
__ZN6WebKit17WebPreferencesKey42hiddenPageCSSAnimationSuspensionEnabledKeyEv
__ZN6WebKit17WebPreferencesKey38lowPowerVideoAudioBufferSizeEnabledKeyEv
__ZN3WTF9HashTableINS_6StringES1_NS_17IdentityExtractorENS_10StringHashENS_10HashTraitsIS1_EES5_E3addINS_22IdentityHashTranslatorIS3_EES1_S1_EENS_18HashTableAddResultINS_17HashTableIteratorIS1_S1_S2_S3_S5_S5_EEEERKT0_RKT1_
__ZN3WTF9HashTableINS_6StringES1_NS_17IdentityExtractorENS_10StringHashENS_10HashTraitsIS1_EES5_E6expandEv
__ZN3WTF9HashTableINS_6StringES1_NS_17IdentityExtractorENS_10StringHashENS_10HashTraitsIS1_EES5_E6rehashEi
__ZN3WTF9HashTableINS_6StringES1_NS_17IdentityExtractorENS_10StringHashENS_10HashTraitsIS1_EES5_E15deallocateTableEPS1_i
__ZN3WTF9HashTableINS_6StringES1_NS_17IdentityExtractorENS_10StringHashENS_10HashTraitsIS1_EES5_E16lookupForWritingINS_22IdentityHashTranslatorIS3_EES1_EENSt3__14pairIPS1_bEERKT0_
__ZN6WebKitL30setUInt32ValueIfInUserDefaultsERKN3WTF6StringES3_RNS_19WebPreferencesStoreE
__ZN3WTF9HashTableINS_6StringES1_NS_17IdentityExtractorENS_10StringHashENS_10HashTraitsIS1_EES5_E4findINS_22IdentityHashTranslatorIS3_EES1_EENS_17HashTableIteratorIS1_S1_S2_S3_S5_S5_EERKT0_
__ZN3WTF9HashTableINS_6StringES1_NS_17IdentityExtractorENS_10StringHashENS_10HashTraitsIS1_EES5_E6lookupINS_22IdentityHashTranslatorIS3_EES1_EEPS1_RKT0_
__ZN6WebKit19WebPreferencesStore20setUInt32ValueForKeyERKN3WTF6StringEj
__ZN6WebKitL11valueForKeyIN3WTF7HashMapINS1_6StringEjNS1_10StringHashENS1_10HashTraitsIS3_EENS5_IjEEEEEENT_10MappedTypeERKS9_RKNS9_7KeyTypeE
__ZN6WebKit18defaultValueForKeyIjEET_RKN3WTF6StringE
__ZN6WebKit17WebPreferencesKey21fontSmoothingLevelKeyEv
__ZN3WTF9HashTableINS_6StringENS_12KeyValuePairIS1_jEENS_24KeyValuePairKeyExtractorIS3_EENS_10StringHashENS_18HashMapValueTraitsINS_10HashTraitsIS1_EENS8_IjEEEES9_E12deleteBucketERS3_
__ZN3WTF9HashTableINS_6StringENS_12KeyValuePairIS1_jEENS_24KeyValuePairKeyExtractorIS3_EENS_10StringHashENS_18HashMapValueTraitsINS_10HashTraitsIS1_EENS8_IjEEEES9_E15deallocateTableEPS3_i
__ZN3WTF9HashTableINS_6StringENS_12KeyValuePairIS1_jEENS_24KeyValuePairKeyExtractorIS3_EENS_10StringHashENS_18HashMapValueTraitsINS_10HashTraitsIS1_EENS8_IjEEEES9_E16lookupForWritingINS_22IdentityHashTranslatorIS6_EES1_EENSt3__14pairIPS3_bEERKT0_
__ZN3WTF9HashTableINS_6StringENS_12KeyValuePairIS1_jEENS_24KeyValuePairKeyExtractorIS3_EENS_10StringHashENS_18HashMapValueTraitsINS_10HashTraitsIS1_EENS8_IjEEEES9_E3addINS_17HashMapTranslatorISB_S6_EES1_jEENS_18HashTableAddResultINS_17HashTableIteratorIS1_S3_S5_S6_SB_S9_EEEERKT0_RKT1_
__ZN3WTF9HashTableINS_6StringENS_12KeyValuePairIS1_jEENS_24KeyValuePairKeyExtractorIS3_EENS_10StringHashENS_18HashMapValueTraitsINS_10HashTraitsIS1_EENS8_IjEEEES9_E3addINS_22IdentityHashTranslatorIS6_EES1_S3_EENS_18HashTableAddResultINS_17HashTableIteratorIS1_S3_S5_S6_SB_S9_EEEERKT0_RKT1_
__ZN3WTF9HashTableINS_6StringENS_12KeyValuePairIS1_jEENS_24KeyValuePairKeyExtractorIS3_EENS_10StringHashENS_18HashMapValueTraitsINS_10HashTraitsIS1_EENS8_IjEEEES9_E4findINS_22IdentityHashTranslatorIS6_EES1_EENS_17HashTableIteratorIS1_S3_S5_S6_SB_S9_EERKT0_
__ZN3WTF9HashTableINS_6StringENS_12KeyValuePairIS1_jEENS_24KeyValuePairKeyExtractorIS3_EENS_10StringHashENS_18HashMapValueTraitsINS_10HashTraitsIS1_EENS8_IjEEEES9_E5beginEv
__ZN3WTF9HashTableINS_6StringENS_12KeyValuePairIS1_jEENS_24KeyValuePairKeyExtractorIS3_EENS_10StringHashENS_18HashMapValueTraitsINS_10HashTraitsIS1_EENS8_IjEEEES9_E6expandEv
__ZN3WTF9HashTableINS_6StringENS_12KeyValuePairIS1_jEENS_24KeyValuePairKeyExtractorIS3_EENS_10StringHashENS_18HashMapValueTraitsINS_10HashTraitsIS1_EENS8_IjEEEES9_E6lookupINS_22IdentityHashTranslatorIS6_EES1_EEPS3_RKT0_
__ZN3WTF9HashTableINS_6StringENS_12KeyValuePairIS1_jEENS_24KeyValuePairKeyExtractorIS3_EENS_10StringHashENS_18HashMapValueTraitsINS_10HashTraitsIS1_EENS8_IjEEEES9_E6rehashEi
__ZN3WTF9HashTableINS_6StringENS_12KeyValuePairIS1_jEENS_24KeyValuePairKeyExtractorIS3_EENS_10StringHashENS_18HashMapValueTraitsINS_10HashTraitsIS1_EENS8_IjEEEES9_E6removeEPS3_
__ZN3WTF9HashTableINS_6StringENS_12KeyValuePairIS1_jEENS_24KeyValuePairKeyExtractorIS3_EENS_10StringHashENS_18HashMapValueTraitsINS_10HashTraitsIS1_EENS8_IjEEEES9_EC2ERKSC_
__ZN3WTF9HashTableINS_6StringENS_12KeyValuePairIS1_jEENS_24KeyValuePairKeyExtractorIS3_EENS_10StringHashENS_18HashMapValueTraitsINS_10HashTraitsIS1_EENS8_IjEEEES9_EaSERKSC_
__ZN6WebKit17WebPreferencesKey18minimumFontSizeKeyEv
__ZN6WebKit17WebPreferencesKey25minimumLogicalFontSizeKeyEv
__ZN6WebKit17WebPreferencesKey18defaultFontSizeKeyEv
__ZN6WebKit17WebPreferencesKey23defaultFixedFontSizeKeyEv
__ZN6WebKit17WebPreferencesKey22layoutFallbackWidthKeyEv
__ZN6WebKit17WebPreferencesKey14deviceWidthKeyEv
__ZN6WebKit17WebPreferencesKey15deviceHeightKeyEv
__ZN6WebKit17WebPreferencesKey17pdfDisplayModeKeyEv
__ZN6WebKit17WebPreferencesKey23editableLinkBehaviorKeyEv
__ZN6WebKit17WebPreferencesKey26inspectorAttachedHeightKeyEv
__ZN6WebKit27LocalStorageDatabaseTracker50updateTrackerDatabaseFromLocalStorageDatabaseFilesEv
__ZN6WebKit17WebPreferencesKey25inspectorAttachedWidthKeyEv
__ZN6WebKit17WebPreferencesKey26inspectorAttachmentSideKeyEv
__ZN6WebKit17WebPreferencesKey17pdfScaleFactorKeyEv
__ZN6WebKitL30setDoubleValueIfInUserDefaultsERKN3WTF6StringES3_RNS_19WebPreferencesStoreE
__ZN6WebKit17WebPreferencesKey41incrementalRenderingSuppressionTimeoutKeyEv
__ZN3WTF9HashTableINS_6StringES1_NS_17IdentityExtractorENS_10StringHashENS_10HashTraitsIS1_EES5_EC2ERKS6_
__ZNK3WTF9HashTableINS_6StringES1_NS_17IdentityExtractorENS_10StringHashENS_10HashTraitsIS1_EES5_E5beginEv
__ZN6WebKit17WebPreferencesKey21standardFontFamilyKeyEv
__ZN6WebKitL30setStringValueIfInUserDefaultsERKN3WTF6StringES3_RNS_19WebPreferencesStoreE
__ZN6WebKit17WebPreferencesKey20cursiveFontFamilyKeyEv
__ZN6WebKit17WebPreferencesKey20fantasyFontFamilyKeyEv
__ZN3WTF6VectorINS_6StringELm0ENS_15CrashOnOverflowEED2Ev
__ZN6WebKit17WebPreferencesKey18fixedFontFamilyKeyEv
__ZN3WTF16VectorDestructorILb1ENS_6StringEE8destructEPS1_S3_
__ZN6WebKit17WebPreferencesKey22sansSerifFontFamilyKeyEv
__ZN3WTF17BoundFunctionImplINS_15FunctionWrapperIMN6WebKit27LocalStorageDatabaseTrackerEFvvEEEFvPS3_EED0Ev
__ZN6WebKit17WebPreferencesKey18serifFontFamilyKeyEv
__ZN6WebKit17WebPreferencesKey23pictographFontFamilyKeyEv
__ZN6WebKit17WebPreferencesKey26defaultTextEncodingNameKeyEv
__ZN6WebKit19WebPreferencesStore20setStringValueForKeyERKN3WTF6StringES4_
__ZN6WebKitL11valueForKeyIN3WTF7HashMapINS1_6StringES3_NS1_10StringHashENS1_10HashTraitsIS3_EES6_EEEENT_10MappedTypeERKS8_RKNS8_7KeyTypeE
__ZNK3WTF9HashTableINS_6StringENS_12KeyValuePairIS1_S1_EENS_24KeyValuePairKeyExtractorIS3_EENS_10StringHashENS_18HashMapValueTraitsINS_10HashTraitsIS1_EES9_EES9_E4findINS_22IdentityHashTranslatorIS6_EES1_EENS_22HashTableConstIteratorIS1_S3_S5_S6_SA_S9_EERKT0_
__ZNK3WTF9HashTableINS_6StringENS_12KeyValuePairIS1_S1_EENS_24KeyValuePairKeyExtractorIS3_EENS_10StringHashENS_18HashMapValueTraitsINS_10HashTraitsIS1_EES9_EES9_E5beginEv
__ZN6WebKit18defaultValueForKeyIN3WTF6StringEEET_RKS2_
__ZN3WTF7HashMapINS_6StringES1_NS_10StringHashENS_10HashTraitsIS1_EES4_E3setERKS1_S7_
__ZN3WTF9HashTableINS_6StringENS_12KeyValuePairIS1_S1_EENS_24KeyValuePairKeyExtractorIS3_EENS_10StringHashENS_18HashMapValueTraitsINS_10HashTraitsIS1_EES9_EES9_E15deallocateTableEPS3_i
__ZN3WTF9HashTableINS_6StringENS_12KeyValuePairIS1_S1_EENS_24KeyValuePairKeyExtractorIS3_EENS_10StringHashENS_18HashMapValueTraitsINS_10HashTraitsIS1_EES9_EES9_E16lookupForWritingINS_22IdentityHashTranslatorIS6_EES1_EENSt3__14pairIPS3_bEERKT0_
__ZN3WTF9HashTableINS_6StringENS_12KeyValuePairIS1_S1_EENS_24KeyValuePairKeyExtractorIS3_EENS_10StringHashENS_18HashMapValueTraitsINS_10HashTraitsIS1_EES9_EES9_E3addINS_17HashMapTranslatorISA_S6_EES1_S1_EENS_18HashTableAddResultINS_17HashTableIteratorIS1_S3_S5_S6_SA_S9_EEEERKT0_RKT1_
__ZN3WTF9HashTableINS_6StringENS_12KeyValuePairIS1_S1_EENS_24KeyValuePairKeyExtractorIS3_EENS_10StringHashENS_18HashMapValueTraitsINS_10HashTraitsIS1_EES9_EES9_E3addINS_22IdentityHashTranslatorIS6_EES1_S3_EENS_18HashTableAddResultINS_17HashTableIteratorIS1_S3_S5_S6_SA_S9_EEEERKT0_RKT1_
__ZN3WTF9HashTableINS_6StringENS_12KeyValuePairIS1_S1_EENS_24KeyValuePairKeyExtractorIS3_EENS_10StringHashENS_18HashMapValueTraitsINS_10HashTraitsIS1_EES9_EES9_E4findINS_22IdentityHashTranslatorIS6_EES1_EENS_17HashTableIteratorIS1_S3_S5_S6_SA_S9_EERKT0_
__ZN3WTF9HashTableINS_6StringENS_12KeyValuePairIS1_S1_EENS_24KeyValuePairKeyExtractorIS3_EENS_10StringHashENS_18HashMapValueTraitsINS_10HashTraitsIS1_EES9_EES9_E5beginEv
__ZN3WTF9HashTableINS_6StringENS_12KeyValuePairIS1_S1_EENS_24KeyValuePairKeyExtractorIS3_EENS_10StringHashENS_18HashMapValueTraitsINS_10HashTraitsIS1_EES9_EES9_E6expandEv
__ZN3WTF9HashTableINS_6StringENS_12KeyValuePairIS1_S1_EENS_24KeyValuePairKeyExtractorIS3_EENS_10StringHashENS_18HashMapValueTraitsINS_10HashTraitsIS1_EES9_EES9_E6lookupINS_22IdentityHashTranslatorIS6_EES1_EEPS3_RKT0_
__ZN3WTF9HashTableINS_6StringENS_12KeyValuePairIS1_S1_EENS_24KeyValuePairKeyExtractorIS3_EENS_10StringHashENS_18HashMapValueTraitsINS_10HashTraitsIS1_EES9_EES9_E6rehashEi
__ZN3WTF9HashTableINS_6StringENS_12KeyValuePairIS1_S1_EENS_24KeyValuePairKeyExtractorIS3_EENS_10StringHashENS_18HashMapValueTraitsINS_10HashTraitsIS1_EES9_EES9_E6removeEPS3_
__ZN3WTF9HashTableINS_6StringENS_12KeyValuePairIS1_S1_EENS_24KeyValuePairKeyExtractorIS3_EENS_10StringHashENS_18HashMapValueTraitsINS_10HashTraitsIS1_EES9_EES9_EC2ERKSB_
__ZN3WTF9HashTableINS_6StringENS_12KeyValuePairIS1_S1_EENS_24KeyValuePairKeyExtractorIS3_EENS_10StringHashENS_18HashMapValueTraitsINS_10HashTraitsIS1_EES9_EES9_EaSERKSB_
__ZN6WebKit17WebPreferencesKey27ftpDirectoryTemplatePathKeyEv
__ZN6WebKit17WebPreferencesKey23inspectorWindowFrameKeyEv
__ZNK3WTF7HashMapINS_6StringES1_NS_10StringHashENS_10HashTraitsIS1_EES4_E3getERKS1_
__ZN6WebKit14WebPreferences12addPageGroupEPNS_12WebPageGroupE
__ZN3WTF9HashTableIPN6WebKit12WebPageGroupES3_NS_17IdentityExtractorENS_7PtrHashIS3_EENS_10HashTraitsIS3_EES8_E3addINS_22IdentityHashTranslatorIS6_EES3_S3_EENS_18HashTableAddResultINS_17HashTableIteratorIS3_S3_S4_S6_S8_S8_EEEERKT0_RKT1_
__ZN3WTF9HashTableIPN6WebKit12WebPageGroupES3_NS_17IdentityExtractorENS_7PtrHashIS3_EENS_10HashTraitsIS3_EES8_E6expandEv
__ZN3WTF9HashTableIPN6WebKit12WebPageGroupES3_NS_17IdentityExtractorENS_7PtrHashIS3_EENS_10HashTraitsIS3_EES8_E6rehashEi
__ZNK6WebKit19WebPreferencesStore18getBoolValueForKeyERKN3WTF6StringE
__ZN6WebKitL26boolTestRunnerOverridesMapEv
_WKPreferencesSetPrivateBrowsingEnabled
__ZN6WebKit14WebPreferences25setPrivateBrowsingEnabledERKb
_WKContextRegisterURLSchemeAsEmptyDocument
__ZN6WebKit10WebContext32registerURLSchemeAsEmptyDocumentERKN3WTF6StringE
_WKContextSetClient
__ZN6WebKit10WebContext16initializeClientEPK15WKContextClient
__ZN6WebKit9APIClientI15WKContextClientLi0EE10initializeEPKS1_
_WKContextSetDownloadClient
__ZN6WebKit10WebContext24initializeDownloadClientEPK23WKContextDownloadClient
__ZN6WebKit9APIClientI23WKContextDownloadClientLi0EE10initializeEPKS1_
_WKContextSetHistoryClient
__ZN6WebKit10WebContext23initializeHistoryClientEPK22WKContextHistoryClient
__ZN6WebKit9APIClientI22WKContextHistoryClientLi0EE10initializeEPKS1_
_WKContextSetInjectedBundleClient
__ZN6WebKit10WebContext30initializeInjectedBundleClientEPK29WKContextInjectedBundleClient
__ZN6WebKit9APIClientI29WKContextInjectedBundleClientLi1EE10initializeEPKS1_
_WKContextGetGeolocationManager
__ZN6WebKit10WebContext10supplementINS_26WebGeolocationManagerProxyEEEPT_v
_WKGeolocationManagerSetProvider
__ZN6WebKit26WebGeolocationManagerProxy18initializeProviderEPK21WKGeolocationProvider
__ZN6WebKit9APIClientI21WKGeolocationProviderLi0EE10initializeEPKS1_
_WKContextGetNotificationManager
__ZN6WebKit10WebContext10supplementINS_27WebNotificationManagerProxyEEEPT_v
_WKNotificationManagerSetProvider
__ZN6WebKit27WebNotificationManagerProxy18initializeProviderEPK22WKNotificationProvider
__ZN6WebKit9APIClientI22WKNotificationProviderLi0EE10initializeEPKS1_
__ZN6WebKit23WebNotificationProvider22addNotificationManagerEPNS_27WebNotificationManagerProxyE
_WKContextSetCacheModel
__ZN6WebKit10WebContext13setCacheModelENS_10CacheModelE
_WKContextSetUsesNetworkProcess
__ZN6WebKit10WebContext21setUsesNetworkProcessEb
_WKContextSetProcessModel
__ZN6WebKit10WebContext15setProcessModelENS_12ProcessModelE
_WKContextSetMaximumNumberOfProcesses
__ZN6WebKit10WebContext27setMaximumNumberOfProcessesEj
_WKBooleanCreate
_WKPreferencesGetPrivateBrowsingEnabled
__ZNK6WebKit14WebPreferences22privateBrowsingEnabledEv
_WKPreferencesCreate
__ZN6WebKit14WebPreferencesC1Ev
__ZN6WebKit14WebPreferencesC2Ev
_WKPreferencesSetJavaScriptEnabled
__ZN6WebKit14WebPreferences20setJavaScriptEnabledERKb
_WKPreferencesSetLocalStorageEnabled
__ZN6WebKit14WebPreferences22setLocalStorageEnabledERKb
_WKPreferencesSetDatabasesEnabled
__ZN6WebKit14WebPreferences19setDatabasesEnabledERKb
__ZN6WebKit14WebPreferences21updateBoolValueForKeyERKN3WTF6StringEb
__ZN6WebKit14WebPreferences29platformUpdateBoolValueForKeyERKN3WTF6StringEb
__ZN6WebKit14WebPreferences6updateEv
__ZNK3WTF9HashTableIPN6WebKit12WebPageGroupES3_NS_17IdentityExtractorENS_7PtrHashIS3_EENS_10HashTraitsIS3_EES8_E5beginEv
_WKPreferencesGetStorageBlockingPolicy
__ZNK6WebKit14WebPreferences21storageBlockingPolicyEv
__ZNK6WebKit19WebPreferencesStore20getUInt32ValueForKeyERKN3WTF6StringE
_WKPreferencesSetStorageBlockingPolicy
__ZN6WebKit14WebPreferences24setStorageBlockingPolicyERKj
__ZN6WebKit14WebPreferences31platformUpdateUInt32ValueForKeyERKN3WTF6StringEj
_WKPreferencesGetDeveloperExtrasEnabled
__ZNK6WebKit14WebPreferences22developerExtrasEnabledEv
_WKPreferencesSetDeveloperExtrasEnabled
__ZN6WebKit14WebPreferences25setDeveloperExtrasEnabledERKb
_WKPreferencesGetCompositingBordersVisible
__ZNK6WebKit14WebPreferences25compositingBordersVisibleEv
_WKPreferencesSetCompositingBordersVisible
__ZN6WebKit14WebPreferences28setCompositingBordersVisibleERKb
_WKPreferencesGetCompositingRepaintCountersVisible
__ZNK6WebKit14WebPreferences33compositingRepaintCountersVisibleEv
_WKPreferencesSetCompositingRepaintCountersVisible
__ZN6WebKit14WebPreferences36setCompositingRepaintCountersVisibleERKb
_WKPreferencesGetPluginsEnabled
__ZNK6WebKit14WebPreferences14pluginsEnabledEv
_WKPreferencesSetPluginsEnabled
__ZN6WebKit14WebPreferences17setPluginsEnabledERKb
_WKPreferencesGetAcceleratedCompositingEnabled
__ZNK6WebKit14WebPreferences29acceleratedCompositingEnabledEv
_WKPreferencesSetAcceleratedCompositingEnabled
__ZN6WebKit14WebPreferences32setAcceleratedCompositingEnabledERKb
_WKPreferencesGetAcceleratedDrawingEnabled
__ZNK6WebKit14WebPreferences25acceleratedDrawingEnabledEv
_WKPreferencesSetAcceleratedDrawingEnabled
__ZN6WebKit14WebPreferences28setAcceleratedDrawingEnabledERKb
_WKPreferencesGetMinimumFontSize
__ZNK6WebKit14WebPreferences15minimumFontSizeEv
_WKPreferencesSetMinimumFontSize
__ZN6WebKit14WebPreferences18setMinimumFontSizeERKj
_WKPreferencesGetPlugInSnapshottingEnabled
__ZNK6WebKit14WebPreferences25plugInSnapshottingEnabledEv
_WKPreferencesSetPlugInSnapshottingEnabled
__ZN6WebKit14WebPreferences28setPlugInSnapshottingEnabledERKb
_WKPreferencesGetInspectorUsesWebKitUserInterface
__ZNK6WebKit14WebPreferences32inspectorUsesWebKitUserInterfaceEv
_WKPreferencesSetInspectorUsesWebKitUserInterface
__ZN6WebKit14WebPreferences35setInspectorUsesWebKitUserInterfaceERKb
_WKPageGroupSetPreferences
__ZN6WebKit12WebPageGroup14setPreferencesEPNS_14WebPreferencesE
__ZN3WTF6RefPtrIN6WebKit14WebPreferencesEEaSEPS2_
__ZN3WTF9HashTableIyNS_12KeyValuePairIyPN6WebKit12WebPageGroupEEENS_24KeyValuePairKeyExtractorIS5_EENS_7IntHashIyEENS_18HashMapValueTraitsINS_10HashTraitsIyEENSB_IS4_EEEESC_E16lookupForWritingINS_22IdentityHashTranslatorIS9_EEyEENSt3__14pairIPS5_bEERKT0_
__ZN3WTF9HashTableIyNS_12KeyValuePairIyPN6WebKit12WebPageGroupEEENS_24KeyValuePairKeyExtractorIS5_EENS_7IntHashIyEENS_18HashMapValueTraitsINS_10HashTraitsIyEENSB_IS4_EEEESC_E3addINS_17HashMapTranslatorISE_S9_EEyS4_EENS_18HashTableAddResultINS_17HashTableIteratorIyS5_S7_S9_SE_SC_EEEERKT0_RKT1_
__ZN3WTF9HashTableIyNS_12KeyValuePairIyPN6WebKit12WebPageGroupEEENS_24KeyValuePairKeyExtractorIS5_EENS_7IntHashIyEENS_18HashMapValueTraitsINS_10HashTraitsIyEENSB_IS4_EEEESC_E4findINS_22IdentityHashTranslatorIS9_EEyEENS_17HashTableIteratorIyS5_S7_S9_SE_SC_EERKT0_
__ZN3WTF9HashTableIyNS_12KeyValuePairIyPN6WebKit12WebPageGroupEEENS_24KeyValuePairKeyExtractorIS5_EENS_7IntHashIyEENS_18HashMapValueTraitsINS_10HashTraitsIyEENSB_IS4_EEEESC_E6expandEv
__ZN3WTF9HashTableIyNS_12KeyValuePairIyPN6WebKit12WebPageGroupEEENS_24KeyValuePairKeyExtractorIS5_EENS_7IntHashIyEENS_18HashMapValueTraitsINS_10HashTraitsIyEENSB_IS4_EEEESC_E6lookupINS_22IdentityHashTranslatorIS9_EEyEEPS5_RKT0_
__ZN3WTF9HashTableIyNS_12KeyValuePairIyPN6WebKit12WebPageGroupEEENS_24KeyValuePairKeyExtractorIS5_EENS_7IntHashIyEENS_18HashMapValueTraitsINS_10HashTraitsIyEENSB_IS4_EEEESC_E6rehashEi
__ZN3WTF9HashTableIyNS_12KeyValuePairIyPN6WebKit12WebPageGroupEEENS_24KeyValuePairKeyExtractorIS5_EENS_7IntHashIyEENS_18HashMapValueTraitsINS_10HashTraitsIyEENSB_IS4_EEEESC_E6removeEPS5_
_WKPreferencesSetLoadsSiteIconsIgnoringImageLoadingPreference
__ZN6WebKit14WebPreferences47setLoadsSiteIconsIgnoringImageLoadingPreferenceERKb
_WKPreferencesSetLoadsImagesAutomatically
__ZN6WebKit14WebPreferences27setLoadsImagesAutomaticallyERKb
_WKPreferencesGetJavaScriptEnabled
__ZNK6WebKit14WebPreferences17javaScriptEnabledEv
_WKPreferencesSetAuthorAndUserStylesEnabled
__ZN6WebKit14WebPreferences29setAuthorAndUserStylesEnabledERKb
__ZN6WebKit12WebPageGroup20preferencesDidChangeEv
__ZNK3WTF9HashTableIPN6WebKit12WebPageProxyES3_NS_17IdentityExtractorENS_7PtrHashIS3_EENS_10HashTraitsIS3_EES8_E5beginEv
_WKPreferencesSetJavaEnabled
__ZN6WebKit14WebPreferences14setJavaEnabledERKb
_WKPreferencesSetApplicationChromeModeEnabled
__ZN6WebKit14WebPreferences31setApplicationChromeModeEnabledERKb
_WKPreferencesGetTabsToLinks
__ZNK6WebKit14WebPreferences11tabsToLinksEv
_WKPreferencesSetTabsToLinks
__ZN6WebKit14WebPreferences14setTabsToLinksERKb
_WKPreferencesSetShouldPrintBackgrounds
__ZN6WebKit14WebPreferences25setShouldPrintBackgroundsERKb
_WKPreferencesSetWebGLEnabled
__ZN6WebKit14WebPreferences15setWebGLEnabledERKb
_WKPreferencesSetMultithreadedWebGLEnabled
__ZN6WebKit14WebPreferences28setMultithreadedWebGLEnabledERKb
_WKPreferencesSetForceSoftwareWebGLRendering
__ZN6WebKit14WebPreferences30setForceSoftwareWebGLRenderingERKb
_WKMutableArrayCreate
__ZN6WebKit12MutableArrayC1Ev
__ZN6WebKit14ImmutableArrayC2Ev
_WKArrayAppendItem
__ZN6WebKit12MutableArray6appendEPNS_9APIObjectE
__ZN3WTF6VectorINS_6RefPtrIN6WebKit9APIObjectEEELm0ENS_15CrashOnOverflowEE14appendSlowCaseIPS3_EEvRKT_
__ZN3WTF6VectorINS_6RefPtrIN6WebKit9APIObjectEEELm0ENS_15CrashOnOverflowEE15reserveCapacityEm
__ZN3WTF16VectorBufferBaseINS_6RefPtrIN6WebKit9APIObjectEEEE14allocateBufferEm
_WKContextSetPlugInAutoStartOrigins
__ZN6WebKit10WebContext25setPlugInAutoStartOriginsERNS_14ImmutableArrayE
__ZN6WebKit23PlugInAutoStartProvider24setAutoStartOriginsArrayERNS_14ImmutableArrayE
__ZN3WTF6VectorINS_6StringELm0ENS_15CrashOnOverflowEE14shrinkCapacityEm
__ZNK6WebKit14TypedAPIObjectILNS_9APIObject4TypeE18EE4typeEv
__ZN3WTF6VectorINS_6StringELm0ENS_15CrashOnOverflowEE14appendSlowCaseIS1_EEvRKT_
__ZN3WTF6VectorINS_6StringELm0ENS_15CrashOnOverflowEE14expandCapacityEmPKS1_
__ZN3WTF6VectorINS_6StringELm0ENS_15CrashOnOverflowEE15reserveCapacityEm
__ZN3WTF16VectorBufferBaseINS_6StringEE14allocateBufferEm
__ZN6WebKit12MutableArrayD0Ev
__ZN6WebKit14ImmutableArrayD2Ev
__ZN3WTF6VectorINS_6RefPtrIN6WebKit9APIObjectEEELm0ENS_15CrashOnOverflowEED2Ev
__ZN3WTF16VectorDestructorILb1ENS_6RefPtrIN6WebKit9APIObjectEEEE8destructEPS4_S6_
_WKDoubleCreate
_WKContextSetPlugInAutoStartOriginHashes
__ZN6WebKit10WebContext30setPlugInAutoStartOriginHashesERNS_19ImmutableDictionaryE
__ZN6WebKit23PlugInAutoStartProvider24setAutoStartOriginsTableERNS_19ImmutableDictionaryE
__ZNK3WTF9HashTableINS_6StringENS_12KeyValuePairIS1_NS_6RefPtrIN6WebKit9APIObjectEEEEENS_24KeyValuePairKeyExtractorIS7_EENS_10StringHashENS_18HashMapValueTraitsINS_10HashTraitsIS1_EENSC_IS6_EEEESD_E5beginEv
__ZNK6WebKit14TypedAPIObjectILNS_9APIObject4TypeE26EE4typeEv
__ZN3WTF7HashMapIjNS_6StringENS_7IntHashIjEENS_10HashTraitsIjEENS4_IS1_EEE3setERKjRKS1_
__ZN3WTF7HashMapINS_6StringENS0_IjdNS_7IntHashIjEENS_10HashTraitsIjEENS4_IdEEEENS_15CaseFoldingHashENS4_IS1_EENS4_IS7_EEE3setERKS1_RKS7_
__ZN3WTF9HashTableINS_6StringENS_12KeyValuePairIS1_NS_7HashMapIjdNS_7IntHashIjEENS_10HashTraitsIjEENS6_IdEEEEEENS_24KeyValuePairKeyExtractorISA_EENS_15CaseFoldingHashENS_18HashMapValueTraitsINS6_IS1_EENS6_IS9_EEEESF_E13allocateTableEi
__ZN3WTF9HashTableINS_6StringENS_12KeyValuePairIS1_NS_7HashMapIjdNS_7IntHashIjEENS_10HashTraitsIjEENS6_IdEEEEEENS_24KeyValuePairKeyExtractorISA_EENS_15CaseFoldingHashENS_18HashMapValueTraitsINS6_IS1_EENS6_IS9_EEEESF_E15deallocateTableEPSA_i
__ZN3WTF9HashTableINS_6StringENS_12KeyValuePairIS1_NS_7HashMapIjdNS_7IntHashIjEENS_10HashTraitsIjEENS6_IdEEEEEENS_24KeyValuePairKeyExtractorISA_EENS_15CaseFoldingHashENS_18HashMapValueTraitsINS6_IS1_EENS6_IS9_EEEESF_E16lookupForWritingINS_22IdentityHashTranslatorISD_EES1_EENSt3__14pairIPSA_bEERKT0_
__ZN3WTF9HashTableINS_6StringENS_12KeyValuePairIS1_NS_7HashMapIjdNS_7IntHashIjEENS_10HashTraitsIjEENS6_IdEEEEEENS_24KeyValuePairKeyExtractorISA_EENS_15CaseFoldingHashENS_18HashMapValueTraitsINS6_IS1_EENS6_IS9_EEEESF_E3addINS_17HashMapTranslatorISH_SD_EES1_S9_EENS_18HashTableAddResultINS_17HashTableIteratorIS1_SA_SC_SD_SH_SF_EEEERKT0_RKT1_
__ZN3WTF9HashTableINS_6StringENS_12KeyValuePairIS1_NS_7HashMapIjdNS_7IntHashIjEENS_10HashTraitsIjEENS6_IdEEEEEENS_24KeyValuePairKeyExtractorISA_EENS_15CaseFoldingHashENS_18HashMapValueTraitsINS6_IS1_EENS6_IS9_EEEESF_E4findINS_22IdentityHashTranslatorISD_EES1_EENS_17HashTableIteratorIS1_SA_SC_SD_SH_SF_EERKT0_
__ZN3WTF9HashTableINS_6StringENS_12KeyValuePairIS1_NS_7HashMapIjdNS_7IntHashIjEENS_10HashTraitsIjEENS6_IdEEEEEENS_24KeyValuePairKeyExtractorISA_EENS_15CaseFoldingHashENS_18HashMapValueTraitsINS6_IS1_EENS6_IS9_EEEESF_E6expandEv
__ZN3WTF9HashTableINS_6StringENS_12KeyValuePairIS1_NS_7HashMapIjdNS_7IntHashIjEENS_10HashTraitsIjEENS6_IdEEEEEENS_24KeyValuePairKeyExtractorISA_EENS_15CaseFoldingHashENS_18HashMapValueTraitsINS6_IS1_EENS6_IS9_EEEESF_E6lookupINS_22IdentityHashTranslatorISD_EES1_EEPSA_RKT0_
__ZN3WTF9HashTableINS_6StringENS_12KeyValuePairIS1_NS_7HashMapIjdNS_7IntHashIjEENS_10HashTraitsIjEENS6_IdEEEEEENS_24KeyValuePairKeyExtractorISA_EENS_15CaseFoldingHashENS_18HashMapValueTraitsINS6_IS1_EENS6_IS9_EEEESF_E6rehashEi
__ZN3WTF22KeyValuePairHashTraitsINS_10HashTraitsINS_6StringEEENS1_INS_7HashMapIjdNS_7IntHashIjEENS1_IjEENS1_IdEEEEEEE10emptyValueEv
__ZN3WTF15CaseFoldingHash4hashEPNS_10StringImplE
__ZN3WTF12StringHasher28addCharactersAssumingAlignedIhXadL_ZNS_15CaseFoldingHash8foldCaseIhEEtT_EEEEvPKS4_j
__ZN3WTF9HashTableIjNS_12KeyValuePairIjdEENS_24KeyValuePairKeyExtractorIS2_EENS_7IntHashIjEENS_18HashMapValueTraitsINS_10HashTraitsIjEENS8_IdEEEES9_E13allocateTableEi
__ZN3WTF9HashTableIjNS_12KeyValuePairIjdEENS_24KeyValuePairKeyExtractorIS2_EENS_7IntHashIjEENS_18HashMapValueTraitsINS_10HashTraitsIjEENS8_IdEEEES9_E16lookupForWritingINS_22IdentityHashTranslatorIS6_EEjEENSt3__14pairIPS2_bEERKT0_
__ZN3WTF9HashTableIjNS_12KeyValuePairIjdEENS_24KeyValuePairKeyExtractorIS2_EENS_7IntHashIjEENS_18HashMapValueTraitsINS_10HashTraitsIjEENS8_IdEEEES9_E3addINS_17HashMapTranslatorISB_S6_EEjdEENS_18HashTableAddResultINS_17HashTableIteratorIjS2_S4_S6_SB_S9_EEEERKT0_RKT1_
__ZN3WTF9HashTableIjNS_12KeyValuePairIjdEENS_24KeyValuePairKeyExtractorIS2_EENS_7IntHashIjEENS_18HashMapValueTraitsINS_10HashTraitsIjEENS8_IdEEEES9_E3addINS_22IdentityHashTranslatorIS6_EEjS2_EENS_18HashTableAddResultINS_17HashTableIteratorIjS2_S4_S6_SB_S9_EEEERKT0_RKT1_
__ZN3WTF9HashTableIjNS_12KeyValuePairIjdEENS_24KeyValuePairKeyExtractorIS2_EENS_7IntHashIjEENS_18HashMapValueTraitsINS_10HashTraitsIjEENS8_IdEEEES9_E4findINS_22IdentityHashTranslatorIS6_EEjEENS_17HashTableIteratorIjS2_S4_S6_SB_S9_EERKT0_
__ZN3WTF9HashTableIjNS_12KeyValuePairIjdEENS_24KeyValuePairKeyExtractorIS2_EENS_7IntHashIjEENS_18HashMapValueTraitsINS_10HashTraitsIjEENS8_IdEEEES9_E6expandEv
__ZN3WTF9HashTableIjNS_12KeyValuePairIjdEENS_24KeyValuePairKeyExtractorIS2_EENS_7IntHashIjEENS_18HashMapValueTraitsINS_10HashTraitsIjEENS8_IdEEEES9_E6lookupINS_22IdentityHashTranslatorIS6_EEjEEPS2_RKT0_
__ZN3WTF9HashTableIjNS_12KeyValuePairIjdEENS_24KeyValuePairKeyExtractorIS2_EENS_7IntHashIjEENS_18HashMapValueTraitsINS_10HashTraitsIjEENS8_IdEEEES9_E6rehashEi
__ZN3WTF9HashTableIjNS_12KeyValuePairIjdEENS_24KeyValuePairKeyExtractorIS2_EENS_7IntHashIjEENS_18HashMapValueTraitsINS_10HashTraitsIjEENS8_IdEEEES9_EC2ERKSC_
__ZN3WTF9HashTableIjNS_12KeyValuePairIjdEENS_24KeyValuePairKeyExtractorIS2_EENS_7IntHashIjEENS_18HashMapValueTraitsINS_10HashTraitsIjEENS8_IdEEEES9_EaSERKSC_
__ZN6WebKit17MutableDictionaryD0Ev
__ZN6WebKit19ImmutableDictionaryD2Ev
__ZN6WebKit9WebNumberIdLNS_9APIObject4TypeE26EED0Ev
_WKContextWarmInitialProcess
__ZN6WebKit10WebContext18warmInitialProcessEv
__ZN6WebKit10WebContext19createNewWebProcessEv
__ZN6WebKit10WebContext20ensureNetworkProcessEv
__ZN6WebKit19NetworkProcessProxy6createEPNS_10WebContextE
__ZN6WebKit19NetworkProcessProxyC2EPNS_10WebContextE
__ZN6WebKit17ChildProcessProxyC2Ev
__ZN6WebKit26CustomProtocolManagerProxyC1EPNS_17ChildProcessProxyE
__ZN6WebKit26CustomProtocolManagerProxyC2EPNS_17ChildProcessProxyE
__ZN6WebKit17ChildProcessProxy18addMessageReceiverEN7CoreIPC15StringReferenceEPNS1_15MessageReceiverE
__ZN6WebKit17ChildProcessProxy7connectEv
__ZN6WebKit19NetworkProcessProxy16getLaunchOptionsERNS_15ProcessLauncher13LaunchOptionsE
__ZN6WebKit19NetworkProcessProxy24platformGetLaunchOptionsERNS_15ProcessLauncher13LaunchOptionsE
__ZN6WebKit15ProcessLauncherC1EPNS0_6ClientERKNS0_13LaunchOptionsE
__ZN6WebKit15ProcessLauncherC2EPNS0_6ClientERKNS0_13LaunchOptionsE
__ZN6WebKit32NetworkProcessCreationParametersC1Ev
__ZN3WTF17BoundFunctionImplINS_15FunctionWrapperIMN6WebKit15ProcessLauncherEFvvEEEFvPS3_EEclEv
__ZN6WebKit16SandboxExtension6HandleC1Ev
__ZNK6WebKit10WebContext18diskCacheDirectoryEv
__ZN6WebKit15ProcessLauncher13launchProcessEv
__ZN6WebKit20EnvironmentVariablesC1Ev
__ZNK6WebKit10WebContext33platformDefaultDiskCacheDirectoryEv
__ZN6WebKit20EnvironmentVariables32preexistingProcessServiceNameKeyEv
_WKCopyFoundationCacheDirectory
__ZNK6WebKit20EnvironmentVariables3getEPKc
__ZNK6WebKit20EnvironmentVariables22valueIfVariableHasNameEPKcS2_
__ZN6WebKit20EnvironmentVariablesD1Ev
__ZN6WebKit20EnvironmentVariablesD2Ev
__ZN3WTF6VectorIPcLm0ENS_15CrashOnOverflowEED1Ev
_cfURLCache
__ZN6WebKit12_GLOBAL__N_110UUIDHolder6createEv
__ZN6WebKitL16connectToServiceERKNS_15ProcessLauncher13LaunchOptionsEbPS0_MS0_FviN7CoreIPC10Connection10IdentifierEEPNS_12_GLOBAL__N_110UUIDHolderE
__ZN3WTF17BoundFunctionImplINS_15FunctionWrapperIMN6WebKit15ProcessLauncherEFvvEEEFvPS3_EED0Ev
__ZN3WTF20ThreadSafeRefCountedIN6WebKit15ProcessLauncherEE5derefEv
__ZN3WTF9RetainPtrIP8NSStringEC2ENS_10AdoptNSTagES2_
__ZN3WTF9RetainPtrI8NSStringEC2IPS1_EERKNS0_IT_EE
__ZN6WebKit16SandboxExtension33createHandleForReadWriteDirectoryERKN3WTF6StringERNS0_6HandleE
__ZN6WebKit16SandboxExtension12createHandleERKN3WTF6StringENS0_4TypeERNS0_6HandleE
__ZN6WebKitL21resolveSymlinksInPathERKN3WTF7CStringE
_WKSandboxExtensionCreate
__ZN6WebKit14WebPreferences36anyPageGroupsAreUsingPrivateBrowsingEv
__ZN6WebKit10WebContext32platformInitializeNetworkProcessERNS_32NetworkProcessCreationParametersE
+[WKBrowsingContextController(Internal) customSchemes]
__ZN6WebKit17ChildProcessProxy4sendIN8Messages14NetworkProcess24InitializeNetworkProcessEEEbRKT_yj
__ZN7CoreIPC14MessageEncoder6createENS_15StringReferenceES1_y
__ZN7CoreIPC14MessageEncoderC2ENS_15StringReferenceES1_y
__ZN7CoreIPC15ArgumentEncoderC2Ev
__ZN7CoreIPC15ArgumentEncoder6encodeEh
__ZN7CoreIPC15ArgumentEncoder4growEjm
__ZNK7CoreIPC15StringReference6encodeERNS_15ArgumentEncoderE
__ZNK7CoreIPC13DataReference6encodeERNS_15ArgumentEncoderE
__ZN7CoreIPC15ArgumentEncoder29encodeVariableLengthByteArrayERKNS_13DataReferenceE
__ZN7CoreIPC15ArgumentEncoder6encodeEy
__ZNK6WebKit32NetworkProcessCreationParameters6encodeERN7CoreIPC15ArgumentEncoderE
__ZN7CoreIPC13ArgumentCoderIN3WTF6StringEE6encodeERNS_15ArgumentEncoderERKS2_
__ZN7CoreIPC15ArgumentEncoder6encodeEj
__ZN7CoreIPC15ArgumentEncoder6encodeEb
__ZN7CoreIPC15ArgumentEncoder21encodeFixedLengthDataEPKhmj
__ZNK6WebKit16SandboxExtension6Handle6encodeERN7CoreIPC15ArgumentEncoderE
_WKSandboxExtensionGetSerializedFormat
_WKSandboxExtensionDestroy
__ZN7CoreIPC19VectorArgumentCoderILb0EN3WTF6StringEE6encodeERNS_15ArgumentEncoderERKNS1_6VectorIS2_Lm0ENS1_15CrashOnOverflowEEE
__ZN6WebKit17ChildProcessProxy11sendMessageEN3WTF10PassOwnPtrIN7CoreIPC14MessageEncoderEEEj
__ZN3WTF6VectorINSt3__14pairINS_6OwnPtrIN7CoreIPC14MessageEncoderEEEjEELm0ENS_15CrashOnOverflowEE14appendSlowCaseINS2_INS_10PassOwnPtrIS5_EEjEEEEvRKT_
__ZN3WTF6VectorINSt3__14pairINS_6OwnPtrIN7CoreIPC14MessageEncoderEEEjEELm0ENS_15CrashOnOverflowEE15reserveCapacityEm
__ZN3WTF16VectorBufferBaseINSt3__14pairINS_6OwnPtrIN7CoreIPC14MessageEncoderEEEjEEE14allocateBufferEm
__ZN6WebKit32NetworkProcessCreationParametersD2Ev
__ZN6WebKit16SandboxExtension6HandleD1Ev
__ZN6WebKit16SandboxExtension6HandleD2Ev
__ZN6WebKit15WebProcessProxy6createEN3WTF10PassRefPtrINS_10WebContextEEE
__ZN6WebKit15WebProcessProxyC2EN3WTF10PassRefPtrINS_10WebContextEEE
__ZN6WebKit19ResponsivenessTimerC1EPNS0_6ClientE
__ZN6WebKit15WebProcessProxy16getLaunchOptionsERNS_15ProcessLauncher13LaunchOptionsE
__ZN6WebKit15WebProcessProxy24platformGetLaunchOptionsERNS_15ProcessLauncher13LaunchOptionsE
__ZN6WebKit28WebProcessCreationParametersC1Ev
__ZN6WebKit28WebProcessCreationParametersC2Ev
__ZNK6WebKit10WebContext25applicationCacheDirectoryEv
__ZNK6WebKit10WebContext40platformDefaultApplicationCacheDirectoryEv
__ZNK6WebKit10WebContext17databaseDirectoryEv
__ZNK6WebKit10WebContext32platformDefaultDatabaseDirectoryEv
__ZNK6WebKit10WebContext22cookieStorageDirectoryEv
__ZNK6WebKit10WebContext37platformDefaultCookieStorageDirectoryEv
__ZN3WTF6VectorINS_6StringELm0ENS_15CrashOnOverflowEE6resizeEm
__ZNK6WebKit10WebContext16iconDatabasePathEv
__ZN6WebKit11TextChecker5stateEv
__ZN6WebKit11TextChecker32isContinuousSpellCheckingAllowedEv
__ZN6WebKitL39shouldAutomaticTextReplacementBeEnabledEv
__ZN6WebKitL42shouldAutomaticSpellingCorrectionBeEnabledEv
__ZN6WebKitL41shouldAutomaticQuoteSubstitutionBeEnabledEv
__ZN6WebKitL40shouldAutomaticDashSubstitutionBeEnabledEv
__ZN6WebKit15WebProcessProxy25fullKeyboardAccessEnabledEv
+[WKFullKeyboardAccessWatcher fullKeyboardAccessEnabled]
-[WKFullKeyboardAccessWatcher init]
-[WKFullKeyboardAccessWatcher retrieveKeyboardUIModeFromPreferences:]
__ZN6WebKit13WebURLRequest22defaultTimeoutIntervalEv
__ZN6WebKit27WebNotificationManagerProxy37populateCopyOfNotificationPermissionsERN3WTF7HashMapINS1_6StringEbNS1_10StringHashENS1_10HashTraitsIS3_EENS5_IbEEEE
__ZN6WebKit23WebNotificationProvider23notificationPermissionsEv
+[WKBrowsingContextController registerSchemeForCustomProtocol:]
____ZN6WebKit10WebContext29registerNotificationObserversEv_block_invoke
__ZN6WebKit10WebContext31registerSchemeForCustomProtocolERKN3WTF6StringE
__ZNK6WebKit17ChildProcessProxy11isLaunchingEv
__ZN6WebKit17ChildProcessProxy4sendIN8Messages21CustomProtocolManager14RegisterSchemeEEEbRKT_yj
_WKContextRegisterURLSchemeAsSecure
__ZN6WebKit10WebContext25registerURLSchemeAsSecureERKN3WTF6StringE
_WKContextSetDomainRelaxationForbiddenForURLScheme
__ZN6WebKit10WebContext40setDomainRelaxationForbiddenForURLSchemeERKN3WTF6StringE
_WKDictionaryAddItem
__ZN6WebKit17MutableDictionary3addERKN3WTF6StringEPNS_9APIObjectE
__ZNK6WebKit19ImmutableDictionary4keysEv
__ZN6WebKit14ImmutableArrayC1ERN3WTF6VectorINS1_6RefPtrINS_9APIObjectEEELm0ENS1_15CrashOnOverflowEEE
__ZN6WebKit14ImmutableArray2atINS_9WebStringEEEPT_m
__ZN6WebKit19ImmutableDictionary3getINS_9WebNumberIbLNS_9APIObject4TypeE25EEEEEPT_RKN3WTF6StringE
__ZNK6WebKit14TypedAPIObjectILNS_9APIObject4TypeE25EE4typeEv
__ZN6WebKit14ImmutableArrayD0Ev
__ZN6WebKit9WebNumberIbLNS_9APIObject4TypeE25EED0Ev
__ZNK6WebKit23PlugInAutoStartProvider25autoStartOriginHashesCopyEv
__ZNK3WTF9HashTableINS_6StringENS_12KeyValuePairIS1_NS_7HashMapIjdNS_7IntHashIjEENS_10HashTraitsIjEENS6_IdEEEEEENS_24KeyValuePairKeyExtractorISA_EENS_15CaseFoldingHashENS_18HashMapValueTraitsINS6_IS1_EENS6_IS9_EEEESF_E5beginEv
__ZN6WebKit10WebContext28platformInitializeWebProcessERNS_28WebProcessCreationParametersE
__ZN6WebKit30WebContextInjectedBundleClient39getInjectedBundleInitializationUserDataEPNS_10WebContextE
__ZN6WebKit17ChildProcessProxy4sendIN8Messages10WebProcess20InitializeWebProcessEEEbRKT_yj
__ZNK6WebKit28WebProcessCreationParameters6encodeERN7CoreIPC15ArgumentEncoderE
__ZN7CoreIPC15ArgumentEncoder6encodeEd
__ZN7CoreIPC15ArgumentEncoder6encodeEi
__ZN7CoreIPC10AttachmentC1Ejj
__ZNK7CoreIPC10Attachment6encodeERNS_15ArgumentEncoderE
__ZN7CoreIPC15ArgumentEncoder13addAttachmentERKNS_10AttachmentE
__ZN3WTF6VectorIN7CoreIPC10AttachmentELm0ENS_15CrashOnOverflowEE14appendSlowCaseIS2_EEvRKT_
__ZN3WTF6VectorIN7CoreIPC10AttachmentELm0ENS_15CrashOnOverflowEE14expandCapacityEmPKS2_
__ZN3WTF6VectorIN7CoreIPC10AttachmentELm0ENS_15CrashOnOverflowEE15reserveCapacityEm
__ZN3WTF16VectorBufferBaseIN7CoreIPC10AttachmentEE14allocateBufferEm
__ZN7CoreIPC13ArgumentCoderIN3WTF7HashMapINS1_6StringEbNS1_10StringHashENS1_10HashTraitsIS3_EENS5_IbEEEEE6encodeERNS_15ArgumentEncoderERKS8_
__ZNK3WTF9HashTableINS_6StringENS_12KeyValuePairIS1_bEENS_24KeyValuePairKeyExtractorIS3_EENS_10StringHashENS_18HashMapValueTraitsINS_10HashTraitsIS1_EENS8_IbEEEES9_E4findINS_22IdentityHashTranslatorIS6_EES1_EENS_22HashTableConstIteratorIS1_S3_S5_S6_SB_S9_EERKT0_
__ZNK3WTF9HashTableINS_6StringENS_12KeyValuePairIS1_bEENS_24KeyValuePairKeyExtractorIS3_EENS_10StringHashENS_18HashMapValueTraitsINS_10HashTraitsIS1_EENS8_IbEEEES9_E5beginEv
__ZN7CoreIPC13ArgumentCoderIN3WTF7HashMapIjdNS1_7IntHashIjEENS1_10HashTraitsIjEENS5_IdEEEEE6encodeERNS_15ArgumentEncoderERKS8_
__ZNK6WebKit28WebContextUserMessageEncoder6encodeERN7CoreIPC15ArgumentEncoderE
__ZNK6WebKit18UserMessageEncoderINS_28WebContextUserMessageEncoderEE10baseEncodeERN7CoreIPC15ArgumentEncoderERNS_9APIObject4TypeE
__ZNK6WebKit14TypedAPIObjectILNS_9APIObject4TypeE9EE4typeEv
__ZNK6WebKit14TypedAPIObjectILNS_9APIObject4TypeE64EE4typeEv
__ZNK6WebKit16WebPageGroupData6encodeERN7CoreIPC15ArgumentEncoderE
__ZN7CoreIPC19VectorArgumentCoderILb0EN7WebCore14UserStyleSheetEE6encodeERNS_15ArgumentEncoderERKN3WTF6VectorIS2_Lm0ENS6_15CrashOnOverflowEEE
__ZN7CoreIPC19VectorArgumentCoderILb0EN7WebCore10UserScriptEE6encodeERNS_15ArgumentEncoderERKN3WTF6VectorIS2_Lm0ENS6_15CrashOnOverflowEEE
__ZN3WTF6VectorINS_6RefPtrIN6WebKit15WebProcessProxyEEELm0ENS_15CrashOnOverflowEE14appendSlowCaseIS4_EEvRKT_
__ZN3WTF6VectorINS_6RefPtrIN6WebKit15WebProcessProxyEEELm0ENS_15CrashOnOverflowEE14expandCapacityEmPKS4_
__ZN3WTF6VectorINS_6RefPtrIN6WebKit15WebProcessProxyEEELm0ENS_15CrashOnOverflowEE15reserveCapacityEm
__ZN3WTF16VectorBufferBaseINS_6RefPtrIN6WebKit15WebProcessProxyEEEE14allocateBufferEm
__ZN6WebKit28WebProcessCreationParametersD2Ev
_WKContextGetCookieManager
__ZN6WebKit10WebContext10supplementINS_21WebCookieManagerProxyEEEPT_v
_WKCookieManagerSetClient
__ZN6WebKit21WebCookieManagerProxy16initializeClientEPK21WKCookieManagerClient
__ZN6WebKit9APIClientI21WKCookieManagerClientLi0EE10initializeEPKS1_
-[WKView(Private) initWithFrame:contextRef:pageGroupRef:relatedToPage:]
__ZN6WebKit15PasteboardTypes12forSelectionEv
__ZN6WebKit15PasteboardTypes10forEditingEv
__Z26InitWebCoreSystemInterfacev
____Z26InitWebCoreSystemInterfacev_block_invoke
_WKRecommendedScrollerStyle
-[WKViewData .cxx_construct]
__ZN6WebKit14PageClientImpl6createEP6WKView
__ZN6WebKit14PageClientImplC2EP6WKView
__ZN3WTF9RetainPtrIP22WKEditorUndoTargetObjCEC2ENS_10AdoptNSTagES2_
__ZN3WTF9RetainPtrI22WKEditorUndoTargetObjCEC2IPS1_EERKNS0_IT_EE
__ZN6WebKit15CorrectionPanelC1Ev
__ZN6WebKit10WebContext13createWebPageEPNS_10PageClientEPNS_12WebPageGroupEPNS_12WebPageProxyE
__ZN3WTF6RefPtrIN6WebKit15WebProcessProxyEEaSERKS3_
__ZN6WebKit15WebProcessProxy13createWebPageEPNS_10PageClientEPNS_10WebContextEPNS_12WebPageGroupE
__ZN6WebKit12WebPageProxy6createEPNS_10PageClientEN3WTF10PassRefPtrINS_15WebProcessProxyEEEPNS_12WebPageGroupEy
__ZN6WebKit12WebPageProxyC2EPNS_10PageClientEN3WTF10PassRefPtrINS_15WebProcessProxyEEEPNS_12WebPageGroupEy
__ZN3WTF10makeStringIPKcNS_6StringES2_S3_S2_EES3_T_T0_T1_T2_T3_
__ZN3WTF13tryMakeStringIPKcNS_6StringES2_S3_S2_EENS_10PassRefPtrINS_10StringImplEEET_T0_T1_T2_T3_
__ZN6WebKit16WebHitTestResult4DataC1Ev
__ZN6WebKit40GeolocationPermissionRequestManagerProxyC1EPNS_12WebPageProxyE
__ZN6WebKit41NotificationPermissionRequestManagerProxyC1EPNS_12WebPageProxyE
__ZN6WebKit14PageClientImpl14isViewInWindowEv
__ZN6WebKit14PageClientImpl13isViewVisibleEv
__ZN6WebKit18WebBackForwardListC1EPNS_12WebPageProxyE
__ZN6WebKit11TextChecker26isSmartInsertDeleteEnabledEv
__ZN6WebKit10WebContext10statisticsEv
__ZN6WebKit12WebPageGroup7addPageEPNS_12WebPageProxyE
__ZN3WTF9HashTableIPN6WebKit12WebPageProxyES3_NS_17IdentityExtractorENS_7PtrHashIS3_EENS_10HashTraitsIS3_EES8_E3addINS_22IdentityHashTranslatorIS6_EES3_S3_EENS_18HashTableAddResultINS_17HashTableIteratorIS3_S3_S4_S6_S8_S8_EEEERKT0_RKT1_
__ZN3WTF9HashTableIPN6WebKit12WebPageProxyES3_NS_17IdentityExtractorENS_7PtrHashIS3_EENS_10HashTraitsIS3_EES8_E6expandEv
__ZN3WTF9HashTableIPN6WebKit12WebPageProxyES3_NS_17IdentityExtractorENS_7PtrHashIS3_EENS_10HashTraitsIS3_EES8_E6rehashEi
__ZN6WebKit17WebInspectorProxyC1EPNS_12WebPageProxyE
__ZN6WebKit17WebInspectorProxyC2EPNS_12WebPageProxyE
__ZNK6WebKit12WebPageProxy7processEv
__ZN6WebKit17ChildProcessProxy18addMessageReceiverEN7CoreIPC15StringReferenceEyPNS1_15MessageReceiverE
__ZN7CoreIPC18MessageReceiverMap18addMessageReceiverENS_15StringReferenceEyPNS_15MessageReceiverE
__ZN3WTF8PairHashIN7CoreIPC15StringReferenceEyE4hashERKNSt3__14pairIS2_yEE
__ZN6WebKit25WebFullScreenManagerProxy6createEPNS_12WebPageProxyE
__ZN3WTF6RefPtrIN6WebKit25WebFullScreenManagerProxyEEaSERKNS_10PassRefPtrIS2_EE
__ZN6WebKit14StorageManager29createSessionStorageNamespaceEyPN7CoreIPC10ConnectionEj
__ZN3WTF4bindIMN6WebKit14StorageManagerEFvyPN7CoreIPC10ConnectionEjEPS2_yNS_6RefPtrIS4_EEjEENS_8FunctionIFNS_15FunctionWrapperIT_E10ResultTypeEvEEESD_RKT0_RKT1_RKT2_RKT3_
__ZN6WebKitL13globalPageMapEv
__ZN6WebKit15WebProcessProxy25pageIsProcessSuppressibleEPNS_12WebPageProxyE
__ZN6WebKit14StorageManager37createSessionStorageNamespaceInternalEyPN7CoreIPC10ConnectionEj
__ZNK6WebKit14WebPreferences44pageVisibilityBasedProcessSuppressionEnabledEv
__ZN3WTF9HashTableIyyNS_17IdentityExtractorENS_7IntHashIyEENS_10HashTraitsIyEES5_E3addINS_22IdentityHashTranslatorIS3_EEyyEENS_18HashTableAddResultINS_17HashTableIteratorIyyS1_S3_S5_S5_EEEERKT0_RKT1_
__ZN3WTF7HashMapIyNS_6RefPtrIN6WebKit14StorageManager23SessionStorageNamespaceEEENS_7IntHashIyEENS_10HashTraitsIyEENS8_IS5_EEE3setERKyNS_10PassRefPtrIS4_EE
__ZN3WTF9HashTableIyyNS_17IdentityExtractorENS_7IntHashIyEENS_10HashTraitsIyEES5_E6expandEv
__ZN3WTF9HashTableIyyNS_17IdentityExtractorENS_7IntHashIyEENS_10HashTraitsIyEES5_E6rehashEi
__ZN6WebKit15WebProcessProxy29updateProcessSuppressionStateEv
-[WKView _intrinsicDeviceScaleFactor]
__ZN6WebKit12WebPageProxy29setIntrinsicDeviceScaleFactorEf
__ZN6WebKit12WebPageProxy17initializeWebPageEv
__ZN3WTF6VectorINS_6RefPtrIN6WebKit22WebBackForwardListItemEEELm0ENS_15CrashOnOverflowEEC2ERKS6_
__ZN6WebKit14PageClientImpl22createDrawingAreaProxyEv
-[WKView(Internal) _createDrawingAreaProxy]
__ZN6WebKit34TiledCoreAnimationDrawingAreaProxy6createEPNS_12WebPageProxyE
__ZN6WebKit16DrawingAreaProxyC2ENS_15DrawingAreaTypeEPNS_12WebPageProxyE
__ZNK6WebKit12WebPageProxy8viewSizeEv
__ZN6WebKit14PageClientImpl8viewSizeEv
__ZN3WTF9HashTableINSt3__14pairIN7CoreIPC15StringReferenceEyEENS_12KeyValuePairIS5_PNS3_15MessageReceiverEEENS_24KeyValuePairKeyExtractorIS9_EENS_8PairHashIS4_yEENS_18HashMapValueTraitsINS_10HashTraitsIS5_EENSF_IS8_EEEESG_E13allocateTableEi
__ZN3WTF9HashTableINSt3__14pairIN7CoreIPC15StringReferenceEyEENS_12KeyValuePairIS5_PNS3_15MessageReceiverEEENS_24KeyValuePairKeyExtractorIS9_EENS_8PairHashIS4_yEENS_18HashMapValueTraitsINS_10HashTraitsIS5_EENSF_IS8_EEEESG_E16lookupForWritingINS_22IdentityHashTranslatorISD_EES5_EENS2_IPS9_bEERKT0_
__ZN3WTF9HashTableINSt3__14pairIN7CoreIPC15StringReferenceEyEENS_12KeyValuePairIS5_PNS3_15MessageReceiverEEENS_24KeyValuePairKeyExtractorIS9_EENS_8PairHashIS4_yEENS_18HashMapValueTraitsINS_10HashTraitsIS5_EENSF_IS8_EEEESG_E3addINS_17HashMapTranslatorISI_SD_EES5_S8_EENS_18HashTableAddResultINS_17HashTableIteratorIS5_S9_SB_SD_SI_SG_EEEERKT0_RKT1_
__ZN3WTF9HashTableINSt3__14pairIN7CoreIPC15StringReferenceEyEENS_12KeyValuePairIS5_PNS3_15MessageReceiverEEENS_24KeyValuePairKeyExtractorIS9_EENS_8PairHashIS4_yEENS_18HashMapValueTraitsINS_10HashTraitsIS5_EENSF_IS8_EEEESG_E4findINS_22IdentityHashTranslatorISD_EES5_EENS_17HashTableIteratorIS5_S9_SB_SD_SI_SG_EERKT0_
__ZN3WTF9HashTableINSt3__14pairIN7CoreIPC15StringReferenceEyEENS_12KeyValuePairIS5_PNS3_15MessageReceiverEEENS_24KeyValuePairKeyExtractorIS9_EENS_8PairHashIS4_yEENS_18HashMapValueTraitsINS_10HashTraitsIS5_EENSF_IS8_EEEESG_E6expandEv
__ZN3WTF9HashTableINSt3__14pairIN7CoreIPC15StringReferenceEyEENS_12KeyValuePairIS5_PNS3_15MessageReceiverEEENS_24KeyValuePairKeyExtractorIS9_EENS_8PairHashIS4_yEENS_18HashMapValueTraitsINS_10HashTraitsIS5_EENSF_IS8_EEEESG_E6lookupINS_22IdentityHashTranslatorISD_EES5_EEPS9_RKT0_
__ZN3WTF9HashTableINSt3__14pairIN7CoreIPC15StringReferenceEyEENS_12KeyValuePairIS5_PNS3_15MessageReceiverEEENS_24KeyValuePairKeyExtractorIS9_EENS_8PairHashIS4_yEENS_18HashMapValueTraitsINS_10HashTraitsIS5_EENSF_IS8_EEEESG_E6rehashEi
__ZN3WTF9HashTableINSt3__14pairIN7CoreIPC15StringReferenceEyEENS_12KeyValuePairIS5_PNS3_15MessageReceiverEEENS_24KeyValuePairKeyExtractorIS9_EENS_8PairHashIS4_yEENS_18HashMapValueTraitsINS_10HashTraitsIS5_EENSF_IS8_EEEESG_E6removeEPS9_
__ZNK6WebKit12WebPageProxy18creationParametersEv
__ZN6WebKit12SessionStateC1Ev
__ZN6WebKit14PageClientImpl18isViewWindowActiveEv
__ZN6WebKit14PageClientImpl13isViewFocusedEv
-[WKView(Internal) _isFocused]
__ZNK3WTF9HashTableINS_6StringENS_12KeyValuePairIS1_jEENS_24KeyValuePairKeyExtractorIS3_EENS_10StringHashENS_18HashMapValueTraitsINS_10HashTraitsIS1_EENS8_IjEEEES9_E4findINS_22IdentityHashTranslatorIS6_EES1_EENS_22HashTableConstIteratorIS1_S3_S5_S6_SB_S9_EERKT0_
__ZNK3WTF9HashTableINS_6StringENS_12KeyValuePairIS1_jEENS_24KeyValuePairKeyExtractorIS3_EENS_10StringHashENS_18HashMapValueTraitsINS_10HashTraitsIS1_EENS8_IjEEEES9_E5beginEv
__ZNK3WTF9HashTableINS_6StringENS_12KeyValuePairIS1_dEENS_24KeyValuePairKeyExtractorIS3_EENS_10StringHashENS_18HashMapValueTraitsINS_10HashTraitsIS1_EENS8_IdEEEES9_E4findINS_22IdentityHashTranslatorIS6_EES1_EENS_22HashTableConstIteratorIS1_S3_S5_S6_SB_S9_EERKT0_
__ZNK3WTF9HashTableINS_6StringENS_12KeyValuePairIS1_dEENS_24KeyValuePairKeyExtractorIS3_EENS_10StringHashENS_18HashMapValueTraitsINS_10HashTraitsIS1_EENS8_IdEEEES9_E5beginEv
__ZNK3WTF9HashTableINS_6StringENS_12KeyValuePairIS1_fEENS_24KeyValuePairKeyExtractorIS3_EENS_10StringHashENS_18HashMapValueTraitsINS_10HashTraitsIS1_EENS8_IfEEEES9_E5beginEv
__ZN3WTF6VectorIN7WebCore14UserStyleSheetELm0ENS_15CrashOnOverflowEEaSERKS4_
__ZN3WTF6VectorIN7WebCore10UserScriptELm0ENS_15CrashOnOverflowEEaSERKS4_
__ZN6WebKit12SessionStateC1ERKN3WTF6VectorINS1_6RefPtrINS_22WebBackForwardListItemEEELm0ENS1_15CrashOnOverflowEEEj
__ZN3WTF6VectorINS_6RefPtrIN6WebKit22WebBackForwardListItemEEELm0ENS_15CrashOnOverflowEED2Ev
__ZN6WebKit22WebBackForwardListItem16highedUsedItemIDEv
__ZNK6WebKit11WebUIClient30canRunBeforeUnloadConfirmPanelEv
__ZN6WebKit14PageClientImpl10colorSpaceEv
-[WKView(Internal) _colorSpace]
__ZN3WTF9RetainPtrI12NSColorSpaceEaSEPS1_
__ZN3WTF9RetainPtrIP12CGColorSpaceEaSES2_
__ZN6WebKit17ChildProcessProxy4sendIN8Messages10WebProcess13CreateWebPageEEEbRKT_yj
__ZNK6WebKit25WebPageCreationParameters6encodeERN7CoreIPC15ArgumentEncoderE
__ZN7CoreIPC13ArgumentCoderIN7WebCore7IntSizeEE6encodeERNS_15ArgumentEncoderERKS2_
__ZNK6WebKit19WebPreferencesStore6encodeERN7CoreIPC15ArgumentEncoderE
__ZN7CoreIPC13ArgumentCoderIN3WTF7HashMapINS1_6StringES3_NS1_10StringHashENS1_10HashTraitsIS3_EES6_EEE6encodeERNS_15ArgumentEncoderERKS7_
__ZN7CoreIPC13ArgumentCoderIN3WTF7HashMapINS1_6StringEjNS1_10StringHashENS1_10HashTraitsIS3_EENS5_IjEEEEE6encodeERNS_15ArgumentEncoderERKS8_
__ZN7CoreIPC13ArgumentCoderIN3WTF7HashMapINS1_6StringEdNS1_10StringHashENS1_10HashTraitsIS3_EENS5_IdEEEEE6encodeERNS_15ArgumentEncoderERKS8_
__ZN7CoreIPC13ArgumentCoderIN3WTF7HashMapINS1_6StringEfNS1_10StringHashENS1_10HashTraitsIS3_EENS5_IfEEEEE6encodeERNS_15ArgumentEncoderERKS8_
__ZN7CoreIPC13ArgumentCoderIN7WebCore5ColorEE6encodeERNS_15ArgumentEncoderERKS2_
__ZNK6WebKit12SessionState6encodeERN7CoreIPC15ArgumentEncoderE
__ZN7CoreIPC19VectorArgumentCoderILb0EN3WTF6RefPtrIN6WebKit22WebBackForwardListItemEEEE6encodeERNS_15ArgumentEncoderERKNS1_6VectorIS5_Lm0ENS1_15CrashOnOverflowEEE
__ZN7CoreIPC15ArgumentEncoder6encodeEf
__ZNK6WebKit14ColorSpaceData6encodeERN7CoreIPC15ArgumentEncoderE
__ZN7CoreIPC6encodeERNS_15ArgumentEncoderEPK8__CFData
__ZN6WebKit25WebPageCreationParametersD2Ev
__ZN3WTF6VectorIN7WebCore10UserScriptELm0ENS_15CrashOnOverflowEED2Ev
__ZN3WTF6VectorIN7WebCore14UserStyleSheetELm0ENS_15CrashOnOverflowEED2Ev
__ZN6WebKit17ChildProcessProxy4sendIN8Messages7WebPage18SetVisibilityStateEEEbRKT_yj
__ZN6WebKit17ChildProcessProxy4sendIN8Messages7WebPage27SetSmartInsertDeleteEnabledEEEbRKT_yj
__ZN6WebKit12WebPageProxy17fullScreenManagerEv
__ZN6WebKit25WebFullScreenManagerProxy10setWebViewEP6WKView
-[WKView(Private) _registerDraggedTypes]
__ZN6WebKit15PasteboardTypes6forURLEv
-[WKView(Private) wantsUpdateLayer]
-[WKView isFlipped]
-[WKView(Private) pageRef]
_WKPageSetPageContextMenuClient
__ZN6WebKit12WebPageProxy27initializeContextMenuClientEPK23WKPageContextMenuClient
__ZN6WebKit9APIClientI23WKPageContextMenuClientLi3EE10initializeEPKS1_
_WKPageSetPageFindClient
__ZN6WebKit12WebPageProxy20initializeFindClientEPK16WKPageFindClient
__ZN6WebKit9APIClientI16WKPageFindClientLi0EE10initializeEPKS1_
_WKPageSetPageFormClient
__ZN6WebKit12WebPageProxy20initializeFormClientEPK16WKPageFormClient
__ZN6WebKit9APIClientI16WKPageFormClientLi0EE10initializeEPKS1_
_WKPageSetPageLoaderClient
__ZN6WebKit12WebPageProxy22initializeLoaderClientEPK18WKPageLoaderClient
__ZN6WebKit9APIClientI18WKPageLoaderClientLi3EE10initializeEPKS1_
__ZN6WebKit17ChildProcessProxy4sendIN8Messages7WebPage25ListenForLayoutMilestonesEEEbRKT_yj
__ZN6WebKit17ChildProcessProxy4sendIN8Messages7WebPage41SetWillGoToBackForwardItemCallbackEnabledEEEbRKT_yj
_WKPageSetPagePolicyClient
__ZN6WebKit12WebPageProxy22initializePolicyClientEPK18WKPagePolicyClient
__ZN6WebKit9APIClientI18WKPagePolicyClientLi0EE10initializeEPKS1_
_WKPageSetPageUIClient
__ZN6WebKit12WebPageProxy18initializeUIClientEPK14WKPageUIClient
__ZN6WebKit9APIClientI14WKPageUIClientLi2EE10initializeEPKS1_
__ZN6WebKit17ChildProcessProxy4sendIN8Messages7WebPage33SetCanRunBeforeUnloadConfirmPanelEEEbRKT_yj
__ZNK6WebKit11WebUIClient11canRunModalEv
__ZN6WebKit12WebPageProxy14setCanRunModalEb
__ZN6WebKit17ChildProcessProxy4sendIN8Messages7WebPage14SetCanRunModalEEEbRKT_yj
_WKPageSetApplicationNameForUserAgent
__ZN6WebKit12WebPageProxy30setApplicationNameForUserAgentERKN3WTF6StringE
__ZN6WebKit12WebPageProxy12setUserAgentERKN3WTF6StringE
__ZN6WebKit17ChildProcessProxy4sendIN8Messages7WebPage12SetUserAgentEEEbRKT_yj
_WKPageGetMainFrame
_WKPageCopyTitle
__ZNK6WebKit12WebPageProxy9pageTitleEv
_WKURLCreateWithUTF8CString
_WKIconDatabaseRetainIconForURL
__ZN6WebKit15WebIconDatabase20retainIconForPageURLERKN3WTF6StringE
__ZN6WebKit6WebURLD0Ev
_WKIconDatabaseTryGetCGImageForURL
__ZN6WebKit15WebIconDatabase15imageForPageURLERKN3WTF6StringERKN7WebCore7IntSizeE
_WKGetGlyphTransformedAdvances
_WKURLCreateWithCFURL
_WKUInt64Create
_WKContextPostMessageToInjectedBundle
__ZN6WebKit10WebContext27postMessageToInjectedBundleERKN3WTF6StringEPNS_9APIObjectE
__ZN7CoreIPC15ArgumentEncoder6createEv
__ZNK6WebKit14TypedAPIObjectILNS_9APIObject4TypeE1EE4typeEv
__ZNK6WebKit14TypedAPIObjectILNS_9APIObject4TypeE19EE4typeEv
__ZNK6WebKit14TypedAPIObjectILNS_9APIObject4TypeE27EE4typeEv
__ZN6WebKit17ChildProcessProxy4sendIN8Messages10WebProcess25PostInjectedBundleMessageEEEbRKT_yj
__ZN7CoreIPC15ArgumentEncoderD0Ev
__ZN7CoreIPC15ArgumentEncoderD2Ev
__ZN6WebKit9WebNumberIyLNS_9APIObject4TypeE27EED0Ev
_WKArrayGetSize
_WKArrayGetItemAtIndex
_WKSecurityOriginCreate
__ZN6WebKit17WebSecurityOrigin6createERKN3WTF6StringES4_i
__ZN6WebKit17WebSecurityOrigin6createEN3WTF10PassRefPtrIN7WebCore14SecurityOriginEEE
_WKNotificationManagerProviderDidUpdateNotificationPolicy
__ZN6WebKit27WebNotificationManagerProxy35providerDidUpdateNotificationPolicyEPKNS_17WebSecurityOriginEb
__ZN6WebKit17ChildProcessProxy4sendIN8Messages22WebNotificationManager29DidUpdateNotificationDecisionEEEbRKT_yj
__ZN6WebKit17WebSecurityOriginD0Ev
__ZN3WTF20ThreadSafeRefCountedIN7WebCore14SecurityOriginEE5derefEv
__ZN7WebCore14SecurityOriginD2Ev
-[WKView(Private) fullScreenPlaceholderView]
_WKPageGetScaleFactor
-[WKView setFrameSize:]
-[WKView(Private) frameSizeUpdatesDisabled]
-[WKView renewGState]
__ZN3WTF6OwnPtrIN6WebKit19FindIndicatorWindowEE5clearEv
-[WKView _setDrawingAreaSize:]
__ZN6WebKit16DrawingAreaProxy7setSizeERKN7WebCore7IntSizeES4_S4_
__ZN6WebKit34TiledCoreAnimationDrawingAreaProxy13sizeDidChangeEv
__ZNK6WebKit12WebPageProxy7isValidEv
__ZN6WebKit34TiledCoreAnimationDrawingAreaProxy18sendUpdateGeometryEv
__ZN6WebKit17ChildProcessProxy4sendIN8Messages11DrawingArea14UpdateGeometryEEEbRKT_yj
-[WKView viewWillMoveToWindow:]
__ZN6WebKit14PageClientImpl27viewWillMoveToAnotherWindowEv
-[WKView removeWindowObservers]
-[WKView addWindowObserversForWindow:]
-[WKView viewDidMoveToWindow]
-[WKView _setIsWindowOccluded:]
__ZN6WebKit12WebPageProxy18viewStateDidChangeEj
__ZN6WebKit12WebPageProxy34updateBackingStoreDiscardableStateEv
__ZN6WebKit16DrawingAreaProxy28setBackingStoreIsDiscardableEb
-[WKView doWindowDidChangeScreen]
__ZN6WebKit12WebPageProxy21windowScreenDidChangeEj
__ZN6WebKit17ChildProcessProxy4sendIN8Messages7WebPage21WindowScreenDidChangeEEEbRKT_yj
-[WKView _updateWindowVisibility]
__ZN6WebKit12WebPageProxy21updateWindowIsVisibleEb
__ZN6WebKit17ChildProcessProxy4sendIN8Messages7WebPage18SetWindowIsVisibleEEEbRKT_yj
__ZN6WebKit17ChildProcessProxy4sendIN8Messages7WebPage9SetActiveEEEbRKT_yj
-[WKView(Private) isDeferringViewInWindowChanges]
__ZN6WebKit17ChildProcessProxy4sendIN8Messages7WebPage13SetIsInWindowEEEbRKT_yj
__ZN6WebKit14PageClientImpl20viewLayerHostingModeEv
-[WKView _updateWindowAndViewFrames]
___copy_helper_block_406
-[WKView _accessibilityRegisterUIProcessTokens]
_WKAXRemoteTokenForElement
__ZN6WebKit12WebPageProxy36registerUIProcessAccessibilityTokensERKN7CoreIPC13DataReferenceES4_
__ZN6WebKit17ChildProcessProxy4sendIN8Messages7WebPage36RegisterUIProcessAccessibilityTokensEEEbRKT_yj
-[WKView viewDidChangeBackingProperties]
_WKPageCopyPendingAPIRequestURL
_WKPagePostMessageToInjectedBundle
__ZN6WebKit12WebPageProxy27postMessageToInjectedBundleERKN3WTF6StringEPNS_9APIObjectE
__ZN6WebKit17ChildProcessProxy4sendIN8Messages7WebPage25PostInjectedBundleMessageEEEbRKT_yj
-[WKView _windowDidResize:]
_WKCachePartitionKey
_init_kCFURLCachePartitionKey
_CFNetworkLibrary
_WKCFURLRequestAllowAllPostCaching
-[WKView mouseDownCanMoveWindow]
_WKURLRequestCreateWithWKURL
__ZN6WebKit13WebURLRequest6createERKN7WebCore4KURLE
__ZN7WebCore19ResourceRequestBaseC2ERKNS_4KURLENS_26ResourceRequestCachePolicyE
__ZN7WebCore15ResourceRequestC2ERKS0_
__ZNK3WTF9HashTableINS_12AtomicStringENS_12KeyValuePairIS1_NS_6StringEEENS_24KeyValuePairKeyExtractorIS4_EENS_15CaseFoldingHashENS_18HashMapValueTraitsINS_10HashTraitsIS1_EENS9_IS3_EEEESA_E5beginEv
__ZN3WTF6VectorINS_6StringELm0ENS_15CrashOnOverflowEEC2ERKS3_
__ZN7WebCore19ResourceRequestBaseD2Ev
_WKURLRequestCopyNSURLRequest
__ZNK6WebKit13WebURLRequest15platformRequestEv
_WKPageGetProcessIdentifier
__ZNK6WebKit12WebPageProxy17processIdentifierEv
_WKPageLoadURLRequest
__ZN6WebKit12WebPageProxy14loadURLRequestEPNS_13WebURLRequestEPNS_9APIObjectE
__ZN6WebKit12WebPageProxy37maybeInitializeSandboxExtensionHandleERKN7WebCore4KURLERNS_16SandboxExtension6HandleE
__ZN6WebKit17ChildProcessProxy4sendIN8Messages7WebPage14LoadURLRequestEEEbRKT_yj
__ZN7CoreIPC13ArgumentCoderIN7WebCore15ResourceRequestEE6encodeERNS_15ArgumentEncoderERKS2_
__ZN7CoreIPC13ArgumentCoderIN7WebCore15ResourceRequestEE18encodePlatformDataERNS_15ArgumentEncoderERKS2_
__ZN3WTF9RetainPtrI12NSURLRequestEC2EPS1_
__ZN7CoreIPC16tokenNullTypeRefEv
_WKNSURLRequestCreateSerializableRepresentation
_createSerializableRepresentation
__ZN7CoreIPC6encodeERNS_15ArgumentEncoderEPK14__CFDictionary
__ZN7CoreIPCL17typeFromCFTypeRefEPKv
__ZN7CoreIPC6encodeERNS_15ArgumentEncoderEPK10__CFString
__ZN3WTF6VectorIhLm128ENS_15CrashOnOverflowEED1Ev
__ZN7CoreIPC6encodeERNS_15ArgumentEncoderEPKv
__ZN7CoreIPC6encodeERNS_15ArgumentEncoderEPK10__CFNumber
__ZN3WTF16VectorBufferBaseIhE14allocateBufferEm
__ZN3WTF6VectorIhLm0ENS_15CrashOnOverflowEED1Ev
__ZN3WTF6VectorIPKvLm32ENS_15CrashOnOverflowEED1Ev
__ZN7CoreIPC6encodeERNS_15ArgumentEncoderEPK9__CFArray
__ZN7CoreIPC6encodeERNS_15ArgumentEncoderEPK7__CFURL
__ZN3WTF6VectorIcLm512ENS_15CrashOnOverflowEED1Ev
__ZN6WebKit19ResponsivenessTimer5startEv
__ZN6WebKit6WebURLC2ERKN3WTF6StringE
_WKURLCopyCFURL
_WKPageGetEstimatedProgress
__ZNK6WebKit12WebPageProxy17estimatedProgressEv
__ZN6WebKit13WebURLRequestD0Ev
_WKPageCanGoBack
__ZNK6WebKit12WebPageProxy9canGoBackEv
__ZN6WebKit18WebBackForwardList8backItemEv
_WKPageCanGoForward
__ZNK6WebKit12WebPageProxy12canGoForwardEv
__ZN6WebKit18WebBackForwardList11forwardItemEv
_WKSetCGFontRenderingMode
-[WKView(Private) updateLayer]
-[WKView drawsBackground]
-[WKView drawsTransparentBackground]
__ZN6WebKit34TiledCoreAnimationDrawingAreaProxy29waitForPossibleGeometryUpdateEd
-[WKView _windowDidOrderOnScreen:]
-[WKView(Internal) _isWindowOccluded]
_WKIconDatabaseEnableDatabaseCleanup
__ZN6WebKit15WebIconDatabase21enableDatabaseCleanupEv
_WKContextGetProcessSuppressionEnabled
__ZN6WebKitL37applicationWindowModificationsStartedEjPvjS0_j
__ZN6WebKitL24applicationBecameVisibleEjPvjS0_j
-[WKView _windowDidChangeOcclusionState:]
__ZN6WebKit15WebProcessProxy21pageVisibilityChangedEPNS_12WebPageProxyE
__ZN3WTF7HashSetIyNS_7IntHashIyEENS_10HashTraitsIyEEE6removeERKy
__ZNK3WTF9HashTableIyyNS_17IdentityExtractorENS_7IntHashIyEENS_10HashTraitsIyEES5_E4findINS_22IdentityHashTranslatorIS3_EEyEENS_22HashTableConstIteratorIyyS1_S3_S5_S5_EERKT0_
__ZN3WTF9HashTableIyyNS_17IdentityExtractorENS_7IntHashIyEENS_10HashTraitsIyEES5_E6lookupINS_22IdentityHashTranslatorIS3_EEyEEPyRKT0_
__ZN3WTF9HashTableIyyNS_17IdentityExtractorENS_7IntHashIyEENS_10HashTraitsIyEES5_E6removeEPy
__ZN6WebKit34TiledCoreAnimationDrawingAreaProxy19visibilityDidChangeEv
__ZN6WebKit17ChildProcessProxy4sendIN8Messages11DrawingArea14ResumePaintingEEEbRKT_yj
__ZThn16_N6WebKit15WebIconDatabase18didFinishURLImportEv
__ZN6WebKit15WebIconDatabase18didFinishURLImportEv
__ZThn16_N6WebKit15WebIconDatabase27didImportIconDataForPageURLERKN3WTF6StringE
__ZN6WebKit15WebIconDatabase29notifyIconDataReadyForPageURLERKN3WTF6StringE
__ZN6WebKit21WebIconDatabaseClient23iconDataReadyForPageURLEPNS_15WebIconDatabaseEPNS_6WebURLE
__ZN6WebKit15WebIconDatabase23didChangeIconForPageURLERKN3WTF6StringE
__ZN6WebKit21WebIconDatabaseClient23didChangeIconForPageURLEPNS_15WebIconDatabaseEPNS_6WebURLE
_WKIconDatabaseTryCopyCGImageArrayForURL
_WKGetCFURLResponseMIMEType
_WKCreateMemoryStatusPressureCriticalDispatchOnMainQueue
___36-[WKView _updateWindowAndViewFrames]_block_invoke
__ZN6WebKit12WebPageProxy26windowAndViewFramesChangedERKN7WebCore9FloatRectERKNS1_10FloatPointE
__ZN6WebKit11WebUIClient11windowFrameEPNS_12WebPageProxyE
__ZN6WebKit14PageClientImpl18convertToUserSpaceERKN7WebCore9FloatRectE
-[WKView(Internal) _convertToUserSpace:]
__ZN6WebKit17ChildProcessProxy4sendIN8Messages7WebPage26WindowAndViewFramesChangedEEEbRKT_yj
__ZNK7CoreIPC10Arguments4IRKN7WebCore9FloatRectES4_S4_RKNS1_10FloatPointEE6encodeERNS_15ArgumentEncoderE
__ZN7CoreIPC13ArgumentCoderIN7WebCore9FloatRectEE6encodeERNS_15ArgumentEncoderERKS2_
__ZN7CoreIPC13ArgumentCoderIN7WebCore10FloatPointEE6encodeERNS_15ArgumentEncoderERKS2_
__kCFURLCachePartitionKeyFunction
_WKCopyRequestWithStorageSession
_WKQTIncludeOnlyModernMediaFileTypes
_WKGetMIMETypeForExtension
_WKPageGetInspector
__ZN6WebKit12WebPageProxy9inspectorEv
_WKInspectorClose
__ZN6WebKit17WebInspectorProxy5closeEv
__ZN6WebKit17ChildProcessProxy4sendIN8Messages12WebInspector5CloseEEEbRKT_yj
__ZN6WebKit17WebInspectorProxy8didCloseEv
-[WKView viewDidHide]
_WKCGContextGetShouldSmoothFonts
_WKSetNSURLRequestShouldContentSniff
_WKHTTPCookiesForURL
_WKGetUserToBaseCTM
_WKCGContextDrawsWithCorrectShadowOffsets
__ZN7WebCore7RunLoop5TimerIN6WebKit19ResponsivenessTimerEE5firedEv
__ZN6WebKit19ResponsivenessTimer10timerFiredEv
__ZThn104_N6WebKit15WebProcessProxy21didBecomeUnresponsiveEPNS_19ResponsivenessTimerE
__ZN6WebKit15WebProcessProxy21didBecomeUnresponsiveEPNS_19ResponsivenessTimerE
__ZN3WTF6VectorINS_6RefPtrIN6WebKit12WebPageProxyEEELm0ENS_15CrashOnOverflowEE6resizeEm
__ZN3WTF6VectorINS_6RefPtrIN6WebKit12WebPageProxyEEELm0ENS_15CrashOnOverflowEE15reserveCapacityEm
__ZN3WTF16VectorBufferBaseINS_6RefPtrIN6WebKit12WebPageProxyEEEE14allocateBufferEm
__ZN3WTF6RefPtrIN6WebKit12WebPageProxyEEaSEPS2_
__ZN6WebKit12WebPageProxy28processDidBecomeUnresponsiveEv
__ZN6WebKit15WebLoaderClient28processDidBecomeUnresponsiveEPNS_12WebPageProxyE
__ZN3WTF6VectorINS_6RefPtrIN6WebKit12WebPageProxyEEELm0ENS_15CrashOnOverflowEED2Ev
__ZN3WTF16VectorDestructorILb1ENS_6RefPtrIN6WebKit12WebPageProxyEEEE8destructEPS4_S6_
-[WKView(Private) initWithFrame:contextRef:pageGroupRef:]
__ZN6WebKit10WebContext22ensureSharedWebProcessEv
__ZNK6WebKit10WebContext31platformDefaultIconDatabasePathEv
__ZN6WebKit19ImmutableDictionaryC1Ev
__ZN6WebKit14ImmutableArrayC1Ev
__ZN6WebKit19ImmutableDictionaryD0Ev
__ZN3WTF6VectorINS_6StringELm0ENS_15CrashOnOverflowEE14appendSlowCaseIP8NSStringEEvRKT_
__ZN3WTF6VectorINSt3__14pairINS_6StringENS_6RefPtrIN6WebKit9APIObjectEEEEELm0ENS_15CrashOnOverflowEE14shrinkCapacityEm
__ZN3WTF6RefPtrIN6WebKit15WebProcessProxyEEaSEPS2_
-[WKView _shouldUseTiledDrawingArea]
__ZN6WebKit20DrawingAreaProxyImpl6createEPNS_12WebPageProxyE
__ZN6WebKit20DrawingAreaProxyImplC2EPNS_12WebPageProxyE
__ZN6WebKit16LayerTreeContextC1Ev
_WKPreferencesCreateCopy
__ZN6WebKit14WebPreferencesC1ERKS0_
__ZN6WebKit14WebPreferencesC2ERKS0_
_WKPreferencesSetPageVisibilityBasedProcessSuppressionEnabled
__ZN6WebKit14WebPreferences47setPageVisibilityBasedProcessSuppressionEnabledERKb
__ZN6WebKit14WebPreferences15removePageGroupEPNS_12WebPageGroupE
__ZNK3WTF9HashTableIPN6WebKit12WebPageGroupES3_NS_17IdentityExtractorENS_7PtrHashIS3_EENS_10HashTraitsIS3_EES8_E4findINS_22IdentityHashTranslatorIS6_EES3_EENS_22HashTableConstIteratorIS3_S3_S4_S6_S8_S8_EERKT0_
__ZN3WTF9HashTableIPN6WebKit12WebPageGroupES3_NS_17IdentityExtractorENS_7PtrHashIS3_EENS_10HashTraitsIS3_EES8_E6lookupINS_22IdentityHashTranslatorIS6_EES3_EEPS3_RKT0_
__ZN3WTF9HashTableIPN6WebKit12WebPageGroupES3_NS_17IdentityExtractorENS_7PtrHashIS3_EENS_10HashTraitsIS3_EES8_E6removeEPS3_
__ZN6WebKit14WebPreferencesD0Ev
__ZN6WebKit14WebPreferencesD2Ev
__ZN6WebKit12WebPageProxy20preferencesDidChangeEv
__ZN6WebKit15WebProcessProxy22pagePreferencesChangedEPNS_12WebPageProxyE
__ZN6WebKit14PageClientImpl20preferencesDidChangeEv
-[WKView(Internal) _preferencesDidChange]
__ZN6WebKit17ChildProcessProxy4sendIN8Messages7WebPage20PreferencesDidChangeEEEbRKT_yj
_WKPageSetMediaVolume
__ZN6WebKit12WebPageProxy14setMediaVolumeEf
__ZN6WebKit17ChildProcessProxy4sendIN8Messages7WebPage14SetMediaVolumeEEEbRKT_yj
_WKPageSetCustomBackingScaleFactor
__ZN6WebKit12WebPageProxy26setCustomDeviceScaleFactorEf
_WKPageLoadURL
__ZN6WebKit12WebPageProxy7loadURLERKN3WTF6StringEPNS_9APIObjectE
__ZN6WebKit17ChildProcessProxy4sendIN8Messages7WebPage7LoadURLEEEbRKT_yj
_WebContentServiceInitializer
__ZN6WebKit20EnvironmentUtilities27stripValuesEndingWithStringEPKcS2_
__ZN3WTF6VectorIcLm0ENS_15CrashOnOverflowEE4growEm
__ZN3WTF6VectorIcLm0ENS_15CrashOnOverflowEE15reserveCapacityEm
__ZN3WTF16VectorBufferBaseIcE14allocateBufferEm
__ZN6WebKit21XPCServiceInitializerINS_10WebProcessENS_29XPCServiceInitializerDelegateEEEvP17_xpc_connection_sPv
__ZN6WebKit17InitializeWebKit2Ev
__ZN6WebKit29XPCServiceInitializerDelegate23getConnectionIdentifierERN7CoreIPC10Connection10IdentifierE
__ZN6WebKit29XPCServiceInitializerDelegate19getClientIdentifierERN3WTF6StringE
__ZN6WebKit29XPCServiceInitializerDelegate20getClientProcessNameERN3WTF6StringE
__ZN6WebKit29XPCServiceInitializerDelegate26getExtraInitializationDataERN3WTF7HashMapINS1_6StringES3_NS1_10StringHashENS1_10HashTraitsIS3_EES6_EE
__ZN6WebKit10WebProcess6sharedEv
__ZN6WebKit10WebProcessC2Ev
__ZN6WebKit12ChildProcessC2Ev
__ZN6WebKit15EventDispatcher6createEv
__ZN6WebKit20WebIconDatabaseProxyC1EPNS_10WebProcessE
__ZN6WebKit12ChildProcess18addMessageReceiverEN7CoreIPC15StringReferenceEPNS1_15MessageReceiverE
__ZN6WebKit24WebResourceLoadSchedulerC1Ev
__ZN6WebKit24WebResourceLoadSchedulerC2Ev
_WKInitializeMaximumHTTPConnectionCountPerHost
__ZN6WebKit30PluginProcessConnectionManager6createEv
__ZN6WebKit21WebPlatformStrategies10initializeEv
__ZN6WebKit10WebProcess13addSupplementINS_21WebGeolocationManagerEEEvv
__ZN6WebKit21WebGeolocationManager14supplementNameEv
__ZN6WebKit21WebGeolocationManagerC1EPNS_10WebProcessE
__ZN6WebKit10WebProcess13addSupplementINS_26WebApplicationCacheManagerEEEvv
__ZN6WebKit26WebApplicationCacheManager14supplementNameEv
__ZN6WebKit26WebApplicationCacheManagerC1EPNS_12ChildProcessE
__ZN6WebKit10WebProcess13addSupplementINS_23WebResourceCacheManagerEEEvv
__ZN6WebKit23WebResourceCacheManager14supplementNameEv
__ZN6WebKit23WebResourceCacheManagerC1EPNS_10WebProcessE
__ZN6WebKit10WebProcess13addSupplementINS_16WebCookieManagerEEEvv
__ZN6WebKit16WebCookieManager14supplementNameEv
__ZN6WebKit16WebCookieManagerC1EPNS_12ChildProcessE
__ZN3WTF9HashTableIPKcNS_12KeyValuePairIS2_NS_6OwnPtrIN6WebKit20WebProcessSupplementEEEEENS_24KeyValuePairKeyExtractorIS8_EENS_7PtrHashIS2_EENS_18HashMapValueTraitsINS_10HashTraitsIS2_EENSE_IS7_EEEESF_E15deallocateTableEPS8_i
__ZN3WTF9HashTableIPKcNS_12KeyValuePairIS2_NS_6OwnPtrIN6WebKit20WebProcessSupplementEEEEENS_24KeyValuePairKeyExtractorIS8_EENS_7PtrHashIS2_EENS_18HashMapValueTraitsINS_10HashTraitsIS2_EENSE_IS7_EEEESF_E16lookupForWritingINS_22IdentityHashTranslatorISC_EES2_EENSt3__14pairIPS8_bEERKT0_
__ZN3WTF9HashTableIPKcNS_12KeyValuePairIS2_NS_6OwnPtrIN6WebKit20WebProcessSupplementEEEEENS_24KeyValuePairKeyExtractorIS8_EENS_7PtrHashIS2_EENS_18HashMapValueTraitsINS_10HashTraitsIS2_EENSE_IS7_EEEESF_E3addINS_17HashMapTranslatorISH_SC_EES2_NS_10PassOwnPtrIS6_EEEENS_18HashTableAddResultINS_17HashTableIteratorIS2_S8_SA_SC_SH_SF_EEEERKT0_RKT1_
__ZN3WTF9HashTableIPKcNS_12KeyValuePairIS2_NS_6OwnPtrIN6WebKit20WebProcessSupplementEEEEENS_24KeyValuePairKeyExtractorIS8_EENS_7PtrHashIS2_EENS_18HashMapValueTraitsINS_10HashTraitsIS2_EENSE_IS7_EEEESF_E4findINS_22IdentityHashTranslatorISC_EES2_EENS_17HashTableIteratorIS2_S8_SA_SC_SH_SF_EERKT0_
__ZN3WTF9HashTableIPKcNS_12KeyValuePairIS2_NS_6OwnPtrIN6WebKit20WebProcessSupplementEEEEENS_24KeyValuePairKeyExtractorIS8_EENS_7PtrHashIS2_EENS_18HashMapValueTraitsINS_10HashTraitsIS2_EENSE_IS7_EEEESF_E5beginEv
__ZN3WTF9HashTableIPKcNS_12KeyValuePairIS2_NS_6OwnPtrIN6WebKit20WebProcessSupplementEEEEENS_24KeyValuePairKeyExtractorIS8_EENS_7PtrHashIS2_EENS_18HashMapValueTraitsINS_10HashTraitsIS2_EENSE_IS7_EEEESF_E6expandEv
__ZN3WTF9HashTableIPKcNS_12KeyValuePairIS2_NS_6OwnPtrIN6WebKit20WebProcessSupplementEEEEENS_24KeyValuePairKeyExtractorIS8_EENS_7PtrHashIS2_EENS_18HashMapValueTraitsINS_10HashTraitsIS2_EENSE_IS7_EEEESF_E6lookupINS_22IdentityHashTranslatorISC_EES2_EEPS8_RKT0_
__ZN3WTF9HashTableIPKcNS_12KeyValuePairIS2_NS_6OwnPtrIN6WebKit20WebProcessSupplementEEEEENS_24KeyValuePairKeyExtractorIS8_EENS_7PtrHashIS2_EENS_18HashMapValueTraitsINS_10HashTraitsIS2_EENSE_IS7_EEEESF_E6rehashEi
__ZN6WebKit10WebProcess13addSupplementINS_20WebMediaCacheManagerEEEvv
__ZN6WebKit20WebMediaCacheManager14supplementNameEv
__ZN6WebKit20WebMediaCacheManagerC1EPNS_10WebProcessE
__ZN6WebKit10WebProcess13addSupplementINS_21AuthenticationManagerEEEvv
__ZN6WebKit21AuthenticationManager14supplementNameEv
__ZN6WebKit21AuthenticationManagerC1EPNS_12ChildProcessE
__ZN6WebKit10WebProcess13addSupplementINS_18WebDatabaseManagerEEEvv
__ZN6WebKit18WebDatabaseManager14supplementNameEv
__ZN6WebKit18WebDatabaseManagerC1EPNS_10WebProcessE
__ZN6WebKit10WebProcess13addSupplementINS_22WebNotificationManagerEEEvv
__ZN6WebKit22WebNotificationManager14supplementNameEv
__ZN6WebKit22WebNotificationManagerC1EPNS_10WebProcessE
__ZN6WebKit10WebProcess13addSupplementINS_21CustomProtocolManagerEEEvv
__ZN6WebKit21CustomProtocolManager14supplementNameEv
__ZN6WebKit21CustomProtocolManagerC1EPNS_12ChildProcessE
__ZN6WebKit21CustomProtocolManagerC2EPNS_12ChildProcessE
__ZN6WebKit12ChildProcess10initializeERKNS_36ChildProcessInitializationParametersE
__ZN6WebKit12ChildProcess18platformInitializeEv
__ZN6WebKit12ChildProcess36setProcessSuppressionEnabledInternalEb
__ZN3WTF9RetainPtrIP11objc_objectEaSI11objc_objectEERS3_PT_
__ZN6WebKit10WebProcess17initializeProcessERKNS_36ChildProcessInitializationParametersE
__ZN6WebKit10WebProcess25platformInitializeProcessERKNS_36ChildProcessInitializationParametersE
_WKAXRegisterRemoteApp
__ZN6WebKit11SecItemShim6sharedEv
____ZN6WebKit11SecItemShim6sharedEv_block_invoke
__ZN6WebKit11SecItemShim10initializeEPNS_12ChildProcessE
__ZN6WebKit10WebProcess21initializeProcessNameERKNS_36ChildProcessInitializationParametersE
_WKSetVisibleApplicationName
__ZN6WebKit31SandboxInitializationParametersC1Ev
__ZN6WebKit10WebProcess17initializeSandboxERKNS_36ChildProcessInitializationParametersERNS_31SandboxInitializationParametersE
__ZN6WebKit12ChildProcess17initializeSandboxERKNS_36ChildProcessInitializationParametersERNS_31SandboxInitializationParametersE
__ZN3WTFplIPKcEENS_12StringAppendINS_6StringET_EERKS4_S5_
__ZN3WTFplINS_6StringEPKcS1_EENS_12StringAppendINS4_IT_T0_EET1_EERKS7_S8_
__ZNK3WTF12StringAppendINS0_INS_6StringEPKcEES1_EcvS1_Ev
__ZN3WTF13tryMakeStringINS_12StringAppendINS_6StringEPKcEES2_EENS_10PassRefPtrINS_10StringImplEEET_T0_
__ZN3WTF12StringAppendINS_6StringEPKcE7writeToEPh
__ZN6WebKit31SandboxInitializationParameters12addParameterEPKcS2_
__ZN3WTF6VectorIPKcLm0ENS_15CrashOnOverflowEE14appendSlowCaseIS2_EEvRKT_
__ZN3WTF6VectorIPKcLm0ENS_15CrashOnOverflowEE14expandCapacityEmPKS2_
__ZN3WTF6VectorIPKcLm0ENS_15CrashOnOverflowEE15reserveCapacityEm
__ZN3WTF16VectorBufferBaseIPKcE14allocateBufferEm
__ZN6WebKit31SandboxInitializationParameters16addPathParameterEPKcP8NSString
__ZN6WebKit31SandboxInitializationParameters18appendPathInternalEPKcS2_
__ZN6WebKit31SandboxInitializationParameters25addConfDirectoryParameterEPKci
__ZN6WebKit31SandboxInitializationParameters16addPathParameterEPKcS2_
__ZN6WebKit15ProcessLauncher25didFinishLaunchingProcessEiN7CoreIPC10Connection10IdentifierE
__ZN6WebKit15WebProcessProxy18didFinishLaunchingEPNS_15ProcessLauncherEN7CoreIPC10Connection10IdentifierE
__ZNK6WebKit31SandboxInitializationParameters19namedParameterArrayEv
__ZN6WebKit17ChildProcessProxy18didFinishLaunchingEPNS_15ProcessLauncherEN7CoreIPC10Connection10IdentifierE
__ZN7CoreIPC10Connection22createServerConnectionENS0_10IdentifierEPNS0_6ClientEPN7WebCore7RunLoopE
__ZN7CoreIPC10ConnectionC2ENS0_10IdentifierEbPNS0_6ClientEPN7WebCore7RunLoopE
__ZN7CoreIPC10Connection16SyncMessageState11getOrCreateEPN7WebCore7RunLoopE
__ZN7CoreIPC10Connection16SyncMessageState24syncMessageStateMapMutexEv
__ZN7CoreIPC10Connection16SyncMessageState19syncMessageStateMapEv
__ZN7CoreIPC10Connection18platformInitializeENS0_10IdentifierE
__ZN7CoreIPC10Connection40setShouldCloseConnectionOnMachExceptionsEv
__ZN6WebKit15WebProcessProxy18connectionWillOpenEPN7CoreIPC10ConnectionE
__ZN6WebKit16SecItemShimProxy6sharedEv
____ZN6WebKit16SecItemShimProxy6sharedEv_block_invoke
__ZN6WebKit16SecItemShimProxy20initializeConnectionEPN7CoreIPC10ConnectionE
__ZN7CoreIPC10Connection27addWorkQueueMessageReceiverENS_15StringReferenceEP9WorkQueuePNS0_24WorkQueueMessageReceiverE
__ZN6WebKit12WebPageProxy18connectionWillOpenEPN7CoreIPC10ConnectionE
__ZN7CoreIPC10Connection48addWorkQueueMessageReceiverOnConnectionWorkQueueENS_15StringReferenceEP9WorkQueuePNS0_24WorkQueueMessageReceiverE
__ZN6WebKit14StorageManager43setAllowedSessionStorageNamespaceConnectionEyPN7CoreIPC10ConnectionE
__ZN3WTF6RefPtrI9WorkQueueEaSERKS2_
__ZN3WTF4bindIMN6WebKit14StorageManagerEFvyPN7CoreIPC10ConnectionEEPS2_yNS_6RefPtrIS4_EEEENS_8FunctionIFNS_15FunctionWrapperIT_E10ResultTypeEvEEESD_RKT0_RKT1_RKT2_
__ZN3WTF6RefPtrIN7CoreIPC10Connection24WorkQueueMessageReceiverEEaSERKS4_
__ZN3WTF20ThreadSafeRefCountedIN7CoreIPC10ConnectionEE5derefEv
__ZN6WebKit14StorageManager51setAllowedSessionStorageNamespaceConnectionInternalEyPN7CoreIPC10ConnectionE
__ZN6WebKit10WebContext25processWillOpenConnectionEPNS_15WebProcessProxyE
__ZN6WebKit14StorageManager25processWillOpenConnectionEPNS_15WebProcessProxyE
__ZN7CoreIPC10Connection4openEv
__Z22setMachPortQueueLengthjj
__ZN7CoreIPCL25createDataAvailableSourceEjP9WorkQueueRKN3WTF8FunctionIFvvEEE
__ZNK3WTF8FunctionIFvvEEcvU13block_pointerS1_Ev
__ZN7CoreIPC10Connection11sendMessageEN3WTF10PassOwnPtrINS_14MessageEncoderEEEj
__ZN3WTF5DequeINS_6OwnPtrIN7CoreIPC14MessageEncoderEEELm0EE22expandCapacityIfNeededEv
__ZN3WTF5DequeINS_6OwnPtrIN7CoreIPC14MessageEncoderEEELm0EE14expandCapacityEv
__ZN3WTF16VectorBufferBaseINS_6OwnPtrIN7CoreIPC14MessageEncoderEEEE14allocateBufferEm
__ZN3WTF17BoundFunctionImplINS_15FunctionWrapperIMN7CoreIPC10ConnectionEFvvEEEFvPS3_EEclEv
__ZN7CoreIPC10Connection20sendOutgoingMessagesEv
__ZN3WTF17BoundFunctionImplINS_15FunctionWrapperIMN7CoreIPC10ConnectionEFvvEEEFvPS3_EED0Ev
____ZN7CoreIPC10Connection4openEv_block_invoke
__ZN3WTF6VectorINSt3__14pairINS_6OwnPtrIN7CoreIPC14MessageEncoderEEEjEELm0ENS_15CrashOnOverflowEE14shrinkCapacityEm
__ZN3WTF6VectorINSt3__14pairINS_6OwnPtrIN7CoreIPC14MessageEncoderEEEjEELm0ENS_15CrashOnOverflowEE6shrinkEm
__ZN6WebKit25WebConnectionToWebProcess6createEPNS_15WebProcessProxyE
__ZN6WebKit13WebConnectionC2Ev
__ZN6WebKit10WebContext25processDidFinishLaunchingEPNS_15WebProcessProxyE
__ZN6WebKit19VisitedLinkProvider25processDidFinishLaunchingEPNS_15WebProcessProxyE
__ZN3WTF9HashTableIPN6WebKit15WebProcessProxyES3_NS_17IdentityExtractorENS_7PtrHashIS3_EENS_10HashTraitsIS3_EES8_E3addINS_22IdentityHashTranslatorIS6_EES3_S3_EENS_18HashTableAddResultINS_17HashTableIteratorIS3_S3_S4_S6_S8_S8_EEEERKT0_RKT1_
__ZN3WTF9HashTableIPN6WebKit15WebProcessProxyES3_NS_17IdentityExtractorENS_7PtrHashIS3_EENS_10HashTraitsIS3_EES8_E6expandEv
__ZN3WTF9HashTableIPN6WebKit15WebProcessProxyES3_NS_17IdentityExtractorENS_7PtrHashIS3_EENS_10HashTraitsIS3_EES8_E6rehashEi
__ZN6WebKit10WebContext20populateVisitedLinksEv
__ZN6WebKit16WebHistoryClient20populateVisitedLinksEPNS_10WebContextE
_WKContextAddVisitedLink
__ZN6WebKit10WebContext14addVisitedLinkERKN3WTF6StringE
__ZN6WebKit19VisitedLinkProvider14addVisitedLinkEy
__ZN3WTF9HashTableIyyNS_17IdentityExtractorEN7WebCore12LinkHashHashENS_10HashTraitsIyEES5_E3addINS_22IdentityHashTranslatorIS3_EEyyEENS_18HashTableAddResultINS_17HashTableIteratorIyyS1_S3_S5_S5_EEEERKT0_RKT1_
__ZN3WTF9HashTableIyyNS_17IdentityExtractorEN7WebCore12LinkHashHashENS_10HashTraitsIyEES5_E6expandEv
__ZN3WTF9HashTableIyyNS_17IdentityExtractorEN7WebCore12LinkHashHashENS_10HashTraitsIyEES5_E6rehashEi
__ZN3WTF9HashTableIyyNS_17IdentityExtractorEN7WebCore12LinkHashHashENS_10HashTraitsIyEES5_E16lookupForWritingINS_22IdentityHashTranslatorIS3_EEyEENSt3__14pairIPybEERKT0_
__ZN3WTF9HashTableIyyNS_17IdentityExtractorEN7WebCore12LinkHashHashENS_10HashTraitsIyEES5_E4findINS_22IdentityHashTranslatorIS3_EEyEENS_17HashTableIteratorIyyS1_S3_S5_S5_EERKT0_
__ZN3WTF9HashTableIyyNS_17IdentityExtractorEN7WebCore12LinkHashHashENS_10HashTraitsIyEES5_E6lookupINS_22IdentityHashTranslatorIS3_EEyEEPyRKT0_
_WKEnableSandboxStyleFileQuarantine
__ZN7CoreIPC10Connection22createClientConnectionENS0_10IdentifierEPNS0_6ClientEPN7WebCore7RunLoopE
__ZN7CoreIPC10Connection40setDidCloseOnConnectionWorkQueueCallbackEPFvPS0_E
__ZN6WebKit10WebProcess20initializeConnectionEPN7CoreIPC10ConnectionE
__ZN6WebKit12ChildProcess20initializeConnectionEPN7CoreIPC10ConnectionE
__ZN7CoreIPC10Connection37setShouldExitOnSyncMessageSendFailureEb
__ZN6WebKit15EventDispatcher20initializeConnectionEPN7CoreIPC10ConnectionE
__ZN6WebKit30PluginProcessConnectionManager20initializeConnectionEPN7CoreIPC10ConnectionE
__ZN6WebKit11SecItemShim20initializeConnectionEPN7CoreIPC10ConnectionE
__ZN6WebKit21CustomProtocolManager20initializeConnectionEPN7CoreIPC10ConnectionE
__ZN6WebKit22ChildProcessSupplement20initializeConnectionEPN7CoreIPC10ConnectionE
__ZN6WebKit24WebConnectionToUIProcess6createEPNS_10WebProcessE
__ZN7CoreIPC10Connection78setOnlySendMessagesAsDispatchWhenWaitingForSyncReplyWhenProcessingSuchAMessageEb
__ZN3WTF9HashTableIN7CoreIPC15StringReferenceENS_12KeyValuePairIS2_NSt3__14pairINS_6RefPtrI9WorkQueueEENS6_INS1_10Connection24WorkQueueMessageReceiverEEEEEEENS_24KeyValuePairKeyExtractorISD_EENS2_4HashENS_18HashMapValueTraitsINS_10HashTraitsIS2_EENSI_ISC_EEEESJ_E13allocateTableEi
__ZN3WTF9HashTableIN7CoreIPC15StringReferenceENS_12KeyValuePairIS2_NSt3__14pairINS_6RefPtrI9WorkQueueEENS6_INS1_10Connection24WorkQueueMessageReceiverEEEEEEENS_24KeyValuePairKeyExtractorISD_EENS2_4HashENS_18HashMapValueTraitsINS_10HashTraitsIS2_EENSI_ISC_EEEESJ_E15deallocateTableEPSD_i
__ZN3WTF9HashTableIN7CoreIPC15StringReferenceENS_12KeyValuePairIS2_NSt3__14pairINS_6RefPtrI9WorkQueueEENS6_INS1_10Connection24WorkQueueMessageReceiverEEEEEEENS_24KeyValuePairKeyExtractorISD_EENS2_4HashENS_18HashMapValueTraitsINS_10HashTraitsIS2_EENSI_ISC_EEEESJ_E16lookupForWritingINS_22IdentityHashTranslatorISG_EES2_EENS5_IPSD_bEERKT0_
__ZN3WTF9HashTableIN7CoreIPC15StringReferenceENS_12KeyValuePairIS2_NSt3__14pairINS_6RefPtrI9WorkQueueEENS6_INS1_10Connection24WorkQueueMessageReceiverEEEEEEENS_24KeyValuePairKeyExtractorISD_EENS2_4HashENS_18HashMapValueTraitsINS_10HashTraitsIS2_EENSI_ISC_EEEESJ_E3addINS_17HashMapTranslatorISL_SG_EES2_SC_EENS_18HashTableAddResultINS_17HashTableIteratorIS2_SD_SF_SG_SL_SJ_EEEERKT0_RKT1_
__ZN3WTF9HashTableIN7CoreIPC15StringReferenceENS_12KeyValuePairIS2_NSt3__14pairINS_6RefPtrI9WorkQueueEENS6_INS1_10Connection24WorkQueueMessageReceiverEEEEEEENS_24KeyValuePairKeyExtractorISD_EENS2_4HashENS_18HashMapValueTraitsINS_10HashTraitsIS2_EENSI_ISC_EEEESJ_E4findINS_22IdentityHashTranslatorISG_EES2_EENS_17HashTableIteratorIS2_SD_SF_SG_SL_SJ_EERKT0_
__ZN3WTF9HashTableIN7CoreIPC15StringReferenceENS_12KeyValuePairIS2_NSt3__14pairINS_6RefPtrI9WorkQueueEENS6_INS1_10Connection24WorkQueueMessageReceiverEEEEEEENS_24KeyValuePairKeyExtractorISD_EENS2_4HashENS_18HashMapValueTraitsINS_10HashTraitsIS2_EENSI_ISC_EEEESJ_E6expandEv
__ZN3WTF9HashTableIN7CoreIPC15StringReferenceENS_12KeyValuePairIS2_NSt3__14pairINS_6RefPtrI9WorkQueueEENS6_INS1_10Connection24WorkQueueMessageReceiverEEEEEEENS_24KeyValuePairKeyExtractorISD_EENS2_4HashENS_18HashMapValueTraitsINS_10HashTraitsIS2_EENSI_ISC_EEEESJ_E6lookupINS_22IdentityHashTranslatorISG_EES2_EEPSD_RKT0_
__ZN3WTF9HashTableIN7CoreIPC15StringReferenceENS_12KeyValuePairIS2_NSt3__14pairINS_6RefPtrI9WorkQueueEENS6_INS1_10Connection24WorkQueueMessageReceiverEEEEEEENS_24KeyValuePairKeyExtractorISD_EENS2_4HashENS_18HashMapValueTraitsINS_10HashTraitsIS2_EENSI_ISC_EEEESJ_E6rehashEi
__ZN3WTF9HashTableIN7CoreIPC15StringReferenceENS_12KeyValuePairIS2_NSt3__14pairINS_6RefPtrI9WorkQueueEENS6_INS1_10Connection24WorkQueueMessageReceiverEEEEEEENS_24KeyValuePairKeyExtractorISD_EENS2_4HashENS_18HashMapValueTraitsINS_10HashTraitsIS2_EENSI_ISC_EEEESJ_E6removeEPSD_
__ZN7CoreIPC10Connection24initializeDeadNameSourceEv
__ZNK7CoreIPC10Connection31platformCanSendOutgoingMessagesEv
__ZN3WTF5DequeINS_6OwnPtrIN7CoreIPC14MessageEncoderEEELm0EE11removeFirstEv
__ZN6WebKit31SandboxInitializationParametersD1Ev
__ZN7CoreIPC10Connection19sendOutgoingMessageEN3WTF10PassOwnPtrINS_14MessageEncoderEEE
__ZN6WebKit31SandboxInitializationParametersD2Ev
__ZN7CoreIPC15ArgumentEncoder18releaseAttachmentsEv
__ZN3WTF6VectorIPKcLm0ENS_15CrashOnOverflowEED1Ev
__ZN6WebKit29XPCServiceInitializerDelegateD1Ev
__ZN3WTF6VectorIN7CoreIPC10AttachmentELm0ENS_15CrashOnOverflowEED1Ev
__ZN7CoreIPC14MessageEncoderD0Ev
__ZN6WebKit26WebContextConnectionClient19didCreateConnectionEPNS_10WebContextEPNS_13WebConnectionE
__ZNK6WebKit10WebContext40canEnableProcessSuppressionForWebProcessEPKNS_15WebProcessProxyE
__ZNK6WebKit15WebProcessProxy30allPagesAreProcessSuppressibleEv
____ZNK3WTF8FunctionIFvvEEcvU13block_pointerS1_Ev_block_invoke
__ZN7CoreIPC10Connection25receiveSourceEventHandlerEv
__ZN7CoreIPCL16readFromMachPortEjRN3WTF6VectorIcLm4164ENS0_15CrashOnOverflowEEE
__ZN3WTF6VectorIcLm4164ENS_15CrashOnOverflowEE6resizeEm
__ZN3WTF6VectorIN7CoreIPC10AttachmentELm0ENS_15CrashOnOverflowEEC2Em
__ZN7CoreIPC10AttachmentC1Ev
__ZN7CoreIPC14MessageDecoder6createERKNS_13DataReferenceERN3WTF6VectorINS_10AttachmentELm0ENS4_15CrashOnOverflowEEE
__ZN7CoreIPC14MessageDecoderC2ERKNS_13DataReferenceERN3WTF6VectorINS_10AttachmentELm0ENS4_15CrashOnOverflowEEE
__ZN7CoreIPC15ArgumentDecoderC2EPKhmRN3WTF6VectorINS_10AttachmentELm0ENS3_15CrashOnOverflowEEE
__ZN7CoreIPC15ArgumentDecoder6decodeERh
__ZN7CoreIPC15StringReference6decodeERNS_15ArgumentDecoderERS0_
__ZN7CoreIPC13DataReference6decodeERNS_15ArgumentDecoderERS0_
__ZN7CoreIPC15ArgumentDecoder29decodeVariableLengthByteArrayERNS_13DataReferenceE
__ZN7CoreIPC15ArgumentDecoder6decodeERy
__ZN7CoreIPC14MessageDecoder22setImportanceAssertionEN3WTF10PassOwnPtrINS_19ImportanceAssertionEEE
__ZN3WTF6OwnPtrIN7CoreIPC19ImportanceAssertionEEaSERKNS_10PassOwnPtrIS2_EE
__ZN3WTF10PassOwnPtrIN7CoreIPC19ImportanceAssertionEED2Ev
__ZN7CoreIPC8MachPort6decodeERNS_15ArgumentDecoderERS0_
__ZN7CoreIPC10Attachment6decodeERNS_15ArgumentDecoderERS0_
__ZN7CoreIPC15ArgumentDecoder16removeAttachmentERNS_10AttachmentE
__ZN7WebCore7RunLoop5TimerIN6WebKit19VisitedLinkProviderEE5firedEv
__ZN7CoreIPC10AttachmentC1EPvjjb
__ZN6WebKit19VisitedLinkProvider29pendingVisitedLinksTimerFiredEv
__ZN3WTF6VectorIyLm0ENS_15CrashOnOverflowEE6resizeEm
__ZN3WTF6VectorIyLm0ENS_15CrashOnOverflowEE15reserveCapacityEm
__ZN3WTF16VectorBufferBaseIyE14allocateBufferEm
__ZN6WebKit12SharedMemory14systemPageSizeEv
__ZN6WebKit12SharedMemory6createEm
__ZN6WebKit12SharedMemory18createFromVMBufferEPvm
__ZN6WebKit16VisitedLinkTable15setSharedMemoryEN3WTF10PassRefPtrINS_12SharedMemoryEEE
__ZN3WTF10RefCountedIN6WebKit12SharedMemoryEE5derefEv
__ZN6WebKit16VisitedLinkTable11addLinkHashEy
__ZN3WTF6VectorIyLm0ENS_15CrashOnOverflowEE14appendSlowCaseIyEEvRKT_
__ZN3WTF6VectorIyLm0ENS_15CrashOnOverflowEE14expandCapacityEmPKy
__Z20setMachExceptionPortj
__ZNK3WTF9HashTableIPN6WebKit15WebProcessProxyES3_NS_17IdentityExtractorENS_7PtrHashIS3_EENS_10HashTraitsIS3_EES8_E5beginEv
__ZN7CoreIPC14MessageDecoderD0Ev
__ZN6WebKit12SharedMemory6HandleC1Ev
__ZN3WTF6OwnPtrIN7CoreIPC19ImportanceAssertionEED2Ev
__ZN6WebKit12SharedMemory12createHandleERNS0_6HandleENS0_10ProtectionE
__ZN7CoreIPC15ArgumentDecoderD2Ev
__ZN3WTF12VectorBufferIcLm4164EE16deallocateBufferEPc
__ZN6WebKit17ChildProcessProxy4sendIN8Messages10WebProcess19SetVisitedLinkTableEEEbRKT_yj
__ZNK6WebKit12SharedMemory6Handle6encodeERN7CoreIPC15ArgumentEncoderE
__ZN6WebKit17ChildProcessProxy4sendIN8Messages10WebProcess26AllVisitedLinkStateChangedEEEbRKT_yj
__ZN7CoreIPC10Connection22processIncomingMessageEN3WTF10PassOwnPtrINS_14MessageDecoderEEE
__ZN7CoreIPC10Connection16SyncMessageState22processIncomingMessageEPS0_RN3WTF6OwnPtrINS_14MessageDecoderEEE
__ZN6WebKit12SharedMemory6HandleD1Ev
__ZN3WTF6VectorIyLm0ENS_15CrashOnOverflowEED1Ev
__ZNK7CoreIPC14MessageDecoder44shouldDispatchMessageWhenWaitingForSyncReplyEv
__ZN7CoreIPC10Connection22enqueueIncomingMessageEN3WTF10PassOwnPtrINS_14MessageDecoderEEE
__ZN3WTF5DequeINS_6OwnPtrIN7CoreIPC14MessageDecoderEEELm0EE22expandCapacityIfNeededEv
__ZN3WTF5DequeINS_6OwnPtrIN7CoreIPC14MessageDecoderEEELm0EE14expandCapacityEv
__ZN3WTF16VectorBufferBaseINS_6OwnPtrIN7CoreIPC14MessageDecoderEEEE14allocateBufferEm
__ZN7CoreIPC14MessageDecoder6createERKNS_13DataReferenceE
__ZN7CoreIPC10Connection18dispatchOneMessageEv
__ZN3WTF5DequeINS_6OwnPtrIN7CoreIPC14MessageDecoderEEELm0EE11removeFirstEv
__ZN7CoreIPC10Connection15dispatchMessageEN3WTF10PassOwnPtrINS_14MessageDecoderEEE
__ZNK7CoreIPC14MessageDecoder13isSyncMessageEv
__ZN6WebKit10WebProcess17didReceiveMessageEPN7CoreIPC10ConnectionERNS1_14MessageDecoderE
__ZN7CoreIPC18MessageReceiverMap15dispatchMessageEPNS_10ConnectionERNS_14MessageDecoderE
__ZN6WebKit10WebProcess27didReceiveWebProcessMessageEPN7CoreIPC10ConnectionERNS1_14MessageDecoderE
__ZN7CoreIPC21handleMessageVariadicIN8Messages10WebProcess20InitializeWebProcessEN6WebKit10WebProcessEMS5_FvRKNS4_28WebProcessCreationParametersERNS_14MessageDecoderEEEEvSA_PT0_T1_
__ZN6WebKit28WebProcessCreationParameters6decodeERN7CoreIPC15ArgumentDecoderERS0_
__ZN7CoreIPC13ArgumentCoderIN3WTF6StringEE6decodeERNS_15ArgumentDecoderERS2_
__ZN7CoreIPC15ArgumentDecoder6decodeERj
__ZN7CoreIPC15ArgumentDecoder6decodeERb
__ZNK7CoreIPC15ArgumentDecoder28bufferIsLargeEnoughToContainEjm
__ZN7CoreIPC15ArgumentDecoder21decodeFixedLengthDataEPhmj
__ZN6WebKit16SandboxExtension6Handle6decodeERN7CoreIPC15ArgumentDecoderERS1_
_WKSandboxExtensionCreateFromSerializedFormat
__ZN7CoreIPC19VectorArgumentCoderILb0EN3WTF6StringEE6decodeERNS_15ArgumentDecoderERNS1_6VectorIS2_Lm0ENS1_15CrashOnOverflowEEE
__ZN3WTF16VectorBufferBaseINS_6StringEE16reallocateBufferEm
__ZN7CoreIPC15ArgumentDecoder6decodeERd
__ZN7CoreIPC15ArgumentDecoder6decodeERi
__ZN7CoreIPC13ArgumentCoderIN3WTF7HashMapINS1_6StringEbNS1_10StringHashENS1_10HashTraitsIS3_EENS5_IbEEEEE6decodeERNS_15ArgumentDecoderERS8_
__ZN7CoreIPC13ArgumentCoderIN3WTF7HashMapIjdNS1_7IntHashIjEENS1_10HashTraitsIjEENS5_IdEEEEE6decodeERNS_15ArgumentDecoderERS8_
__ZN6WebKit10WebProcess20initializeWebProcessERKNS_28WebProcessCreationParametersERN7CoreIPC14MessageDecoderE
__ZN6WebKit10WebProcess28platformInitializeWebProcessERKNS_28WebProcessCreationParametersERN7CoreIPC14MessageDecoderE
__ZN6WebKit16SandboxExtension18consumePermanentlyERKNS0_6HandleE
_WKSandboxExtensionConsume
__ZN3WTF9RetainPtrIP10NSURLCacheEC2ENS_10AdoptNSTagES2_
__ZN6WebKit32InjectedBundleUserMessageDecoder6decodeERN7CoreIPC15ArgumentDecoderERS0_
__ZN6WebKit18UserMessageDecoderINS_32InjectedBundleUserMessageDecoderEE10baseDecodeERN7CoreIPC15ArgumentDecoderERS1_RNS_9APIObject4TypeE
__ZN6WebKit16WebPageGroupData6decodeERN7CoreIPC15ArgumentDecoderERS0_
__ZN7CoreIPC19VectorArgumentCoderILb0EN7WebCore14UserStyleSheetEE6decodeERNS_15ArgumentDecoderERN3WTF6VectorIS2_Lm0ENS6_15CrashOnOverflowEEE
__ZN3WTF6VectorIN7WebCore14UserStyleSheetELm0ENS_15CrashOnOverflowEE14shrinkCapacityEm
__ZN7CoreIPC19VectorArgumentCoderILb0EN7WebCore10UserScriptEE6decodeERNS_15ArgumentDecoderERN3WTF6VectorIS2_Lm0ENS6_15CrashOnOverflowEEE
__ZN3WTF6VectorIN7WebCore10UserScriptELm0ENS_15CrashOnOverflowEE14shrinkCapacityEm
__ZN6WebKit10WebProcess12webPageGroupERKNS_16WebPageGroupDataE
__ZN3WTF9HashTableIyNS_12KeyValuePairIyNS_6RefPtrIN6WebKit17WebPageGroupProxyEEEEENS_24KeyValuePairKeyExtractorIS6_EENS_7IntHashIyEENS_18HashMapValueTraitsINS_10HashTraitsIyEENSC_IS5_EEEESD_E15deallocateTableEPS6_i
__ZN3WTF9HashTableIyNS_12KeyValuePairIyNS_6RefPtrIN6WebKit17WebPageGroupProxyEEEEENS_24KeyValuePairKeyExtractorIS6_EENS_7IntHashIyEENS_18HashMapValueTraitsINS_10HashTraitsIyEENSC_IS5_EEEESD_E16lookupForWritingINS_22IdentityHashTranslatorISA_EEyEENSt3__14pairIPS6_bEERKT0_
__ZN3WTF9HashTableIyNS_12KeyValuePairIyNS_6RefPtrIN6WebKit17WebPageGroupProxyEEEEENS_24KeyValuePairKeyExtractorIS6_EENS_7IntHashIyEENS_18HashMapValueTraitsINS_10HashTraitsIyEENSC_IS5_EEEESD_E3addINS_17HashMapTranslatorISF_SA_EEyNS_10PassRefPtrIS4_EEEENS_18HashTableAddResultINS_17HashTableIteratorIyS6_S8_SA_SF_SD_EEEERKT0_RKT1_
__ZN3WTF9HashTableIyNS_12KeyValuePairIyNS_6RefPtrIN6WebKit17WebPageGroupProxyEEEEENS_24KeyValuePairKeyExtractorIS6_EENS_7IntHashIyEENS_18HashMapValueTraitsINS_10HashTraitsIyEENSC_IS5_EEEESD_E4findINS_22IdentityHashTranslatorISA_EEyEENS_17HashTableIteratorIyS6_S8_SA_SF_SD_EERKT0_
__ZN3WTF9HashTableIyNS_12KeyValuePairIyNS_6RefPtrIN6WebKit17WebPageGroupProxyEEEEENS_24KeyValuePairKeyExtractorIS6_EENS_7IntHashIyEENS_18HashMapValueTraitsINS_10HashTraitsIyEENSC_IS5_EEEESD_E6expandEv
__ZN3WTF9HashTableIyNS_12KeyValuePairIyNS_6RefPtrIN6WebKit17WebPageGroupProxyEEEEENS_24KeyValuePairKeyExtractorIS6_EENS_7IntHashIyEENS_18HashMapValueTraitsINS_10HashTraitsIyEENSC_IS5_EEEESD_E6lookupINS_22IdentityHashTranslatorISA_EEyEEPS6_RKT0_
__ZN3WTF9HashTableIyNS_12KeyValuePairIyNS_6RefPtrIN6WebKit17WebPageGroupProxyEEEEENS_24KeyValuePairKeyExtractorIS6_EENS_7IntHashIyEENS_18HashMapValueTraitsINS_10HashTraitsIyEENSC_IS5_EEEESD_E6rehashEi
__ZN3WTF17HashMapTranslatorINS_18HashMapValueTraitsINS_10HashTraitsIyEENS2_INS_6RefPtrIN6WebKit17WebPageGroupProxyEEEEEEENS_7IntHashIyEEE9translateINS_12KeyValuePairIyS7_EEyNS_10PassRefPtrIS6_EEEEvRT_RKT0_RKT1_
__ZN6WebKit17WebPageGroupProxy6createERKNS_16WebPageGroupDataE
__ZN6WebKit17WebPageGroupProxyC2ERKNS_16WebPageGroupDataE
__ZN3WTF6VectorIN7WebCore14UserStyleSheetELm0ENS_15CrashOnOverflowEEC2ERKS4_
__ZN3WTF6VectorIN7WebCore10UserScriptELm0ENS_15CrashOnOverflowEEC2ERKS4_
__ZN3WTF6RefPtrIN6WebKit9APIObjectEEaSEPS2_
__ZN6WebKit19ImmutableDictionaryC1ERN3WTF7HashMapINS1_6StringENS1_6RefPtrINS_9APIObjectEEENS1_10StringHashENS1_10HashTraitsIS3_EENS8_IS6_EEEE
__ZN6WebKit19ImmutableDictionaryC2ERN3WTF7HashMapINS1_6StringENS1_6RefPtrINS_9APIObjectEEENS1_10StringHashENS1_10HashTraitsIS3_EENS8_IS6_EEEE
__ZN6WebKit14InjectedBundleC1ERKN3WTF6StringE
__ZN6WebKit14InjectedBundleC2ERKN3WTF6StringE
__ZN6WebKit16SandboxExtension6createERKNS0_6HandleE
__ZN6WebKit14InjectedBundle4loadEPNS_9APIObjectE
__ZN6WebKit16SandboxExtension18consumePermanentlyEv
__ZN3WTF10RefCountedIN6WebKit16SandboxExtensionEE5derefEv
__ZN6WebKit16SandboxExtensionD1Ev
__ZNK3WTF6String10charactersEv
__ZN6WebKit20DrawingAreaProxyImpl28setBackingStoreIsDiscardableEb
-[WKView _windowDidBecomeKey:]
-[WKView(Internal) _updateSecureInputState]
_NetworkServiceInitializer
__ZN6WebKit19NetworkProcessProxy18didFinishLaunchingEPNS_15ProcessLauncherEN7CoreIPC10Connection10IdentifierE
__ZN6WebKit19NetworkProcessProxy18connectionWillOpenEPN7CoreIPC10ConnectionE
__ZNK6WebKit10WebContext44canEnableProcessSuppressionForNetworkProcessEv
__ZN6WebKit21XPCServiceInitializerINS_14NetworkProcessENS_29XPCServiceInitializerDelegateEEEvP17_xpc_connection_sPv
__ZN6WebKit14NetworkProcess6sharedEv
__ZN6WebKit14NetworkProcessC2Ev
__ZN6WebKit28NetworkResourceLoadSchedulerC1Ev
__ZN6WebKit28NetworkResourceLoadSchedulerC2Ev
__ZN6WebKit10HostRecordC1ERKN3WTF6StringEi
__ZN6WebKit28NetworkResourceLoadScheduler51platformInitializeMaximumHTTPConnectionCountPerHostEv
__ZN6WebKit32NetworkProcessPlatformStrategies10initializeEv
__ZN6WebKit14NetworkProcess13addSupplementINS_21AuthenticationManagerEEEvv
__ZN6WebKit14NetworkProcess13addSupplementINS_16WebCookieManagerEEEvv
__ZN6WebKit14NetworkProcess13addSupplementINS_21CustomProtocolManagerEEEvv
__ZN6WebKit14NetworkProcess17initializeProcessERKNS_36ChildProcessInitializationParametersE
__ZN6WebKit12ChildProcess22setApplicationIsDaemonEv
__ZN6WebKit14NetworkProcess21initializeProcessNameERKNS_36ChildProcessInitializationParametersE
__ZN6WebKit14NetworkProcess17initializeSandboxERKNS_36ChildProcessInitializationParametersERNS_31SandboxInitializationParametersE
__ZN6WebKit14NetworkProcess20initializeConnectionEPN7CoreIPC10ConnectionE
__ZN3WTF9HashTableIPKcNS_12KeyValuePairIS2_NS_6OwnPtrIN6WebKit24NetworkProcessSupplementEEEEENS_24KeyValuePairKeyExtractorIS8_EENS_7PtrHashIS2_EENS_18HashMapValueTraitsINS_10HashTraitsIS2_EENSE_IS7_EEEESF_E15deallocateTableEPS8_i
__ZN3WTF9HashTableIPKcNS_12KeyValuePairIS2_NS_6OwnPtrIN6WebKit24NetworkProcessSupplementEEEEENS_24KeyValuePairKeyExtractorIS8_EENS_7PtrHashIS2_EENS_18HashMapValueTraitsINS_10HashTraitsIS2_EENSE_IS7_EEEESF_E16lookupForWritingINS_22IdentityHashTranslatorISC_EES2_EENSt3__14pairIPS8_bEERKT0_
__ZN3WTF9HashTableIPKcNS_12KeyValuePairIS2_NS_6OwnPtrIN6WebKit24NetworkProcessSupplementEEEEENS_24KeyValuePairKeyExtractorIS8_EENS_7PtrHashIS2_EENS_18HashMapValueTraitsINS_10HashTraitsIS2_EENSE_IS7_EEEESF_E3addINS_17HashMapTranslatorISH_SC_EES2_NS_10PassOwnPtrIS6_EEEENS_18HashTableAddResultINS_17HashTableIteratorIS2_S8_SA_SC_SH_SF_EEEERKT0_RKT1_
__ZN3WTF9HashTableIPKcNS_12KeyValuePairIS2_NS_6OwnPtrIN6WebKit24NetworkProcessSupplementEEEEENS_24KeyValuePairKeyExtractorIS8_EENS_7PtrHashIS2_EENS_18HashMapValueTraitsINS_10HashTraitsIS2_EENSE_IS7_EEEESF_E4findINS_22IdentityHashTranslatorISC_EES2_EENS_17HashTableIteratorIS2_S8_SA_SC_SH_SF_EERKT0_
__ZN3WTF9HashTableIPKcNS_12KeyValuePairIS2_NS_6OwnPtrIN6WebKit24NetworkProcessSupplementEEEEENS_24KeyValuePairKeyExtractorIS8_EENS_7PtrHashIS2_EENS_18HashMapValueTraitsINS_10HashTraitsIS2_EENSE_IS7_EEEESF_E5beginEv
__ZN3WTF9HashTableIPKcNS_12KeyValuePairIS2_NS_6OwnPtrIN6WebKit24NetworkProcessSupplementEEEEENS_24KeyValuePairKeyExtractorIS8_EENS_7PtrHashIS2_EENS_18HashMapValueTraitsINS_10HashTraitsIS2_EENSE_IS7_EEEESF_E6expandEv
__ZN3WTF9HashTableIPKcNS_12KeyValuePairIS2_NS_6OwnPtrIN6WebKit24NetworkProcessSupplementEEEEENS_24KeyValuePairKeyExtractorIS8_EENS_7PtrHashIS2_EENS_18HashMapValueTraitsINS_10HashTraitsIS2_EENSE_IS7_EEEESF_E6lookupINS_22IdentityHashTranslatorISC_EES2_EEPS8_RKT0_
__ZN3WTF9HashTableIPKcNS_12KeyValuePairIS2_NS_6OwnPtrIN6WebKit24NetworkProcessSupplementEEEEENS_24KeyValuePairKeyExtractorIS8_EENS_7PtrHashIS2_EENS_18HashMapValueTraitsINS_10HashTraitsIS2_EENSE_IS7_EEEESF_E6rehashEi
__ZThn8_N6WebKit21CustomProtocolManager20initializeConnectionEPN7CoreIPC10ConnectionE
__ZN3WTF4bindIMN7CoreIPC10ConnectionEFvPNS2_24WorkQueueMessageReceiverEPNS1_14MessageDecoderEEPS2_NS_6RefPtrIS3_EES6_EENS_8FunctionIFNS_15FunctionWrapperIT_E10ResultTypeEvEEESE_RKT0_RKT1_RKT2_
__ZN7CoreIPC10Connection39dispatchWorkQueueMessageReceiverMessageEPNS0_24WorkQueueMessageReceiverEPNS_14MessageDecoderE
__ZThn16_N6WebKit21CustomProtocolManager17didReceiveMessageEPN7CoreIPC10ConnectionERNS1_14MessageDecoderE
__ZN6WebKit21CustomProtocolManager17didReceiveMessageEPN7CoreIPC10ConnectionERNS1_14MessageDecoderE
__ZN6WebKit14NetworkProcess17didReceiveMessageEPN7CoreIPC10ConnectionERNS1_14MessageDecoderE
__ZN7CoreIPC13handleMessageIN8Messages21CustomProtocolManager14RegisterSchemeEN6WebKit21CustomProtocolManagerEMS5_FvRKN3WTF6StringEEEEvRNS_14MessageDecoderEPT0_T1_
__ZN6WebKit14NetworkProcess31didReceiveNetworkProcessMessageEPN7CoreIPC10ConnectionERNS1_14MessageDecoderE
__ZN7CoreIPC13handleMessageIN8Messages14NetworkProcess24InitializeNetworkProcessEN6WebKit14NetworkProcessEMS5_FvRKNS4_32NetworkProcessCreationParametersEEEEvRNS_14MessageDecoderEPT0_T1_
__ZN6WebKit21CustomProtocolManager14registerSchemeERKN3WTF6StringE
__ZN6WebKit32NetworkProcessCreationParameters6decodeERN7CoreIPC15ArgumentDecoderERS0_
__ZN6WebKit14NetworkProcess24initializeNetworkProcessERKNS_32NetworkProcessCreationParametersE
__ZN6WebKit14NetworkProcess32platformInitializeNetworkProcessERKNS_32NetworkProcessCreationParametersE
__ZN6WebKit21NetworkResourceLoader29fileBackedResourceMinimumSizeEv
__ZN6WebKit14NetworkProcess13setCacheModelEj
__ZN6WebKit14NetworkProcess21platformSetCacheModelENS_10CacheModelE
____ZN6WebKitL10memorySizeEv_block_invoke
__ZN6WebKit19calculateCacheSizesENS_10CacheModelEyyRjS1_S1_RdS1_RmS3_
__ZN6WebKit23RemoteNetworkingContext46setPrivateBrowsingStorageSessionIdentifierBaseERKN3WTF6StringE
__ZN6WebKitL43privateBrowsingStorageSessionIdentifierBaseEv
__ZThn8_N6WebKit21CustomProtocolManager10initializeERKNS_32NetworkProcessCreationParametersE
__ZN6WebKit21CustomProtocolManager10initializeERKNS_32NetworkProcessCreationParametersE
__ZN6WebKit24NetworkProcessSupplement10initializeERKNS_32NetworkProcessCreationParametersE
_WKPreferencesSetDefaultFontSize
__ZN6WebKit14WebPreferences18setDefaultFontSizeERKj
_WKPreferencesSetDefaultFixedFontSize
__ZN6WebKit14WebPreferences23setDefaultFixedFontSizeERKj
_WKPreferencesSetJavaScriptCanOpenWindowsAutomatically
__ZN6WebKit14WebPreferences40setJavaScriptCanOpenWindowsAutomaticallyERKb
_WKPreferencesSetOfflineWebApplicationCacheEnabled
__ZN6WebKit14WebPreferences36setOfflineWebApplicationCacheEnabledERKb
_WKPreferencesSetDefaultTextEncodingName
__ZN6WebKit14WebPreferences26setDefaultTextEncodingNameERKN3WTF6StringE
__ZN6WebKit14WebPreferences31platformUpdateStringValueForKeyERKN3WTF6StringES4_
_WKPreferencesSetStandardFontFamily
__ZN6WebKit14WebPreferences21setStandardFontFamilyERKN3WTF6StringE
_WKPreferencesSetFixedFontFamily
__ZN6WebKit14WebPreferences18setFixedFontFamilyERKN3WTF6StringE
_WKPreferencesSetSerifFontFamily
__ZN6WebKit14WebPreferences18setSerifFontFamilyERKN3WTF6StringE
_WKPreferencesSetSansSerifFontFamily
__ZN6WebKit14WebPreferences22setSansSerifFontFamilyERKN3WTF6StringE
_WKPreferencesSetCursiveFontFamily
__ZN6WebKit14WebPreferences20setCursiveFontFamilyERKN3WTF6StringE
_WKPreferencesSetFantasyFontFamily
__ZN6WebKit14WebPreferences20setFantasyFontFamilyERKN3WTF6StringE
_WKPreferencesSetPageCacheEnabled
__ZN6WebKit14WebPreferences16setUsesPageCacheERKb
_WKPreferencesSetDNSPrefetchingEnabled
__ZN6WebKit14WebPreferences24setDNSPrefetchingEnabledERKb
_WKPreferencesSetWebSecurityEnabled
__ZN6WebKit14WebPreferences21setWebSecurityEnabledERKb
_WKPreferencesSetAVFoundationEnabled
__ZN6WebKit14WebPreferences22setAVFoundationEnabledERKb
_WKPreferencesSetFullScreenEnabled
__ZN6WebKit14WebPreferences20setFullScreenEnabledERKb
_WKPreferencesSetNeedsSiteSpecificQuirks
__ZN6WebKit14WebPreferences26setNeedsSiteSpecificQuirksERKb
_WKPreferencesSetWebArchiveDebugModeEnabled
__ZN6WebKit14WebPreferences29setWebArchiveDebugModeEnabledERKb
_WKPreferencesSetLocalFileContentSniffingEnabled
__ZN6WebKit14WebPreferences34setLocalFileContentSniffingEnabledERKb
_WKPreferencesSetPaginateDuringLayoutEnabled
__ZN6WebKit14WebPreferences30setPaginateDuringLayoutEnabledERKb
_WKDictionaryGetItemForKey
_WKBundleSetClient
__ZN6WebKit14InjectedBundle16initializeClientEP14WKBundleClient
__ZN6WebKit9APIClientI14WKBundleClientLi1EE10initializeEPKS1_
_WKBooleanGetValue
_WKDictionaryCopyKeys
__ZN6WebKit21CustomProtocolManager10initializeERKNS_28WebProcessCreationParametersE
__ZN7CoreIPC10Connection30removeWorkQueueMessageReceiverENS_15StringReferenceE
__ZN6WebKit22WebNotificationManager10initializeERKNS_28WebProcessCreationParametersE
__ZN3WTF17BoundFunctionImplINS_15FunctionWrapperIMN7CoreIPC10ConnectionEFvNS2_15StringReferenceEEEEFvPS3_S4_EEclEv
__ZN6WebKit20WebProcessSupplement10initializeERKNS_28WebProcessCreationParametersE
__ZThn8_N6WebKit18WebDatabaseManager10initializeERKNS_28WebProcessCreationParametersE
__ZN7CoreIPC10Connection51removeWorkQueueMessageReceiverOnConnectionWorkQueueENS_15StringReferenceE
__ZN6WebKit18WebDatabaseManager10initializeERKNS_28WebProcessCreationParametersE
__ZN3WTF7HashMapIN7CoreIPC15StringReferenceENSt3__14pairINS_6RefPtrI9WorkQueueEENS5_INS1_10Connection24WorkQueueMessageReceiverEEEEENS2_4HashENS_10HashTraitsIS2_EENSD_ISB_EEE6removeERKS2_
__ZN6WebKit21WebPlatformStrategies22createDatabaseStrategyEv
__ZN9WorkQueueD1Ev
__ZThn80_N6WebKit21WebPlatformStrategies17getDatabaseServerEv
__ZN9WorkQueue18platformInvalidateEv
__ZN3WTF17BoundFunctionImplINS_15FunctionWrapperIMN7CoreIPC10ConnectionEFvNS2_15StringReferenceEEEEFvPS3_S4_EED0Ev
__ZN6WebKit20WebIconDatabaseProxy10setEnabledEb
__ZN6WebKit10WebProcess13setCacheModelEj
__ZN6WebKit10WebProcess21platformSetCacheModelENS_10CacheModelE
__ZN6WebKit25WebFrameNetworkingContext46setPrivateBrowsingStorageSessionIdentifierBaseERKN3WTF6StringE
__ZN6WebKit10WebProcess30ensureNetworkProcessConnectionEv
__ZN7CoreIPC10Connection8sendSyncIN8Messages15WebProcessProxy27GetNetworkProcessConnectionEEEbRKT_RKNS5_5ReplyEydj
__ZN7CoreIPC10Connection24createSyncMessageEncoderENS_15StringReferenceES1_yRy
__ZN7CoreIPC14MessageEncoder16setIsSyncMessageEb
__ZN7CoreIPC10Connection15sendSyncMessageEyN3WTF10PassOwnPtrINS_14MessageEncoderEEEdj
__ZN3WTF6VectorIN7CoreIPC10Connection16PendingSyncReplyELm0ENS_15CrashOnOverflowEE14appendSlowCaseIS3_EEvRKT_
__ZN3WTF6VectorIN7CoreIPC10Connection16PendingSyncReplyELm0ENS_15CrashOnOverflowEE14expandCapacityEmPKS3_
__ZN3WTF6VectorIN7CoreIPC10Connection16PendingSyncReplyELm0ENS_15CrashOnOverflowEE15reserveCapacityEm
__ZN3WTF16VectorBufferBaseIN7CoreIPC10Connection16PendingSyncReplyEE14allocateBufferEm
__ZN7CoreIPC10Connection16waitForSyncReplyEydj
__ZN7CoreIPC10Connection16SyncMessageState16dispatchMessagesEPS0_
__ZN3WTF6VectorIN7CoreIPC10Connection16SyncMessageState28ConnectionAndIncomingMessageELm0ENS_15CrashOnOverflowEED2Ev
__ZN7CoreIPC10Connection19dispatchSyncMessageERNS_14MessageDecoderE
__ZThn8_N6WebKit15WebProcessProxy21didReceiveSyncMessageEPN7CoreIPC10ConnectionERNS1_14MessageDecoderERN3WTF6OwnPtrINS1_14MessageEncoderEEE
__ZN6WebKit15WebProcessProxy21didReceiveSyncMessageEPN7CoreIPC10ConnectionERNS1_14MessageDecoderERN3WTF6OwnPtrINS1_14MessageEncoderEEE
__ZN6WebKit17ChildProcessProxy19dispatchSyncMessageEPN7CoreIPC10ConnectionERNS1_14MessageDecoderERN3WTF6OwnPtrINS1_14MessageEncoderEEE
__ZN7CoreIPC18MessageReceiverMap19dispatchSyncMessageEPNS_10ConnectionERNS_14MessageDecoderERN3WTF6OwnPtrINS_14MessageEncoderEEE
__ZN6WebKit10WebContext19dispatchSyncMessageEPN7CoreIPC10ConnectionERNS1_14MessageDecoderERN3WTF6OwnPtrINS1_14MessageEncoderEEE
__ZN6WebKit15WebProcessProxy36didReceiveSyncWebProcessProxyMessageEPN7CoreIPC10ConnectionERNS1_14MessageDecoderERN3WTF6OwnPtrINS1_14MessageEncoderEEE
__ZN7CoreIPC20handleMessageDelayedIN8Messages15WebProcessProxy27GetNetworkProcessConnectionEN6WebKit15WebProcessProxyEMS5_FvN3WTF10PassRefPtrINS3_12DelayedReplyEEEEEEvPNS_10ConnectionERNS_14MessageDecoderERNS6_6OwnPtrINS_14MessageEncoderEEEPT0_T1_
__ZN7CoreIPC18callMemberFunctionIN6WebKit15WebProcessProxyEMS2_FvN3WTF10PassRefPtrIN8Messages15WebProcessProxy27GetNetworkProcessConnection12DelayedReplyEEEES8_EEvRKNS_10Arguments0ENS4_IT1_EEPT_T0_
__ZN6WebKit15WebProcessProxy27getNetworkProcessConnectionEN3WTF10PassRefPtrIN8Messages15WebProcessProxy27GetNetworkProcessConnection12DelayedReplyEEE
__ZN6WebKit10WebContext27getNetworkProcessConnectionEN3WTF10PassRefPtrIN8Messages15WebProcessProxy27GetNetworkProcessConnection12DelayedReplyEEE
__ZN6WebKit19NetworkProcessProxy27getNetworkProcessConnectionEN3WTF10PassRefPtrIN8Messages15WebProcessProxy27GetNetworkProcessConnection12DelayedReplyEEE
__ZN3WTF5DequeINS_6RefPtrIN8Messages15WebProcessProxy27GetNetworkProcessConnection12DelayedReplyEEELm0EE22expandCapacityIfNeededEv
__ZN3WTF5DequeINS_6RefPtrIN8Messages15WebProcessProxy27GetNetworkProcessConnection12DelayedReplyEEELm0EE14expandCapacityEv
__ZN3WTF16VectorBufferBaseINS_6RefPtrIN8Messages15WebProcessProxy27GetNetworkProcessConnection12DelayedReplyEEEE14allocateBufferEm
__ZN7CoreIPC10Connection4sendIN8Messages14NetworkProcess35CreateNetworkConnectionToWebProcessEEEbRKT_yj
__ZN7CoreIPC14MessageEncoder47setShouldDispatchMessageWhenWaitingForSyncReplyEb
__ZN3WTF9HashTableINS_6RefPtrIN7CoreIPC10ConnectionEEES4_NS_17IdentityExtractorENS_7PtrHashIS4_EENS_10HashTraitsIS4_EES9_E3addINS_22IdentityHashTranslatorIS7_EES4_S4_EENS_18HashTableAddResultINS_17HashTableIteratorIS4_S4_S5_S7_S9_S9_EEEERKT0_RKT1_
__ZN3WTF9HashTableINS_6RefPtrIN7CoreIPC10ConnectionEEES4_NS_17IdentityExtractorENS_7PtrHashIS4_EENS_10HashTraitsIS4_EES9_E6expandEv
__ZN3WTF9HashTableINS_6RefPtrIN7CoreIPC10ConnectionEEES4_NS_17IdentityExtractorENS_7PtrHashIS4_EENS_10HashTraitsIS4_EES9_E6rehashEi
__ZN3WTF9HashTableINS_6RefPtrIN7CoreIPC10ConnectionEEES4_NS_17IdentityExtractorENS_7PtrHashIS4_EENS_10HashTraitsIS4_EES9_E15deallocateTableEPS4_i
__ZN3WTF6RefPtrIN7CoreIPC10ConnectionEEaSERKS3_
__ZN3WTF4bindIMN7CoreIPC10Connection16SyncMessageStateEFvPS2_EPS3_NS_6RefPtrIS2_EEEENS_8FunctionIFNS_15FunctionWrapperIT_E10ResultTypeEvEEESC_RKT0_RKT1_
__ZN3WTF6VectorIN7CoreIPC10Connection16SyncMessageState28ConnectionAndIncomingMessageELm0ENS_15CrashOnOverflowEE14appendSlowCaseIS4_EEvRKT_
__ZN3WTF6VectorIN7CoreIPC10Connection16SyncMessageState28ConnectionAndIncomingMessageELm0ENS_15CrashOnOverflowEE14expandCapacityEmPKS4_
__ZN3WTF6VectorIN7CoreIPC10Connection16SyncMessageState28ConnectionAndIncomingMessageELm0ENS_15CrashOnOverflowEE15reserveCapacityEm
__ZN3WTF16VectorBufferBaseIN7CoreIPC10Connection16SyncMessageState28ConnectionAndIncomingMessageEE14allocateBufferEm
__ZN3WTF17BoundFunctionImplINS_15FunctionWrapperIMN7CoreIPC10Connection16SyncMessageStateEFvPS3_EEEFvPS4_NS_6RefPtrIS3_EEEEclEv
__ZN3WTF11VectorMoverILb0EN7CoreIPC10Connection16SyncMessageState28ConnectionAndIncomingMessageEE4moveEPKS4_S7_PS4_
__ZN7CoreIPC10Connection16SyncMessageState63dispatchMessageAndResetDidScheduleDispatchMessagesForConnectionEPS0_
__ZN3WTF7HashSetINS_6RefPtrIN7CoreIPC10ConnectionEEENS_7PtrHashIS4_EENS_10HashTraitsIS4_EEE6removeERKS4_
__ZNK3WTF9HashTableINS_6RefPtrIN7CoreIPC10ConnectionEEES4_NS_17IdentityExtractorENS_7PtrHashIS4_EENS_10HashTraitsIS4_EES9_E4findINS_22IdentityHashTranslatorIS7_EES4_EENS_22HashTableConstIteratorIS4_S4_S5_S7_S9_S9_EERKT0_
__ZN3WTF9HashTableINS_6RefPtrIN7CoreIPC10ConnectionEEES4_NS_17IdentityExtractorENS_7PtrHashIS4_EENS_10HashTraitsIS4_EES9_E6lookupINS_22IdentityHashTranslatorIS7_EES4_EEPS4_RKT0_
__ZN3WTF9HashTableINS_6RefPtrIN7CoreIPC10ConnectionEEES4_NS_17IdentityExtractorENS_7PtrHashIS4_EENS_10HashTraitsIS4_EES9_E6removeEPS4_
__ZN6WebKit14NetworkProcess35createNetworkConnectionToWebProcessEv
__ZN6WebKit29NetworkConnectionToWebProcess6createEN7CoreIPC10Connection10IdentifierE
__ZN6WebKit29NetworkConnectionToWebProcessC2EN7CoreIPC10Connection10IdentifierE
__ZN3WTF6VectorINS_6RefPtrIN6WebKit29NetworkConnectionToWebProcessEEELm0ENS_15CrashOnOverflowEE14appendSlowCaseINS_10PassRefPtrIS3_EEEEvRKT_
__ZN3WTF6VectorINS_6RefPtrIN6WebKit29NetworkConnectionToWebProcessEEELm0ENS_15CrashOnOverflowEE15reserveCapacityEm
__ZN3WTF16VectorBufferBaseINS_6RefPtrIN6WebKit29NetworkConnectionToWebProcessEEEE14allocateBufferEm
__ZN7CoreIPC10Connection4sendIN8Messages19NetworkProcessProxy38DidCreateNetworkConnectionToWebProcessEEEbRKT_yj
__ZN3WTF6VectorIN7CoreIPC10Connection16SyncMessageState28ConnectionAndIncomingMessageELm0ENS_15CrashOnOverflowEE6shrinkEm
__ZN3WTF17BoundFunctionImplINS_15FunctionWrapperIMN7CoreIPC10Connection16SyncMessageStateEFvPS3_EEEFvPS4_NS_6RefPtrIS3_EEEED0Ev
__ZN3WTF17BoundFunctionImplINS_15FunctionWrapperIMN7CoreIPC10Connection16SyncMessageStateEFvPS3_EEEFvPS4_NS_6RefPtrIS3_EEEED2Ev
__ZN3WTF20ThreadSafeRefCountedIN7CoreIPC10Connection16SyncMessageStateEE5derefEv
__ZThn8_N6WebKit19NetworkProcessProxy17didReceiveMessageEPN7CoreIPC10ConnectionERNS1_14MessageDecoderE
__ZN6WebKit19NetworkProcessProxy17didReceiveMessageEPN7CoreIPC10ConnectionERNS1_14MessageDecoderE
__ZN6WebKit17ChildProcessProxy15dispatchMessageEPN7CoreIPC10ConnectionERNS1_14MessageDecoderE
__ZN6WebKit10WebContext15dispatchMessageEPN7CoreIPC10ConnectionERNS1_14MessageDecoderE
__ZN6WebKit19NetworkProcessProxy36didReceiveNetworkProcessProxyMessageEPN7CoreIPC10ConnectionERNS1_14MessageDecoderE
__ZN7CoreIPC13handleMessageIN8Messages19NetworkProcessProxy38DidCreateNetworkConnectionToWebProcessEN6WebKit19NetworkProcessProxyEMS5_FvRKNS_10AttachmentEEEEvRNS_14MessageDecoderEPT0_T1_
__ZN6WebKit19NetworkProcessProxy38didCreateNetworkConnectionToWebProcessERKN7CoreIPC10AttachmentE
__ZN3WTF5DequeINS_6RefPtrIN8Messages15WebProcessProxy27GetNetworkProcessConnection12DelayedReplyEEELm0EE11removeFirstEv
__ZN8Messages15WebProcessProxy27GetNetworkProcessConnection12DelayedReply4sendERKN7CoreIPC10AttachmentE
__ZN7CoreIPC10Connection13sendSyncReplyEN3WTF10PassOwnPtrINS_14MessageEncoderEEE
__ZN3WTF20ThreadSafeRefCountedIN8Messages15WebProcessProxy27GetNetworkProcessConnection12DelayedReplyEE5derefEv
__ZN8Messages15WebProcessProxy27GetNetworkProcessConnection12DelayedReplyD1Ev
__ZN8Messages15WebProcessProxy27GetNetworkProcessConnection12DelayedReplyD2Ev
__ZN7CoreIPC10Connection24processIncomingSyncReplyEN3WTF10PassOwnPtrINS_14MessageDecoderEEE
__ZN6WebKit24NetworkProcessConnectionC1EN7CoreIPC10Connection10IdentifierE
__ZN6WebKit24NetworkProcessConnectionC2EN7CoreIPC10Connection10IdentifierE
__ZN3WTF6RefPtrIN6WebKit24NetworkProcessConnectionEEaSERKNS_10PassRefPtrIS2_EE
__ZN6WebKit17CookieStorageShim6sharedEv
__ZN6WebKit17CookieStorageShim10initializeEv
__ZN6WebKit10WebProcess25postInjectedBundleMessageERKN7CoreIPC13DataReferenceE
__ZN7CoreIPC15ArgumentDecoder6createEPKhm
__ZN3WTF6VectorINS_6RefPtrIN6WebKit9APIObjectEEELm0ENS_15CrashOnOverflowEE14appendSlowCaseINS_10PassRefPtrIS3_EEEEvRKT_
__ZN6WebKit14InjectedBundle17didReceiveMessageERKN3WTF6StringEPNS_9APIObjectE
__ZN6WebKit20InjectedBundleClient17didReceiveMessageEPNS_14InjectedBundleERKN3WTF6StringEPNS_9APIObjectE
_WKStringIsEqual
_WKGetTypeID
_WKArrayGetTypeID
_WKStringGetTypeID
_WKURLGetTypeID
_WKUInt64GetTypeID
_WKUInt64GetValue
__ZN7CoreIPC15ArgumentDecoderD0Ev
_WKBundleScriptWorldCreateWorld
__ZN6WebKit25InjectedBundleScriptWorld6createEv
__ZN6WebKit25InjectedBundleScriptWorldC2EN3WTF10PassRefPtrIN7WebCore15DOMWrapperWorldEEE
__ZN6WebKitL9allWorldsEv
_WKBooleanGetTypeID
_WKBundleAddOriginAccessWhitelistEntry
__ZN6WebKit14InjectedBundle29addOriginAccessWhitelistEntryERKN3WTF6StringES4_S4_b
__ZNK6WebKit14TypedAPIObjectILNS_9APIObject4TypeE81EE4typeEv
_WKBundlePageGroupGetTypeID
_WKBundleAddUserStyleSheet
__ZN6WebKit14InjectedBundle17addUserStyleSheetEPNS_17WebPageGroupProxyEPNS_25InjectedBundleScriptWorldERKN3WTF6StringES8_PNS_14ImmutableArrayESA_N7WebCore25UserContentInjectedFramesE
__ZNK6WebKit25InjectedBundleScriptWorld9coreWorldEv
__ZN6WebKitL14toStringVectorEPNS_14ImmutableArrayE
_WKBundleAddUserScript
__ZN6WebKit14InjectedBundle13addUserScriptEPNS_17WebPageGroupProxyEPNS_25InjectedBundleScriptWorldERKN3WTF6StringES8_PNS_14ImmutableArrayESA_N7WebCore23UserScriptInjectionTimeENSB_25UserContentInjectedFramesE
__ZThn8_N6WebKit22WebNotificationManager17didReceiveMessageEPN7CoreIPC10ConnectionERNS1_14MessageDecoderE
__ZN6WebKit22WebNotificationManager17didReceiveMessageEPN7CoreIPC10ConnectionERNS1_14MessageDecoderE
__ZN7CoreIPC13handleMessageIN8Messages22WebNotificationManager29DidUpdateNotificationDecisionEN6WebKit22WebNotificationManagerEMS5_FvRKN3WTF6StringEbEEEvRNS_14MessageDecoderEPT0_T1_
__ZN7CoreIPC10Arguments2IN3WTF6StringEbE6decodeERNS_15ArgumentDecoderERS3_
__ZN6WebKit22WebNotificationManager29didUpdateNotificationDecisionERKN3WTF6StringEb
__ZN3WTF9HashTableIPN7WebCore15DOMWrapperWorldENS_12KeyValuePairIS3_PN6WebKit25InjectedBundleScriptWorldEEENS_24KeyValuePairKeyExtractorIS8_EENS_7PtrHashIS3_EENS_18HashMapValueTraitsINS_10HashTraitsIS3_EENSE_IS7_EEEESF_E16lookupForWritingINS_22IdentityHashTranslatorISC_EES3_EENSt3__14pairIPS8_bEERKT0_
__ZN3WTF9HashTableIPN7WebCore15DOMWrapperWorldENS_12KeyValuePairIS3_PN6WebKit25InjectedBundleScriptWorldEEENS_24KeyValuePairKeyExtractorIS8_EENS_7PtrHashIS3_EENS_18HashMapValueTraitsINS_10HashTraitsIS3_EENSE_IS7_EEEESF_E3addINS_17HashMapTranslatorISH_SC_EES3_S7_EENS_18HashTableAddResultINS_17HashTableIteratorIS3_S8_SA_SC_SH_SF_EEEERKT0_RKT1_
__ZN3WTF9HashTableIPN7WebCore15DOMWrapperWorldENS_12KeyValuePairIS3_PN6WebKit25InjectedBundleScriptWorldEEENS_24KeyValuePairKeyExtractorIS8_EENS_7PtrHashIS3_EENS_18HashMapValueTraitsINS_10HashTraitsIS3_EENSE_IS7_EEEESF_E4findINS_22IdentityHashTranslatorISC_EES3_EENS_17HashTableIteratorIS3_S8_SA_SC_SH_SF_EERKT0_
__ZN3WTF9HashTableIPN7WebCore15DOMWrapperWorldENS_12KeyValuePairIS3_PN6WebKit25InjectedBundleScriptWorldEEENS_24KeyValuePairKeyExtractorIS8_EENS_7PtrHashIS3_EENS_18HashMapValueTraitsINS_10HashTraitsIS3_EENSE_IS7_EEEESF_E6expandEv
__ZN3WTF9HashTableIPN7WebCore15DOMWrapperWorldENS_12KeyValuePairIS3_PN6WebKit25InjectedBundleScriptWorldEEENS_24KeyValuePairKeyExtractorIS8_EENS_7PtrHashIS3_EENS_18HashMapValueTraitsINS_10HashTraitsIS3_EENSE_IS7_EEEESF_E6lookupINS_22IdentityHashTranslatorISC_EES3_EEPS8_RKT0_
__ZN3WTF9HashTableIPN7WebCore15DOMWrapperWorldENS_12KeyValuePairIS3_PN6WebKit25InjectedBundleScriptWorldEEENS_24KeyValuePairKeyExtractorIS8_EENS_7PtrHashIS3_EENS_18HashMapValueTraitsINS_10HashTraitsIS3_EENSE_IS7_EEEESF_E6rehashEi
__ZN3WTF9HashTableIPN7WebCore15DOMWrapperWorldENS_12KeyValuePairIS3_PN6WebKit25InjectedBundleScriptWorldEEENS_24KeyValuePairKeyExtractorIS8_EENS_7PtrHashIS3_EENS_18HashMapValueTraitsINS_10HashTraitsIS3_EENSE_IS7_EEEESF_E6removeEPS8_
__ZN7CoreIPC13handleMessageIN8Messages10WebProcess13CreateWebPageEN6WebKit10WebProcessEMS5_FvyRKNS4_25WebPageCreationParametersEEEEvRNS_14MessageDecoderEPT0_T1_
__ZN7CoreIPC10Arguments2IyN6WebKit25WebPageCreationParametersEE6decodeERNS_15ArgumentDecoderERS3_
__ZN6WebKit25WebPageCreationParameters6decodeERN7CoreIPC15ArgumentDecoderERS0_
__ZN7CoreIPC13ArgumentCoderIN7WebCore7IntSizeEE6decodeERNS_15ArgumentDecoderERS2_
__ZN6WebKit19WebPreferencesStore6decodeERN7CoreIPC15ArgumentDecoderERS0_
__ZN7CoreIPC13ArgumentCoderIN3WTF7HashMapINS1_6StringES3_NS1_10StringHashENS1_10HashTraitsIS3_EES6_EEE6decodeERNS_15ArgumentDecoderERS7_
__ZN7CoreIPC13ArgumentCoderIN3WTF7HashMapINS1_6StringEjNS1_10StringHashENS1_10HashTraitsIS3_EENS5_IjEEEEE6decodeERNS_15ArgumentDecoderERS8_
__ZN7CoreIPC13ArgumentCoderIN3WTF7HashMapINS1_6StringEdNS1_10StringHashENS1_10HashTraitsIS3_EENS5_IdEEEEE6decodeERNS_15ArgumentDecoderERS8_
__ZN7CoreIPC13ArgumentCoderIN3WTF7HashMapINS1_6StringEfNS1_10StringHashENS1_10HashTraitsIS3_EENS5_IfEEEEE6decodeERNS_15ArgumentDecoderERS8_
__ZN7CoreIPC13ArgumentCoderIN7WebCore5ColorEE6decodeERNS_15ArgumentDecoderERS2_
__ZN6WebKit12SessionState6decodeERN7CoreIPC15ArgumentDecoderERS0_
__ZN7CoreIPC19VectorArgumentCoderILb0EN3WTF6RefPtrIN6WebKit22WebBackForwardListItemEEEE6decodeERNS_15ArgumentDecoderERNS1_6VectorIS5_Lm0ENS1_15CrashOnOverflowEEE
__ZN3WTF6VectorINS_6RefPtrIN6WebKit22WebBackForwardListItemEEELm0ENS_15CrashOnOverflowEE14shrinkCapacityEm
__ZN7CoreIPC15ArgumentDecoder6decodeERf
__ZN6WebKit14ColorSpaceData6decodeERN7CoreIPC15ArgumentDecoderERS0_
__ZN7CoreIPC6decodeERNS_15ArgumentDecoderERN3WTF9RetainPtrIPK8__CFDataEE
__ZN6WebKit10WebProcess13createWebPageEyRKNS_25WebPageCreationParametersE
__ZN3WTF17HashMapTranslatorINS_18HashMapValueTraitsINS_10HashTraitsIyEENS2_INS_6RefPtrIN6WebKit7WebPageEEEEEEENS_7IntHashIyEEE9translateINS_12KeyValuePairIyS7_EEyNS_10PassRefPtrIS6_EEEEvRT_RKT0_RKT1_
__ZN6WebKit7WebPage6createEyRKNS_25WebPageCreationParametersE
__ZN6WebKit7WebPageC2EyRKNS_25WebPageCreationParametersE
__ZN6WebKit14FindControllerC1EPNS_7WebPageE
__ZN6WebKit35GeolocationPermissionRequestManagerC1EPNS_7WebPageE
__ZN6WebKit23WebBackForwardListProxyC1EPNS_7WebPageE
__ZN3WTF6RefPtrIN7WebCore15BackForwardListEEaSIN6WebKit23WebBackForwardListProxyEEERS3_RKNS_10PassRefPtrIT_EE
__ZN6WebKit24WebAlternativeTextClientC1EPNS_7WebPageE
__ZN6WebKit15WebPlugInClientC1EPNS_7WebPageE
__ZNK7WebCore20InspectorStateClient29supportsInspectorStateUpdatesEv
__ZN6WebKit15WebChromeClient24incrementActivePageCountEv
__ZN6WebKit12ChildProcess24incrementActiveTaskCountEv
__ZN3WTF6OwnPtrIN7WebCore4PageEEaSERKNS_10PassOwnPtrIS2_EE
__ZN3WTF10PassOwnPtrIN7WebCore4PageEED2Ev
__ZN6WebKit21WebNotificationClientC1EPNS_7WebPageE
__ZN3WTF6RefPtrIN6WebKit17WebPageGroupProxyEEaSEPS2_
__ZN6WebKit11DrawingArea6createEPNS_7WebPageERKNS_25WebPageCreationParametersE
__ZN6WebKit29TiledCoreAnimationDrawingArea6createEPNS_7WebPageERKNS_25WebPageCreationParametersE
__ZN6WebKit29TiledCoreAnimationDrawingAreaC2EPNS_7WebPageERKNS_25WebPageCreationParametersE
__ZN6WebKit11DrawingAreaC2ENS_15DrawingAreaTypeEPNS_7WebPageE
__ZN6WebKit15EventDispatcher23addScrollingTreeForPageEPNS_7WebPageE
__ZN3WTF7HashMapIyNS_6RefPtrIN7WebCore13ScrollingTreeEEENS_7IntHashIyEENS_10HashTraitsIyEENS7_IS4_EEE3setERKyNS_10PassRefPtrIS3_EE
__ZN3WTF9RetainPtrI7CALayerEaSI11objc_objectEERS2_PT_
__ZN6WebKit29TiledCoreAnimationDrawingArea25updateLayerHostingContextEv
__ZN6WebKit19LayerHostingContext21createForWindowServerEv
__ZN3WTF10PassOwnPtrIN6WebKit19LayerHostingContextEED2Ev
_WKCAContextMakeRemoteForWindowServer
__ZN3WTF9RetainPtrIP16__WKCAContextRefEaSES2_
__ZN3WTF6OwnPtrIN6WebKit19LayerHostingContextEED2Ev
__ZN3WTF6OwnPtrIN6WebKit19LayerHostingContextEEaSERKNS_10PassOwnPtrIS2_EE
__ZN6WebKit19LayerHostingContext12setRootLayerEP7CALayer
_WKCAContextSetLayer
__ZN6WebKit29TiledCoreAnimationDrawingArea13setColorSpaceERKNS_14ColorSpaceDataE
__ZN6WebKit19LayerHostingContext13setColorSpaceEP12CGColorSpace
_WKCAContextSetColorSpace
__ZNK6WebKit19LayerHostingContext9contextIDEv
_WKCAContextGetContextId
__ZThn24_N6WebKit7WebPage26messageSenderDestinationIDEv
__ZN7CoreIPC13MessageSender4sendIN8Messages16DrawingAreaProxy31EnterAcceleratedCompositingModeEEEbRKT_y
__ZNK6WebKit16LayerTreeContext6encodeERN7CoreIPC15ArgumentEncoderE
__ZN7CoreIPC13MessageSender11sendMessageEN3WTF10PassOwnPtrINS_14MessageEncoderEEE
__ZThn24_N6WebKit7WebPage23messageSenderConnectionEv
__ZN6WebKit16LayerTreeContextD1Ev
__ZN6WebKit11DrawingArea18setPaintingEnabledEb
__ZN6WebKit7WebPage17updatePreferencesERKNS_19WebPreferencesStoreE
__ZThn8_N6WebKit15WebProcessProxy17didReceiveMessageEPN7CoreIPC10ConnectionERNS1_14MessageDecoderE
__ZN6WebKit15WebProcessProxy17didReceiveMessageEPN7CoreIPC10ConnectionERNS1_14MessageDecoderE
__ZN6WebKit16DrawingAreaProxy17didReceiveMessageEPN7CoreIPC10ConnectionERNS1_14MessageDecoderE
__ZN7CoreIPC13handleMessageIN8Messages16DrawingAreaProxy31EnterAcceleratedCompositingModeEN6WebKit16DrawingAreaProxyEMS5_FvyRKNS4_16LayerTreeContextEEEEvRNS_14MessageDecoderEPT0_T1_
__ZN7CoreIPC10Arguments2IyN6WebKit16LayerTreeContextEE6decodeERNS_15ArgumentDecoderERS3_
__ZN6WebKit16LayerTreeContext6decodeERN7CoreIPC15ArgumentDecoderERS0_
__ZN6WebKit34TiledCoreAnimationDrawingAreaProxy31enterAcceleratedCompositingModeEyRKNS_16LayerTreeContextE
__ZN6WebKit12WebPageProxy31enterAcceleratedCompositingModeERKNS_16LayerTreeContextE
__ZN6WebKit14PageClientImpl31enterAcceleratedCompositingModeERKNS_16LayerTreeContextE
_WKMakeRenderLayer
-[WKView(Internal) _setAcceleratedCompositingModeRootLayer:]
__ZN3WTF9RetainPtrIP13WKFlippedViewEC2ENS_10AdoptNSTagES2_
__ZN3WTF9RetainPtrI6NSViewEaSIP13WKFlippedViewEERS2_ONS0_IT_EE
-[WKFlippedView isFlipped]
__ZN3WTF9RetainPtrIP7CALayerEC2ENS_10AdoptNSTagES2_
__ZN3WTF9RetainPtrI7CALayerEC2IPS1_EERKNS0_IT_EE
__ZNK6WebKit19WebPreferencesStore20getStringValueForKeyERKN3WTF6StringE
__ZN3WTF12AtomicStringC2ERKNS_6StringE
__ZNK6WebKit19WebPreferencesStore20getDoubleValueForKeyERKN3WTF6StringE
__ZN6WebKitL11valueForKeyIN3WTF7HashMapINS1_6StringEdNS1_10StringHashENS1_10HashTraitsIS3_EENS5_IdEEEEEENT_10MappedTypeERKS9_RKNS9_7KeyTypeE
__ZN6WebKit18defaultValueForKeyIdEET_RKN3WTF6StringE
__ZN3WTF9HashTableINS_6StringENS_12KeyValuePairIS1_dEENS_24KeyValuePairKeyExtractorIS3_EENS_10StringHashENS_18HashMapValueTraitsINS_10HashTraitsIS1_EENS8_IdEEEES9_E13allocateTableEi
__ZN3WTF9HashTableINS_6StringENS_12KeyValuePairIS1_dEENS_24KeyValuePairKeyExtractorIS3_EENS_10StringHashENS_18HashMapValueTraitsINS_10HashTraitsIS1_EENS8_IdEEEES9_E15deallocateTableEPS3_i
__ZN3WTF9HashTableINS_6StringENS_12KeyValuePairIS1_dEENS_24KeyValuePairKeyExtractorIS3_EENS_10StringHashENS_18HashMapValueTraitsINS_10HashTraitsIS1_EENS8_IdEEEES9_E16lookupForWritingINS_22IdentityHashTranslatorIS6_EES1_EENSt3__14pairIPS3_bEERKT0_
__ZN3WTF9HashTableINS_6StringENS_12KeyValuePairIS1_dEENS_24KeyValuePairKeyExtractorIS3_EENS_10StringHashENS_18HashMapValueTraitsINS_10HashTraitsIS1_EENS8_IdEEEES9_E3addINS_17HashMapTranslatorISB_S6_EES1_dEENS_18HashTableAddResultINS_17HashTableIteratorIS1_S3_S5_S6_SB_S9_EEEERKT0_RKT1_
__ZN3WTF9HashTableINS_6StringENS_12KeyValuePairIS1_dEENS_24KeyValuePairKeyExtractorIS3_EENS_10StringHashENS_18HashMapValueTraitsINS_10HashTraitsIS1_EENS8_IdEEEES9_E3addINS_22IdentityHashTranslatorIS6_EES1_S3_EENS_18HashTableAddResultINS_17HashTableIteratorIS1_S3_S5_S6_SB_S9_EEEERKT0_RKT1_
__ZN3WTF9HashTableINS_6StringENS_12KeyValuePairIS1_dEENS_24KeyValuePairKeyExtractorIS3_EENS_10StringHashENS_18HashMapValueTraitsINS_10HashTraitsIS1_EENS8_IdEEEES9_E4findINS_22IdentityHashTranslatorIS6_EES1_EENS_17HashTableIteratorIS1_S3_S5_S6_SB_S9_EERKT0_
__ZN3WTF9HashTableINS_6StringENS_12KeyValuePairIS1_dEENS_24KeyValuePairKeyExtractorIS3_EENS_10StringHashENS_18HashMapValueTraitsINS_10HashTraitsIS1_EENS8_IdEEEES9_E6expandEv
__ZN3WTF9HashTableINS_6StringENS_12KeyValuePairIS1_dEENS_24KeyValuePairKeyExtractorIS3_EENS_10StringHashENS_18HashMapValueTraitsINS_10HashTraitsIS1_EENS8_IdEEEES9_E6lookupINS_22IdentityHashTranslatorIS6_EES1_EEPS3_RKT0_
__ZN3WTF9HashTableINS_6StringENS_12KeyValuePairIS1_dEENS_24KeyValuePairKeyExtractorIS3_EENS_10StringHashENS_18HashMapValueTraitsINS_10HashTraitsIS1_EENS8_IdEEEES9_E6rehashEi
__ZN3WTF9HashTableINS_6StringENS_12KeyValuePairIS1_dEENS_24KeyValuePairKeyExtractorIS3_EENS_10StringHashENS_18HashMapValueTraitsINS_10HashTraitsIS1_EENS8_IdEEEES9_EC2ERKSC_
__ZN3WTF9HashTableINS_6StringENS_12KeyValuePairIS1_dEENS_24KeyValuePairKeyExtractorIS3_EENS_10StringHashENS_18HashMapValueTraitsINS_10HashTraitsIS1_EENS8_IdEEEES9_EaSERKSC_
__ZN6WebKit7WebPage28platformPreferencesDidChangeERKNS_19WebPreferencesStoreE
__ZN6WebKit7WebPage9inspectorEv
__ZN6WebKit12WebInspector6createEPNS_7WebPageEPN7WebCore24InspectorFrontendChannelE
__ZN6WebKit12WebInspector35setInspectorUsesWebKitUserInterfaceEb
__ZN6WebKit15classFromPDFKitEP8NSString
__ZN6WebKit29TiledCoreAnimationDrawingArea17updatePreferencesERKNS_19WebPreferencesStoreE
__ZN6WebKit7WebPage18platformInitializeEv
__ZN3WTF17BoundFunctionImplINS_15FunctionWrapperIMN7WebCore13ScrollingTreeEFvbEEEFvPS3_bEEclEv
__ZN3WTF12SchedulePair6createEP9NSRunLoopPK10__CFString
__ZN3WTF17BoundFunctionImplINS_15FunctionWrapperIMN7WebCore13ScrollingTreeEFvbEEEFvPS3_bEED0Ev
__ZN3WTF20ThreadSafeRefCountedIN7WebCore13ScrollingTreeEE5derefEv
_WKAXInitializeElementWithPresenterPid
-[WKAccessibilityWebPageObject setWebPage:]
-[WKAccessibilityWebPageObject accessibilityShouldUseUniqueId]
__ZN7CoreIPC13MessageSender4sendIN8Messages12WebPageProxy36RegisterWebProcessAccessibilityTokenEEEbRKT_y
__ZN3WTF9RetainPtrI28WKAccessibilityWebPageObjectEaSEPS1_
__ZN6WebKit8WebFrame15createMainFrameEPNS_7WebPageE
__ZN6WebKit8WebFrameC2Ev
__ZN6WebKit20WebFrameLoaderClientC1EPNS_8WebFrameE
__ZN6WebKit10WebProcess11addWebFrameEyPNS_8WebFrameE
__ZN7CoreIPC13MessageSender4sendIN8Messages12WebPageProxy18DidCreateMainFrameEEEbRKT_y
__ZN6WebKit8WebFrame4initEPNS_7WebPageERKN3WTF6StringEPN7WebCore21HTMLFrameOwnerElementE
__ZThn24_N6WebKit12WebPageProxy17didReceiveMessageEPN7CoreIPC10ConnectionERNS1_14MessageDecoderE
__ZN6WebKit12WebPageProxy17didReceiveMessageEPN7CoreIPC10ConnectionERNS1_14MessageDecoderE
__ZN6WebKit12WebPageProxy36registerWebProcessAccessibilityTokenERKN7CoreIPC13DataReferenceE
__ZN6WebKit14PageClientImpl36accessibilityWebProcessTokenReceivedERKN7CoreIPC13DataReferenceE
-[WKView(Internal) _setAccessibilityWebProcessToken:]
_WKAXRemoteElementForToken
__ZN3WTF9RetainPtrIP11objc_objectEaSES2_
-[WKView _updateRemoteAccessibilityRegistration:]
_WKAXRegisterRemoteProcess
__ZN6WebKit12WebPageProxy18didCreateMainFrameEy
__ZNK6WebKit15WebProcessProxy14canCreateFrameEy
__ZN6WebKit13WebFrameProxyC1EPNS_12WebPageProxyEy
__ZN6WebKit15WebProcessProxy12frameCreatedEyPNS_13WebFrameProxyE
__ZN3WTF7HashMapIyNS_6RefPtrIN6WebKit13WebFrameProxyEEENS_7IntHashIyEENS_10HashTraitsIyEENS7_IS4_EEE3setERKyNS_10PassRefPtrIS3_EE
__ZN3WTF17HashMapTranslatorINS_18HashMapValueTraitsINS_10HashTraitsIyEENS2_INS_6RefPtrIN6WebKit13WebFrameProxyEEEEEEENS_7IntHashIyEEE9translateINS_12KeyValuePairIyS7_EEyNS_10PassRefPtrIS6_EEEEvRT_RKT0_RKT1_
__ZN6WebKit20WebFrameLoaderClient20createDocumentLoaderERKN7WebCore15ResourceRequestERKNS1_14SubstituteDataE
__ZN6WebKit20WebFrameLoaderClient25setMainFrameDocumentReadyEb
__ZN6WebKit20WebFrameLoaderClient17setCopiesOnScrollEv
__ZN6WebKit20WebFrameLoaderClient31prepareForDataSourceReplacementEv
__ZN6WebKit20WebFrameLoaderClient31transitionToCommittedForNewPageEv
__ZNK6WebKit8WebFrame4pageEv
__ZN6WebKit7WebPage12fromCorePageEPN7WebCore4PageE
__ZNK7WebCore12ChromeClient25shouldPaintEntireContentsEv
__ZN6WebKit20WebFrameLoaderClient21didChangeScrollOffsetEv
__ZN6WebKit29TiledCoreAnimationDrawingArea32didChangeScrollOffsetForAnyFrameEv
__ZN6WebKit29TiledCoreAnimationDrawingArea25invalidateAllPageOverlaysEv
__ZNK6WebKit8WebFrame11isMainFrameEv
__ZNK6WebKit20WebFrameLoaderClient29shouldAlwaysUsePluginDocumentERKN3WTF6StringE
__ZNK6WebKit20WebFrameLoaderClient11hasHTMLViewEv
__ZN6WebKit21WebPlatformStrategies20createLoaderStrategyEv
__ZThn88_N6WebKit21WebPlatformStrategies21resourceLoadSchedulerEv
__ZN6WebKit21WebPlatformStrategies21resourceLoadSchedulerEv
__ZN6WebKit10WebProcess24webResourceLoadSchedulerEv
__ZN6WebKit24WebResourceLoadScheduler22suspendPendingRequestsEv
__ZNK6WebKit15WebChromeClient26allowedCompositingTriggersEv
__ZNK6WebKit15WebChromeClient20graphicsLayerFactoryEv
__ZN6WebKit11DrawingArea20graphicsLayerFactoryEv
__ZN6WebKit15WebChromeClient29scheduleCompositingLayerFlushEv
__ZN6WebKit29TiledCoreAnimationDrawingArea29scheduleCompositingLayerFlushEv
__ZNK6WebKit15WebChromeClient13underlayColorEv
_WKCGPatternCreateWithImageAndTransform
__ZN6WebKit15WebChromeClient23attachRootGraphicsLayerEPN7WebCore5FrameEPNS1_13GraphicsLayerE
__ZN6WebKit7WebPage31enterAcceleratedCompositingModeEPN7WebCore13GraphicsLayerE
__ZN6WebKit29TiledCoreAnimationDrawingArea23setRootCompositingLayerEPN7WebCore13GraphicsLayerE
__ZN6WebKit29TiledCoreAnimationDrawingArea23setRootCompositingLayerEP7CALayer
__ZN6WebKit29TiledCoreAnimationDrawingArea33updateMainFrameClipsToExposedRectEv
__ZN6WebKit29TiledCoreAnimationDrawingArea20updateDebugInfoLayerEb
__ZN6WebKit15WebChromeClient37setNeedsOneShotDrawingSynchronizationEv
__ZN6WebKit24WebResourceLoadScheduler21resumePendingRequestsEv
__ZNK6WebKit15WebChromeClient35dispatchViewportPropertiesDidChangeERKN7WebCore17ViewportArgumentsE
__ZN6WebKit15WebChromeClient28numWheelEventHandlersChangedEj
__ZN6WebKit7WebPage28numWheelEventHandlersChangedEj
__ZN6WebKit20WebFrameLoaderClient11allowScriptEb
__ZN7WebCore17FrameLoaderClient12allowPluginsEb
__ZN6WebKit20WebFrameLoaderClient15finishedLoadingEPN7WebCore14DocumentLoaderE
__ZNK6WebKit20WebFrameLoaderClient17overrideMediaTypeEv
__ZN6WebKit20WebFrameLoaderClient24documentElementAvailableEv
__ZN7WebCore17FrameLoaderClient22dispatchWillInsertBodyEv
__ZN6WebKit20WebFrameLoaderClient18frameLoadCompletedEv
__ZN6WebKit20WebFrameLoaderClient21forceLayoutForNonHTMLEv
__ZN6WebKit20WebFrameLoaderClient23createNetworkingContextEv
__ZN3WTF10RefCountedIN7WebCore5FrameEE5derefEv
__ZN6WebKit7WebPage17setUseFixedLayoutEb
__ZN6WebKit7WebPage18setDrawsBackgroundEb
__ZN6WebKit7WebPage29setDrawsTransparentBackgroundEb
__ZN6WebKit7WebPage9setActiveEb
__ZN6WebKit15WebChromeClient29invalidateContentsAndRootViewERKN7WebCore7IntRectEb
__ZN6WebKit29TiledCoreAnimationDrawingArea21setNeedsDisplayInRectERKN7WebCore7IntRectE
__ZN6WebKit20WebFrameLoaderClient17dispatchDidLayoutEv
__ZN6WebKit30InjectedBundlePageLoaderClient17didLayoutForFrameEPNS_7WebPageEPNS_8WebFrameE
__ZN6WebKit7WebPage47recomputeShortCircuitHorizontalWheelEventsStateEv
__ZN7CoreIPC13MessageSender4sendIN8Messages12WebPageProxy39SetCanShortCircuitHorizontalWheelEventsEEEbRKT_y
__ZNK6WebKit7WebPage14renderTreeSizeEv
__ZN7CoreIPC13MessageSender4sendIN8Messages12WebPageProxy17SetRenderTreeSizeEEEbRKT_y
__ZN6WebKit7WebPage18mainFrameDidLayoutEv
__ZNK7WebCore12ChromeClient13layoutUpdatedEPNS_5FrameE
__ZNK3WTF9HashTableIPN6WebKit10PluginViewES3_NS_17IdentityExtractorENS_7PtrHashIS3_EENS_10HashTraitsIS3_EES8_E5beginEv
__ZN6WebKit7WebPage30exitAcceleratedCompositingModeEv
__ZN6WebKit7WebPage13setIsInWindowEb
__ZN6WebKit7WebPage20setMinimumLayoutSizeERKN7WebCore7IntSizeE
__ZN6WebKit7WebPage37setAutoSizingShouldExpandToViewHeightEb
__ZN6WebKit23WebBackForwardListProxy29setHighestItemIDFromUIProcessEy
__ZNK6WebKit12SessionState7isEmptyEv
__ZN6WebKit12ChildProcess18addMessageReceiverEN7CoreIPC15StringReferenceEyPNS1_15MessageReceiverE
__ZN6WebKit14InjectedBundle13didCreatePageEPNS_7WebPageE
__ZN6WebKit20InjectedBundleClient13didCreatePageEPNS_14InjectedBundleEPNS_7WebPageE
_WKBundlePageGetPageGroup
_WKBundlePageListenForLayoutMilestones
__ZN6WebKit7WebPage25listenForLayoutMilestonesEj
_WKBundlePageSetContextMenuClient
__ZN6WebKit7WebPage41initializeInjectedBundleContextMenuClientEP29WKBundlePageContextMenuClient
__ZN6WebKit9APIClientI29WKBundlePageContextMenuClientLi0EE10initializeEPKS1_
_WKBundlePageSetFormClient
__ZN6WebKit7WebPage34initializeInjectedBundleFormClientEP22WKBundlePageFormClient
__ZN6WebKit9APIClientI22WKBundlePageFormClientLi2EE10initializeEPKS1_
_WKBundlePageSetPageLoaderClient
__ZN6WebKit7WebPage36initializeInjectedBundleLoaderClientEP24WKBundlePageLoaderClient
__ZN6WebKit9APIClientI24WKBundlePageLoaderClientLi6EE10initializeEPKS1_
_WKBundlePageSetResourceLoadClient
__ZN6WebKit7WebPage42initializeInjectedBundleResourceLoadClientEP30WKBundlePageResourceLoadClient
__ZN6WebKit9APIClientI30WKBundlePageResourceLoadClientLi1EE10initializeEPKS1_
_WKBundlePageSetPolicyClient
__ZN6WebKit7WebPage36initializeInjectedBundlePolicyClientEP24WKBundlePagePolicyClient
__ZN6WebKit9APIClientI24WKBundlePagePolicyClientLi0EE10initializeEPKS1_
_WKBundlePageSetDiagnosticLoggingClient
__ZN6WebKit7WebPage47initializeInjectedBundleDiagnosticLoggingClientEP35WKBundlePageDiagnosticLoggingClient
__ZN6WebKit9APIClientI35WKBundlePageDiagnosticLoggingClientLi0EE10initializeEPKS1_
_WKBundlePageSetUIClient
__ZN6WebKit7WebPage32initializeInjectedBundleUIClientEP20WKBundlePageUIClient
__ZN6WebKit9APIClientI20WKBundlePageUIClientLi2EE10initializeEPKS1_
__ZN6WebKit12ChildProcess18disableTerminationEv
__ZThn16_N6WebKit7WebPage17didReceiveMessageEPN7CoreIPC10ConnectionERNS1_14MessageDecoderE
__ZN6WebKit7WebPage17didReceiveMessageEPN7CoreIPC10ConnectionERNS1_14MessageDecoderE
__ZN6WebKit7WebPage24didReceiveWebPageMessageEPN7CoreIPC10ConnectionERNS1_14MessageDecoderE
__ZN7CoreIPC13handleMessageIN8Messages7WebPage18SetVisibilityStateEN6WebKit7WebPageEMS5_FvjbEEEvRNS_14MessageDecoderEPT0_T1_
__ZN7CoreIPC10Arguments2IjbE6decodeERNS_15ArgumentDecoderERS1_
__ZN6WebKit7WebPage18setVisibilityStateEjb
__ZN6WebKit7WebPage27setSmartInsertDeleteEnabledEb
__ZN7CoreIPC13handleMessageIN8Messages7WebPage12SetUserAgentEN6WebKit7WebPageEMS5_FvRKN3WTF6StringEEEEvRNS_14MessageDecoderEPT0_T1_
__ZN6WebKit7WebPage12setUserAgentERKN3WTF6StringE
__ZN6WebKit11DrawingArea28didReceiveDrawingAreaMessageEPN7CoreIPC10ConnectionERNS1_14MessageDecoderE
__ZN7CoreIPC13handleMessageIN8Messages11DrawingArea14UpdateGeometryEN6WebKit11DrawingAreaEMS5_FvRKN7WebCore7IntSizeES9_EEEvRNS_14MessageDecoderEPT0_T1_
__ZN7CoreIPC10Arguments2IN7WebCore7IntSizeES2_E6decodeERNS_15ArgumentDecoderERS3_
__ZN6WebKit29TiledCoreAnimationDrawingArea14updateGeometryERKN7WebCore7IntSizeES4_
__ZN6WebKit7WebPage7setSizeERKN7WebCore7IntSizeE
__ZN6WebKit29TiledCoreAnimationDrawingArea15setNeedsDisplayEv
__ZNK6WebKit7WebPage13mainFrameViewEv
__ZN6WebKit7WebPage14layoutIfNeededEv
__ZNK6WebKit15WebChromeClient19contentsSizeChangedEPN7WebCore5FrameERKNS1_7IntSizeE
__ZNK6WebKit8WebFrame10isFrameSetEv
__ZN6WebKit29TiledCoreAnimationDrawingArea27mainFrameContentSizeChangedERKN7WebCore7IntSizeE
_WKBundleFrameIsMainFrame
__ZN6WebKit29TiledCoreAnimationDrawingArea11flushLayersEv
__ZN7CoreIPC13MessageSender4sendIN8Messages16DrawingAreaProxy17DidUpdateGeometryEEEbRKT_y
__ZN6WebKit7WebPage21windowScreenDidChangeEy
__ZN6WebKit7WebPage18setWindowIsVisibleEb
__ZN6WebKit34TiledCoreAnimationDrawingAreaProxy17didUpdateGeometryEv
__ZN6WebKit10WebProcess18pageDidEnterWindowEy
__ZNK7WebCore9TimerBase15alignedFireTimeEd
__ZN7CoreIPC10Arguments2INS_13DataReferenceES1_E6decodeERNS_15ArgumentDecoderERS2_
__ZN6WebKit7WebPage36registerUIProcessAccessibilityTokensERKN7CoreIPC13DataReferenceES4_
_WKAXSetWindowForRemoteElement
-[WKAccessibilityWebPageObject setRemoteParent:]
__ZN7CoreIPC21handleMessageVariadicIN8Messages7WebPage25PostInjectedBundleMessageEN6WebKit7WebPageEMS5_FvRKN3WTF6StringERNS_14MessageDecoderEEEEvSB_PT0_T1_
__ZN6WebKit7WebPage25postInjectedBundleMessageERKN3WTF6StringERN7CoreIPC14MessageDecoderE
__ZN6WebKit14InjectedBundle23didReceiveMessageToPageEPNS_7WebPageERKN3WTF6StringEPNS_9APIObjectE
__ZN6WebKit20InjectedBundleClient23didReceiveMessageToPageEPNS_14InjectedBundleEPNS_7WebPageERKN3WTF6StringEPNS_9APIObjectE
_WKDoubleGetTypeID
_WKDictionaryGetTypeID
__ZN7CoreIPC21handleMessageVariadicIN8Messages7WebPage14LoadURLRequestEN6WebKit7WebPageEMS5_FvRKN7WebCore15ResourceRequestERKNS4_16SandboxExtension6HandleERNS_14MessageDecoderEEEEvSF_PT0_T1_
__ZN7WebCore15ResourceRequestC2Ev
__ZN7CoreIPC10Arguments2IN7WebCore15ResourceRequestEN6WebKit16SandboxExtension6HandleEE6decodeERNS_15ArgumentDecoderERS6_
__ZN7CoreIPC13ArgumentCoderIN7WebCore15ResourceRequestEE6decodeERNS_15ArgumentDecoderERS2_
__ZN7WebCore15ResourceRequest17setCachePartitionERKN3WTF6StringE
__ZN7CoreIPC13ArgumentCoderIN7WebCore15ResourceRequestEE18decodePlatformDataERNS_15ArgumentDecoderERS2_
__ZN7CoreIPC6decodeERNS_15ArgumentDecoderERN3WTF9RetainPtrIPK14__CFDictionaryEE
__ZN7CoreIPC6decodeERNS_15ArgumentDecoderERN3WTF9RetainPtrIPK10__CFStringEE
__ZN7CoreIPC6decodeERNS_15ArgumentDecoderERN3WTF9RetainPtrIPKvEE
__ZN7CoreIPC6decodeERNS_15ArgumentDecoderERN3WTF9RetainPtrIPK10__CFNumberEE
__ZN7CoreIPC6decodeERNS_15ArgumentDecoderERN3WTF9RetainPtrIPK11__CFBooleanEE
__ZN7CoreIPC6decodeERNS_15ArgumentDecoderERN3WTF9RetainPtrIPK9__CFArrayEE
__ZN7CoreIPC6decodeERNS_15ArgumentDecoderERN3WTF9RetainPtrIPK7__CFURLEE
__ZN3WTF9RetainPtrIPKvEaSES2_
_WKNSURLRequestFromSerializableRepresentation
_createArchiveList
_dictionaryValueOfType
__ZN7WebCore15ResourceRequestC2EP12NSURLRequest
__ZN7WebCore19ResourceRequestBaseC2Ev
__ZN7WebCore4KURLC2Ev
__ZN7WebCore19ResourceRequestBaseaSERKS0_
__ZN3WTF6VectorINS_6StringELm0ENS_15CrashOnOverflowEEaSERKS3_
__ZN3WTF6RefPtrIN7WebCore8FormDataEEaSERKS3_
__ZN3WTF9RetainPtrI12NSURLRequestEaSERKS2_
__ZN6WebKit7WebPage14loadURLRequestERKN7WebCore15ResourceRequestERKNS_16SandboxExtension6HandleERN7CoreIPC14MessageDecoderE
__ZN6WebKit7WebPage23SandboxExtensionTracker9beginLoadEPNS_8WebFrameERKNS_16SandboxExtension6HandleE
__ZN6WebKit30InjectedBundlePageLoaderClient18willLoadURLRequestEPNS_7WebPageERKN7WebCore15ResourceRequestEPNS_9APIObjectE
__ZN6WebKit20WebFrameLoaderClient9userAgentERKN7WebCore4KURLE
__ZN6WebKit20WebFrameLoaderClient17cancelPolicyCheckEv
__ZN6WebKit8WebFrame24invalidatePolicyListenerEv
__ZN6WebKit20WebFrameLoaderClient39dispatchDecidePolicyForNavigationActionEMN7WebCore13PolicyCheckerEFvNS1_12PolicyActionEERKNS1_16NavigationActionERKNS1_15ResourceRequestEN3WTF10PassRefPtrINS1_9FormStateEEE
__ZN6WebKit30InjectedBundleNavigationAction6createEPNS_8WebFrameERKN7WebCore16NavigationActionEN3WTF10PassRefPtrINS3_9FormStateEEE
__ZN6WebKit30InjectedBundleNavigationActionC2EPNS_8WebFrameERKN7WebCore16NavigationActionEN3WTF10PassRefPtrINS3_9FormStateEEE
__ZN6WebKit30InjectedBundleNavigationAction28modifiersForNavigationActionERKN7WebCore16NavigationActionE
__ZN6WebKit30InjectedBundlePagePolicyClient31decidePolicyForNavigationActionEPNS_7WebPageEPNS_8WebFrameEPNS_30InjectedBundleNavigationActionERKN7WebCore15ResourceRequestERN3WTF6RefPtrINS_9APIObjectEEE
__ZN6WebKit13WebURLRequestC1ERKN7WebCore15ResourceRequestE
__ZN3WTF9HashTableINS_12AtomicStringENS_12KeyValuePairIS1_NS_6StringEEENS_24KeyValuePairKeyExtractorIS4_EENS_15CaseFoldingHashENS_18HashMapValueTraitsINS_10HashTraitsIS1_EENS9_IS3_EEEESA_E15deallocateTableEPS4_i
__ZN3WTF9HashTableINS_12AtomicStringENS_12KeyValuePairIS1_NS_6StringEEENS_24KeyValuePairKeyExtractorIS4_EENS_15CaseFoldingHashENS_18HashMapValueTraitsINS_10HashTraitsIS1_EENS9_IS3_EEEESA_E16lookupForWritingINS_22IdentityHashTranslatorIS7_EES1_EENSt3__14pairIPS4_bEERKT0_
__ZN3WTF9HashTableINS_12AtomicStringENS_12KeyValuePairIS1_NS_6StringEEENS_24KeyValuePairKeyExtractorIS4_EENS_15CaseFoldingHashENS_18HashMapValueTraitsINS_10HashTraitsIS1_EENS9_IS3_EEEESA_E3addINS_17HashMapTranslatorISC_S7_EES1_S3_EENS_18HashTableAddResultINS_17HashTableIteratorIS1_S4_S6_S7_SC_SA_EEEERKT0_RKT1_
__ZN3WTF9HashTableINS_12AtomicStringENS_12KeyValuePairIS1_NS_6StringEEENS_24KeyValuePairKeyExtractorIS4_EENS_15CaseFoldingHashENS_18HashMapValueTraitsINS_10HashTraitsIS1_EENS9_IS3_EEEESA_E3addINS_22IdentityHashTranslatorIS7_EES1_S4_EENS_18HashTableAddResultINS_17HashTableIteratorIS1_S4_S6_S7_SC_SA_EEEERKT0_RKT1_
__ZN3WTF9HashTableINS_12AtomicStringENS_12KeyValuePairIS1_NS_6StringEEENS_24KeyValuePairKeyExtractorIS4_EENS_15CaseFoldingHashENS_18HashMapValueTraitsINS_10HashTraitsIS1_EENS9_IS3_EEEESA_E4findINS_22IdentityHashTranslatorIS7_EES1_EENS_17HashTableIteratorIS1_S4_S6_S7_SC_SA_EERKT0_
__ZN3WTF9HashTableINS_12AtomicStringENS_12KeyValuePairIS1_NS_6StringEEENS_24KeyValuePairKeyExtractorIS4_EENS_15CaseFoldingHashENS_18HashMapValueTraitsINS_10HashTraitsIS1_EENS9_IS3_EEEESA_E6expandEv
__ZN3WTF9HashTableINS_12AtomicStringENS_12KeyValuePairIS1_NS_6StringEEENS_24KeyValuePairKeyExtractorIS4_EENS_15CaseFoldingHashENS_18HashMapValueTraitsINS_10HashTraitsIS1_EENS9_IS3_EEEESA_E6lookupINS_22IdentityHashTranslatorIS7_EES1_EEPS4_RKT0_
__ZN3WTF9HashTableINS_12AtomicStringENS_12KeyValuePairIS1_NS_6StringEEENS_24KeyValuePairKeyExtractorIS4_EENS_15CaseFoldingHashENS_18HashMapValueTraitsINS_10HashTraitsIS1_EENS9_IS3_EEEESA_E6rehashEi
__ZN3WTF9HashTableINS_12AtomicStringENS_12KeyValuePairIS1_NS_6StringEEENS_24KeyValuePairKeyExtractorIS4_EENS_15CaseFoldingHashENS_18HashMapValueTraitsINS_10HashTraitsIS1_EENS9_IS3_EEEESA_E6removeEPS4_
__ZN3WTF9HashTableINS_12AtomicStringENS_12KeyValuePairIS1_NS_6StringEEENS_24KeyValuePairKeyExtractorIS4_EENS_15CaseFoldingHashENS_18HashMapValueTraitsINS_10HashTraitsIS1_EENS9_IS3_EEEESA_EC2ERKSD_
__ZN3WTF9HashTableINS_12AtomicStringENS_12KeyValuePairIS1_NS_6StringEEENS_24KeyValuePairKeyExtractorIS4_EENS_15CaseFoldingHashENS_18HashMapValueTraitsINS_10HashTraitsIS1_EENS9_IS3_EEEESA_EaSERKSD_
_WKBundlePageCanHandleRequest
__ZN6WebKit7WebPage16canHandleRequestERKN7WebCore15ResourceRequestE
__ZN6WebKit7WebPage24platformCanHandleRequestERKN7WebCore15ResourceRequestE
_WKBundleNavigationActionGetNavigationType
_WKBundleNavigationActionCopyHitTestResult
_WKURLRequestCopyURL
__ZN6WebKit8WebFrame19setUpPolicyListenerEMN7WebCore13PolicyCheckerEFvNS1_12PolicyActionEE
__ZN7CoreIPC10Connection8sendSyncIN8Messages12WebPageProxy31DecidePolicyForNavigationActionEEEbRKT_RKNS5_5ReplyEydj
__ZNK7CoreIPC10Arguments6IyjjiRKN7WebCore15ResourceRequestEyE6encodeERNS_15ArgumentEncoderE
__ZNK7CoreIPC10Arguments4IyjjiE6encodeERNS_15ArgumentEncoderE
__ZNK6WebKit32InjectedBundleUserMessageEncoder6encodeERN7CoreIPC15ArgumentEncoderE
__ZNK6WebKit18UserMessageEncoderINS_32InjectedBundleUserMessageEncoderEE10baseEncodeERN7CoreIPC15ArgumentEncoderERNS_9APIObject4TypeE
__ZThn24_N6WebKit12WebPageProxy21didReceiveSyncMessageEPN7CoreIPC10ConnectionERNS1_14MessageDecoderERN3WTF6OwnPtrINS1_14MessageEncoderEEE
__ZN6WebKit12WebPageProxy21didReceiveSyncMessageEPN7CoreIPC10ConnectionERNS1_14MessageDecoderERN3WTF6OwnPtrINS1_14MessageEncoderEEE
__ZN7CoreIPC21handleMessageVariadicIN8Messages12WebPageProxy31DecidePolicyForNavigationActionEN6WebKit12WebPageProxyEMS5_FvyjjiRKN7WebCore15ResourceRequestEyRNS_14MessageDecoderERbRySD_EEEvSB_RNS_14MessageEncoderEPT0_T1_
__ZN7CoreIPC10Arguments6IyjjiN7WebCore15ResourceRequestEyE6decodeERNS_15ArgumentDecoderERS3_
__ZN7CoreIPC10Arguments5IyjjiN7WebCore15ResourceRequestEE6decodeERNS_15ArgumentDecoderERS3_
__ZN7CoreIPC10Arguments4IyjjiE6decodeERNS_15ArgumentDecoderERS1_
__ZN7CoreIPC10Arguments3IyjjE6decodeERNS_15ArgumentDecoderERS1_
__ZN7CoreIPC10Arguments2IyjE6decodeERNS_15ArgumentDecoderERS1_
__ZN7CoreIPC18callMemberFunctionIN6WebKit12WebPageProxyEMS2_FvyjjiRKN7WebCore15ResourceRequestEyRNS_14MessageDecoderERbRySA_EyjjiS4_ybyyEEvRKNS_10Arguments6IT1_T2_T3_T4_T5_T6_EES8_RNS_10Arguments3IT7_T8_T9_EEPT_T0_
__ZN6WebKit12WebPageProxy31decidePolicyForNavigationActionEyjjiRKN7WebCore15ResourceRequestEyRN7CoreIPC14MessageDecoderERbRyS9_
__ZN6WebKit28WebContextUserMessageDecoder6decodeERN7CoreIPC15ArgumentDecoderERS0_
__ZN6WebKit18UserMessageDecoderINS_28WebContextUserMessageDecoderEE10baseDecodeERN7CoreIPC15ArgumentDecoderERS1_RNS_9APIObject4TypeE
__ZN6WebKit6WebURL6createERKN3WTF6StringE
__ZN6WebKit9WebNumberIbLNS_9APIObject4TypeE25EE6createEb
__ZN6WebKit19ImmutableDictionary5adoptERN3WTF7HashMapINS1_6StringENS1_6RefPtrINS_9APIObjectEEENS1_10StringHashENS1_10HashTraitsIS3_EENS8_IS6_EEEE
__ZNK6WebKit15WebProcessProxy8webFrameEy
__ZN6WebKit15WebProcessProxy30checkURLReceivedFromWebProcessERKN7WebCore4KURLE
__ZN6WebKit13WebFrameProxy24setUpPolicyListenerProxyEy
__ZN6WebKit27WebFramePolicyListenerProxyC1EPNS_13WebFrameProxyEy
__ZN6WebKit21WebFrameListenerProxyC2EPNS_13WebFrameProxyEy
__ZN6WebKit15WebPolicyClient31decidePolicyForNavigationActionEPNS_12WebPageProxyEPNS_13WebFrameProxyEN7WebCore14NavigationTypeENS_8WebEvent9ModifiersENS_13WebMouseEvent6ButtonERKNS5_15ResourceRequestEPNS_27WebFramePolicyListenerProxyEPNS_9APIObjectE
_WKFrameIsMainFrame
__ZNK6WebKit13WebFrameProxy11isMainFrameEv
_WKFramePolicyListenerUse
__ZN6WebKit27WebFramePolicyListenerProxy3useEv
__ZN6WebKit21WebFrameListenerProxy22receivedPolicyDecisionEN7WebCore12PolicyActionE
__ZN6WebKit13WebFrameProxy22receivedPolicyDecisionEN7WebCore12PolicyActionEy
__ZN6WebKit12WebPageProxy22receivedPolicyDecisionEN7WebCore12PolicyActionEPNS_13WebFrameProxyEy
__ZN7CoreIPC15ArgumentEncoderlsINS_10Arguments3IbyyEEEERS0_RKT_
__ZN7CoreIPC10Arguments3IRbRyS2_E6decodeERNS_15ArgumentDecoderERS3_
__ZN7CoreIPC10Arguments2IRbRyE6decodeERNS_15ArgumentDecoderERS3_
__ZN6WebKit8WebFrame24didReceivePolicyDecisionEyN7WebCore12PolicyActionEy
__ZNK6WebKit20WebFrameLoaderClient16canHandleRequestERKN7WebCore15ResourceRequestE
__ZN6WebKit15WebChromeClient30canRunBeforeUnloadConfirmPanelEv
__ZN6WebKit20WebFrameLoaderClient22provisionalLoadStartedEv
__ZN6WebKit7WebPage22didStartPageTransitionEv
__ZN6WebKit29TiledCoreAnimationDrawingArea25setLayerTreeStateIsFrozenEb
__ZN6WebKit20WebFrameLoaderClient27willChangeEstimatedProgressEv
__ZN6WebKit20WebFrameLoaderClient31postProgressStartedNotificationEv
__ZN7CoreIPC13MessageSender4sendIN8Messages12WebPageProxy16DidStartProgressEEEbRKT_y
__ZN6WebKit20WebFrameLoaderClient26didChangeEstimatedProgressEv
__ZN6WebKit20WebFrameLoaderClient31dispatchDidStartProvisionalLoadEv
__ZN6WebKit14FindController10hideFindUIEv
__ZN3WTF6VectorINS_6RefPtrIN7WebCore5RangeEEELm0ENS_15CrashOnOverflowEE14shrinkCapacityEm
__ZNK6WebKit7WebPage9mainFrameEv
__ZN6WebKit14FindController17hideFindIndicatorEv
__ZN6WebKit7WebPage23SandboxExtensionTracker23didStartProvisionalLoadEPNS_8WebFrameE
__ZN6WebKit30InjectedBundlePageLoaderClient31didStartProvisionalLoadForFrameEPNS_7WebPageEPNS_8WebFrameERN3WTF6RefPtrINS_9APIObjectEEE
__ZN6WebKit12WebPageProxy16didStartProgressEv
__ZN6WebKit15WebLoaderClient16didStartProgressEPNS_12WebPageProxyE
_WKBundleFrameCopyProvisionalURL
__ZNK6WebKit8WebFrame14provisionalURLEv
_WKBundlePageSetDefersLoading
__ZN6WebKit7WebPage16setDefersLoadingEb
_WKBundleIsProcessingUserGesture
__ZN6WebKit14InjectedBundle23isProcessingUserGestureEv
_WKBundlePageGetRenderTreeSize
__ZN7CoreIPC13MessageSender4sendIN8Messages12WebPageProxy31DidStartProvisionalLoadForFrameEEEbRKT_y
__ZNK7CoreIPC10Arguments3IyRKN3WTF6StringES4_E6encodeERNS_15ArgumentEncoderE
__ZNK6WebKit20WebFrameLoaderClient32representationExistsForURLSchemeERKN3WTF6StringE
__ZN7CoreIPC21handleMessageVariadicIN8Messages12WebPageProxy31DidStartProvisionalLoadForFrameEN6WebKit12WebPageProxyEMS5_FvyRKN3WTF6StringES9_RNS_14MessageDecoderEEEEvSB_PT0_T1_
__ZN7CoreIPC10Arguments3IyN3WTF6StringES2_E6decodeERNS_15ArgumentDecoderERS3_
__ZN7CoreIPC10Arguments2IyN3WTF6StringEE6decodeERNS_15ArgumentDecoderERS3_
__ZN6WebKit12WebPageProxy31didStartProvisionalLoadForFrameEyRKN3WTF6StringES4_RN7CoreIPC14MessageDecoderE
__ZN6WebKit12WebPageProxy25clearPendingAPIRequestURLEv
__ZN6WebKit9WebNumberIyLNS_9APIObject4TypeE27EE6createEy
__ZN6WebKit15WebProcessProxy30checkURLReceivedFromWebProcessERKN3WTF6StringE
__ZN6WebKit13WebFrameProxy17setUnreachableURLERKN3WTF6StringE
__ZN6WebKit13WebFrameProxy23didStartProvisionalLoadERKN3WTF6StringE
__ZN6WebKit15WebLoaderClient31didStartProvisionalLoadForFrameEPNS_12WebPageProxyEPNS_13WebFrameProxyEPNS_9APIObjectE
_WKPageGetBackForwardList
_WKBackForwardListGetCurrentItem
__ZN6WebKit18WebBackForwardList11currentItemEv
_WKFrameGetFrameLoadState
_WKFrameCopyProvisionalURL
_WKFrameCopyURL
__ZN7WebCore17FrameLoaderClient27dispatchWillRequestResourceEPNS_21CachedResourceRequestE
__ZN6WebKit24WebResourceLoadScheduler23scheduleSubresourceLoadEPN7WebCore5FrameEPNS1_14CachedResourceERKNS1_15ResourceRequestENS1_20ResourceLoadPriorityERKNS1_21ResourceLoaderOptionsE
__ZN6WebKit20WebFrameLoaderClient32assignIdentifierToInitialRequestEmPN7WebCore14DocumentLoaderERKNS1_15ResourceRequestE
__ZN6WebKit36InjectedBundlePageResourceLoadClient26didInitiateLoadForResourceEPNS_7WebPageEPNS_8WebFrameEyRKN7WebCore15ResourceRequestEb
__ZN6WebKit20WebFrameLoaderClient23dispatchWillSendRequestEPN7WebCore14DocumentLoaderEmRNS1_15ResourceRequestERKNS1_16ResourceResponseE
__ZN6WebKit36InjectedBundlePageResourceLoadClient23willSendRequestForFrameEPNS_7WebPageEPNS_8WebFrameEyRN7WebCore15ResourceRequestERKNS5_16ResourceResponseE
__ZN6WebKit14WebURLResponseC1ERKN7WebCore16ResourceResponseE
__ZN7WebCore16ResourceResponseC2ERKS0_
_WKBundleFrameGetFrameLoadState
__ZN6WebKit14WebURLResponseD0Ev
__ZN7WebCore20ResourceResponseBaseD2Ev
__ZN6WebKit24WebResourceLoadScheduler12scheduleLoadEPN7WebCore14ResourceLoaderEPNS1_14CachedResourceENS1_20ResourceLoadPriorityEb
__ZN6WebKit20WebFrameLoaderClient26shouldUseCredentialStorageEPN7WebCore14DocumentLoaderEm
__ZN6WebKit36InjectedBundlePageResourceLoadClient26shouldUseCredentialStorageEPNS_7WebPageEPNS_8WebFrameEy
__ZN7WebCore17FrameLoaderClient24isEmptyFrameLoaderClientEv
__ZN6WebKit29NetworkResourceLoadParametersC1Ev
__ZN6WebKit29NetworkResourceLoadParametersC2Ev
__ZN6WebKit16SandboxExtension11HandleArrayC1Ev
__ZN6WebKit10WebProcess17networkConnectionEv
__ZN7CoreIPC10Connection4sendIN8Messages29NetworkConnectionToWebProcess20ScheduleResourceLoadEEEbRKT_yj
__ZNK6WebKit29NetworkResourceLoadParameters6encodeERN7CoreIPC15ArgumentEncoderE
__ZN6WebKit17WebResourceLoader6createEN3WTF10PassRefPtrIN7WebCore14ResourceLoaderEEE
__ZN3WTF7HashMapImNS_6RefPtrIN6WebKit17WebResourceLoaderEEENS_7IntHashImEENS_10HashTraitsImEENS7_IS4_EEE3setERKmNS_10PassRefPtrIS3_EE
__ZN3WTF17HashMapTranslatorINS_18HashMapValueTraitsINS_10HashTraitsImEENS2_INS_6RefPtrIN6WebKit17WebResourceLoaderEEEEEEENS_7IntHashImEEE9translateINS_12KeyValuePairImS7_EEmNS_10PassRefPtrIS6_EEEEvRT_RKT0_RKT1_
__ZN3WTF6RefPtrIN6WebKit17WebResourceLoaderEEaSERKNS_10PassRefPtrIS2_EE
__ZN6WebKit16SandboxExtension11HandleArrayD1Ev
__ZN6WebKit16SandboxExtension11HandleArrayD2Ev
__ZN6WebKit29NetworkConnectionToWebProcess17didReceiveMessageEPN7CoreIPC10ConnectionERNS1_14MessageDecoderE
__ZN6WebKit29NetworkConnectionToWebProcess46didReceiveNetworkConnectionToWebProcessMessageEPN7CoreIPC10ConnectionERNS1_14MessageDecoderE
__ZN6WebKit30InjectedBundleNavigationActionD0Ev
__ZN7CoreIPC13handleMessageIN8Messages29NetworkConnectionToWebProcess20ScheduleResourceLoadEN6WebKit29NetworkConnectionToWebProcessEMS5_FvRKNS4_29NetworkResourceLoadParametersEEEEvRNS_14MessageDecoderEPT0_T1_
__ZN7WebCore16FrameLoadRequestD2Ev
__ZN7WebCore14SubstituteDataD2Ev
__ZN7CoreIPC13MessageSender4sendIN8Messages12WebPageProxy23StopResponsivenessTimerEEEbRKT_y
__ZN6WebKit29TiledCoreAnimationDrawingArea14resumePaintingEv
__ZN6WebKit29NetworkResourceLoadParameters6decodeERN7CoreIPC15ArgumentDecoderERS0_
__ZN6WebKit12WebPageProxy23stopResponsivenessTimerEv
__ZN6WebKit19ResponsivenessTimer4stopEv
__ZThn104_N6WebKit15WebProcessProxy19didBecomeResponsiveEPNS_19ResponsivenessTimerE
__ZN6WebKit15WebProcessProxy19didBecomeResponsiveEPNS_19ResponsivenessTimerE
__ZN6WebKit12WebPageProxy26processDidBecomeResponsiveEv
__ZN7CoreIPC13handleMessageIN8Messages7WebPage26WindowAndViewFramesChangedEN6WebKit7WebPageEMS5_FvRKN7WebCore9FloatRectES9_S9_RKNS6_10FloatPointEEEEvRNS_14MessageDecoderEPT0_T1_
__ZN6WebKit15WebLoaderClient26processDidBecomeResponsiveEPNS_12WebPageProxyE
__ZN7CoreIPC10Arguments4IN7WebCore9FloatRectES2_S2_NS1_10FloatPointEE6decodeERNS_15ArgumentDecoderERS4_
__ZN7CoreIPC10Arguments3IN7WebCore9FloatRectES2_S2_E6decodeERNS_15ArgumentDecoderERS3_
__ZN7CoreIPC10Arguments2IN7WebCore9FloatRectES2_E6decodeERNS_15ArgumentDecoderERS3_
__ZN7CoreIPC13ArgumentCoderIN7WebCore9FloatRectEE6decodeERNS_15ArgumentDecoderERS2_
__ZN7CoreIPC13ArgumentCoderIN7WebCore10FloatPointEE6decodeERNS_15ArgumentDecoderERS2_
__ZN6WebKit7WebPage26windowAndViewFramesChangedERKN7WebCore9FloatRectES4_S4_RKNS1_10FloatPointE
__ZN7CoreIPC13handleMessageIN8Messages10WebProcess19SetVisitedLinkTableEN6WebKit10WebProcessEMS5_FvRKNS4_12SharedMemory6HandleEEEEvRNS_14MessageDecoderEPT0_T1_
__ZN6WebKit12SharedMemory6Handle6decodeERN7CoreIPC15ArgumentDecoderERS1_
__ZN6WebKit10WebProcess19setVisitedLinkTableERKNS_12SharedMemory6HandleE
__ZN6WebKit12SharedMemory6createERKNS0_6HandleENS0_10ProtectionE
__ZN6WebKit10WebProcess26allVisitedLinkStateChangedEv
_WKCALayerEnumerateRectsBeingDrawnWithBlock
__ZN6WebKit29NetworkConnectionToWebProcess20scheduleResourceLoadERKNS_29NetworkResourceLoadParametersE
__ZN6WebKit21NetworkResourceLoaderC1ERKNS_29NetworkResourceLoadParametersEPNS_29NetworkConnectionToWebProcessE
__ZN6WebKit21NetworkResourceLoaderC2ERKNS_29NetworkResourceLoadParametersEPNS_29NetworkConnectionToWebProcessE
__ZN6WebKit17SchedulableLoaderC2ERKNS_29NetworkResourceLoadParametersEPNS_29NetworkConnectionToWebProcessE
__ZNK6WebKit16SandboxExtension11HandleArray4sizeEv
__ZN3WTF17HashMapTranslatorINS_18HashMapValueTraitsINS_10HashTraitsIyEENS2_INS_6RefPtrIN6WebKit21NetworkResourceLoaderEEEEEEENS_7IntHashIyEEE9translateINS_12KeyValuePairIyS7_EEyNS_10PassRefPtrIS6_EEEEvRT_RKT0_RKT1_
__ZN3WTF6RefPtrIN6WebKit21NetworkResourceLoaderEEaSERKNS_10PassRefPtrIS2_EE
__ZN6WebKit28NetworkResourceLoadScheduler14scheduleLoaderEN3WTF10PassRefPtrINS_17SchedulableLoaderEEE
__ZN6WebKit28NetworkResourceLoadScheduler10hostForURLERKN7WebCore4KURLENS0_16CreateHostPolicyE
__ZN3WTF9HashTableINS_6StringENS_12KeyValuePairIS1_NS_6RefPtrIN6WebKit10HostRecordEEEEENS_24KeyValuePairKeyExtractorIS7_EENS_10StringHashENS_18HashMapValueTraitsINS_10HashTraitsIS1_EENSC_IS6_EEEESD_E15deallocateTableEPS7_i
__ZN3WTF9HashTableINS_6StringENS_12KeyValuePairIS1_NS_6RefPtrIN6WebKit10HostRecordEEEEENS_24KeyValuePairKeyExtractorIS7_EENS_10StringHashENS_18HashMapValueTraitsINS_10HashTraitsIS1_EENSC_IS6_EEEESD_E16lookupForWritingINS_22IdentityHashTranslatorISA_EES1_EENSt3__14pairIPS7_bEERKT0_
__ZN3WTF9HashTableINS_6StringENS_12KeyValuePairIS1_NS_6RefPtrIN6WebKit10HostRecordEEEEENS_24KeyValuePairKeyExtractorIS7_EENS_10StringHashENS_18HashMapValueTraitsINS_10HashTraitsIS1_EENSC_IS6_EEEESD_E3addINS_17HashMapTranslatorISF_SA_EES1_NS_10PassRefPtrIS5_EEEENS_18HashTableAddResultINS_17HashTableIteratorIS1_S7_S9_SA_SF_SD_EEEERKT0_RKT1_
__ZN3WTF9HashTableINS_6StringENS_12KeyValuePairIS1_NS_6RefPtrIN6WebKit10HostRecordEEEEENS_24KeyValuePairKeyExtractorIS7_EENS_10StringHashENS_18HashMapValueTraitsINS_10HashTraitsIS1_EENSC_IS6_EEEESD_E4findINS_22IdentityHashTranslatorISA_EES1_EENS_17HashTableIteratorIS1_S7_S9_SA_SF_SD_EERKT0_
__ZN3WTF9HashTableINS_6StringENS_12KeyValuePairIS1_NS_6RefPtrIN6WebKit10HostRecordEEEEENS_24KeyValuePairKeyExtractorIS7_EENS_10StringHashENS_18HashMapValueTraitsINS_10HashTraitsIS1_EENSC_IS6_EEEESD_E6expandEv
__ZN3WTF9HashTableINS_6StringENS_12KeyValuePairIS1_NS_6RefPtrIN6WebKit10HostRecordEEEEENS_24KeyValuePairKeyExtractorIS7_EENS_10StringHashENS_18HashMapValueTraitsINS_10HashTraitsIS1_EENSC_IS6_EEEESD_E6lookupINS_22IdentityHashTranslatorISA_EES1_EEPS7_RKT0_
__ZN3WTF9HashTableINS_6StringENS_12KeyValuePairIS1_NS_6RefPtrIN6WebKit10HostRecordEEEEENS_24KeyValuePairKeyExtractorIS7_EENS_10StringHashENS_18HashMapValueTraitsINS_10HashTraitsIS1_EENSC_IS6_EEEESD_E6rehashEi
__ZN3WTF9HashTableINS_6StringENS_12KeyValuePairIS1_NS_6RefPtrIN6WebKit10HostRecordEEEEENS_24KeyValuePairKeyExtractorIS7_EENS_10StringHashENS_18HashMapValueTraitsINS_10HashTraitsIS1_EENSC_IS6_EEEESD_E6removeEPS7_
__ZN3WTF17HashMapTranslatorINS_18HashMapValueTraitsINS_10HashTraitsINS_6StringEEENS2_INS_6RefPtrIN6WebKit10HostRecordEEEEEEENS_10StringHashEE9translateINS_12KeyValuePairIS3_S8_EES3_NS_10PassRefPtrIS7_EEEEvRT_RKT0_RKT1_
__ZNK6WebKit10HostRecord11hasRequestsEv
__ZN6WebKit10HostRecord22scheduleResourceLoaderEN3WTF10PassRefPtrINS_17SchedulableLoaderEEE
__ZN3WTF6RefPtrIN6WebKit10HostRecordEEaSEPS2_
__ZN6WebKit17SchedulableLoader13isSynchronousEv
__ZN3WTF5DequeINS_6RefPtrIN6WebKit17SchedulableLoaderEEELm0EE22expandCapacityIfNeededEv
__ZN3WTF5DequeINS_6RefPtrIN6WebKit17SchedulableLoaderEEELm0EE14expandCapacityEv
__ZN3WTF16VectorBufferBaseINS_6RefPtrIN6WebKit17SchedulableLoaderEEEE14allocateBufferEm
__ZN6WebKit10HostRecord20servePendingRequestsEN7WebCore20ResourceLoadPriorityE
__ZN6WebKit10HostRecord28servePendingRequestsForQueueERN3WTF5DequeINS1_6RefPtrINS_17SchedulableLoaderEEELm0EEEN7WebCore20ResourceLoadPriorityE
__ZNK6WebKit10HostRecord14limitsRequestsEN7WebCore20ResourceLoadPriorityEPNS_17SchedulableLoaderE
__ZN3WTF6RefPtrIN6WebKit17SchedulableLoaderEEaSERKS3_
__ZN3WTF16VectorDestructorILb1ENS_6RefPtrIN6WebKit17SchedulableLoaderEEEE8destructEPS4_S6_
__ZN6WebKit21NetworkResourceLoader5startEv
__ZN6WebKit23RemoteNetworkingContextC1Ebbbb
__ZN6WebKit17SchedulableLoader24consumeSandboxExtensionsEv
__ZNK6WebKit23RemoteNetworkingContext7isValidEv
__ZNK6WebKit23RemoteNetworkingContext14storageSessionEv
__ZThn328_N6WebKit21NetworkResourceLoader26shouldUseCredentialStorageEPN7WebCore14ResourceHandleE
__ZNK6WebKit23RemoteNetworkingContext23needsSiteSpecificQuirksEv
__ZThn328_N6WebKit21NetworkResourceLoader18usesAsyncCallbacksEv
__ZNK6WebKit23RemoteNetworkingContext26sourceApplicationAuditDataEv
+[WKCustomProtocol canInitWithRequest:]
__ZN6WebKit21CustomProtocolManager14supportsSchemeERKN3WTF6StringE
__ZNK7WebCore17NetworkingContext21scheduledRunLoopPairsEv
__ZN3WTF6RefPtrIN7WebCore14ResourceHandleEEaSERKNS_10PassRefPtrIS2_EE
__ZThn328_N6WebKit21NetworkResourceLoader31shouldUseCredentialStorageAsyncEPN7WebCore14ResourceHandleE
__ZN6WebKit21NetworkResourceLoader26shouldUseCredentialStorageEPN7WebCore14ResourceHandleE
__ZThn328_N6WebKit21NetworkResourceLoader23didReceiveResponseAsyncEPN7WebCore14ResourceHandleERKNS1_16ResourceResponseE
__ZN6WebKit21NetworkResourceLoader23didReceiveResponseAsyncEPN7WebCore14ResourceHandleERKNS1_16ResourceResponseE
__ZN6WebKit23PlatformCertificateInfoC1ERKN7WebCore16ResourceResponseE
_WKCopyNSURLResponseCertificateChain
__ZN6WebKit21NetworkResourceLoader21sendAbortingOnFailureIN8Messages17WebResourceLoader37DidReceiveResponseWithCertificateInfoEEEbRKT_j
__ZN6WebKit21NetworkResourceLoader23messageSenderConnectionEv
__ZN6WebKit21NetworkResourceLoader26messageSenderDestinationIDEv
__ZN7CoreIPC10Connection4sendIN8Messages17WebResourceLoader37DidReceiveResponseWithCertificateInfoEEEbRKT_yj
__ZNK7CoreIPC10Arguments3IRKN7WebCore16ResourceResponseERKN6WebKit23PlatformCertificateInfoEbE6encodeERNS_15ArgumentEncoderE
__ZN7CoreIPC13ArgumentCoderIN7WebCore16ResourceResponseEE6encodeERNS_15ArgumentEncoderERKS2_
__ZN7CoreIPC13ArgumentCoderIN7WebCore16ResourceResponseEE18encodePlatformDataERNS_15ArgumentEncoderERKS2_
_WKNSURLResponseCreateSerializableRepresentation
__ZNK6WebKit23PlatformCertificateInfo6encodeERN7CoreIPC15ArgumentEncoderE
__ZN6WebKit24NetworkProcessConnection17didReceiveMessageEPN7CoreIPC10ConnectionERNS1_14MessageDecoderE
__ZN3WTF9HashTableImNS_12KeyValuePairImNS_6RefPtrIN6WebKit17WebResourceLoaderEEEEENS_24KeyValuePairKeyExtractorIS6_EENS_7IntHashImEENS_18HashMapValueTraitsINS_10HashTraitsImEENSC_IS5_EEEESD_E12deleteBucketERS6_
__ZN3WTF9HashTableImNS_12KeyValuePairImNS_6RefPtrIN6WebKit17WebResourceLoaderEEEEENS_24KeyValuePairKeyExtractorIS6_EENS_7IntHashImEENS_18HashMapValueTraitsINS_10HashTraitsImEENSC_IS5_EEEESD_E15deallocateTableEPS6_i
__ZN3WTF9HashTableImNS_12KeyValuePairImNS_6RefPtrIN6WebKit17WebResourceLoaderEEEEENS_24KeyValuePairKeyExtractorIS6_EENS_7IntHashImEENS_18HashMapValueTraitsINS_10HashTraitsImEENSC_IS5_EEEESD_E16lookupForWritingINS_22IdentityHashTranslatorISA_EEmEENSt3__14pairIPS6_bEERKT0_
__ZN3WTF9HashTableImNS_12KeyValuePairImNS_6RefPtrIN6WebKit17WebResourceLoaderEEEEENS_24KeyValuePairKeyExtractorIS6_EENS_7IntHashImEENS_18HashMapValueTraitsINS_10HashTraitsImEENSC_IS5_EEEESD_E3addINS_17HashMapTranslatorISF_SA_EEmNS_10PassRefPtrIS4_EEEENS_18HashTableAddResultINS_17HashTableIteratorImS6_S8_SA_SF_SD_EEEERKT0_RKT1_
__ZN3WTF9HashTableImNS_12KeyValuePairImNS_6RefPtrIN6WebKit17WebResourceLoaderEEEEENS_24KeyValuePairKeyExtractorIS6_EENS_7IntHashImEENS_18HashMapValueTraitsINS_10HashTraitsImEENSC_IS5_EEEESD_E4findINS_22IdentityHashTranslatorISA_EEmEENS_17HashTableIteratorImS6_S8_SA_SF_SD_EERKT0_
__ZN3WTF9HashTableImNS_12KeyValuePairImNS_6RefPtrIN6WebKit17WebResourceLoaderEEEEENS_24KeyValuePairKeyExtractorIS6_EENS_7IntHashImEENS_18HashMapValueTraitsINS_10HashTraitsImEENSC_IS5_EEEESD_E6expandEv
__ZN3WTF9HashTableImNS_12KeyValuePairImNS_6RefPtrIN6WebKit17WebResourceLoaderEEEEENS_24KeyValuePairKeyExtractorIS6_EENS_7IntHashImEENS_18HashMapValueTraitsINS_10HashTraitsImEENSC_IS5_EEEESD_E6lookupINS_22IdentityHashTranslatorISA_EEmEEPS6_RKT0_
__ZN3WTF9HashTableImNS_12KeyValuePairImNS_6RefPtrIN6WebKit17WebResourceLoaderEEEEENS_24KeyValuePairKeyExtractorIS6_EENS_7IntHashImEENS_18HashMapValueTraitsINS_10HashTraitsImEENSC_IS5_EEEESD_E6rehashEi
__ZN3WTF9HashTableImNS_12KeyValuePairImNS_6RefPtrIN6WebKit17WebResourceLoaderEEEEENS_24KeyValuePairKeyExtractorIS6_EENS_7IntHashImEENS_18HashMapValueTraitsINS_10HashTraitsImEENSC_IS5_EEEESD_E6removeEPS6_
__ZN6WebKit17WebResourceLoader34didReceiveWebResourceLoaderMessageEPN7CoreIPC10ConnectionERNS1_14MessageDecoderE
__ZN7CoreIPC13handleMessageIN8Messages17WebResourceLoader37DidReceiveResponseWithCertificateInfoEN6WebKit17WebResourceLoaderEMS5_FvRKN7WebCore16ResourceResponseERKNS4_23PlatformCertificateInfoEbEEEvRNS_14MessageDecoderEPT0_T1_
__ZN6WebKit23PlatformCertificateInfoC1Ev
__ZN7CoreIPC10Arguments3IN7WebCore16ResourceResponseEN6WebKit23PlatformCertificateInfoEbE6decodeERNS_15ArgumentDecoderERS5_
__ZN7CoreIPC10Arguments2IN7WebCore16ResourceResponseEN6WebKit23PlatformCertificateInfoEE6decodeERNS_15ArgumentDecoderERS5_
__ZN7CoreIPC13ArgumentCoderIN7WebCore16ResourceResponseEE6decodeERNS_15ArgumentDecoderERS2_
__ZN7CoreIPC13ArgumentCoderIN7WebCore16ResourceResponseEE18decodePlatformDataERNS_15ArgumentDecoderERS2_
_WKNSURLResponseFromSerializableRepresentation
__ZN7WebCore16ResourceResponseC2EP13NSURLResponse
__ZN3WTF9RetainPtrI13NSURLResponseEC2EPS1_
__ZN7WebCore20ResourceResponseBaseaSERKS0_
__ZN3WTF6RefPtrIN7WebCore18ResourceLoadTimingEEaSERKS3_
__ZN3WTF9RetainPtrI13NSURLResponseEaSERKS2_
__ZN3WTF9RetainPtrIPK9__CFArrayEaSERKS4_
__ZN6WebKit23PlatformCertificateInfo6decodeERN7CoreIPC15ArgumentDecoderERS0_
__ZN6WebKit17WebResourceLoader37didReceiveResponseWithCertificateInfoERKN7WebCore16ResourceResponseERKNS_23PlatformCertificateInfoEb
_WKCopyNSURLResponseStatusLine
__ZN6WebKit20WebFrameLoaderClient31dispatchDecidePolicyForResponseEMN7WebCore13PolicyCheckerEFvNS1_12PolicyActionEERKNS1_16ResourceResponseERKNS1_15ResourceRequestE
__ZN6WebKit30InjectedBundlePagePolicyClient23decidePolicyForResponseEPNS_7WebPageEPNS_8WebFrameERKN7WebCore16ResourceResponseERKNS5_15ResourceRequestERN3WTF6RefPtrINS_9APIObjectEEE
_WKURLResponseCopyNSURLResponse
__ZNK6WebKit14WebURLResponse16platformResponseEv
_WKBundlePageCanShowMIMEType
__ZNK6WebKit7WebPage15canShowMIMETypeERKN3WTF6StringE
__ZNK6WebKit20WebFrameLoaderClient15canShowMIMETypeERKN3WTF6StringE
__ZN6WebKit20WebFrameLoaderClient26dispatchDidReceiveResponseEPN7WebCore14DocumentLoaderEmRKNS1_16ResourceResponseE
__ZN6WebKit36InjectedBundlePageResourceLoadClient29didReceiveResponseForResourceEPNS_7WebPageEPNS_8WebFrameEyRKN7WebCore16ResourceResponseE
__ZN6WebKit17WebResourceLoader26messageSenderDestinationIDEv
__ZN7CoreIPC13MessageSender4sendIN8Messages21NetworkResourceLoader26ContinueDidReceiveResponseEEEbRKT_y
__ZN6WebKit17WebResourceLoader23messageSenderConnectionEv
__ZN3WTF9HashTableIyNS_12KeyValuePairIyNS_6RefPtrIN6WebKit21NetworkResourceLoaderEEEEENS_24KeyValuePairKeyExtractorIS6_EENS_7IntHashIyEENS_18HashMapValueTraitsINS_10HashTraitsIyEENSC_IS5_EEEESD_E12deleteBucketERS6_
__ZN3WTF9HashTableIyNS_12KeyValuePairIyNS_6RefPtrIN6WebKit21NetworkResourceLoaderEEEEENS_24KeyValuePairKeyExtractorIS6_EENS_7IntHashIyEENS_18HashMapValueTraitsINS_10HashTraitsIyEENSC_IS5_EEEESD_E15deallocateTableEPS6_i
__ZN3WTF9HashTableIyNS_12KeyValuePairIyNS_6RefPtrIN6WebKit21NetworkResourceLoaderEEEEENS_24KeyValuePairKeyExtractorIS6_EENS_7IntHashIyEENS_18HashMapValueTraitsINS_10HashTraitsIyEENSC_IS5_EEEESD_E16lookupForWritingINS_22IdentityHashTranslatorISA_EEyEENSt3__14pairIPS6_bEERKT0_
__ZN3WTF9HashTableIyNS_12KeyValuePairIyNS_6RefPtrIN6WebKit21NetworkResourceLoaderEEEEENS_24KeyValuePairKeyExtractorIS6_EENS_7IntHashIyEENS_18HashMapValueTraitsINS_10HashTraitsIyEENSC_IS5_EEEESD_E3addINS_17HashMapTranslatorISF_SA_EEyNS_10PassRefPtrIS4_EEEENS_18HashTableAddResultINS_17HashTableIteratorIyS6_S8_SA_SF_SD_EEEERKT0_RKT1_
__ZN3WTF9HashTableIyNS_12KeyValuePairIyNS_6RefPtrIN6WebKit21NetworkResourceLoaderEEEEENS_24KeyValuePairKeyExtractorIS6_EENS_7IntHashIyEENS_18HashMapValueTraitsINS_10HashTraitsIyEENSC_IS5_EEEESD_E4findINS_22IdentityHashTranslatorISA_EEyEENS_17HashTableIteratorIyS6_S8_SA_SF_SD_EERKT0_
__ZN3WTF9HashTableIyNS_12KeyValuePairIyNS_6RefPtrIN6WebKit21NetworkResourceLoaderEEEEENS_24KeyValuePairKeyExtractorIS6_EENS_7IntHashIyEENS_18HashMapValueTraitsINS_10HashTraitsIyEENSC_IS5_EEEESD_E6expandEv
__ZN3WTF9HashTableIyNS_12KeyValuePairIyNS_6RefPtrIN6WebKit21NetworkResourceLoaderEEEEENS_24KeyValuePairKeyExtractorIS6_EENS_7IntHashIyEENS_18HashMapValueTraitsINS_10HashTraitsIyEENSC_IS5_EEEESD_E6lookupINS_22IdentityHashTranslatorISA_EEyEEPS6_RKT0_
__ZN3WTF9HashTableIyNS_12KeyValuePairIyNS_6RefPtrIN6WebKit21NetworkResourceLoaderEEEEENS_24KeyValuePairKeyExtractorIS6_EENS_7IntHashIyEENS_18HashMapValueTraitsINS_10HashTraitsIyEENSC_IS5_EEEESD_E6rehashEi
__ZN3WTF9HashTableIyNS_12KeyValuePairIyNS_6RefPtrIN6WebKit21NetworkResourceLoaderEEEEENS_24KeyValuePairKeyExtractorIS6_EENS_7IntHashIyEENS_18HashMapValueTraitsINS_10HashTraitsIyEENSC_IS5_EEEESD_E6removeEPS6_
__ZN6WebKit21NetworkResourceLoader38didReceiveNetworkResourceLoaderMessageEPN7CoreIPC10ConnectionERNS1_14MessageDecoderE
__ZN6WebKit21NetworkResourceLoader26continueDidReceiveResponseEv
__ZThn328_N6WebKit21NetworkResourceLoader16didReceiveBufferEPN7WebCore14ResourceHandleEN3WTF10PassRefPtrINS1_12SharedBufferEEEi
__ZN6WebKit21NetworkResourceLoader16didReceiveBufferEPN7WebCore14ResourceHandleEN3WTF10PassRefPtrINS1_12SharedBufferEEEi
__ZN6WebKit17ShareableResource6HandleC1Ev
__ZN6WebKit21NetworkResourceLoader37tryGetShareableHandleFromSharedBufferERNS_17ShareableResource6HandleEPN7WebCore12SharedBufferE
__ZNK6WebKit12SharedMemory6Handle6isNullEv
__ZN6WebKit21NetworkResourceLoader21sendAbortingOnFailureIN8Messages17WebResourceLoader14DidReceiveDataEEEbRKT_j
__ZN7CoreIPC10Connection4sendIN8Messages17WebResourceLoader14DidReceiveDataEEEbRKT_yj
__ZN7CoreIPC15ArgumentEncoder6encodeEx
__ZThn328_N6WebKit21NetworkResourceLoader16didFinishLoadingEPN7WebCore14ResourceHandleEd
__ZThn336_N6WebKit21NetworkResourceLoader26messageSenderDestinationIDEv
__ZN7CoreIPC13MessageSender4sendIN8Messages17WebResourceLoader21DidFinishResourceLoadEEEbRKT_y
__ZThn336_N6WebKit21NetworkResourceLoader23messageSenderConnectionEv
__ZN6WebKit21NetworkResourceLoader7cleanupEv
__ZN6WebKit17SchedulableLoader27invalidateSandboxExtensionsEv
__ZN3WTF6VectorINS_6RefPtrIN6WebKit16SandboxExtensionEEELm0ENS_15CrashOnOverflowEE14shrinkCapacityEm
__ZN6WebKit28NetworkResourceLoadScheduler20scheduleRemoveLoaderEPNS_17SchedulableLoaderE
__ZN3WTF6VectorINS_6RefPtrIN6WebKit17SchedulableLoaderEEELm0ENS_15CrashOnOverflowEE14appendSlowCaseIPS3_EEvRKT_
__ZN3WTF6VectorINS_6RefPtrIN6WebKit17SchedulableLoaderEEELm0ENS_15CrashOnOverflowEE15reserveCapacityEm
__ZN3WTF6RefPtrIN7WebCore14ResourceHandleEEaSEPS2_
__ZN6WebKit28NetworkResourceLoadScheduler22removeScheduledLoadersEPv
__ZN6WebKit28NetworkResourceLoadScheduler22removeScheduledLoadersEv
__ZN3WTF6VectorINS_6RefPtrIN6WebKit17SchedulableLoaderEEELm0ENS_15CrashOnOverflowEEaSERKS6_
__ZN3WTF6VectorINS_6RefPtrIN6WebKit17SchedulableLoaderEEELm0ENS_15CrashOnOverflowEE14shrinkCapacityEm
__ZN6WebKit28NetworkResourceLoadScheduler12removeLoaderEPNS_17SchedulableLoaderE
__ZN6WebKit10HostRecord12removeLoaderEPNS_17SchedulableLoaderE
__ZNK3WTF9HashTableINS_6RefPtrIN6WebKit17SchedulableLoaderEEES4_NS_17IdentityExtractorENS_7PtrHashIS4_EENS_10HashTraitsIS4_EES9_E4findINS_22IdentityHashTranslatorIS7_EES4_EENS_22HashTableConstIteratorIS4_S4_S5_S7_S9_S9_EERKT0_
__ZN3WTF10RefCountedIN6WebKit10HostRecordEE5derefEv
__ZN3WTF9HashTableINS_6RefPtrIN6WebKit17SchedulableLoaderEEES4_NS_17IdentityExtractorENS_7PtrHashIS4_EENS_10HashTraitsIS4_EES9_E12deleteBucketERS4_
__ZN3WTF9HashTableINS_6RefPtrIN6WebKit17SchedulableLoaderEEES4_NS_17IdentityExtractorENS_7PtrHashIS4_EENS_10HashTraitsIS4_EES9_E15deallocateTableEPS4_i
__ZN3WTF9HashTableINS_6RefPtrIN6WebKit17SchedulableLoaderEEES4_NS_17IdentityExtractorENS_7PtrHashIS4_EENS_10HashTraitsIS4_EES9_E16lookupForWritingINS_22IdentityHashTranslatorIS7_EES4_EENSt3__14pairIPS4_bEERKT0_
__ZN3WTF9HashTableINS_6RefPtrIN6WebKit17SchedulableLoaderEEES4_NS_17IdentityExtractorENS_7PtrHashIS4_EENS_10HashTraitsIS4_EES9_E3addINS_22IdentityHashTranslatorIS7_EES4_S4_EENS_18HashTableAddResultINS_17HashTableIteratorIS4_S4_S5_S7_S9_S9_EEEERKT0_RKT1_
__ZN3WTF9HashTableINS_6RefPtrIN6WebKit17SchedulableLoaderEEES4_NS_17IdentityExtractorENS_7PtrHashIS4_EENS_10HashTraitsIS4_EES9_E4findINS_22IdentityHashTranslatorIS7_EES4_EENS_17HashTableIteratorIS4_S4_S5_S7_S9_S9_EERKT0_
__ZN3WTF9HashTableINS_6RefPtrIN6WebKit17SchedulableLoaderEEES4_NS_17IdentityExtractorENS_7PtrHashIS4_EENS_10HashTraitsIS4_EES9_E6expandEv
__ZN3WTF9HashTableINS_6RefPtrIN6WebKit17SchedulableLoaderEEES4_NS_17IdentityExtractorENS_7PtrHashIS4_EENS_10HashTraitsIS4_EES9_E6lookupINS_22IdentityHashTranslatorIS7_EES4_EEPS4_RKT0_
__ZN3WTF9HashTableINS_6RefPtrIN6WebKit17SchedulableLoaderEEES4_NS_17IdentityExtractorENS_7PtrHashIS4_EENS_10HashTraitsIS4_EES9_E6rehashEi
__ZN3WTF9HashTableINS_6RefPtrIN6WebKit17SchedulableLoaderEEES4_NS_17IdentityExtractorENS_7PtrHashIS4_EENS_10HashTraitsIS4_EES9_E6removeEPS4_
__ZN7CoreIPC13handleMessageIN8Messages17WebResourceLoader14DidReceiveDataEN6WebKit17WebResourceLoaderEMS5_FvRKNS_13DataReferenceExEEEvRNS_14MessageDecoderEPT0_T1_
__ZN7CoreIPC10Arguments2INS_13DataReferenceExE6decodeERNS_15ArgumentDecoderERS2_
__ZN7CoreIPC15ArgumentDecoder6decodeERx
__ZN6WebKit17WebResourceLoader14didReceiveDataERKN7CoreIPC13DataReferenceEx
__ZN6WebKit20WebFrameLoaderClient39postProgressEstimateChangedNotificationEv
__ZN7CoreIPC13MessageSender4sendIN8Messages12WebPageProxy17DidChangeProgressEEEbRKT_y
__ZN3WTF6VectorINS_6RefPtrIN6WebKit17SchedulableLoaderEEELm0ENS_15CrashOnOverflowEED2Ev
__ZN6WebKit20WebFrameLoaderClient31dispatchDidReceiveContentLengthEPN7WebCore14DocumentLoaderEmi
__ZN6WebKit36InjectedBundlePageResourceLoadClient34didReceiveContentLengthForResourceEPNS_7WebPageEPNS_8WebFrameEyy
__ZN7WebCore5TimerIN6WebKit28NetworkResourceLoadSchedulerEE5firedEv
__ZN6WebKit28NetworkResourceLoadScheduler17requestTimerFiredEPN7WebCore5TimerIS0_EE
__ZN6WebKit28NetworkResourceLoadScheduler20servePendingRequestsEN7WebCore20ResourceLoadPriorityE
__ZN3WTF6VectorINS_6RefPtrIN6WebKit10HostRecordEEELm0ENS_15CrashOnOverflowEE6resizeEm
__ZN3WTF6VectorINS_6RefPtrIN6WebKit10HostRecordEEELm0ENS_15CrashOnOverflowEE15reserveCapacityEm
__ZN3WTF16VectorBufferBaseINS_6RefPtrIN6WebKit10HostRecordEEEE14allocateBufferEm
__ZN6WebKit20WebFrameLoaderClient17dispatchWillCloseEv
__ZNK3WTF9HashTableINS_6StringENS_12KeyValuePairIS1_NS_6RefPtrIN6WebKit10HostRecordEEEEENS_24KeyValuePairKeyExtractorIS7_EENS_10StringHashENS_18HashMapValueTraitsINS_10HashTraitsIS1_EENSC_IS6_EEEESD_E5beginEv
__ZN6WebKit12WebPageProxy17didChangeProgressEd
__ZN6WebKit20WebFrameLoaderClient18makeRepresentationEPN7WebCore14DocumentLoaderE
__ZN3WTF6RefPtrIN6WebKit10HostRecordEEaSERKS3_
__ZN6WebKit15WebLoaderClient17didChangeProgressEPNS_12WebPageProxyE
__ZN3WTF7HashMapINS_6StringENS_6RefPtrIN6WebKit10HostRecordEEENS_10StringHashENS_10HashTraitsIS1_EENS7_IS5_EEE6removeERKS1_
__ZN6WebKit15WebEditorClient23clearUndoRedoOperationsEv
__ZN3WTF6VectorINS_6RefPtrIN6WebKit10HostRecordEEELm0ENS_15CrashOnOverflowEED2Ev
__ZN7CoreIPC13MessageSender4sendIN8Messages12WebPageProxy20ClearAllEditCommandsEEEbRKT_y
__ZN3WTF6VectorINS_6RefPtrIN6WebKit10HostRecordEEELm0ENS_15CrashOnOverflowEE6shrinkEm
__ZN6WebKit10HostRecordD2Ev
__ZN3WTF5DequeINS_6RefPtrIN6WebKit17SchedulableLoaderEEELm0EED2Ev
__ZN3WTF5DequeINS_6RefPtrIN6WebKit17SchedulableLoaderEEELm0EE10destroyAllEv
__ZN6WebKit23WebBackForwardListProxy11itemAtIndexEi
__ZN7CoreIPC10Connection8sendSyncIN8Messages12WebPageProxy22BackForwardItemAtIndexEEEbRKT_RKNS5_5ReplyEydj
__ZN6WebKit12WebPageProxy20clearAllEditCommandsEv
__ZN6WebKit14PageClientImpl20clearAllEditCommandsEv
__ZN7CoreIPC13handleMessageIN8Messages12WebPageProxy22BackForwardItemAtIndexEN6WebKit12WebPageProxyEMS5_FviRyEEEvRNS_14MessageDecoderERNS_14MessageEncoderEPT0_T1_
__ZN6WebKit12WebPageProxy22backForwardItemAtIndexEiRy
__ZN6WebKit18WebBackForwardList11itemAtIndexEi
__ZN6WebKit20WebIconDatabaseProxy21releaseIconForPageURLERKN3WTF6StringE
__ZN7CoreIPC10Connection4sendIN8Messages15WebIconDatabase21ReleaseIconForPageURLEEEbRKT_yj
__ZN6WebKit20WebIconDatabaseProxy20retainIconForPageURLERKN3WTF6StringE
__ZN7CoreIPC10Connection4sendIN8Messages15WebIconDatabase20RetainIconForPageURLEEEbRKT_yj
__ZN6WebKitL27WK2NotifyHistoryItemChangedEPN7WebCore11HistoryItemE
__ZN6WebKitL18historyItemToIDMapEv
__ZThn24_N6WebKit15WebIconDatabase17didReceiveMessageEPN7CoreIPC10ConnectionERNS1_14MessageDecoderE
__ZN6WebKit23WebBackForwardListProxy7addItemEN3WTF10PassRefPtrIN7WebCore11HistoryItemEEE
__ZN3WTF6RefPtrIN7WebCore11HistoryItemEEaSERKS3_
__ZN6WebKit15WebIconDatabase17didReceiveMessageEPN7CoreIPC10ConnectionERNS1_14MessageDecoderE
__ZN6WebKitL18idToHistoryItemMapEv
__ZN3WTF7HashMapIyNS_6RefPtrIN7WebCore11HistoryItemEEENS_7IntHashIyEENS_10HashTraitsIyEENS7_IS4_EEE3setERKyNS_10PassRefPtrIS3_EE
__ZN7CoreIPC13handleMessageIN8Messages15WebIconDatabase21ReleaseIconForPageURLEN6WebKit15WebIconDatabaseEMS5_FvRKN3WTF6StringEEEEvRNS_14MessageDecoderEPT0_T1_
__ZN6WebKitL21updateBackForwardItemEyPN7WebCore11HistoryItemE
__ZN6WebKit15WebIconDatabase21releaseIconForPageURLERKN3WTF6StringE
__ZN6WebKit14EncoderAdapterC1Ev
__ZN7CoreIPC13handleMessageIN8Messages15WebIconDatabase20RetainIconForPageURLEN6WebKit15WebIconDatabaseEMS5_FvRKN3WTF6StringEEEEvRNS_14MessageDecoderEPT0_T1_
__ZN6WebKit14EncoderAdapter12encodeUInt32Ej
__ZN6WebKit14EncoderAdapter12encodeUInt64Ey
__ZN6WebKit14EncoderAdapter11encodeInt64Ex
__ZN6WebKit14EncoderAdapter12encodeStringERKN3WTF6StringE
__ZN6WebKit14EncoderAdapter10encodeBoolEb
__ZN6WebKit14EncoderAdapter11encodeInt32Ei
__ZN6WebKit14EncoderAdapter11encodeFloatEf
__ZNK6WebKit14EncoderAdapter13dataReferenceEv
__ZN7CoreIPC10Connection4sendIN8Messages15WebProcessProxy18AddBackForwardItemEEEbRKT_yj
__ZNK7CoreIPC10Arguments4IyRKN3WTF6StringES4_S4_E6encodeERNS_15ArgumentEncoderE
__ZN7CoreIPC13MessageSender4sendIN8Messages12WebPageProxy18BackForwardAddItemEEEbRKT_y
__ZN3WTF10RefCountedIN7WebCore11HistoryItemEE5derefEv
__ZN6WebKit20WebFrameLoaderClient19updateGlobalHistoryEv
__ZN7CoreIPC10Connection4sendIN8Messages15WebProcessProxy29DidNavigateWithNavigationDataEEEbRKT_yj
__ZN6WebKit15WebProcessProxy32didReceiveWebProcessProxyMessageEPN7CoreIPC10ConnectionERNS1_14MessageDecoderE
__ZN7CoreIPC13handleMessageIN8Messages15WebProcessProxy18AddBackForwardItemEN6WebKit15WebProcessProxyEMS5_FvyRKN3WTF6StringES9_S9_RKNS_13DataReferenceEEEEvRNS_14MessageDecoderEPT0_T1_
__ZN7CoreIPC10Arguments5IyN3WTF6StringES2_S2_NS_13DataReferenceEE6decodeERNS_15ArgumentDecoderERS4_
__ZN7CoreIPC10Arguments4IyN3WTF6StringES2_S2_E6decodeERNS_15ArgumentDecoderERS3_
__ZN6WebKit15WebProcessProxy18addBackForwardItemEyRKN3WTF6StringES4_S4_RKN7CoreIPC13DataReferenceE
__ZN3WTF9HashTableIyNS_12KeyValuePairIyNS_6RefPtrIN6WebKit22WebBackForwardListItemEEEEENS_24KeyValuePairKeyExtractorIS6_EENS_7IntHashIyEENS_18HashMapValueTraitsINS_10HashTraitsIyEENSC_IS5_EEEESD_E15deallocateTableEPS6_i
__ZN3WTF9HashTableIyNS_12KeyValuePairIyNS_6RefPtrIN6WebKit22WebBackForwardListItemEEEEENS_24KeyValuePairKeyExtractorIS6_EENS_7IntHashIyEENS_18HashMapValueTraitsINS_10HashTraitsIyEENSC_IS5_EEEESD_E16lookupForWritingINS_22IdentityHashTranslatorISA_EEyEENSt3__14pairIPS6_bEERKT0_
__ZN3WTF9HashTableIyNS_12KeyValuePairIyNS_6RefPtrIN6WebKit22WebBackForwardListItemEEEEENS_24KeyValuePairKeyExtractorIS6_EENS_7IntHashIyEENS_18HashMapValueTraitsINS_10HashTraitsIyEENSC_IS5_EEEESD_E3addINS_17HashMapTranslatorISF_SA_EEyNS_10PassRefPtrIS4_EEEENS_18HashTableAddResultINS_17HashTableIteratorIyS6_S8_SA_SF_SD_EEEERKT0_RKT1_
__ZN3WTF9HashTableIyNS_12KeyValuePairIyNS_6RefPtrIN6WebKit22WebBackForwardListItemEEEEENS_24KeyValuePairKeyExtractorIS6_EENS_7IntHashIyEENS_18HashMapValueTraitsINS_10HashTraitsIyEENSC_IS5_EEEESD_E4findINS_22IdentityHashTranslatorISA_EEyEENS_17HashTableIteratorIyS6_S8_SA_SF_SD_EERKT0_
__ZN3WTF9HashTableIyNS_12KeyValuePairIyNS_6RefPtrIN6WebKit22WebBackForwardListItemEEEEENS_24KeyValuePairKeyExtractorIS6_EENS_7IntHashIyEENS_18HashMapValueTraitsINS_10HashTraitsIyEENSC_IS5_EEEESD_E6expandEv
__ZN3WTF9HashTableIyNS_12KeyValuePairIyNS_6RefPtrIN6WebKit22WebBackForwardListItemEEEEENS_24KeyValuePairKeyExtractorIS6_EENS_7IntHashIyEENS_18HashMapValueTraitsINS_10HashTraitsIyEENSC_IS5_EEEESD_E6lookupINS_22IdentityHashTranslatorISA_EEyEEPS6_RKT0_
__ZN3WTF9HashTableIyNS_12KeyValuePairIyNS_6RefPtrIN6WebKit22WebBackForwardListItemEEEEENS_24KeyValuePairKeyExtractorIS6_EENS_7IntHashIyEENS_18HashMapValueTraitsINS_10HashTraitsIyEENSC_IS5_EEEESD_E6rehashEi
__ZN6WebKit22WebNavigationDataStoreD2Ev
__ZN3WTF17HashMapTranslatorINS_18HashMapValueTraitsINS_10HashTraitsIyEENS2_INS_6RefPtrIN6WebKit22WebBackForwardListItemEEEEEEENS_7IntHashIyEEE9translateINS_12KeyValuePairIyS7_EEyNS_10PassRefPtrIS6_EEEEvRT_RKT0_RKT1_
__ZN6WebKit20WebFrameLoaderClient32updateGlobalHistoryRedirectLinksEv
__ZN6WebKit22WebBackForwardListItemC1ERKN3WTF6StringES4_S4_PKhmy
__ZNK7WebCore14DocumentLoader30serverRedirectSourceForHistoryEv
__ZN6WebKit22WebBackForwardListItemC2ERKN3WTF6StringES4_S4_PKhmy
__ZN7WebCore17FrameLoaderClient30updateGlobalHistoryItemForPageEv
__ZN6WebKit21WebPlatformStrategies25createVisitedLinkStrategyEv
__ZN3WTF6VectorIhLm0ENS_15CrashOnOverflowEE14shrinkCapacityEm
__ZN3WTF6VectorIhLm0ENS_15CrashOnOverflowEE15reserveCapacityEm
__ZThn128_N6WebKit21WebPlatformStrategies14addVisitedLinkEPN7WebCore4PageEy
__ZN6WebKit10WebProcess14addVisitedLinkEy
__ZN3WTF6VectorIhLm0ENS_15CrashOnOverflowEE6appendIhEEvPKT_m
__ZNK6WebKit16VisitedLinkTable13isLinkVisitedEy
__ZN6WebKit12WebPageProxy18backForwardAddItemEy
__ZNK6WebKit15WebProcessProxy18webBackForwardItemEy
__ZN6WebKit7WebPage40shouldUseCustomRepresentationForResponseERKN7WebCore16ResourceResponseE
__ZN6WebKit18WebBackForwardList7addItemEPNS_22WebBackForwardListItemE
__ZN3WTF6VectorINS_6RefPtrIN6WebKit22WebBackForwardListItemEEELm0ENS_15CrashOnOverflowEE6insertIPS3_EEvmRKT_
__ZN3WTF9RetainPtrI7CALayerEaSEPS1_
__ZN3WTF6VectorINS_6RefPtrIN6WebKit22WebBackForwardListItemEEELm0ENS_15CrashOnOverflowEE15reserveCapacityEm
__ZN3WTF16VectorBufferBaseINS_6RefPtrIN6WebKit22WebBackForwardListItemEEEE14allocateBufferEm
__ZN6WebKit12WebPageProxy24didChangeBackForwardListEPNS_22WebBackForwardListItemEPN3WTF6VectorINS3_6RefPtrINS_9APIObjectEEELm0ENS3_15CrashOnOverflowEEE
__ZN6WebKit15WebLoaderClient24didChangeBackForwardListEPNS_12WebPageProxyEPNS_22WebBackForwardListItemEPN3WTF6VectorINS5_6RefPtrINS_9APIObjectEEELm0ENS5_15CrashOnOverflowEEE
__ZN6WebKit15WebChromeClient16setStatusbarTextERKN3WTF6StringE
__ZN6WebKit26InjectedBundlePageUIClient20willSetStatusbarTextEPNS_7WebPageERKN3WTF6StringE
__ZN7CoreIPC13MessageSender4sendIN8Messages12WebPageProxy13SetStatusTextEEEbRKT_y
__ZN6WebKit20WebFrameLoaderClient13committedLoadEPN7WebCore14DocumentLoaderEPKci
__ZN7CoreIPC13handleMessageIN8Messages15WebProcessProxy29DidNavigateWithNavigationDataEN6WebKit15WebProcessProxyEMS5_FvyRKNS4_22WebNavigationDataStoreEyEEEvRNS_14MessageDecoderEPT0_T1_
__ZN7CoreIPC10Arguments3IyN6WebKit22WebNavigationDataStoreEyE6decodeERNS_15ArgumentDecoderERS3_
__ZN7CoreIPC10Arguments2IyN6WebKit22WebNavigationDataStoreEE6decodeERNS_15ArgumentDecoderERS3_
__ZN6WebKit22WebNavigationDataStore6decodeERN7CoreIPC15ArgumentDecoderERS0_
__ZN6WebKit15WebProcessProxy29didNavigateWithNavigationDataEyRKNS_22WebNavigationDataStoreEy
__ZN6WebKit15WebProcessProxy7webPageEy
__ZN6WebKit16WebHistoryClient29didNavigateWithNavigationDataEPNS_10WebContextEPNS_12WebPageProxyERKNS_22WebNavigationDataStoreEPNS_13WebFrameProxyE
__ZN6WebKit17WebNavigationDataC1ERKNS_22WebNavigationDataStoreE
__ZN6WebKit17WebNavigationDataC2ERKNS_22WebNavigationDataStoreE
_WKFrameCopyUnreachableURL
_WKNavigationDataCopyNavigationDestinationURL
_WKNavigationDataCopyOriginalRequest
_WKNavigationDataCopyTitle
__ZN6WebKit20WebFrameLoaderClient21dispatchDidCommitLoadEv
__ZN6WebKit30InjectedBundlePageLoaderClient21didCommitLoadForFrameEPNS_7WebPageEPNS_8WebFrameERN3WTF6RefPtrINS_9APIObjectEEE
_WKBundleFrameCopyChildFrames
__ZN6WebKit8WebFrame11childFramesEv
__ZN6WebKit17WebNavigationDataD0Ev
_WKBundleFrameCopyURL
__ZNK6WebKit8WebFrame3urlEv
__ZN7CoreIPC13handleMessageIN8Messages12WebPageProxy13SetStatusTextEN6WebKit12WebPageProxyEMS5_FvRKN3WTF6StringEEEEvRNS_14MessageDecoderEPT0_T1_
__ZN6WebKit12WebPageProxy13setStatusTextERKN3WTF6StringE
__ZN6WebKit11WebUIClient13setStatusTextEPNS_12WebPageProxyERKN3WTF6StringE
__ZN6WebKit7WebPage23SandboxExtensionTracker24didCommitProvisionalLoadEPNS_8WebFrameE
__ZN7CoreIPC13MessageSender4sendIN8Messages12WebPageProxy21DidCommitLoadForFrameEEEbRKT_y
__ZNK7CoreIPC10Arguments5IyRKN3WTF6StringEbjRKN6WebKit23PlatformCertificateInfoEE6encodeERNS_15ArgumentEncoderE
__ZNK7CoreIPC10Arguments3IyRKN3WTF6StringEbE6encodeERNS_15ArgumentEncoderE
__ZN6WebKit7WebPage13didCommitLoadEPNS_8WebFrameE
__ZN6WebKit10WebProcess17updateActivePagesEv
__ZN7CoreIPC21handleMessageVariadicIN8Messages12WebPageProxy21DidCommitLoadForFrameEN6WebKit12WebPageProxyEMS5_FvyRKN3WTF6StringEbjRKNS4_23PlatformCertificateInfoERNS_14MessageDecoderEEEEvSE_PT0_T1_
__ZN7CoreIPC10Arguments5IyN3WTF6StringEbjN6WebKit23PlatformCertificateInfoEE6decodeERNS_15ArgumentDecoderERS5_
__ZN7CoreIPC10Arguments4IyN3WTF6StringEbjE6decodeERNS_15ArgumentDecoderERS3_
_WKSetApplicationInformationItem
__ZN7CoreIPC10Arguments3IyN3WTF6StringEbE6decodeERNS_15ArgumentDecoderERS3_
__ZN7CoreIPC18callMemberFunctionIN6WebKit12WebPageProxyEMS2_FvyRKN3WTF6StringEbjRKNS1_23PlatformCertificateInfoERNS_14MessageDecoderEEyS4_bjS7_EEvRKNS_10Arguments5IT1_T2_T3_T4_T5_EESB_PT_T0_
__ZN6WebKit12WebPageProxy21didCommitLoadForFrameEyRKN3WTF6StringEbjRKNS_23PlatformCertificateInfoERN7CoreIPC14MessageDecoderE
__ZN6WebKit14PageClientImpl21resetSecureInputStateEv
-[WKView(Internal) _resetSecureInputState]
__ZN6WebKit14PageClientImpl22dismissCorrectionPanelEN7WebCore34ReasonForDismissingAlternativeTextE
__ZN6WebKit15CorrectionPanel7dismissEN7WebCore34ReasonForDismissingAlternativeTextE
__ZN6WebKit15CorrectionPanel15dismissInternalEN7WebCore34ReasonForDismissingAlternativeTextEb
__ZN6WebKit14PageClientImpl28dismissDictionaryLookupPanelEv
_WKHideWordDefinitionWindow
__ZN6WebKit12WebPageProxy27clearLoadDependentCallbacksEv
__ZN6WebKit13WebFrameProxy13didCommitLoadERKN3WTF6StringERKNS_23PlatformCertificateInfoE
__ZN6WebKit18WebCertificateInfoC2ERKNS_23PlatformCertificateInfoE
__ZN6WebKit14PageClientImpl25didCommitLoadForMainFrameEb
-[WKView(Internal) _setPageHasCustomRepresentation:]
__ZN3WTF6OwnPtrIN6WebKit17PDFViewControllerEE5clearEv
__ZN6WebKit15WebLoaderClient21didCommitLoadForFrameEPNS_12WebPageProxyEPNS_13WebFrameProxyEPNS_9APIObjectE
__ZN6WebKit20WebFrameLoaderClient29dispatchGlobalObjectAvailableEPN7WebCore15DOMWrapperWorldE
__ZN6WebKit30InjectedBundlePageLoaderClient31globalObjectIsAvailableForFrameEPNS_7WebPageEPNS_8WebFrameEPN7WebCore15DOMWrapperWorldE
__ZN6WebKit25InjectedBundleScriptWorld11getOrCreateEPN7WebCore15DOMWrapperWorldE
_WKBundleScriptWorldNormalWorld
__ZN6WebKit25InjectedBundleScriptWorld11normalWorldEv
_WKBundleFrameGetJavaScriptContextForWorld
__ZN6WebKit8WebFrame17jsContextForWorldEPNS_25InjectedBundleScriptWorldE
__ZN7WebCore16ScriptController11windowShellEPNS_15DOMWrapperWorldE
_WKFrameGetPage
_WKFrameCopyMIMEType
_WKFrameIsDisplayingStandaloneImageDocument
__ZNK6WebKit13WebFrameProxy35isDisplayingStandaloneImageDocumentEv
-[WKView becomeFirstResponder]
__ZN6WebKit17ChildProcessProxy4sendIN8Messages7WebPage10SetFocusedEEEbRKT_yj
__ZN6WebKit20WebFrameLoaderClient35dispatchDidClearWindowObjectInWorldEPN7WebCore15DOMWrapperWorldE
__ZN6WebKit30InjectedBundlePageLoaderClient28didClearWindowObjectForFrameEPNS_7WebPageEPNS_8WebFrameEPN7WebCore15DOMWrapperWorldE
_WKBundleFrameGetPage
_WKBundleDOMWindowExtensionCreate
__ZN6WebKit32InjectedBundleDOMWindowExtension6createEPNS_8WebFrameEPNS_25InjectedBundleScriptWorldE
__ZN6WebKit32InjectedBundleDOMWindowExtensionC2EPNS_8WebFrameEPNS_25InjectedBundleScriptWorldE
__ZN6WebKitL13allExtensionsEv
__ZN3WTF9HashTableINS_6RefPtrIN7WebCore15DOMWrapperWorldEEENS_12KeyValuePairIS4_N3JSC6StrongINS2_16JSDOMWindowShellEEEEENS_24KeyValuePairKeyExtractorISA_EENS_7PtrHashIS4_EENS_22KeyValuePairHashTraitsINS_10HashTraitsIS4_EENSG_IS9_EEEESH_E4findINS_17HashMapTranslatorISJ_SE_EEPS3_EENS_17HashTableIteratorIS4_SA_SC_SE_SJ_SH_EERKT0_
__ZN3WTF9HashTableINS_6RefPtrIN7WebCore15DOMWrapperWorldEEENS_12KeyValuePairIS4_N3JSC6StrongINS2_16JSDOMWindowShellEEEEENS_24KeyValuePairKeyExtractorISA_EENS_7PtrHashIS4_EENS_22KeyValuePairHashTraitsINS_10HashTraitsIS4_EENSG_IS9_EEEESH_E6lookupINS_17HashMapTranslatorISJ_SE_EEPS3_EEPSA_RKT0_
_WKUserContentURLPatternCreate
__ZN6WebKit24WebUserContentURLPatternC2ERKN3WTF6StringE
_WKUserContentURLPatternMatchesURL
__ZNK6WebKit24WebUserContentURLPattern10matchesURLERKN3WTF6StringE
__ZN3WTF9HashTableIPN7WebCore18DOMWindowExtensionENS_12KeyValuePairIS3_PN6WebKit32InjectedBundleDOMWindowExtensionEEENS_24KeyValuePairKeyExtractorIS8_EENS_7PtrHashIS3_EENS_18HashMapValueTraitsINS_10HashTraitsIS3_EENSE_IS7_EEEESF_E16lookupForWritingINS_22IdentityHashTranslatorISC_EES3_EENSt3__14pairIPS8_bEERKT0_
__ZN3WTF9HashTableIPN7WebCore18DOMWindowExtensionENS_12KeyValuePairIS3_PN6WebKit32InjectedBundleDOMWindowExtensionEEENS_24KeyValuePairKeyExtractorIS8_EENS_7PtrHashIS3_EENS_18HashMapValueTraitsINS_10HashTraitsIS3_EENSE_IS7_EEEESF_E3addINS_17HashMapTranslatorISH_SC_EES3_S7_EENS_18HashTableAddResultINS_17HashTableIteratorIS3_S8_SA_SC_SH_SF_EEEERKT0_RKT1_
__ZN3WTF9HashTableIPN7WebCore18DOMWindowExtensionENS_12KeyValuePairIS3_PN6WebKit32InjectedBundleDOMWindowExtensionEEENS_24KeyValuePairKeyExtractorIS8_EENS_7PtrHashIS3_EENS_18HashMapValueTraitsINS_10HashTraitsIS3_EENSE_IS7_EEEESF_E4findINS_22IdentityHashTranslatorISC_EES3_EENS_17HashTableIteratorIS3_S8_SA_SC_SH_SF_EERKT0_
__ZN3WTF9HashTableIPN7WebCore18DOMWindowExtensionENS_12KeyValuePairIS3_PN6WebKit32InjectedBundleDOMWindowExtensionEEENS_24KeyValuePairKeyExtractorIS8_EENS_7PtrHashIS3_EENS_18HashMapValueTraitsINS_10HashTraitsIS3_EENSE_IS7_EEEESF_E6expandEv
__ZN3WTF9HashTableIPN7WebCore18DOMWindowExtensionENS_12KeyValuePairIS3_PN6WebKit32InjectedBundleDOMWindowExtensionEEENS_24KeyValuePairKeyExtractorIS8_EENS_7PtrHashIS3_EENS_18HashMapValueTraitsINS_10HashTraitsIS3_EENSE_IS7_EEEESF_E6lookupINS_22IdentityHashTranslatorISC_EES3_EEPS8_RKT0_
__ZN3WTF9HashTableIPN7WebCore18DOMWindowExtensionENS_12KeyValuePairIS3_PN6WebKit32InjectedBundleDOMWindowExtensionEEENS_24KeyValuePairKeyExtractorIS8_EENS_7PtrHashIS3_EENS_18HashMapValueTraitsINS_10HashTraitsIS3_EENSE_IS7_EEEESF_E6rehashEi
__ZN3WTF9HashTableIPN7WebCore18DOMWindowExtensionENS_12KeyValuePairIS3_PN6WebKit32InjectedBundleDOMWindowExtensionEEENS_24KeyValuePairKeyExtractorIS8_EENS_7PtrHashIS3_EENS_18HashMapValueTraitsINS_10HashTraitsIS3_EENSE_IS7_EEEESF_E6removeEPS8_
__ZN6WebKit15WebChromeClient24disableSuddenTerminationEv
__ZN7CoreIPC13MessageSender4sendIN8Messages15WebProcessProxy24DisableSuddenTerminationEEEbRKT_y
__ZN6WebKit15WebProcessProxy24disableSuddenTerminationEv
_WKSerializedScriptValueCreate
__ZN6WebKit24WebSerializedScriptValue6createEPK15OpaqueJSContextPK13OpaqueJSValuePS6_
__ZN3WTF10RefCountedIN7WebCore21SerializedScriptValueEE5derefEv
_WKBundlePostMessage
__ZN6WebKit14InjectedBundle11postMessageERKN3WTF6StringEPNS_9APIObjectE
__ZNK6WebKit14TypedAPIObjectILNS_9APIObject4TypeE17EE4typeEv
__ZNK6WebKit14TypedAPIObjectILNS_9APIObject4TypeE79EE4typeEv
__ZN6WebKit24WebSerializedScriptValueD0Ev
__ZThn16_N6WebKit10WebContext17didReceiveMessageEPN7CoreIPC10ConnectionERNS1_14MessageDecoderE
__ZN6WebKit10WebContext17didReceiveMessageEPN7CoreIPC10ConnectionERNS1_14MessageDecoderE
__ZN6WebKit17ChildProcessProxy14fromConnectionEPN7CoreIPC10ConnectionE
__ZN3WTF6VectorIhLm0ENS_15CrashOnOverflowEE14expandCapacityEmPKh
__ZN6WebKit24WebSerializedScriptValue5adoptERN3WTF6VectorIhLm0ENS1_15CrashOnOverflowEEE
__ZN6WebKit14ImmutableArray5adoptERN3WTF6VectorINS1_6RefPtrINS_9APIObjectEEELm0ENS1_15CrashOnOverflowEEE
__ZN6WebKit30WebContextInjectedBundleClient35didReceiveMessageFromInjectedBundleEPNS_10WebContextERKN3WTF6StringEPNS_9APIObjectE
_WKSerializedScriptValueGetTypeID
__ZNK6WebKit14TypedAPIObjectILNS_9APIObject4TypeE63EE4typeEv
_WKPageGetTypeID
_WKSerializedScriptValueDeserialize
_WKBundlePostSynchronousMessage
__ZN6WebKit14InjectedBundle22postSynchronousMessageERKN3WTF6StringEPNS_9APIObjectERNS1_6RefPtrIS5_EE
__ZThn16_N6WebKit10WebContext21didReceiveSyncMessageEPN7CoreIPC10ConnectionERNS1_14MessageDecoderERN3WTF6OwnPtrINS1_14MessageEncoderEEE
__ZN6WebKit10WebContext21didReceiveSyncMessageEPN7CoreIPC10ConnectionERNS1_14MessageDecoderERN3WTF6OwnPtrINS1_14MessageEncoderEEE
__ZN6WebKit30WebContextInjectedBundleClient46didReceiveSynchronousMessageFromInjectedBundleEPNS_10WebContextERKN3WTF6StringEPNS_9APIObjectERNS3_6RefPtrIS7_EE
_WKIsPublicSuffix
__CFHostIsDomainTopLevel
__ZN6WebKit20WebFrameLoaderClient15willChangeTitleEPN7WebCore14DocumentLoaderE
__ZN6WebKit20WebFrameLoaderClient14didChangeTitleEPN7WebCore14DocumentLoaderE
__ZN6WebKit20WebFrameLoaderClient8setTitleERKN7WebCore19StringWithDirectionERKNS1_4KURLE
__ZN7CoreIPC10Connection4sendIN8Messages15WebProcessProxy21DidUpdateHistoryTitleEEEbRKT_yj
__ZN6WebKit20WebFrameLoaderClient23dispatchDidReceiveTitleERKN7WebCore19StringWithDirectionE
__ZN6WebKit30InjectedBundlePageLoaderClient23didReceiveTitleForFrameEPNS_7WebPageERKN3WTF6StringEPNS_8WebFrameERNS3_6RefPtrINS_9APIObjectEEE
__ZN7CoreIPC13MessageSender4sendIN8Messages12WebPageProxy23DidReceiveTitleForFrameEEEbRKT_y
__ZNK7CoreIPC10Arguments3IyRKN3WTF6StringERKN6WebKit32InjectedBundleUserMessageEncoderEE6encodeERNS_15ArgumentEncoderE
__ZN6WebKit22WebBackForwardListItem18setBackForwardDataEPKhm
__ZN7CoreIPC13handleMessageIN8Messages15WebProcessProxy21DidUpdateHistoryTitleEN6WebKit15WebProcessProxyEMS5_FvyRKN3WTF6StringES9_yEEEvRNS_14MessageDecoderEPT0_T1_
__ZN7CoreIPC10Arguments4IyN3WTF6StringES2_yE6decodeERNS_15ArgumentDecoderERS3_
__ZN6WebKit15WebProcessProxy21didUpdateHistoryTitleEyRKN3WTF6StringES4_y
__ZN6WebKit16WebHistoryClient21didUpdateHistoryTitleEPNS_10WebContextEPNS_12WebPageProxyERKN3WTF6StringES8_PNS_13WebFrameProxyE
_WKURLCopyString
__ZN7CoreIPC21handleMessageVariadicIN8Messages12WebPageProxy23DidReceiveTitleForFrameEN6WebKit12WebPageProxyEMS5_FvyRKN3WTF6StringERNS_14MessageDecoderEEEEvSB_PT0_T1_
__ZN6WebKit12WebPageProxy23didReceiveTitleForFrameEyRKN3WTF6StringERN7CoreIPC14MessageDecoderE
__ZN6WebKit13WebFrameProxy14didChangeTitleERKN3WTF6StringE
__ZN6WebKit15WebLoaderClient23didReceiveTitleForFrameEPNS_12WebPageProxyERKN3WTF6StringEPNS_13WebFrameProxyEPNS_9APIObjectE
__ZN7WebCore17FrameLoaderClient21allowScriptFromSourceEbRKNS_4KURLE
__ZN6WebKit17WebResourceLoader21didFinishResourceLoadEd
__ZN6WebKit20WebFrameLoaderClient24dispatchDidFinishLoadingEPN7WebCore14DocumentLoaderEm
__ZN6WebKit36InjectedBundlePageResourceLoadClient24didFinishLoadForResourceEPNS_7WebPageEPNS_8WebFrameEy
__ZN6WebKit24WebResourceLoadScheduler20servePendingRequestsEN7WebCore20ResourceLoadPriorityE
__ZN7CoreIPC10Connection4sendIN8Messages29NetworkConnectionToWebProcess20ServePendingRequestsEEEbRKT_yj
__ZN6WebKit24WebResourceLoadScheduler6removeEPN7WebCore14ResourceLoaderE
__ZN3WTF7HashMapImNS_6RefPtrIN6WebKit17WebResourceLoaderEEENS_7IntHashImEENS_10HashTraitsImEENS7_IS4_EEE4takeERKm
__ZN7CoreIPC10Connection4sendIN8Messages29NetworkConnectionToWebProcess20RemoveLoadIdentifierEEEbRKT_yj
__ZN6WebKit17WebResourceLoader20detachFromCoreLoaderEv
__ZN3WTF6RefPtrIN7WebCore14ResourceLoaderEEaSEPS2_
__ZN6WebKit17WebResourceLoaderD0Ev
__ZN6WebKit29NetworkConnectionToWebProcess20servePendingRequestsEj
__ZN6WebKit17WebResourceLoaderD2Ev
__ZN7CoreIPC13MessageSenderD2Ev
__ZN6WebKit29NetworkConnectionToWebProcess20removeLoadIdentifierEy
__ZN3WTF7HashMapIyNS_6RefPtrIN6WebKit21NetworkResourceLoaderEEENS_7IntHashIyEENS_10HashTraitsIyEENS7_IS4_EEE4takeERKy
__ZN6WebKit21NetworkResourceLoader5abortEv
__ZN6WebKit21NetworkResourceLoaderD0Ev
__ZN6WebKit21NetworkResourceLoaderD2Ev
__ZN6WebKit23RemoteNetworkingContextD0Ev
__ZN6WebKit17SchedulableLoaderD2Ev
__ZN3WTF6VectorINS_6RefPtrIN6WebKit16SandboxExtensionEEELm0ENS_15CrashOnOverflowEED2Ev
__ZN6WebKit7WebPage10setFocusedEb
__ZN6WebKit15WebChromeClient19focusedFrameChangedEPN7WebCore5FrameE
__ZN7CoreIPC10Connection4sendIN8Messages12WebPageProxy19FocusedFrameChangedEEEbRKT_yj
__ZN6WebKit12WebPageProxy19focusedFrameChangedEy
__ZN3WTF6RefPtrIN6WebKit13WebFrameProxyEEaSEPS2_
_WKBundleReportException
__ZN6WebKit14InjectedBundle15reportExceptionEPK15OpaqueJSContextPK13OpaqueJSValue
__ZNK6WebKit15WebChromeClient17windowResizerRectEv
__ZNK6WebKit7WebPage17windowResizerRectEv
__ZN6WebKit20WebFrameLoaderClient17dispatchDidLayoutEj
__ZN6WebKit30InjectedBundlePageLoaderClient9didLayoutEPNS_7WebPageEjRN3WTF6RefPtrINS_9APIObjectEEE
__ZN7CoreIPC13MessageSender4sendIN8Messages12WebPageProxy9DidLayoutEEEbRKT_y
__ZN6WebKit30InjectedBundlePageLoaderClient22didFirstLayoutForFrameEPNS_7WebPageEPNS_8WebFrameERN3WTF6RefPtrINS_9APIObjectEEE
__ZN7CoreIPC13MessageSender4sendIN8Messages12WebPageProxy22DidFirstLayoutForFrameEEEbRKT_y
__ZN6WebKit7WebPage25didCompletePageTransitionEv
__ZN6WebKit12WebPageProxy9didLayoutEjRN7CoreIPC14MessageDecoderE
__ZN6WebKit15WebLoaderClient9didLayoutEPNS_12WebPageProxyEjPNS_9APIObjectE
__ZN6WebKit12WebPageProxy22didFirstLayoutForFrameEyRN7CoreIPC14MessageDecoderE
__ZN6WebKit15WebLoaderClient22didFirstLayoutForFrameEPNS_12WebPageProxyEPNS_13WebFrameProxyEPNS_9APIObjectE
__ZN6WebKit15WebChromeClient18formStateDidChangeEPKN7WebCore4NodeE
__ZN6WebKit21WebPlatformStrategies21createStorageStrategyEv
__ZThn120_N6WebKit21WebPlatformStrategies21localStorageNamespaceEPN7WebCore9PageGroupE
__ZN6WebKit20StorageNamespaceImpl27createLocalStorageNamespaceEPN7WebCore9PageGroupE
__ZN6WebKit10WebProcess12webPageGroupEPN7WebCore9PageGroupE
__ZN6WebKitL24localStorageNamespaceMapEv
__ZN6WebKit20StorageNamespaceImpl11storageAreaEN3WTF10PassRefPtrIN7WebCore14SecurityOriginEEE
__ZN3WTF9HashTableINS_6RefPtrIN7WebCore14SecurityOriginEEENS_12KeyValuePairIS4_NS1_IN6WebKit14StorageAreaMapEEEEENS_24KeyValuePairKeyExtractorIS9_EENS2_18SecurityOriginHashENS_22KeyValuePairHashTraitsINS_10HashTraitsIS4_EENSE_IS8_EEEESF_E15deallocateTableEPS9_i
__ZN3WTF9HashTableINS_6RefPtrIN7WebCore14SecurityOriginEEENS_12KeyValuePairIS4_NS1_IN6WebKit14StorageAreaMapEEEEENS_24KeyValuePairKeyExtractorIS9_EENS2_18SecurityOriginHashENS_22KeyValuePairHashTraitsINS_10HashTraitsIS4_EENSE_IS8_EEEESF_E16lookupForWritingINS_22IdentityHashTranslatorISC_EES4_EENSt3__14pairIPS9_bEERKT0_
__ZN3WTF9HashTableINS_6RefPtrIN7WebCore14SecurityOriginEEENS_12KeyValuePairIS4_NS1_IN6WebKit14StorageAreaMapEEEEENS_24KeyValuePairKeyExtractorIS9_EENS2_18SecurityOriginHashENS_22KeyValuePairHashTraitsINS_10HashTraitsIS4_EENSE_IS8_EEEESF_E3addINS_17HashMapTranslatorISH_SC_EEPS3_NS_10PassRefPtrIS7_EEEENS_18HashTableAddResultINS_17HashTableIteratorIS4_S9_SB_SC_SH_SF_EEEERKT0_RKT1_
__ZN3WTF9HashTableINS_6RefPtrIN7WebCore14SecurityOriginEEENS_12KeyValuePairIS4_NS1_IN6WebKit14StorageAreaMapEEEEENS_24KeyValuePairKeyExtractorIS9_EENS2_18SecurityOriginHashENS_22KeyValuePairHashTraitsINS_10HashTraitsIS4_EENSE_IS8_EEEESF_E4findINS_22IdentityHashTranslatorISC_EES4_EENS_17HashTableIteratorIS4_S9_SB_SC_SH_SF_EERKT0_
__ZN3WTF9HashTableINS_6RefPtrIN7WebCore14SecurityOriginEEENS_12KeyValuePairIS4_NS1_IN6WebKit14StorageAreaMapEEEEENS_24KeyValuePairKeyExtractorIS9_EENS2_18SecurityOriginHashENS_22KeyValuePairHashTraitsINS_10HashTraitsIS4_EENSE_IS8_EEEESF_E6expandEv
__ZN3WTF9HashTableINS_6RefPtrIN7WebCore14SecurityOriginEEENS_12KeyValuePairIS4_NS1_IN6WebKit14StorageAreaMapEEEEENS_24KeyValuePairKeyExtractorIS9_EENS2_18SecurityOriginHashENS_22KeyValuePairHashTraitsINS_10HashTraitsIS4_EENSE_IS8_EEEESF_E6lookupINS_22IdentityHashTranslatorISC_EES4_EEPS9_RKT0_
__ZN3WTF9HashTableINS_6RefPtrIN7WebCore14SecurityOriginEEENS_12KeyValuePairIS4_NS1_IN6WebKit14StorageAreaMapEEEEENS_24KeyValuePairKeyExtractorIS9_EENS2_18SecurityOriginHashENS_22KeyValuePairHashTraitsINS_10HashTraitsIS4_EENSE_IS8_EEEESF_E6rehashEi
__ZN7WebCore18SecurityOriginHash4hashEPNS_14SecurityOriginE
__ZN3WTF12StringHasher28addCharactersAssumingAlignedItXadL_ZNS0_16defaultConverterEtEEEEvPKT_j
__ZN3WTF6RefPtrIN6WebKit14StorageAreaMapEEaSERKNS_10PassRefPtrIS2_EE
__ZN6WebKit14StorageAreaMap6createEPNS_20StorageNamespaceImplEN3WTF10PassRefPtrIN7WebCore14SecurityOriginEEE
__ZN6WebKit14StorageAreaMapC2EPNS_20StorageNamespaceImplEN3WTF10PassRefPtrIN7WebCore14SecurityOriginEEE
__ZN6WebKit18SecurityOriginData18fromSecurityOriginEPN7WebCore14SecurityOriginE
__ZN7CoreIPC10Connection4sendIN8Messages14StorageManager21CreateLocalStorageMapEEEbRKT_yj
__ZNK7CoreIPC10Arguments3IyyRKN6WebKit18SecurityOriginDataEE6encodeERNS_15ArgumentEncoderE
__ZNK6WebKit18SecurityOriginData6encodeERN7CoreIPC15ArgumentEncoderE
__ZN6WebKit15StorageAreaImpl6createEN3WTF10PassRefPtrINS_14StorageAreaMapEEE
__ZN6WebKit15StorageAreaImpl16canAccessStorageEPN7WebCore5FrameE
__ZN6WebKit15StorageAreaImpl20incrementAccessCountEv
__ZN6WebKit15StorageAreaImpl8containsERKN3WTF6StringE
__ZN6WebKit14StorageAreaMap8containsERKN3WTF6StringE
__ZN6WebKit14StorageAreaMap18loadValuesIfNeededEv
__ZN7CoreIPC10Connection8sendSyncIN8Messages14StorageManager9GetValuesEEEbRKT_RKNS5_5ReplyEydj
__ZN6WebKit14StorageManager17didReceiveMessageEPN7CoreIPC10ConnectionERNS1_14MessageDecoderE
__ZN7CoreIPC13handleMessageIN8Messages14StorageManager21CreateLocalStorageMapEN6WebKit14StorageManagerEMS5_FvPNS_10ConnectionEyyRKNS4_18SecurityOriginDataEEEEvS7_RNS_14MessageDecoderEPT0_T1_
__ZN7CoreIPC10Arguments3IyyN6WebKit18SecurityOriginDataEE6decodeERNS_15ArgumentDecoderERS3_
__ZN7CoreIPC10Arguments2IyyE6decodeERNS_15ArgumentDecoderERS1_
__ZN6WebKit18SecurityOriginData6decodeERN7CoreIPC15ArgumentDecoderERS0_
__ZN6WebKit14StorageManager21createLocalStorageMapEPN7CoreIPC10ConnectionEyyRKNS_18SecurityOriginDataE
__ZN3WTF8PairHashINS_6RefPtrIN7CoreIPC10ConnectionEEEyE4hashERKNSt3__14pairIS4_yEE
__ZN3WTF17HashMapTranslatorINS_18HashMapValueTraitsINS_10HashTraitsINSt3__14pairINS_6RefPtrIN7CoreIPC10ConnectionEEEyEEEENS2_INS5_IN6WebKit14StorageManager11StorageAreaEEEEEEENS_8PairHashIS8_yEEE9translateINS_12KeyValuePairIS9_SE_EES9_NS_10PassRefPtrISD_EEEEvRT_RKT0_RKT1_
__ZN6WebKit14StorageManager32getOrCreateLocalStorageNamespaceEy
__ZN3WTF9HashTableIyNS_12KeyValuePairIyNS_6RefPtrIN6WebKit14StorageManager21LocalStorageNamespaceEEEEENS_24KeyValuePairKeyExtractorIS7_EENS_7IntHashIyEENS_18HashMapValueTraitsINS_10HashTraitsIyEENSD_IS6_EEEESE_E15deallocateTableEPS7_i
__ZN3WTF9HashTableIyNS_12KeyValuePairIyNS_6RefPtrIN6WebKit14StorageManager21LocalStorageNamespaceEEEEENS_24KeyValuePairKeyExtractorIS7_EENS_7IntHashIyEENS_18HashMapValueTraitsINS_10HashTraitsIyEENSD_IS6_EEEESE_E16lookupForWritingINS_22IdentityHashTranslatorISB_EEyEENSt3__14pairIPS7_bEERKT0_
__ZN3WTF9HashTableIyNS_12KeyValuePairIyNS_6RefPtrIN6WebKit14StorageManager21LocalStorageNamespaceEEEEENS_24KeyValuePairKeyExtractorIS7_EENS_7IntHashIyEENS_18HashMapValueTraitsINS_10HashTraitsIyEENSD_IS6_EEEESE_E3addINS_17HashMapTranslatorISG_SB_EEyNS_10PassRefPtrIS5_EEEENS_18HashTableAddResultINS_17HashTableIteratorIyS7_S9_SB_SG_SE_EEEERKT0_RKT1_
__ZN3WTF9HashTableIyNS_12KeyValuePairIyNS_6RefPtrIN6WebKit14StorageManager21LocalStorageNamespaceEEEEENS_24KeyValuePairKeyExtractorIS7_EENS_7IntHashIyEENS_18HashMapValueTraitsINS_10HashTraitsIyEENSD_IS6_EEEESE_E4findINS_22IdentityHashTranslatorISB_EEyEENS_17HashTableIteratorIyS7_S9_SB_SG_SE_EERKT0_
__ZN3WTF9HashTableIyNS_12KeyValuePairIyNS_6RefPtrIN6WebKit14StorageManager21LocalStorageNamespaceEEEEENS_24KeyValuePairKeyExtractorIS7_EENS_7IntHashIyEENS_18HashMapValueTraitsINS_10HashTraitsIyEENSD_IS6_EEEESE_E6expandEv
__ZN3WTF9HashTableIyNS_12KeyValuePairIyNS_6RefPtrIN6WebKit14StorageManager21LocalStorageNamespaceEEEEENS_24KeyValuePairKeyExtractorIS7_EENS_7IntHashIyEENS_18HashMapValueTraitsINS_10HashTraitsIyEENSD_IS6_EEEESE_E6lookupINS_22IdentityHashTranslatorISB_EEyEEPS7_RKT0_
__ZN3WTF9HashTableIyNS_12KeyValuePairIyNS_6RefPtrIN6WebKit14StorageManager21LocalStorageNamespaceEEEEENS_24KeyValuePairKeyExtractorIS7_EENS_7IntHashIyEENS_18HashMapValueTraitsINS_10HashTraitsIyEENSD_IS6_EEEESE_E6rehashEi
__ZN3WTF9HashTableIyNS_12KeyValuePairIyNS_6RefPtrIN6WebKit14StorageManager21LocalStorageNamespaceEEEEENS_24KeyValuePairKeyExtractorIS7_EENS_7IntHashIyEENS_18HashMapValueTraitsINS_10HashTraitsIyEENSD_IS6_EEEESE_E6removeEPS7_
__ZNK6WebKit18SecurityOriginData14securityOriginEv
__ZN6WebKit14StorageManager21LocalStorageNamespace22getOrCreateStorageAreaEN3WTF10PassRefPtrIN7WebCore14SecurityOriginEEE
__ZN3WTF6RefPtrIN7WebCore14SecurityOriginEEaSERKS3_
__ZN6WebKit14StorageManager11StorageArea6createEPNS0_21LocalStorageNamespaceEN3WTF10PassRefPtrIN7WebCore14SecurityOriginEEEj
__ZN6WebKit14StorageManager11StorageArea11addListenerEPN7CoreIPC10ConnectionEy
__ZN6WebKit14StorageManager21didReceiveSyncMessageEPN7CoreIPC10ConnectionERNS1_14MessageDecoderERN3WTF6OwnPtrINS1_14MessageEncoderEEE
__ZN7CoreIPC13handleMessageIN8Messages14StorageManager9GetValuesEN6WebKit14StorageManagerEMS5_FvPNS_10ConnectionEyyRN3WTF7HashMapINS8_6StringESA_NS8_10StringHashENS8_10HashTraitsISA_EESD_EEEEEvS7_RNS_14MessageDecoderERNS_14MessageEncoderEPT0_T1_
__ZN6WebKit14StorageManager9getValuesEPN7CoreIPC10ConnectionEyyRN3WTF7HashMapINS4_6StringES6_NS4_10StringHashENS4_10HashTraitsIS6_EES9_EE
__ZNK6WebKit14StorageManager15findStorageAreaEPN7CoreIPC10ConnectionEy
__ZN3WTF9HashTableINSt3__14pairINS_6RefPtrIN7CoreIPC10ConnectionEEEyEENS_12KeyValuePairIS7_NS3_IN6WebKit14StorageManager11StorageAreaEEEEENS_24KeyValuePairKeyExtractorISD_EENS_8PairHashIS6_yEENS_18HashMapValueTraitsINS_10HashTraitsIS7_EENSJ_ISC_EEEESK_E12makeIteratorEPSD_
__ZN3WTF9HashTableINSt3__14pairINS_6RefPtrIN7CoreIPC10ConnectionEEEyEENS_12KeyValuePairIS7_NS3_IN6WebKit14StorageManager11StorageAreaEEEEENS_24KeyValuePairKeyExtractorISD_EENS_8PairHashIS6_yEENS_18HashMapValueTraitsINS_10HashTraitsIS7_EENSJ_ISC_EEEESK_E15deallocateTableEPSD_i
__ZN3WTF9HashTableINSt3__14pairINS_6RefPtrIN7CoreIPC10ConnectionEEEyEENS_12KeyValuePairIS7_NS3_IN6WebKit14StorageManager11StorageAreaEEEEENS_24KeyValuePairKeyExtractorISD_EENS_8PairHashIS6_yEENS_18HashMapValueTraitsINS_10HashTraitsIS7_EENSJ_ISC_EEEESK_E16lookupForWritingINS_22IdentityHashTranslatorISH_EES7_EENS2_IPSD_bEERKT0_
__ZN3WTF9HashTableINSt3__14pairINS_6RefPtrIN7CoreIPC10ConnectionEEEyEENS_12KeyValuePairIS7_NS3_IN6WebKit14StorageManager11StorageAreaEEEEENS_24KeyValuePairKeyExtractorISD_EENS_8PairHashIS6_yEENS_18HashMapValueTraitsINS_10HashTraitsIS7_EENSJ_ISC_EEEESK_E3addINS_17HashMapTranslatorISM_SH_EES7_NS_10PassRefPtrISB_EEEENS_18HashTableAddResultINS_17HashTableIteratorIS7_SD_SF_SH_SM_SK_EEEERKT0_RKT1_
__ZN3WTF9HashTableINSt3__14pairINS_6RefPtrIN7CoreIPC10ConnectionEEEyEENS_12KeyValuePairIS7_NS3_IN6WebKit14StorageManager11StorageAreaEEEEENS_24KeyValuePairKeyExtractorISD_EENS_8PairHashIS6_yEENS_18HashMapValueTraitsINS_10HashTraitsIS7_EENSJ_ISC_EEEESK_E3addINS_22IdentityHashTranslatorISH_EES7_SD_EENS_18HashTableAddResultINS_17HashTableIteratorIS7_SD_SF_SH_SM_SK_EEEERKT0_RKT1_
__ZN3WTF9HashTableINSt3__14pairINS_6RefPtrIN7CoreIPC10ConnectionEEEyEENS_12KeyValuePairIS7_NS3_IN6WebKit14StorageManager11StorageAreaEEEEENS_24KeyValuePairKeyExtractorISD_EENS_8PairHashIS6_yEENS_18HashMapValueTraitsINS_10HashTraitsIS7_EENSJ_ISC_EEEESK_E4findINS_22IdentityHashTranslatorISH_EES7_EENS_17HashTableIteratorIS7_SD_SF_SH_SM_SK_EERKT0_
__ZN3WTF9HashTableINSt3__14pairINS_6RefPtrIN7CoreIPC10ConnectionEEEyEENS_12KeyValuePairIS7_NS3_IN6WebKit14StorageManager11StorageAreaEEEEENS_24KeyValuePairKeyExtractorISD_EENS_8PairHashIS6_yEENS_18HashMapValueTraitsINS_10HashTraitsIS7_EENSJ_ISC_EEEESK_E5beginEv
__ZN3WTF9HashTableINSt3__14pairINS_6RefPtrIN7CoreIPC10ConnectionEEEyEENS_12KeyValuePairIS7_NS3_IN6WebKit14StorageManager11StorageAreaEEEEENS_24KeyValuePairKeyExtractorISD_EENS_8PairHashIS6_yEENS_18HashMapValueTraitsINS_10HashTraitsIS7_EENSJ_ISC_EEEESK_E6expandEv
__ZN3WTF9HashTableINSt3__14pairINS_6RefPtrIN7CoreIPC10ConnectionEEEyEENS_12KeyValuePairIS7_NS3_IN6WebKit14StorageManager11StorageAreaEEEEENS_24KeyValuePairKeyExtractorISD_EENS_8PairHashIS6_yEENS_18HashMapValueTraitsINS_10HashTraitsIS7_EENSJ_ISC_EEEESK_E6lookupINS_22IdentityHashTranslatorISH_EES7_EEPSD_RKT0_
__ZN3WTF9HashTableINSt3__14pairINS_6RefPtrIN7CoreIPC10ConnectionEEEyEENS_12KeyValuePairIS7_NS3_IN6WebKit14StorageManager11StorageAreaEEEEENS_24KeyValuePairKeyExtractorISD_EENS_8PairHashIS6_yEENS_18HashMapValueTraitsINS_10HashTraitsIS7_EENSJ_ISC_EEEESK_E6rehashEi
__ZN3WTF9HashTableINSt3__14pairINS_6RefPtrIN7CoreIPC10ConnectionEEEyEENS_12KeyValuePairIS7_NS3_IN6WebKit14StorageManager11StorageAreaEEEEENS_24KeyValuePairKeyExtractorISD_EENS_8PairHashIS6_yEENS_18HashMapValueTraitsINS_10HashTraitsIS7_EENSJ_ISC_EEEESK_E6removeEPSD_
__ZN3WTF9HashTableINSt3__14pairINS_6RefPtrIN7CoreIPC10ConnectionEEEyEENS_12KeyValuePairIS7_NS3_IN6WebKit14StorageManager11StorageAreaEEEEENS_24KeyValuePairKeyExtractorISD_EENS_8PairHashIS6_yEENS_18HashMapValueTraitsINS_10HashTraitsIS7_EENSJ_ISC_EEEESK_EC2ERKSN_
__ZN6WebKit14StorageManager11StorageArea34openDatabaseAndImportItemsIfNeededEv
__ZN6WebKit20LocalStorageDatabase6createEN3WTF10PassRefPtrI9WorkQueueEENS2_INS_27LocalStorageDatabaseTrackerEEENS2_IN7WebCore14SecurityOriginEEE
__ZNK6WebKit27LocalStorageDatabaseTracker12databasePathEPN7WebCore14SecurityOriginE
__ZNK3WTF12StringAppendINS_6StringEPKcEcvS1_Ev
__ZN3WTF13tryMakeStringINS_6StringEPKcEENS_10PassRefPtrINS_10StringImplEEET_T0_
__ZN6WebKit20LocalStorageDatabase11importItemsERN7WebCore10StorageMapE
__ZN6WebKit20LocalStorageDatabase12openDatabaseENS0_23DatabaseOpeningStrategyE
__ZN6WebKit20LocalStorageDatabase17tryToOpenDatabaseENS0_23DatabaseOpeningStrategyE
__ZN6WebKit20LocalStorageDatabase24migrateItemTableIfNeededEv
__ZN6WebKit27LocalStorageDatabaseTracker25didOpenDatabaseWithOriginEPN7WebCore14SecurityOriginE
__ZN6WebKit27LocalStorageDatabaseTracker31addDatabaseWithOriginIdentifierERKN3WTF6StringES4_
__ZN7CoreIPC10Connection4sendIN8Messages14StorageAreaMap12DidGetValuesEEEbRKT_yj
__ZN6WebKit15StorageAreaImpl7setItemEPN7WebCore5FrameERKN3WTF6StringES7_Rb
__ZN6WebKit14StorageAreaMap7setItemEPN7WebCore5FrameEPNS_15StorageAreaImplERKN3WTF6StringES9_Rb
__ZN7CoreIPC10Connection4sendIN8Messages14StorageManager7SetItemEEEbRKT_yj
__ZNK7CoreIPC10Arguments6IyyyRKN3WTF6StringES4_S4_E6encodeERNS_15ArgumentEncoderE
__ZNK7CoreIPC10Arguments4IyyyRKN3WTF6StringEE6encodeERNS_15ArgumentEncoderE
__ZN6WebKit15StorageAreaImpl10removeItemEPN7WebCore5FrameERKN3WTF6StringE
__ZN6WebKit14StorageAreaMap10removeItemEPN7WebCore5FrameEPNS_15StorageAreaImplERKN3WTF6StringE
__ZN7CoreIPC13handleMessageIN8Messages14StorageManager7SetItemEN6WebKit14StorageManagerEMS5_FvPNS_10ConnectionEyyyRKN3WTF6StringESB_SB_EEEvS7_RNS_14MessageDecoderEPT0_T1_
__ZN7CoreIPC10Connection4sendIN8Messages14StorageManager10RemoveItemEEEbRKT_yj
__ZN7CoreIPC10Arguments6IyyyN3WTF6StringES2_S2_E6decodeERNS_15ArgumentDecoderERS3_
__ZN6WebKit15StorageAreaImpl4itemERKN3WTF6StringE
__ZN6WebKit14StorageAreaMap4itemERKN3WTF6StringE
__ZN7CoreIPC10Arguments5IyyyN3WTF6StringES2_E6decodeERNS_15ArgumentDecoderERS3_
__ZN7CoreIPC10Arguments4IyyyN3WTF6StringEE6decodeERNS_15ArgumentDecoderERS3_
__ZN7CoreIPC10Arguments3IyyyE6decodeERNS_15ArgumentDecoderERS1_
__ZN7CoreIPC18callMemberFunctionIN6WebKit14StorageManagerEMS2_FvPNS_10ConnectionEyyyRKN3WTF6StringES8_S8_EyyyS6_S6_S6_EEvS4_RKNS_10Arguments6IT1_T2_T3_T4_T5_T6_EEPT_T0_
__ZN6WebKit14StorageManager7setItemEPN7CoreIPC10ConnectionEyyyRKN3WTF6StringES7_S7_
__ZN6WebKit14StorageManager11StorageArea7setItemEPN7CoreIPC10ConnectionEyRKN3WTF6StringES8_S8_Rb
__ZN6WebKit20LocalStorageDatabase7setItemERKN3WTF6StringES4_
__ZN6WebKit20LocalStorageDatabase22scheduleDatabaseUpdateEv
__ZN9WorkQueue18dispatchAfterDelayERKN3WTF8FunctionIFvvEEEd
___copy_helper_block_1
__ZNK6WebKit14StorageManager11StorageArea14dispatchEventsEPN7CoreIPC10ConnectionEyRKN3WTF6StringES8_S8_S8_
__ZNK3WTF9HashTableINSt3__14pairINS_6RefPtrIN7CoreIPC10ConnectionEEEyEES7_NS_17IdentityExtractorENS_8PairHashIS6_yEENS_10HashTraitsIS7_EESC_E17makeConstIteratorEPS7_
__ZNK3WTF9HashTableINSt3__14pairINS_6RefPtrIN7CoreIPC10ConnectionEEEyEES7_NS_17IdentityExtractorENS_8PairHashIS6_yEENS_10HashTraitsIS7_EESC_E4findINS_22IdentityHashTranslatorISA_EES7_EENS_22HashTableConstIteratorIS7_S7_S8_SA_SC_SC_EERKT0_
__ZNK3WTF9HashTableINSt3__14pairINS_6RefPtrIN7CoreIPC10ConnectionEEEyEES7_NS_17IdentityExtractorENS_8PairHashIS6_yEENS_10HashTraitsIS7_EESC_E5beginEv
__ZN7CoreIPC10Connection4sendIN8Messages14StorageAreaMap20DispatchStorageEventEEEbRKT_yj
__ZN7CoreIPC10Connection4sendIN8Messages14StorageAreaMap10DidSetItemEEEbRKT_yj
__ZN7CoreIPC13handleMessageIN8Messages14StorageManager10RemoveItemEN6WebKit14StorageManagerEMS5_FvPNS_10ConnectionEyyyRKN3WTF6StringESB_EEEvS7_RNS_14MessageDecoderEPT0_T1_
__ZN7CoreIPC18callMemberFunctionIN6WebKit14StorageManagerEMS2_FvPNS_10ConnectionEyyyRKN3WTF6StringES8_EyyyS6_S6_EEvS4_RKNS_10Arguments5IT1_T2_T3_T4_T5_EEPT_T0_
__ZN6WebKit14StorageManager10removeItemEPN7CoreIPC10ConnectionEyyyRKN3WTF6StringES7_
__ZN6WebKit14StorageManager11StorageArea10removeItemEPN7CoreIPC10ConnectionEyRKN3WTF6StringES8_
__ZN6WebKit20LocalStorageDatabase10removeItemERKN3WTF6StringE
__ZN7CoreIPC10Connection4sendIN8Messages14StorageAreaMap13DidRemoveItemEEEbRKT_yj
__ZN7WebCore17FrameLoaderClient10allowImageEbRKNS_4KURLE
__ZThn128_N6WebKit21WebPlatformStrategies13isLinkVisitedEPN7WebCore4PageEyRKNS1_4KURLERKN3WTF12AtomicStringE
__ZNK6WebKit10WebProcess13isLinkVisitedEy
__ZN6WebKit15WebChromeClient25shouldNotifyOnFormChangesEv
__ZN6WebKit28InjectedBundlePageFormClient25shouldNotifyOnFormChangesEPNS_7WebPageE
__ZThn328_N6WebKit21NetworkResourceLoader22willCacheResponseAsyncEPN7WebCore14ResourceHandleEP19NSCachedURLResponse
__ZN6WebKit21NetworkResourceLoader22willCacheResponseAsyncEPN7WebCore14ResourceHandleEP19NSCachedURLResponse
__ZN6WebKit16DiskCacheMonitor31monitorFileBackingStoreCreationEPK20_CFCachedURLResponsePNS_21NetworkResourceLoaderE
__ZN6WebKit16DiskCacheMonitorC2EPK20_CFCachedURLResponsePNS_21NetworkResourceLoaderE
__ZN7WebCore19ResourceRequestBaseC2ERKS0_
__ZN3WTF9RetainPtrI12NSURLRequestEC2ERKS2_
___copy_helper_block_2
__ZN6WebKitL31tryGetShareableHandleFromCFDataERNS_17ShareableResource6HandleEPK8__CFData
__ZN6WebKit17ShareableResource6createEN3WTF10PassRefPtrINS_12SharedMemoryEEEjj
__ZN6WebKit17ShareableResource12createHandleERNS0_6HandleE
__ZN3WTF10RefCountedIN6WebKit17ShareableResourceEE5derefEv
__ZN6WebKit17ShareableResourceD1Ev
__ZN6WebKit12SharedMemoryD1Ev
__ZN6WebKit12SharedMemoryD2Ev
__ZN7CoreIPC13MessageSender4sendIN8Messages17WebResourceLoader18DidReceiveResourceEEEbRKT_y
__ZNK6WebKit17ShareableResource6Handle6encodeERN7CoreIPC15ArgumentEncoderE
__ZThn32_N6WebKit29TiledCoreAnimationDrawingArea11flushLayersEv
_WKCGPathAddRoundedRect
__ZN6WebKit14StorageAreaMap17didReceiveMessageEPN7CoreIPC10ConnectionERNS1_14MessageDecoderE
__ZN6WebKit14StorageAreaMap12didGetValuesEy
__ZN7CoreIPC13handleMessageIN8Messages14StorageAreaMap20DispatchStorageEventEN6WebKit14StorageAreaMapEMS5_FvyRKN3WTF6StringES9_S9_S9_EEEvRNS_14MessageDecoderEPT0_T1_
__ZN7CoreIPC10Arguments5IyN3WTF6StringES2_S2_S2_E6decodeERNS_15ArgumentDecoderERS3_
__ZN6WebKit14StorageAreaMap20dispatchStorageEventEyRKN3WTF6StringES4_S4_S4_
__ZN6WebKit14StorageAreaMap25dispatchLocalStorageEventEyRKN3WTF6StringES4_S4_S4_
__ZN6WebKit10WebProcess12webPageGroupEy
__ZNK3WTF9HashTableIPN7WebCore4PageES3_NS_17IdentityExtractorENS_7PtrHashIS3_EENS_10HashTraitsIS3_EES8_E5beginEv
__ZN3WTF6VectorINS_6RefPtrIN7WebCore5FrameEEELm0ENS_15CrashOnOverflowEED2Ev
__ZN7CoreIPC13handleMessageIN8Messages14StorageAreaMap10DidSetItemEN6WebKit14StorageAreaMapEMS5_FvyRKN3WTF6StringEbEEEvRNS_14MessageDecoderEPT0_T1_
__ZN6WebKit14StorageAreaMap10didSetItemEyRKN3WTF6StringEb
__ZN3WTF14HashCountedSetINS_6StringENS_10StringHashENS_10HashTraitsIS1_EEE6removeENS_24HashTableIteratorAdapterINS_9HashTableIS1_NS_12KeyValuePairIS1_jEENS_24KeyValuePairKeyExtractorIS9_EES2_NS_18HashMapValueTraitsIS4_NS3_IjEEEES4_EES9_EE
__ZN7CoreIPC13handleMessageIN8Messages14StorageAreaMap13DidRemoveItemEN6WebKit14StorageAreaMapEMS5_FvyRKN3WTF6StringEEEEvRNS_14MessageDecoderEPT0_T1_
__ZN6WebKit14StorageAreaMap13didRemoveItemEyRKN3WTF6StringE
__ZN6WebKit21WebPlatformStrategies20createPluginStrategyEv
__ZThn104_N6WebKit21WebPlatformStrategies13getPluginInfoEPKN7WebCore4PageERN3WTF6VectorINS1_10PluginInfoELm0ENS5_15CrashOnOverflowEEE
__ZN6WebKit21WebPlatformStrategies19populatePluginCacheEv
__ZN7CoreIPC10Connection8sendSyncIN8Messages15WebProcessProxy10GetPluginsEEEbRKT_RKNS5_5ReplyEydj
__ZN7CoreIPC13handleMessageIN8Messages15WebProcessProxy10GetPluginsEN6WebKit15WebProcessProxyEMS5_FvbRN3WTF6VectorIN7WebCore10PluginInfoELm0ENS6_15CrashOnOverflowEEEEEEvRNS_14MessageDecoderERNS_14MessageEncoderEPT0_T1_
__ZN6WebKit15WebProcessProxy10getPluginsEbRN3WTF6VectorIN7WebCore10PluginInfoELm0ENS1_15CrashOnOverflowEEE
__ZN6WebKit15PluginInfoStore7pluginsEv
__ZN6WebKit15PluginInfoStore22loadPluginsIfNecessaryEv
__ZN6WebKit15PluginInfoStore18pluginsDirectoriesEv
__ZN6WebKit15PluginInfoStore22pluginPathsInDirectoryERKN3WTF6StringE
__ZN6WebKitL18safeCreateCFStringERKN3WTF6StringE
__ZN6WebKitL13addFromVectorIN3WTF11ListHashSetINS1_6StringELm32ENS1_10StringHashEEENS1_6VectorIS3_Lm0ENS1_15CrashOnOverflowEEEEEvRT_RKT0_
__ZN3WTF11ListHashSetINS_6StringELm32ENS_10StringHashEE3addERKS1_
__ZN3WTF9HashTableIPNS_15ListHashSetNodeINS_6StringELm32EEES4_NS_17IdentityExtractorENS_28ListHashSetNodeHashFunctionsINS_10StringHashEEENS_10HashTraitsIS4_EESA_E16lookupForWritingINS_22IdentityHashTranslatorIS8_EES4_EENSt3__14pairIPS4_bEERKT0_
__ZN3WTF9HashTableIPNS_15ListHashSetNodeINS_6StringELm32EEES4_NS_17IdentityExtractorENS_28ListHashSetNodeHashFunctionsINS_10StringHashEEENS_10HashTraitsIS4_EESA_E3addINS_21ListHashSetTranslatorIS7_EES2_PNS_24ListHashSetNodeAllocatorIS2_Lm32EEEEENS_18HashTableAddResultINS_17HashTableIteratorIS4_S4_S5_S8_SA_SA_EEEERKT0_RKT1_
__ZN3WTF9HashTableIPNS_15ListHashSetNodeINS_6StringELm32EEES4_NS_17IdentityExtractorENS_28ListHashSetNodeHashFunctionsINS_10StringHashEEENS_10HashTraitsIS4_EESA_E4findINS_22IdentityHashTranslatorIS8_EES4_EENS_17HashTableIteratorIS4_S4_S5_S8_SA_SA_EERKT0_
__ZN3WTF9HashTableIPNS_15ListHashSetNodeINS_6StringELm32EEES4_NS_17IdentityExtractorENS_28ListHashSetNodeHashFunctionsINS_10StringHashEEENS_10HashTraitsIS4_EESA_E6expandEv
__ZN3WTF9HashTableIPNS_15ListHashSetNodeINS_6StringELm32EEES4_NS_17IdentityExtractorENS_28ListHashSetNodeHashFunctionsINS_10StringHashEEENS_10HashTraitsIS4_EESA_E6lookupINS_22IdentityHashTranslatorIS8_EES4_EEPS4_RKT0_
__ZN3WTF9HashTableIPNS_15ListHashSetNodeINS_6StringELm32EEES4_NS_17IdentityExtractorENS_28ListHashSetNodeHashFunctionsINS_10StringHashEEENS_10HashTraitsIS4_EESA_E6rehashEi
__ZN3WTF21ListHashSetTranslatorINS_10StringHashEE9translateINS_15ListHashSetNodeINS_6StringELm32EEES5_PNS_24ListHashSetNodeAllocatorIS5_Lm32EEEEEvRPT_RKT0_RKT1_
__ZN3WTF24ListHashSetNodeAllocatorINS_6StringELm32EE8allocateEv
__ZN6WebKit15PluginInfoStore21individualPluginPathsEv
__ZN3WTF6VectorIN6WebKit16PluginModuleInfoELm0ENS_15CrashOnOverflowEE14shrinkCapacityEm
__ZN6WebKit15PluginInfoStore10loadPluginERN3WTF6VectorINS_16PluginModuleInfoELm0ENS1_15CrashOnOverflowEEERKNS1_6StringE
__ZN6WebKit15PluginInfoStore13getPluginInfoERKN3WTF6StringERNS_16PluginModuleInfoE
__ZN6WebKit20NetscapePluginModule13getPluginInfoERKN3WTF6StringERNS_16PluginModuleInfoE
__ZN3WTF9HashTableIjjNS_17IdentityExtractorENS_7IntHashIjEENS_10HashTraitsIjEES5_E3addINS_22IdentityHashTranslatorIS3_EEjjEENS_18HashTableAddResultINS_17HashTableIteratorIjjS1_S3_S5_S5_EEEERKT0_RKT1_
__ZN3WTF9HashTableIjjNS_17IdentityExtractorENS_7IntHashIjEENS_10HashTraitsIjEES5_E6expandEv
__ZN3WTF9HashTableIjjNS_17IdentityExtractorENS_7IntHashIjEENS_10HashTraitsIjEES5_E6rehashEi
__ZN3WTF9HashTableIjjNS_17IdentityExtractorENS_7IntHashIjEENS_10HashTraitsIjEES5_E6lookupINS_22IdentityHashTranslatorIS3_EEjEEPjRKT0_
__ZN3WTF16VectorBufferBaseIPK10__CFStringE14allocateBufferEm
__ZN3WTF16VectorBufferBaseIPK14__CFDictionaryE14allocateBufferEm
__ZN3WTF6VectorIN7WebCore13MimeClassInfoELm0ENS_15CrashOnOverflowEE14appendSlowCaseIS2_EEvRKT_
__ZN3WTF6VectorIN7WebCore13MimeClassInfoELm0ENS_15CrashOnOverflowEE14expandCapacityEmPKS2_
__ZN3WTF6VectorIN7WebCore13MimeClassInfoELm0ENS_15CrashOnOverflowEE15reserveCapacityEm
__ZN3WTF16VectorBufferBaseIN7WebCore13MimeClassInfoEE14allocateBufferEm
__ZN3WTF11VectorMoverILb0EN7WebCore13MimeClassInfoEE4moveEPKS2_S5_PS2_
__ZN3WTF6VectorIPK14__CFDictionaryLm0ENS_15CrashOnOverflowEED1Ev
__ZN3WTF6VectorIPK10__CFStringLm0ENS_15CrashOnOverflowEED1Ev
__ZN6WebKit15PluginInfoStore15shouldUsePluginERN3WTF6VectorINS_16PluginModuleInfoELm0ENS1_15CrashOnOverflowEEERKS3_
__ZN3WTF6VectorIN6WebKit16PluginModuleInfoELm0ENS_15CrashOnOverflowEE14appendSlowCaseIS2_EEvRKT_
__ZN3WTF6VectorIN6WebKit16PluginModuleInfoELm0ENS_15CrashOnOverflowEE14expandCapacityEmPKS2_
__ZN3WTF6VectorIN6WebKit16PluginModuleInfoELm0ENS_15CrashOnOverflowEE15reserveCapacityEm
__ZN3WTF16VectorBufferBaseIN6WebKit16PluginModuleInfoEE14allocateBufferEm
__ZN3WTF11VectorMoverILb0EN6WebKit16PluginModuleInfoEE4moveEPKS2_S5_PS2_
__ZN6WebKit16PluginModuleInfoC2ERKS0_
__ZN3WTF6VectorIN7WebCore13MimeClassInfoELm0ENS_15CrashOnOverflowEEC2ERKS4_
__ZN6WebKit16PluginModuleInfoD2Ev
__ZN3WTF6VectorIN7WebCore13MimeClassInfoELm0ENS_15CrashOnOverflowEED2Ev
__ZN3WTF6VectorIN7WebCore13MimeClassInfoELm0ENS_15CrashOnOverflowEE6shrinkEm
__ZN6WebKitL30findPluginWithBundleIdentifierERKN3WTF6VectorINS_16PluginModuleInfoELm0ENS0_15CrashOnOverflowEEERKNS0_6StringE
__ZN6WebKitL27contentsOfPropertyListAtURLEPK7__CFURL
__ZN3WTF9RetainPtrIP6NSDataEC2ENS_10AdoptNSTagES2_
__ZN3WTF9RetainPtrI6NSDataEC2IPS1_EERKNS0_IT_EE
__ZThn24_N6WebKit10WebContext29pluginInfoStoreDidLoadPluginsEPNS_15PluginInfoStoreE
__ZN6WebKit10WebContext29pluginInfoStoreDidLoadPluginsEPNS_15PluginInfoStoreE
__ZN3WTF6VectorIN6WebKit16PluginModuleInfoELm0ENS_15CrashOnOverflowEEC2ERKS4_
__ZN3WTF6VectorINS_6RefPtrIN6WebKit9APIObjectEEELm0ENS_15CrashOnOverflowEE14appendSlowCaseINS_10PassRefPtrINS2_9WebStringEEEEEvRKT_
__ZN3WTF6VectorINS_6RefPtrIN6WebKit9APIObjectEEELm0ENS_15CrashOnOverflowEE14appendSlowCaseINS_10PassRefPtrINS2_19ImmutableDictionaryEEEEEvRKT_
__ZN6WebKit16WebContextClient32plugInInformationBecameAvailableEPNS_10WebContextEPNS_14ImmutableArrayE
__ZN3WTF6VectorIN6WebKit16PluginModuleInfoELm0ENS_15CrashOnOverflowEED2Ev
__ZN3WTF6VectorIN6WebKit16PluginModuleInfoELm0ENS_15CrashOnOverflowEE6shrinkEm
__ZN3WTF11ListHashSetINS_6StringELm32ENS_10StringHashEED2Ev
__ZN3WTF11ListHashSetINS_6StringELm32ENS_10StringHashEE14deleteAllNodesEv
__ZN3WTF15ListHashSetNodeINS_6StringELm32EE7destroyEPNS_24ListHashSetNodeAllocatorIS1_Lm32EEE
__ZN3WTF6VectorIN7WebCore10PluginInfoELm0ENS_15CrashOnOverflowEE14appendSlowCaseIS2_EEvRKT_
__ZN3WTF6VectorIN7WebCore10PluginInfoELm0ENS_15CrashOnOverflowEE14expandCapacityEmPKS2_
__ZN3WTF6VectorIN7WebCore10PluginInfoELm0ENS_15CrashOnOverflowEE15reserveCapacityEm
__ZN3WTF16VectorBufferBaseIN7WebCore10PluginInfoEE14allocateBufferEm
__ZN3WTF11VectorMoverILb0EN7WebCore10PluginInfoEE4moveEPKS2_S5_PS2_
__ZN6WebKit10WebContext14omitPDFSupportEv
__ZN6WebKit15SimplePDFPlugin10pluginInfoEv
__ZN3WTF6VectorINS_6StringELm0ENS_15CrashOnOverflowEE14appendSlowCaseIA4_cEEvRKT_
__ZN3WTF6VectorINS_6StringELm0ENS_15CrashOnOverflowEE14appendSlowCaseIA3_cEEvRKT_
__ZN7CoreIPC19VectorArgumentCoderILb0EN7WebCore10PluginInfoEE6encodeERNS_15ArgumentEncoderERKN3WTF6VectorIS2_Lm0ENS6_15CrashOnOverflowEEE
__ZN7CoreIPC13ArgumentCoderIN7WebCore10PluginInfoEE6encodeERNS_15ArgumentEncoderERKS2_
__ZN7CoreIPC19VectorArgumentCoderILb0EN7WebCore13MimeClassInfoEE6encodeERNS_15ArgumentEncoderERKN3WTF6VectorIS2_Lm0ENS6_15CrashOnOverflowEEE
__ZN3WTF6VectorIN7WebCore10PluginInfoELm0ENS_15CrashOnOverflowEED2Ev
__ZN3WTF6VectorIN7WebCore10PluginInfoELm0ENS_15CrashOnOverflowEE6shrinkEm
__ZN7CoreIPC19VectorArgumentCoderILb0EN7WebCore10PluginInfoEE6decodeERNS_15ArgumentDecoderERN3WTF6VectorIS2_Lm0ENS6_15CrashOnOverflowEEE
__ZN7CoreIPC13ArgumentCoderIN7WebCore10PluginInfoEE6decodeERNS_15ArgumentDecoderERS2_
__ZN7CoreIPC19VectorArgumentCoderILb0EN7WebCore13MimeClassInfoEE6decodeERNS_15ArgumentDecoderERN3WTF6VectorIS2_Lm0ENS6_15CrashOnOverflowEEE
__ZN7CoreIPC13ArgumentCoderIN7WebCore13MimeClassInfoEE6decodeERNS_15ArgumentDecoderERS2_
__ZN3WTF6VectorIN7WebCore13MimeClassInfoELm0ENS_15CrashOnOverflowEE14shrinkCapacityEm
__ZN3WTF6VectorIN7WebCore10PluginInfoELm0ENS_15CrashOnOverflowEE14shrinkCapacityEm
__ZN3WTF6VectorIN7WebCore10PluginInfoELm0ENS_15CrashOnOverflowEEaSERKS4_
__ZNK6WebKit20WebIconDatabaseProxy9isEnabledEv
__ZN6WebKit20WebFrameLoaderClient11createFrameERKN7WebCore4KURLERKN3WTF6StringEPNS1_21HTMLFrameOwnerElementES8_bii
__ZN6WebKit8WebFrame14createSubframeEPNS_7WebPageERKN3WTF6StringEPN7WebCore21HTMLFrameOwnerElementE
__ZN7CoreIPC13MessageSender4sendIN8Messages12WebPageProxy17DidCreateSubframeEEEbRKT_y
__ZN6WebKit12WebPageProxy17didCreateSubframeEy
__ZN6WebKit10WebContext46createNewWebProcessRespectingProcessCountLimitEv
__ZNK6WebKit25WebFrameNetworkingContext14storageSessionEv
__ZN6WebKit21WebPlatformStrategies21createCookiesStrategyEv
__ZThn72_N6WebKit21WebPlatformStrategies13cookiesForDOMERKN7WebCore21NetworkStorageSessionERKNS1_4KURLES7_
__ZN6WebKit21WebPlatformStrategies13cookiesForDOMERKN7WebCore21NetworkStorageSessionERKNS1_4KURLES7_
__ZN7CoreIPC10Connection8sendSyncIN8Messages29NetworkConnectionToWebProcess13CookiesForDOMEEEbRKT_RKNS5_5ReplyEydj
__ZNK7CoreIPC10Arguments3IbRKN7WebCore4KURLES4_E6encodeERNS_15ArgumentEncoderE
__ZN7CoreIPC13ArgumentCoderIN7WebCore4KURLEE6encodeERNS_15ArgumentEncoderERKS2_
__ZN6WebKit29NetworkConnectionToWebProcess21didReceiveSyncMessageEPN7CoreIPC10ConnectionERNS1_14MessageDecoderERN3WTF6OwnPtrINS1_14MessageEncoderEEE
__ZN6WebKit29NetworkConnectionToWebProcess50didReceiveSyncNetworkConnectionToWebProcessMessageEPN7CoreIPC10ConnectionERNS1_14MessageDecoderERN3WTF6OwnPtrINS1_14MessageEncoderEEE
__ZN7CoreIPC13handleMessageIN8Messages29NetworkConnectionToWebProcess13CookiesForDOMEN6WebKit29NetworkConnectionToWebProcessEMS5_FvbRKN7WebCore4KURLES9_RN3WTF6StringEEEEvRNS_14MessageDecoderERNS_14MessageEncoderEPT0_T1_
__ZN7CoreIPC10Arguments3IbN7WebCore4KURLES2_E6decodeERNS_15ArgumentDecoderERS3_
__ZN7CoreIPC10Arguments2IbN7WebCore4KURLEE6decodeERNS_15ArgumentDecoderERS3_
__ZN7CoreIPC13ArgumentCoderIN7WebCore4KURLEE6decodeERNS_15ArgumentDecoderERS2_
__ZN6WebKit29NetworkConnectionToWebProcess13cookiesForDOMEbRKN7WebCore4KURLES4_RN3WTF6StringE
__ZN6WebKitL14storageSessionEb
__ZThn72_N6WebKit21WebPlatformStrategies17setCookiesFromDOMERKN7WebCore21NetworkStorageSessionERKNS1_4KURLES7_RKN3WTF6StringE
__ZN6WebKit21WebPlatformStrategies17setCookiesFromDOMERKN7WebCore21NetworkStorageSessionERKNS1_4KURLES7_RKN3WTF6StringE
__ZN7CoreIPC10Connection4sendIN8Messages29NetworkConnectionToWebProcess17SetCookiesFromDOMEEEbRKT_yj
__ZN7CoreIPC13handleMessageIN8Messages29NetworkConnectionToWebProcess17SetCookiesFromDOMEN6WebKit29NetworkConnectionToWebProcessEMS5_FvbRKN7WebCore4KURLES9_RKN3WTF6StringEEEEvRNS_14MessageDecoderEPT0_T1_
__ZN7CoreIPC10Arguments4IbN7WebCore4KURLES2_N3WTF6StringEE6decodeERNS_15ArgumentDecoderERS5_
__ZN6WebKit29NetworkConnectionToWebProcess17setCookiesFromDOMEbRKN7WebCore4KURLES4_RKN3WTF6StringE
_WKSetHTTPCookiesForURL
_WKDataCreate
__ZN6WebKit7WebData6createEPKhm
_WKPageRestoreFromSessionState
__ZN6WebKit12WebPageProxy27restoreFromSessionStateDataEPNS_7WebDataE
__ZN6WebKitL17SessionHistoryKeyEv
__ZN6WebKitL17ProvisionalURLKeyEv
__ZN6WebKit18WebBackForwardList37restoreFromCFDictionaryRepresentationEPK14__CFDictionary
__ZN6WebKitL24SessionHistoryVersionKeyEv
__ZN6WebKit18WebBackForwardList39restoreFromV1CFDictionaryRepresentationEPK14__CFDictionary
__ZN6WebKitL29SessionHistoryCurrentIndexKeyEv
__ZN6WebKitL24SessionHistoryEntriesKeyEv
__ZN6WebKitL38extractBackForwardListEntriesFromArrayEPK9__CFArrayRN3WTF6VectorINS3_6RefPtrINS_22WebBackForwardListItemEEELm0ENS3_15CrashOnOverflowEEE
__ZN6WebKitL25SessionHistoryEntryURLKeyEv
__ZN6WebKitL27SessionHistoryEntryTitleKeyEv
__ZN6WebKitL33SessionHistoryEntryOriginalURLKeyEv
__ZN6WebKitL26SessionHistoryEntryDataKeyEv
__ZN3WTF6VectorINS_6RefPtrIN6WebKit22WebBackForwardListItemEEELm0ENS_15CrashOnOverflowEEaSERKS6_
__ZN3WTF16VectorDestructorILb1ENS_6RefPtrIN6WebKit22WebBackForwardListItemEEEE8destructEPS4_S6_
__ZN6WebKit15WebProcessProxy33registerNewWebBackForwardListItemEPNS_22WebBackForwardListItemE
__ZN3WTF7HashMapIyNS_6RefPtrIN6WebKit22WebBackForwardListItemEEENS_7IntHashIyEENS_10HashTraitsIyEENS7_IS4_EEE3setERKyNS_10PassRefPtrIS3_EE
__ZN6WebKit17ChildProcessProxy4sendIN8Messages7WebPage38RestoreSessionAndNavigateToCurrentItemEEEbRKT_yj
__ZNK6WebKit22WebBackForwardListItem6encodeERN7CoreIPC15ArgumentEncoderE
_WKBackForwardListGetBackListCount
__ZNK6WebKit18WebBackForwardList13backListCountEv
_WKBackForwardListGetForwardListCount
__ZNK6WebKit18WebBackForwardList16forwardListCountEv
_WKBackForwardListGetItemAtIndex
_WKBackForwardListItemCopyURL
_WKBackForwardListItemCopyOriginalURL
__ZN6WebKit7WebDataD0Ev
__ZN6WebKit7WebData13fastFreeBytesEPhPKv
-[WKView _windowDidMove:]
__ZN7CoreIPC13MessageSender4sendIN8Messages12WebPageProxy31DidChangeScrollbarsForMainFrameEEEbRKT_y
__ZN7CoreIPC13handleMessageIN8Messages12WebPageProxy31DidChangeScrollbarsForMainFrameEN6WebKit12WebPageProxyEMS5_FvbbEEEvRNS_14MessageDecoderEPT0_T1_
__ZN7CoreIPC10Arguments2IbbE6decodeERNS_15ArgumentDecoderERS1_
__ZN6WebKit12WebPageProxy31didChangeScrollbarsForMainFrameEbb
__ZN6WebKit30InjectedBundlePageLoaderClient38didFirstVisuallyNonEmptyLayoutForFrameEPNS_7WebPageEPNS_8WebFrameERN3WTF6RefPtrINS_9APIObjectEEE
__ZN7CoreIPC13MessageSender4sendIN8Messages12WebPageProxy38DidFirstVisuallyNonEmptyLayoutForFrameEEEbRKT_y
__ZN6WebKit12WebPageProxy38didFirstVisuallyNonEmptyLayoutForFrameEyRN7CoreIPC14MessageDecoderE
__ZN6WebKit15WebLoaderClient38didFirstVisuallyNonEmptyLayoutForFrameEPNS_12WebPageProxyEPNS_13WebFrameProxyEPNS_9APIObjectE
-[WKView _windowDidResignKey:]
__ZNK6WebKit23RemoteNetworkingContext31localFileContentSniffingEnabledEv
__ZThn120_N6WebKit21WebPlatformStrategies23sessionStorageNamespaceEPN7WebCore4PageE
__ZN6WebKit20StorageNamespaceImpl29createSessionStorageNamespaceEPNS_7WebPageE
__ZN7CoreIPC10Connection4sendIN8Messages14StorageManager23CreateSessionStorageMapEEEbRKT_yj
__ZN7CoreIPC13handleMessageIN8Messages14StorageManager23CreateSessionStorageMapEN6WebKit14StorageManagerEMS5_FvPNS_10ConnectionEyyRKNS4_18SecurityOriginDataEEEEvS7_RNS_14MessageDecoderEPT0_T1_
__ZN6WebKit14StorageManager23createSessionStorageMapEPN7CoreIPC10ConnectionEyyRKNS_18SecurityOriginDataE
__ZN6WebKit14StorageManager23SessionStorageNamespace22getOrCreateStorageAreaEN3WTF10PassRefPtrIN7WebCore14SecurityOriginEEE
__ZN3WTF17HashMapTranslatorINS_22KeyValuePairHashTraitsINS_10HashTraitsINS_6RefPtrIN7WebCore14SecurityOriginEEEEENS2_INS3_IN6WebKit14StorageAreaMapEEEEEEENS4_18SecurityOriginHashEE5equalIS6_PS5_EEbRKT_RKT0_
__ZN3WTF17HashMapTranslatorINS_22KeyValuePairHashTraitsINS_10HashTraitsINS_6RefPtrIN7WebCore14SecurityOriginEEEEENS2_INS3_IN6WebKit14StorageAreaMapEEEEEEENS4_18SecurityOriginHashEE9translateINS_12KeyValuePairIS6_SA_EEPS5_NS_10PassRefPtrIS9_EEEEvRT_RKT0_RKT1_
__ZN3WTF17HashMapTranslatorINS_22KeyValuePairHashTraitsINS_10HashTraitsINS_6RefPtrIN7WebCore14SecurityOriginEEEEENS2_INS3_IN6WebKit14StorageManager11StorageAreaEEEEEEENS4_18SecurityOriginHashEE9translateINS_12KeyValuePairIS6_SB_EES6_NS_10PassRefPtrISA_EEEEvRT_RKT0_RKT1_
_WKExecutableWasLinkedOnOrBeforeSnowLeopard
__ZN3WTF9HashTableIyNS_12KeyValuePairIyPN6WebKit12WebPageProxyEEENS_24KeyValuePairKeyExtractorIS5_EENS_7IntHashIyEENS_18HashMapValueTraitsINS_10HashTraitsIyEENSB_IS4_EEEESC_E16lookupForWritingINS_22IdentityHashTranslatorIS9_EEyEENSt3__14pairIPS5_bEERKT0_
__ZN3WTF9HashTableIyNS_12KeyValuePairIyPN6WebKit12WebPageProxyEEENS_24KeyValuePairKeyExtractorIS5_EENS_7IntHashIyEENS_18HashMapValueTraitsINS_10HashTraitsIyEENSB_IS4_EEEESC_E3addINS_17HashMapTranslatorISE_S9_EEyS4_EENS_18HashTableAddResultINS_17HashTableIteratorIyS5_S7_S9_SE_SC_EEEERKT0_RKT1_
__ZN3WTF9HashTableIyNS_12KeyValuePairIyPN6WebKit12WebPageProxyEEENS_24KeyValuePairKeyExtractorIS5_EENS_7IntHashIyEENS_18HashMapValueTraitsINS_10HashTraitsIyEENSB_IS4_EEEESC_E4findINS_22IdentityHashTranslatorIS9_EEyEENS_17HashTableIteratorIyS5_S7_S9_SE_SC_EERKT0_
__ZN3WTF9HashTableIyNS_12KeyValuePairIyPN6WebKit12WebPageProxyEEENS_24KeyValuePairKeyExtractorIS5_EENS_7IntHashIyEENS_18HashMapValueTraitsINS_10HashTraitsIyEENSB_IS4_EEEESC_E6expandEv
__ZN3WTF9HashTableIyNS_12KeyValuePairIyPN6WebKit12WebPageProxyEEENS_24KeyValuePairKeyExtractorIS5_EENS_7IntHashIyEENS_18HashMapValueTraitsINS_10HashTraitsIyEENSB_IS4_EEEESC_E6lookupINS_22IdentityHashTranslatorIS9_EEyEEPS5_RKT0_
__ZN3WTF9HashTableIyNS_12KeyValuePairIyPN6WebKit12WebPageProxyEEENS_24KeyValuePairKeyExtractorIS5_EENS_7IntHashIyEENS_18HashMapValueTraitsINS_10HashTraitsIyEENSB_IS4_EEEESC_E6rehashEi
__ZN3WTF9HashTableIyNS_12KeyValuePairIyPN6WebKit12WebPageProxyEEENS_24KeyValuePairKeyExtractorIS5_EENS_7IntHashIyEENS_18HashMapValueTraitsINS_10HashTraitsIyEENSB_IS4_EEEESC_E6removeEPS5_
__ZN6WebKit20WebFrameLoaderClient29dispatchDidFinishDocumentLoadEv
__ZN6WebKit30InjectedBundlePageLoaderClient29didFinishDocumentLoadForFrameEPNS_7WebPageEPNS_8WebFrameERN3WTF6RefPtrINS_9APIObjectEEE
__ZN7CoreIPC13MessageSender4sendIN8Messages12WebPageProxy29DidFinishDocumentLoadForFrameEEEbRKT_y
__ZN6WebKit12WebPageProxy29didFinishDocumentLoadForFrameEyRN7CoreIPC14MessageDecoderE
__ZN6WebKit15WebLoaderClient29didFinishDocumentLoadForFrameEPNS_12WebPageProxyEPNS_13WebFrameProxyEPNS_9APIObjectE
__ZN7CoreIPC13handleMessageIN8Messages17WebResourceLoader18DidReceiveResourceEN6WebKit17WebResourceLoaderEMS5_FvRKNS4_17ShareableResource6HandleEdEEEvRNS_14MessageDecoderEPT0_T1_
__ZN7CoreIPC10Arguments2IN6WebKit17ShareableResource6HandleEdE6decodeERNS_15ArgumentDecoderERS4_
__ZN6WebKit17ShareableResource6Handle6decodeERN7CoreIPC15ArgumentDecoderERS1_
__ZN6WebKit17WebResourceLoader18didReceiveResourceERKNS_17ShareableResource6HandleEd
__ZNK6WebKit17ShareableResource6Handle21tryWrapInSharedBufferEv
__ZN6WebKit17ShareableResource6createERKNS0_6HandleE
__ZN3WTF10RefCountedIN7WebCore12SharedBufferEE5derefEv
__ZN7WebCore7RunLoop5TimerIN6WebKit7WebPageEE5firedEv
__ZN6WebKit7WebPage26setCanStartMediaTimerFiredEv
__ZN3WTF9HashTableIPN6WebKit12WebPageProxyES3_NS_17IdentityExtractorENS_7PtrHashIS3_EENS_10HashTraitsIS3_EES8_E16lookupForWritingINS_22IdentityHashTranslatorIS6_EES3_EENSt3__14pairIPS3_bEERKT0_
__ZN3WTF9HashTableIPN6WebKit12WebPageProxyES3_NS_17IdentityExtractorENS_7PtrHashIS3_EENS_10HashTraitsIS3_EES8_E4findINS_22IdentityHashTranslatorIS6_EES3_EENS_17HashTableIteratorIS3_S3_S4_S6_S8_S8_EERKT0_
__ZN3WTF9HashTableIPN6WebKit12WebPageProxyES3_NS_17IdentityExtractorENS_7PtrHashIS3_EENS_10HashTraitsIS3_EES8_E6lookupINS_22IdentityHashTranslatorIS6_EES3_EEPS3_RKT0_
__ZN3WTF9HashTableIyNS_12KeyValuePairIyNS_6RefPtrIN6WebKit14StorageManager23SessionStorageNamespaceEEEEENS_24KeyValuePairKeyExtractorIS7_EENS_7IntHashIyEENS_18HashMapValueTraitsINS_10HashTraitsIyEENSD_IS6_EEEESE_E15deallocateTableEPS7_i
__ZN3WTF9HashTableIyNS_12KeyValuePairIyNS_6RefPtrIN6WebKit14StorageManager23SessionStorageNamespaceEEEEENS_24KeyValuePairKeyExtractorIS7_EENS_7IntHashIyEENS_18HashMapValueTraitsINS_10HashTraitsIyEENSD_IS6_EEEESE_E16lookupForWritingINS_22IdentityHashTranslatorISB_EEyEENSt3__14pairIPS7_bEERKT0_
__ZN3WTF9HashTableIyNS_12KeyValuePairIyNS_6RefPtrIN6WebKit14StorageManager23SessionStorageNamespaceEEEEENS_24KeyValuePairKeyExtractorIS7_EENS_7IntHashIyEENS_18HashMapValueTraitsINS_10HashTraitsIyEENSD_IS6_EEEESE_E3addINS_17HashMapTranslatorISG_SB_EEyNS_10PassRefPtrIS5_EEEENS_18HashTableAddResultINS_17HashTableIteratorIyS7_S9_SB_SG_SE_EEEERKT0_RKT1_
__ZN3WTF9HashTableIyNS_12KeyValuePairIyNS_6RefPtrIN6WebKit14StorageManager23SessionStorageNamespaceEEEEENS_24KeyValuePairKeyExtractorIS7_EENS_7IntHashIyEENS_18HashMapValueTraitsINS_10HashTraitsIyEENSD_IS6_EEEESE_E4findINS_22IdentityHashTranslatorISB_EEyEENS_17HashTableIteratorIyS7_S9_SB_SG_SE_EERKT0_
__ZN3WTF9HashTableIyNS_12KeyValuePairIyNS_6RefPtrIN6WebKit14StorageManager23SessionStorageNamespaceEEEEENS_24KeyValuePairKeyExtractorIS7_EENS_7IntHashIyEENS_18HashMapValueTraitsINS_10HashTraitsIyEENSD_IS6_EEEESE_E6expandEv
__ZN3WTF9HashTableIyNS_12KeyValuePairIyNS_6RefPtrIN6WebKit14StorageManager23SessionStorageNamespaceEEEEENS_24KeyValuePairKeyExtractorIS7_EENS_7IntHashIyEENS_18HashMapValueTraitsINS_10HashTraitsIyEENSD_IS6_EEEESE_E6lookupINS_22IdentityHashTranslatorISB_EEyEEPS7_RKT0_
__ZN3WTF9HashTableIyNS_12KeyValuePairIyNS_6RefPtrIN6WebKit14StorageManager23SessionStorageNamespaceEEEEENS_24KeyValuePairKeyExtractorIS7_EENS_7IntHashIyEENS_18HashMapValueTraitsINS_10HashTraitsIyEENSD_IS6_EEEESE_E6rehashEi
__ZN3WTF9HashTableIyNS_12KeyValuePairIyNS_6RefPtrIN6WebKit14StorageManager23SessionStorageNamespaceEEEEENS_24KeyValuePairKeyExtractorIS7_EENS_7IntHashIyEENS_18HashMapValueTraitsINS_10HashTraitsIyEENSD_IS6_EEEESE_E6removeEPS7_
__ZN6WebKit14StorageAreaMap27dispatchSessionStorageEventEyRKN3WTF6StringES4_S4_S4_
__ZNK6WebKit10WebProcess7webPageEy
__ZN6WebKit7WebPage32didUpdateInWindowStateTimerFiredEv
__ZN7CoreIPC13MessageSender4sendIN8Messages12WebPageProxy22DidUpdateInWindowStateEEEbRKT_y
__ZThn328_N6WebKit21NetworkResourceLoader20willSendRequestAsyncEPN7WebCore14ResourceHandleERKNS1_15ResourceRequestERKNS1_16ResourceResponseE
__ZN6WebKit21NetworkResourceLoader20willSendRequestAsyncEPN7WebCore14ResourceHandleERKNS1_15ResourceRequestERKNS1_16ResourceResponseE
__ZN6WebKit21NetworkResourceLoader21sendAbortingOnFailureIN8Messages17WebResourceLoader15WillSendRequestEEEbRKT_j
__ZN7CoreIPC10Connection4sendIN8Messages17WebResourceLoader15WillSendRequestEEEbRKT_yj
-[WKView(Private) disableFrameSizeUpdates]
_WKBundlePageGetMainFrame
_WKBundleFrameContainsAnyFormElements
__ZNK6WebKit8WebFrame23containsAnyFormElementsEv
-[WKView(Private) enableFrameSizeUpdates]
_WKPageSetMaintainsInactiveSelection
__ZN6WebKit12WebPageProxy29setMaintainsInactiveSelectionEb
-[WKView(Private) beginDeferringViewInWindowChanges]
-[WKView inputContext]
___destroy_helper_block_407
_WKBundleNodeHandleCreate
__ZN6WebKit24InjectedBundleNodeHandle11getOrCreateEPK15OpaqueJSContextP13OpaqueJSValue
__ZN6WebKit24InjectedBundleNodeHandle11getOrCreateEPN7WebCore4NodeE
__ZN6WebKitL14domHandleCacheEv
__ZN6WebKit24InjectedBundleNodeHandle6createEPN7WebCore4NodeE
_WKBundleNodeHandleGetElementBounds
__ZNK6WebKit24InjectedBundleNodeHandle13elementBoundsEv
_WKBundleNodeHandleGetHTMLInputElementAutofilled
__ZNK6WebKit24InjectedBundleNodeHandle28isHTMLInputElementAutofilledEv
__ZNK6WebKit14TypedAPIObjectILNS_9APIObject4TypeE74EE4typeEv
__ZN7CoreIPC10Connection4sendIN8Messages10WebContext18AddVisitedLinkHashEEEbRKT_yj
__ZN6WebKit9WebNumberIdLNS_9APIObject4TypeE26EE6createEd
_WKDoubleGetValue
-[WKView(Private) endDeferringViewInWindowChangesSync]
-[WKView(Private) endDeferringViewInWindowChanges]
__ZN6WebKit12WebPageProxy29waitForDidUpdateInWindowStateEv
_WKPageSetMayStartMediaWhenInWindow
__ZN6WebKit12WebPageProxy28setMayStartMediaWhenInWindowEb
__ZN6WebKit24InjectedBundleNodeHandleD0Ev
__ZN6WebKit24InjectedBundleNodeHandleD2Ev
__ZN3WTF7HashMapIPN7WebCore4NodeEPN6WebKit24InjectedBundleNodeHandleENS_7PtrHashIS3_EENS_10HashTraitsIS3_EENS9_IS6_EEE6removeERKS3_
__ZN3WTF9HashTableIPN7WebCore4NodeENS_12KeyValuePairIS3_PN6WebKit24InjectedBundleNodeHandleEEENS_24KeyValuePairKeyExtractorIS8_EENS_7PtrHashIS3_EENS_18HashMapValueTraitsINS_10HashTraitsIS3_EENSE_IS7_EEEESF_E16lookupForWritingINS_22IdentityHashTranslatorISC_EES3_EENSt3__14pairIPS8_bEERKT0_
__ZN3WTF9HashTableIPN7WebCore4NodeENS_12KeyValuePairIS3_PN6WebKit24InjectedBundleNodeHandleEEENS_24KeyValuePairKeyExtractorIS8_EENS_7PtrHashIS3_EENS_18HashMapValueTraitsINS_10HashTraitsIS3_EENSE_IS7_EEEESF_E3addINS_17HashMapTranslatorISH_SC_EES3_S7_EENS_18HashTableAddResultINS_17HashTableIteratorIS3_S8_SA_SC_SH_SF_EEEERKT0_RKT1_
__ZN3WTF9HashTableIPN7WebCore4NodeENS_12KeyValuePairIS3_PN6WebKit24InjectedBundleNodeHandleEEENS_24KeyValuePairKeyExtractorIS8_EENS_7PtrHashIS3_EENS_18HashMapValueTraitsINS_10HashTraitsIS3_EENSE_IS7_EEEESF_E4findINS_22IdentityHashTranslatorISC_EES3_EENS_17HashTableIteratorIS3_S8_SA_SC_SH_SF_EERKT0_
__ZN3WTF9HashTableIPN7WebCore4NodeENS_12KeyValuePairIS3_PN6WebKit24InjectedBundleNodeHandleEEENS_24KeyValuePairKeyExtractorIS8_EENS_7PtrHashIS3_EENS_18HashMapValueTraitsINS_10HashTraitsIS3_EENSE_IS7_EEEESF_E6expandEv
__ZN3WTF9HashTableIPN7WebCore4NodeENS_12KeyValuePairIS3_PN6WebKit24InjectedBundleNodeHandleEEENS_24KeyValuePairKeyExtractorIS8_EENS_7PtrHashIS3_EENS_18HashMapValueTraitsINS_10HashTraitsIS3_EENSE_IS7_EEEESF_E6lookupINS_22IdentityHashTranslatorISC_EES3_EEPS8_RKT0_
__ZN3WTF9HashTableIPN7WebCore4NodeENS_12KeyValuePairIS3_PN6WebKit24InjectedBundleNodeHandleEEENS_24KeyValuePairKeyExtractorIS8_EENS_7PtrHashIS3_EENS_18HashMapValueTraitsINS_10HashTraitsIS3_EENSE_IS7_EEEESF_E6rehashEi
__ZN3WTF9HashTableIPN7WebCore4NodeENS_12KeyValuePairIS3_PN6WebKit24InjectedBundleNodeHandleEEENS_24KeyValuePairKeyExtractorIS8_EENS_7PtrHashIS3_EENS_18HashMapValueTraitsINS_10HashTraitsIS3_EENSE_IS7_EEEESF_E6removeEPS8_
__ZN7WebCore10TreeSharedINS_4NodeEE5derefEv
__ZN7CoreIPC13handleMessageIN8Messages17WebResourceLoader15WillSendRequestEN6WebKit17WebResourceLoaderEMS5_FvRKN7WebCore15ResourceRequestERKNS6_16ResourceResponseEEEEvRNS_14MessageDecoderEPT0_T1_
__ZN7CoreIPC10Arguments2IN7WebCore15ResourceRequestENS1_16ResourceResponseEE6decodeERNS_15ArgumentDecoderERS4_
__ZN6WebKit17WebResourceLoader15willSendRequestERKN7WebCore15ResourceRequestERKNS1_16ResourceResponseE
__ZNK6WebKit14TypedAPIObjectILNS_9APIObject4TypeE43EE4typeEv
__ZN6WebKit24WebResourceLoadScheduler27crossOriginRedirectReceivedEPN7WebCore14ResourceLoaderERKNS1_4KURLE
__ZN7CoreIPC13MessageSender4sendIN8Messages21NetworkResourceLoader23ContinueWillSendRequestEEEbRKT_y
__ZN6WebKit10WebContext27didReceiveWebContextMessageEPN7CoreIPC10ConnectionERNS1_14MessageDecoderE
__ZN6WebKit10WebContext18addVisitedLinkHashEy
__ZN7CoreIPC13handleMessageIN8Messages21NetworkResourceLoader23ContinueWillSendRequestEN6WebKit21NetworkResourceLoaderEMS5_FvRKN7WebCore15ResourceRequestEEEEvRNS_14MessageDecoderEPT0_T1_
__ZN6WebKit21NetworkResourceLoader23continueWillSendRequestERKN7WebCore15ResourceRequestE
__ZN3WTF4bindIMN6WebKit28NetworkResourceLoadSchedulerEFvPNS1_17SchedulableLoaderERKN7WebCore4KURLEEPS2_PNS1_21NetworkResourceLoaderES6_EENS_8FunctionIFNS_15FunctionWrapperIT_E10ResultTypeEvEEESG_RKT0_RKT1_RKT2_
__ZN6WebKit28NetworkResourceLoadScheduler16receivedRedirectEPNS_17SchedulableLoaderERKN7WebCore4KURLE
__ZN6WebKit10HostRecord19addLoaderInProgressEPNS_17SchedulableLoaderE
__ZN6WebKit20WebFrameLoaderClient29dispatchDidHandleOnloadEventsEv
__ZN6WebKit30InjectedBundlePageLoaderClient29didHandleOnloadEventsForFrameEPNS_7WebPageEPNS_8WebFrameE
__ZN6WebKit20WebFrameLoaderClient21dispatchDidFinishLoadEv
__ZN6WebKit30InjectedBundlePageLoaderClient21didFinishLoadForFrameEPNS_7WebPageEPNS_8WebFrameERN3WTF6RefPtrINS_9APIObjectEEE
__ZN7CoreIPC13MessageSender4sendIN8Messages12WebPageProxy21DidFinishLoadForFrameEEEbRKT_y
__ZN6WebKit7WebPage13didFinishLoadEPNS_8WebFrameE
__ZNK6WebKit10WebProcess8webFrameEy
_WKBundleFrameGetTypeID
_WKBundleScriptWorldClearWrappers
__ZN6WebKit25InjectedBundleScriptWorld13clearWrappersEv
__ZN6WebKit25InjectedBundleScriptWorldD0Ev
__ZN6WebKit25InjectedBundleScriptWorldD2Ev
__ZN3WTF7HashMapIPN7WebCore15DOMWrapperWorldEPN6WebKit25InjectedBundleScriptWorldENS_7PtrHashIS3_EENS_10HashTraitsIS3_EENS9_IS6_EEE6removeERKS3_
__ZN3WTF10RefCountedIN7WebCore15DOMWrapperWorldEE5derefEv
__ZN6WebKit20WebIconDatabaseProxy24supportsAsynchronousModeEv
__ZN6WebKit20WebIconDatabaseProxy22loadDecisionForIconURLERKN3WTF6StringENS1_10PassRefPtrIN7WebCore12EnumCallbackINS6_16IconLoadDecisionEEEEE
__ZN3WTF17HashMapTranslatorINS_18HashMapValueTraitsINS_10HashTraitsIyEENS2_INS_6RefPtrIN7WebCore12EnumCallbackINS5_16IconLoadDecisionEEEEEEEEENS_7IntHashIyEEE9translateINS_12KeyValuePairIyS9_EEyNS_10PassRefPtrIS8_EEEEvRT_RKT0_RKT1_
__ZN3WTF6RefPtrIN7WebCore12EnumCallbackINS1_16IconLoadDecisionEEEEaSERKNS_10PassRefPtrIS4_EE
__ZN7CoreIPC10Connection4sendIN8Messages15WebIconDatabase25GetLoadDecisionForIconURLEEEbRKT_yj
__ZN6WebKit20WebIconDatabaseProxy20setIconURLForPageURLERKN3WTF6StringES4_
__ZN7CoreIPC10Connection4sendIN8Messages15WebIconDatabase20SetIconURLForPageURLEEEbRKT_yj
__ZN6WebKit12WebPageProxy21didFinishLoadForFrameEyRN7CoreIPC14MessageDecoderE
__ZN6WebKit13WebFrameProxy13didFinishLoadEv
__ZN6WebKit15WebLoaderClient21didFinishLoadForFrameEPNS_12WebPageProxyEPNS_13WebFrameProxyEPNS_9APIObjectE
__ZN7CoreIPC13handleMessageIN8Messages15WebIconDatabase25GetLoadDecisionForIconURLEN6WebKit15WebIconDatabaseEMS5_FvRKN3WTF6StringEyEEEvRNS_14MessageDecoderEPT0_T1_
__ZN7CoreIPC10Arguments2IN3WTF6StringEyE6decodeERNS_15ArgumentDecoderERS3_
__ZN6WebKit15WebIconDatabase25getLoadDecisionForIconURLERKN3WTF6StringEy
__ZN6WebKit17ChildProcessProxy4sendIN8Messages20WebIconDatabaseProxy24ReceivedIconLoadDecisionEEEbRKT_yj
__ZN7CoreIPC13handleMessageIN8Messages15WebIconDatabase20SetIconURLForPageURLEN6WebKit15WebIconDatabaseEMS5_FvRKN3WTF6StringES9_EEEvRNS_14MessageDecoderEPT0_T1_
__ZN7CoreIPC10Arguments2IN3WTF6StringES2_E6decodeERNS_15ArgumentDecoderERS3_
__ZN6WebKit15WebIconDatabase20setIconURLForPageURLERKN3WTF6StringES4_
__ZN6WebKit17ChildProcessProxy4sendIN8Messages10WebProcess23VisitedLinkStateChangedEEEbRKT_yj
__ZN6WebKit15WebChromeClient19addMessageToConsoleEN7WebCore13MessageSourceENS1_12MessageLevelERKN3WTF6StringEjjS7_
__ZN6WebKit26InjectedBundlePageUIClient23willAddMessageToConsoleEPNS_7WebPageERKN3WTF6StringEi
__ZN6WebKit20WebFrameLoaderClient17objectContentTypeERKN7WebCore4KURLERKN3WTF6StringEb
__ZNK3WTF6VectorINS_6StringELm0ENS_15CrashOnOverflowEE4findIS1_EEmRKT_
__ZN6WebKit20WebFrameLoaderClient32postProgressFinishedNotificationEv
__ZN6WebKit30InjectedBundlePageLoaderClient17didFinishProgressEPNS_7WebPageE
__ZN7CoreIPC13MessageSender4sendIN8Messages12WebPageProxy17DidFinishProgressEEEbRKT_y
__ZN6WebKit12WebPageProxy17didFinishProgressEv
__ZN6WebKit15WebLoaderClient17didFinishProgressEPNS_12WebPageProxyE
-[WKView hitTest:]
____ZN9WorkQueue18dispatchAfterDelayERKN3WTF8FunctionIFvvEEEd_block_invoke
__ZN3WTF17BoundFunctionImplINS_15FunctionWrapperIMN6WebKit20LocalStorageDatabaseEFvvEEEFvPS3_EEclEv
__ZN6WebKit20LocalStorageDatabase14updateDatabaseEv
__ZN6WebKit20LocalStorageDatabase30updateDatabaseWithChangedItemsERKN3WTF7HashMapINS1_6StringES3_NS1_10StringHashENS1_10HashTraitsIS3_EES6_EE
___destroy_helper_block_2
__ZN3WTF17BoundFunctionImplINS_15FunctionWrapperIMN6WebKit20LocalStorageDatabaseEFvvEEEFvPS3_EED0Ev
__ZN3WTF20ThreadSafeRefCountedIN6WebKit20LocalStorageDatabaseEE5derefEv
__ZThn8_N6WebKit20WebIconDatabaseProxy17didReceiveMessageEPN7CoreIPC10ConnectionERNS1_14MessageDecoderE
__ZN6WebKit20WebIconDatabaseProxy17didReceiveMessageEPN7CoreIPC10ConnectionERNS1_14MessageDecoderE
__ZN7CoreIPC13handleMessageIN8Messages20WebIconDatabaseProxy24ReceivedIconLoadDecisionEN6WebKit20WebIconDatabaseProxyEMS5_FviyEEEvRNS_14MessageDecoderEPT0_T1_
__ZN7CoreIPC10Arguments2IiyE6decodeERNS_15ArgumentDecoderERS1_
__ZN6WebKit20WebIconDatabaseProxy24receivedIconLoadDecisionEiy
__ZN3WTF7HashMapIyNS_6RefPtrIN7WebCore12EnumCallbackINS2_16IconLoadDecisionEEEEENS_7IntHashIyEENS_10HashTraitsIyEENS9_IS6_EEE4takeERKy
__ZN3WTF9HashTableIyNS_12KeyValuePairIyNS_6RefPtrIN7WebCore12EnumCallbackINS3_16IconLoadDecisionEEEEEEENS_24KeyValuePairKeyExtractorIS8_EENS_7IntHashIyEENS_18HashMapValueTraitsINS_10HashTraitsIyEENSE_IS7_EEEESF_E12deleteBucketERS8_
__ZN3WTF9HashTableIyNS_12KeyValuePairIyNS_6RefPtrIN7WebCore12EnumCallbackINS3_16IconLoadDecisionEEEEEEENS_24KeyValuePairKeyExtractorIS8_EENS_7IntHashIyEENS_18HashMapValueTraitsINS_10HashTraitsIyEENSE_IS7_EEEESF_E15deallocateTableEPS8_i
__ZN3WTF9HashTableIyNS_12KeyValuePairIyNS_6RefPtrIN7WebCore12EnumCallbackINS3_16IconLoadDecisionEEEEEEENS_24KeyValuePairKeyExtractorIS8_EENS_7IntHashIyEENS_18HashMapValueTraitsINS_10HashTraitsIyEENSE_IS7_EEEESF_E16lookupForWritingINS_22IdentityHashTranslatorISC_EEyEENSt3__14pairIPS8_bEERKT0_
__ZN3WTF9HashTableIyNS_12KeyValuePairIyNS_6RefPtrIN7WebCore12EnumCallbackINS3_16IconLoadDecisionEEEEEEENS_24KeyValuePairKeyExtractorIS8_EENS_7IntHashIyEENS_18HashMapValueTraitsINS_10HashTraitsIyEENSE_IS7_EEEESF_E3addINS_17HashMapTranslatorISH_SC_EEyNS_10PassRefPtrIS6_EEEENS_18HashTableAddResultINS_17HashTableIteratorIyS8_SA_SC_SH_SF_EEEERKT0_RKT1_
__ZN3WTF9HashTableIyNS_12KeyValuePairIyNS_6RefPtrIN7WebCore12EnumCallbackINS3_16IconLoadDecisionEEEEEEENS_24KeyValuePairKeyExtractorIS8_EENS_7IntHashIyEENS_18HashMapValueTraitsINS_10HashTraitsIyEENSE_IS7_EEEESF_E4findINS_22IdentityHashTranslatorISC_EEyEENS_17HashTableIteratorIyS8_SA_SC_SH_SF_EERKT0_
__ZN3WTF9HashTableIyNS_12KeyValuePairIyNS_6RefPtrIN7WebCore12EnumCallbackINS3_16IconLoadDecisionEEEEEEENS_24KeyValuePairKeyExtractorIS8_EENS_7IntHashIyEENS_18HashMapValueTraitsINS_10HashTraitsIyEENSE_IS7_EEEESF_E6expandEv
__ZN3WTF9HashTableIyNS_12KeyValuePairIyNS_6RefPtrIN7WebCore12EnumCallbackINS3_16IconLoadDecisionEEEEEEENS_24KeyValuePairKeyExtractorIS8_EENS_7IntHashIyEENS_18HashMapValueTraitsINS_10HashTraitsIyEENSE_IS7_EEEESF_E6lookupINS_22IdentityHashTranslatorISC_EEyEEPS8_RKT0_
__ZN3WTF9HashTableIyNS_12KeyValuePairIyNS_6RefPtrIN7WebCore12EnumCallbackINS3_16IconLoadDecisionEEEEEEENS_24KeyValuePairKeyExtractorIS8_EENS_7IntHashIyEENS_18HashMapValueTraitsINS_10HashTraitsIyEENSE_IS7_EEEESF_E6rehashEi
__ZN3WTF9HashTableIyNS_12KeyValuePairIyNS_6RefPtrIN7WebCore12EnumCallbackINS3_16IconLoadDecisionEEEEEEENS_24KeyValuePairKeyExtractorIS8_EENS_7IntHashIyEENS_18HashMapValueTraitsINS_10HashTraitsIyEENSE_IS7_EEEESF_E6removeEPS8_
__ZN6WebKit20WebIconDatabaseProxy18iconDataForIconURLERKN3WTF6StringENS1_10PassRefPtrIN7WebCore14ObjectCallbackIPNS6_12SharedBufferEEEEE
__ZN7CoreIPC13handleMessageIN8Messages10WebProcess23VisitedLinkStateChangedEN6WebKit10WebProcessEMS5_FvRKN3WTF6VectorIyLm0ENS6_15CrashOnOverflowEEEEEEvRNS_14MessageDecoderEPT0_T1_
__ZN7CoreIPC19VectorArgumentCoderILb1EyE6decodeERNS_15ArgumentDecoderERN3WTF6VectorIyLm0ENS4_15CrashOnOverflowEEE
__ZN6WebKit10WebProcess23visitedLinkStateChangedERKN3WTF6VectorIyLm0ENS1_15CrashOnOverflowEEE
__ZN6WebKit15WebChromeClient24didAssociateFormControlsERKN3WTF6VectorINS1_6RefPtrIN7WebCore7ElementEEELm0ENS1_15CrashOnOverflowEEE
__ZN6WebKit28InjectedBundlePageFormClient24didAssociateFormControlsEPNS_7WebPageERKN3WTF6VectorINS3_6RefPtrIN7WebCore7ElementEEELm0ENS3_15CrashOnOverflowEEE
__ZNK6WebKit14TypedAPIObjectILNS_9APIObject4TypeE78EE4typeEv
_WKBundleNodeHandleGetTypeID
_WKBundleNodeHandleCopyDocument
__ZN6WebKit24InjectedBundleNodeHandle8documentEv
_WKBundleNodeHandleCopyDocumentFrame
__ZN6WebKit24InjectedBundleNodeHandle13documentFrameEv
_WKBundleFrameGetJavaScriptWrapperForNodeForWorld
__ZN6WebKit8WebFrame17jsWrapperForWorldEPNS_24InjectedBundleNodeHandleEPNS_25InjectedBundleScriptWorldE
__ZNK6WebKit24InjectedBundleNodeHandle8coreNodeEv
__ZNK3WTF7HashMapIPvN3JSC4WeakIN7WebCore12JSDOMWrapperEEENS_7PtrHashIS1_EENS_10HashTraitsIS1_EENS9_IS6_EEE3getERKS1_
__ZN3WTF9HashTableIPvNS_12KeyValuePairIS1_N3JSC4WeakIN7WebCore12JSDOMWrapperEEEEENS_24KeyValuePairKeyExtractorIS8_EENS_7PtrHashIS1_EENS_18HashMapValueTraitsINS_10HashTraitsIS1_EENSE_IS7_EEEESF_E6lookupINS_22IdentityHashTranslatorISC_EES1_EEPS8_RKT0_
__ZN6WebKit15WebChromeClient20logDiagnosticMessageERKN3WTF6StringES4_S4_
__ZN6WebKit41InjectedBundlePageDiagnosticLoggingClient20logDiagnosticMessageEPNS_7WebPageERKN3WTF6StringES6_S6_
__ZN6WebKit17ChildProcessProxy4sendIN8Messages11DrawingArea15SuspendPaintingEEEbRKT_yj
__ZN6WebKit7WebPage43determinePrimarySnapshottedPlugInTimerFiredEv
__ZN6WebKit7WebPage33determinePrimarySnapshottedPlugInEv
_WKPageGetContentsAsString
__ZN6WebKit12WebPageProxy19getContentsAsStringEN3WTF10PassRefPtrINS_15GenericCallbackIPK14OpaqueWKStringPNS1_10StringImplEEEEE
__ZN3WTF17HashMapTranslatorINS_18HashMapValueTraitsINS_10HashTraitsIyEENS2_INS_6RefPtrIN6WebKit15GenericCallbackIPK14OpaqueWKStringPNS_10StringImplEEEEEEEEENS_7IntHashIyEEE9translateINS_12KeyValuePairIySD_EEyNS_10PassRefPtrISC_EEEEvRT_RKT0_RKT1_
__ZN3WTF6RefPtrIN6WebKit15GenericCallbackIPK14OpaqueWKStringPNS_10StringImplEEEEaSERKNS_10PassRefPtrIS8_EE
__ZN6WebKit17ChildProcessProxy4sendIN8Messages7WebPage19GetContentsAsStringEEEbRKT_yj
__ZN6WebKit7WebPage19getContentsAsStringEy
__ZNK6WebKit8WebFrame16contentsAsStringEv
__ZN3WTF10RefCountedIN7WebCore5RangeEE5derefEv
__ZN7CoreIPC13MessageSender4sendIN8Messages12WebPageProxy14StringCallbackEEEbRKT_y
__ZN7CoreIPC13handleMessageIN8Messages12WebPageProxy14StringCallbackEN6WebKit12WebPageProxyEMS5_FvRKN3WTF6StringEyEEEvRNS_14MessageDecoderEPT0_T1_
__ZN6WebKit12WebPageProxy14stringCallbackERKN3WTF6StringEy
__ZN3WTF7HashMapIyNS_6RefPtrIN6WebKit15GenericCallbackIPK14OpaqueWKStringPNS_10StringImplEEEEENS_7IntHashIyEENS_10HashTraitsIyEENSD_ISA_EEE3setERKyNS_10PassRefPtrIS9_EE
__ZN3WTF7HashMapIyNS_6RefPtrIN6WebKit15GenericCallbackIPK14OpaqueWKStringPNS_10StringImplEEEEENS_7IntHashIyEENS_10HashTraitsIyEENSD_ISA_EEE4takeERKy
__ZN3WTF9HashTableIyNS_12KeyValuePairIyNS_6RefPtrIN6WebKit15GenericCallbackIPK14OpaqueWKStringPNS_10StringImplEEEEEEENS_24KeyValuePairKeyExtractorISC_EENS_7IntHashIyEENS_18HashMapValueTraitsINS_10HashTraitsIyEENSI_ISB_EEEESJ_E12deleteBucketERSC_
__ZN3WTF9HashTableIyNS_12KeyValuePairIyNS_6RefPtrIN6WebKit15GenericCallbackIPK14OpaqueWKStringPNS_10StringImplEEEEEEENS_24KeyValuePairKeyExtractorISC_EENS_7IntHashIyEENS_18HashMapValueTraitsINS_10HashTraitsIyEENSI_ISB_EEEESJ_E15deallocateTableEPSC_i
__ZN3WTF9HashTableIyNS_12KeyValuePairIyNS_6RefPtrIN6WebKit15GenericCallbackIPK14OpaqueWKStringPNS_10StringImplEEEEEEENS_24KeyValuePairKeyExtractorISC_EENS_7IntHashIyEENS_18HashMapValueTraitsINS_10HashTraitsIyEENSI_ISB_EEEESJ_E16lookupForWritingINS_22IdentityHashTranslatorISG_EEyEENSt3__14pairIPSC_bEERKT0_
__ZN3WTF9HashTableIyNS_12KeyValuePairIyNS_6RefPtrIN6WebKit15GenericCallbackIPK14OpaqueWKStringPNS_10StringImplEEEEEEENS_24KeyValuePairKeyExtractorISC_EENS_7IntHashIyEENS_18HashMapValueTraitsINS_10HashTraitsIyEENSI_ISB_EEEESJ_E3addINS_17HashMapTranslatorISL_SG_EEyNS_10PassRefPtrISA_EEEENS_18HashTableAddResultINS_17HashTableIteratorIySC_SE_SG_SL_SJ_EEEERKT0_RKT1_
__ZN3WTF9HashTableIyNS_12KeyValuePairIyNS_6RefPtrIN6WebKit15GenericCallbackIPK14OpaqueWKStringPNS_10StringImplEEEEEEENS_24KeyValuePairKeyExtractorISC_EENS_7IntHashIyEENS_18HashMapValueTraitsINS_10HashTraitsIyEENSI_ISB_EEEESJ_E4findINS_22IdentityHashTranslatorISG_EEyEENS_17HashTableIteratorIySC_SE_SG_SL_SJ_EERKT0_
__ZN3WTF9HashTableIyNS_12KeyValuePairIyNS_6RefPtrIN6WebKit15GenericCallbackIPK14OpaqueWKStringPNS_10StringImplEEEEEEENS_24KeyValuePairKeyExtractorISC_EENS_7IntHashIyEENS_18HashMapValueTraitsINS_10HashTraitsIyEENSI_ISB_EEEESJ_E6expandEv
__ZN3WTF9HashTableIyNS_12KeyValuePairIyNS_6RefPtrIN6WebKit15GenericCallbackIPK14OpaqueWKStringPNS_10StringImplEEEEEEENS_24KeyValuePairKeyExtractorISC_EENS_7IntHashIyEENS_18HashMapValueTraitsINS_10HashTraitsIyEENSI_ISB_EEEESJ_E6lookupINS_22IdentityHashTranslatorISG_EEyEEPSC_RKT0_
__ZN3WTF9HashTableIyNS_12KeyValuePairIyNS_6RefPtrIN6WebKit15GenericCallbackIPK14OpaqueWKStringPNS_10StringImplEEEEEEENS_24KeyValuePairKeyExtractorISC_EENS_7IntHashIyEENS_18HashMapValueTraitsINS_10HashTraitsIyEENSI_ISB_EEEESJ_E6rehashEi
__ZN3WTF9HashTableIyNS_12KeyValuePairIyNS_6RefPtrIN6WebKit15GenericCallbackIPK14OpaqueWKStringPNS_10StringImplEEEEEEENS_24KeyValuePairKeyExtractorISC_EENS_7IntHashIyEENS_18HashMapValueTraitsINS_10HashTraitsIyEENSI_ISB_EEEESJ_E6removeEPSC_
__ZN6WebKit15GenericCallbackIPK14OpaqueWKStringPN3WTF10StringImplEE30performCallbackWithReturnValueES6_
__ZN6WebKit15GenericCallbackIPK14OpaqueWKStringPN3WTF10StringImplEED0Ev
-[WKView mouseMoved:]
-[WKView mouseMovedInternal:]
__ZN6WebKit19NativeWebMouseEventC1EP7NSEventP6NSView
__ZN6WebKit15WebEventFactory19createWebMouseEventEP7NSEventP6NSView
__ZN6WebKitL13pointForEventEP7NSEventP6NSView
__ZN6WebKitL19globalPointForEventEP7NSEvent
__ZN6WebKit13WebMouseEventC1ENS_8WebEvent4TypeENS0_6ButtonERKN7WebCore8IntPointES7_fffiNS1_9ModifiersEd
__ZN6WebKit8WebEventC2ENS0_4TypeENS0_9ModifiersEd
__ZN3WTF9RetainPtrI7NSEventEC2EPS1_
__ZN6WebKit12WebPageProxy16handleMouseEventERKNS_19NativeWebMouseEventE
__ZN6WebKit17ChildProcessProxy4sendIN8Messages7WebPage10MouseEventEEEbRKT_yj
__ZNK6WebKit13WebMouseEvent6encodeERN7CoreIPC15ArgumentEncoderE
__ZNK6WebKit8WebEvent6encodeERN7CoreIPC15ArgumentEncoderE
__ZN7CoreIPC13ArgumentCoderIN7WebCore8IntPointEE6encodeERNS_15ArgumentEncoderERKS2_
__ZN3WTF10PassOwnPtrIN6WebKit19NativeWebMouseEventEED2Ev
-[WKView mouseExited:]
-[WKView mouseEntered:]
-[WKView viewWillStartLiveResize]
__ZN6WebKit12WebPageProxy23viewWillStartLiveResizeEv
__ZN6WebKit17ChildProcessProxy4sendIN8Messages7WebPage23ViewWillStartLiveResizeEEEbRKT_yj
_WKInspectorIsVisible
_WKBackForwardListCopyBackListWithLimit
__ZNK6WebKit18WebBackForwardList33backListAsImmutableArrayWithLimitEj
_WKPageCopySessionState
__ZNK6WebKit12WebPageProxy16sessionStateDataEPFbPK12OpaqueWKPagePK14OpaqueWKStringPKvPvES9_
__ZNK6WebKit18WebBackForwardList32createCFDictionaryRepresentationEPFbPK12OpaqueWKPagePK14OpaqueWKStringPKvPvES9_
__ZN6WebKitL35createEmptySessionHistoryDictionaryEv
__ZN6WebKitL28SessionHistoryCurrentVersionEv
_WKPageStopLoading
__ZN6WebKit12WebPageProxy11stopLoadingEv
__ZN6WebKit17ChildProcessProxy4sendIN8Messages7WebPage11StopLoadingEEEbRKT_yj
__ZN7CoreIPC10Connection29waitForAndDispatchImmediatelyIN8Messages12WebPageProxy22DidUpdateInWindowStateEEEbyd
__ZN7CoreIPC10Connection14waitForMessageENS_15StringReferenceES1_yd
__ZN3WTF7HashMapINSt3__14pairINS2_IN7CoreIPC15StringReferenceES4_EEyEENS_6OwnPtrINS3_14MessageDecoderEEENS_8PairHashIS5_yEENS_10HashTraitsIS6_EENSC_IS9_EEE3setERKS6_NS_10PassOwnPtrIS8_EE
__ZN3WTF7HashMapINSt3__14pairINS2_IN7CoreIPC15StringReferenceES4_EEyEENS_6OwnPtrINS3_14MessageDecoderEEENS_8PairHashIS5_yEENS_10HashTraitsIS6_EENSC_IS9_EEE6removeERKS6_
__ZN3WTF8PairHashINSt3__14pairIN7CoreIPC15StringReferenceES4_EEyE4hashERKNS2_IS5_yEE
__ZN3WTF8PairHashIN7CoreIPC15StringReferenceES2_E5equalERKNSt3__14pairIS2_S2_EES8_
-[WKView viewDidEndLiveResize]
__ZN6WebKit12WebPageProxy21viewWillEndLiveResizeEv
__ZN6WebKit17ChildProcessProxy4sendIN8Messages7WebPage21ViewWillEndLiveResizeEEEbRKT_yj
__ZNK7WebCore22FrameNetworkingContext7isValidEv
__ZNK6WebKit25WebFrameNetworkingContext23needsSiteSpecificQuirksEv
__ZNK6WebKit25WebFrameNetworkingContext26sourceApplicationAuditDataEv
__ZNK6WebKit25WebFrameNetworkingContext21scheduledRunLoopPairsEv
__ZN6WebKit7WebPage11stopLoadingEv
__ZN6WebKit20WebFrameLoaderClient14cancelledErrorERKN7WebCore15ResourceRequestE
__ZN6WebKit14cancelledErrorERKN7WebCore15ResourceRequestE
__ZN6WebKitL13createNSErrorEP8NSStringiP5NSURL
__ZN3WTF9RetainPtrIP7NSErrorEC2ENS_10AdoptNSTagES2_
__ZN3WTF9RetainPtrI7NSErrorEC2IPS1_EERKNS0_IT_EE
__ZN6WebKit20WebFrameLoaderClient22dispatchDidFailLoadingEPN7WebCore14DocumentLoaderEmRKNS1_13ResourceErrorE
__ZN6WebKit36InjectedBundlePageResourceLoadClient22didFailLoadForResourceEPNS_7WebPageEPNS_8WebFrameEyRKN7WebCore13ResourceErrorE
__ZN6WebKit8WebErrorD0Ev
__ZN6WebKit20WebFrameLoaderClient20setMainDocumentErrorEPN7WebCore14DocumentLoaderERKNS1_13ResourceErrorE
__ZN6WebKit20WebFrameLoaderClient14shouldFallBackERKN7WebCore13ResourceErrorE
__ZN6WebKit20WebFrameLoaderClient25pluginWillHandleLoadErrorERKN7WebCore16ResourceResponseE
__ZN6WebKit25pluginWillHandleLoadErrorERKN7WebCore16ResourceResponseE
__ZN6WebKit8WebError17webKitErrorDomainEv
__ZN7WebCore17ResourceErrorBaseC2ERKN3WTF6StringEiS4_S4_
__ZN6WebKit20WebFrameLoaderClient30dispatchDidFailProvisionalLoadERKN7WebCore13ResourceErrorE
__ZN6WebKit30InjectedBundlePageLoaderClient39didFailProvisionalLoadWithErrorForFrameEPNS_7WebPageEPNS_8WebFrameERKN7WebCore13ResourceErrorERN3WTF6RefPtrINS_9APIObjectEEE
__ZN6WebKit7WebPage23SandboxExtensionTracker22didFailProvisionalLoadEPNS_8WebFrameE
__ZN7CoreIPC13MessageSender4sendIN8Messages12WebPageProxy30DidFailProvisionalLoadForFrameEEEbRKT_y
__ZNK7CoreIPC10Arguments3IyRKN7WebCore13ResourceErrorERKN6WebKit32InjectedBundleUserMessageEncoderEE6encodeERNS_15ArgumentEncoderE
__ZN7CoreIPC13ArgumentCoderIN7WebCore13ResourceErrorEE6encodeERNS_15ArgumentEncoderERKS2_
__ZN7CoreIPC13ArgumentCoderIN7WebCore13ResourceErrorEE18encodePlatformDataERNS_15ArgumentEncoderERKS2_
__ZN6WebKit23PlatformCertificateInfoC1EPK9__CFArray
__ZN6WebKit29TiledCoreAnimationDrawingArea15suspendPaintingEv
__ZN6WebKit10WebProcess19pageWillLeaveWindowEy
__ZN3WTF9HashTableINSt3__14pairINS2_IN7CoreIPC15StringReferenceES4_EEyEENS_12KeyValuePairIS6_NS_6OwnPtrINS3_14MessageDecoderEEEEENS_24KeyValuePairKeyExtractorISB_EENS_8PairHashIS5_yEENS_18HashMapValueTraitsINS_10HashTraitsIS6_EENSH_ISA_EEEESI_E13allocateTableEi
__ZN3WTF9HashTableINSt3__14pairINS2_IN7CoreIPC15StringReferenceES4_EEyEENS_12KeyValuePairIS6_NS_6OwnPtrINS3_14MessageDecoderEEEEENS_24KeyValuePairKeyExtractorISB_EENS_8PairHashIS5_yEENS_18HashMapValueTraitsINS_10HashTraitsIS6_EENSH_ISA_EEEESI_E15deallocateTableEPSB_i
__ZN3WTF9HashTableINSt3__14pairINS2_IN7CoreIPC15StringReferenceES4_EEyEENS_12KeyValuePairIS6_NS_6OwnPtrINS3_14MessageDecoderEEEEENS_24KeyValuePairKeyExtractorISB_EENS_8PairHashIS5_yEENS_18HashMapValueTraitsINS_10HashTraitsIS6_EENSH_ISA_EEEESI_E16lookupForWritingINS_22IdentityHashTranslatorISF_EES6_EENS2_IPSB_bEERKT0_
__ZN3WTF9HashTableINSt3__14pairINS2_IN7CoreIPC15StringReferenceES4_EEyEENS_12KeyValuePairIS6_NS_6OwnPtrINS3_14MessageDecoderEEEEENS_24KeyValuePairKeyExtractorISB_EENS_8PairHashIS5_yEENS_18HashMapValueTraitsINS_10HashTraitsIS6_EENSH_ISA_EEEESI_E3addINS_17HashMapTranslatorISK_SF_EES6_NS_10PassOwnPtrIS9_EEEENS_18HashTableAddResultINS_17HashTableIteratorIS6_SB_SD_SF_SK_SI_EEEERKT0_RKT1_
__ZN3WTF9HashTableINSt3__14pairINS2_IN7CoreIPC15StringReferenceES4_EEyEENS_12KeyValuePairIS6_NS_6OwnPtrINS3_14MessageDecoderEEEEENS_24KeyValuePairKeyExtractorISB_EENS_8PairHashIS5_yEENS_18HashMapValueTraitsINS_10HashTraitsIS6_EENSH_ISA_EEEESI_E4findINS_22IdentityHashTranslatorISF_EES6_EENS_17HashTableIteratorIS6_SB_SD_SF_SK_SI_EERKT0_
__ZN3WTF9HashTableINSt3__14pairINS2_IN7CoreIPC15StringReferenceES4_EEyEENS_12KeyValuePairIS6_NS_6OwnPtrINS3_14MessageDecoderEEEEENS_24KeyValuePairKeyExtractorISB_EENS_8PairHashIS5_yEENS_18HashMapValueTraitsINS_10HashTraitsIS6_EENSH_ISA_EEEESI_E6expandEv
__ZN3WTF9HashTableINSt3__14pairINS2_IN7CoreIPC15StringReferenceES4_EEyEENS_12KeyValuePairIS6_NS_6OwnPtrINS3_14MessageDecoderEEEEENS_24KeyValuePairKeyExtractorISB_EENS_8PairHashIS5_yEENS_18HashMapValueTraitsINS_10HashTraitsIS6_EENSH_ISA_EEEESI_E6lookupINS_22IdentityHashTranslatorISF_EES6_EEPSB_RKT0_
__ZN3WTF9HashTableINSt3__14pairINS2_IN7CoreIPC15StringReferenceES4_EEyEENS_12KeyValuePairIS6_NS_6OwnPtrINS3_14MessageDecoderEEEEENS_24KeyValuePairKeyExtractorISB_EENS_8PairHashIS5_yEENS_18HashMapValueTraitsINS_10HashTraitsIS6_EENSH_ISA_EEEESI_E6rehashEi
__ZN3WTF9HashTableINSt3__14pairINS2_IN7CoreIPC15StringReferenceES4_EEyEENS_12KeyValuePairIS6_NS_6OwnPtrINS3_14MessageDecoderEEEEENS_24KeyValuePairKeyExtractorISB_EENS_8PairHashIS5_yEENS_18HashMapValueTraitsINS_10HashTraitsIS6_EENSH_ISA_EEEESI_E6removeEPSB_
__ZN3WTF9HashTableINSt3__14pairINS2_IN7CoreIPC15StringReferenceES4_EEyEENS_12KeyValuePairIS6_NS_6OwnPtrINS3_14MessageDecoderEEEEENS_24KeyValuePairKeyExtractorISB_EENS_8PairHashIS5_yEENS_18HashMapValueTraitsINS_10HashTraitsIS6_EENSH_ISA_EEEESI_E8reinsertERSB_
_WKURLRequestCreateWithNSURLRequest
__ZN3WTF9RetainPtrIP11objc_objectEC2ENS_10AdoptNSTagES2_
__ZN3WTF9RetainPtrI12NSURLRequestEC2IP11objc_objectEERKNS0_IT_EE
__ZN6WebKit13WebURLRequest6createEP12NSURLRequest
__ZN6WebKit13WebURLRequestC1EP12NSURLRequest
_WKContextStartMemorySampler
__ZN6WebKit10WebContext18startMemorySamplerEd
__ZN6WebKit16WebMemorySampler6sharedEv
__ZN6WebKit16WebMemorySampler5startEd
__ZN6WebKit16WebMemorySampler21initializeTempLogFileEv
__ZNK6WebKit16WebMemorySampler11processNameEv
__ZN6WebKit16WebMemorySampler12writeHeadersEv
__ZNK6WebKit16WebMemorySampler12sampleWebKitEv
__ZNK6WebKit16WebMemorySampler18sampleSystemMallocEv
__ZN3WTF6VectorImLm0ENS_15CrashOnOverflowEE14appendSlowCaseIdEEvRKT_
__ZN3WTF6VectorImLm0ENS_15CrashOnOverflowEE15reserveCapacityEm
__ZN3WTF16VectorBufferBaseImE14allocateBufferEm
__ZN3WTF13StringBuilder6appendEh
__ZN3WTF13StringBuilder6appendERKNS_6StringE
__ZN3WTF13StringBuilder8toStringEv
__ZN3WTF6RefPtrINS_13CStringBufferEEaSEOS2_
__ZN6WebKit16WebMemorySampler16initializeTimersEd
__ZN6WebKit16SandboxExtension28createHandleForTemporaryFileERKN3WTF6StringENS0_4TypeERNS0_6HandleE
__ZN3WTF6VectorIcLm0ENS_15CrashOnOverflowEE6appendIcEEvPKT_m
__ZN3WTF6VectorIcLm0ENS_15CrashOnOverflowEED1Ev
__ZN6WebKit17ChildProcessProxy4sendIN8Messages10WebProcess18StartMemorySamplerEEEbRKT_yj
__ZN7CoreIPC21handleMessageVariadicIN8Messages12WebPageProxy30DidFailProvisionalLoadForFrameEN6WebKit12WebPageProxyEMS5_FvyRKN7WebCore13ResourceErrorERNS_14MessageDecoderEEEEvSB_PT0_T1_
__ZN7CoreIPC10Arguments2IyN7WebCore13ResourceErrorEE6decodeERNS_15ArgumentDecoderERS3_
__ZN7CoreIPC13ArgumentCoderIN7WebCore13ResourceErrorEE6decodeERNS_15ArgumentDecoderERS2_
__ZN7CoreIPC13ArgumentCoderIN7WebCore13ResourceErrorEE18decodePlatformDataERNS_15ArgumentDecoderERS2_
__ZN7CoreIPCL8nsStringERKN3WTF6StringE
__ZN3WTF9RetainPtrI7NSErrorEaSEOS2_
__ZN6WebKit12WebPageProxy30didFailProvisionalLoadForFrameEyRKN7WebCore13ResourceErrorERN7CoreIPC14MessageDecoderE
__ZN6WebKit13WebFrameProxy22didFailProvisionalLoadEv
__ZN6WebKit15WebLoaderClient39didFailProvisionalLoadWithErrorForFrameEPNS_12WebPageProxyEPNS_13WebFrameProxyERKN7WebCore13ResourceErrorEPNS_9APIObjectE
_WKErrorCopyFailingURL
_WKErrorCopyDomain
_WKErrorGetErrorCode
__ZN7CoreIPC13handleMessageIN8Messages10WebProcess18StartMemorySamplerEN6WebKit10WebProcessEMS5_FvRKNS4_16SandboxExtension6HandleERKN3WTF6StringEdEEEvRNS_14MessageDecoderEPT0_T1_
__ZN7CoreIPC10Arguments3IN6WebKit16SandboxExtension6HandleEN3WTF6StringEdE6decodeERNS_15ArgumentDecoderERS6_
__ZN7CoreIPC10Arguments2IN6WebKit16SandboxExtension6HandleEN3WTF6StringEE6decodeERNS_15ArgumentDecoderERS6_
__ZN6WebKit10WebProcess18startMemorySamplerERKNS_16SandboxExtension6HandleERKN3WTF6StringEd
__ZN6WebKit16WebMemorySampler5startERKNS_16SandboxExtension6HandleERKN3WTF6StringEd
__ZN6WebKit16WebMemorySampler26initializeSandboxedLogFileERKNS_16SandboxExtension6HandleERKN3WTF6StringE
__ZN6WebKit16SandboxExtension7consumeEv
_WKIconDatabaseReleaseIconForURL
__ZN3WTFplIcEENS_12StringAppendINS_6StringET_EERKS2_S3_
__ZNK3WTF12StringAppendINS_6StringEcEcvS1_Ev
__ZN3WTF13tryMakeStringINS_6StringEcEENS_10PassRefPtrINS_10StringImplEEET_T0_
__ZNK6WebKit20WebFrameLoaderClient17willCacheResponseEPN7WebCore14DocumentLoaderEmP19NSCachedURLResponse
__ZN6WebKit36InjectedBundlePageResourceLoadClient19shouldCacheResponseEPNS_7WebPageEPNS_8WebFrameEy
_WKIOSurfaceContextCreate
_WKSetBaseCTM
_WKIOSurfaceContextCreateImage
_WKBundleFrameCreateHitTestResult
__ZNK6WebKit8WebFrame7hitTestEN7WebCore8IntPointE
__ZN6WebKit27InjectedBundleHitTestResult6createERKN7WebCore13HitTestResultE
_WKBundleHitTestResultCopyNodeHandle
__ZNK6WebKit27InjectedBundleHitTestResult10nodeHandleEv
__ZN6WebKit27InjectedBundleHitTestResultD0Ev
__ZN6WebKit15WebEditorClient23willSetInputMethodStateEv
__ZN7WebCore12ChromeClient15elementDidFocusEPKNS_4NodeE
__ZN6WebKit15WebChromeClient18makeFirstResponderEv
__ZN7CoreIPC13MessageSender4sendIN8Messages12WebPageProxy18MakeFirstResponderEEEbRKT_y
__ZN6WebKit15WebChromeClient18focusedNodeChangedEPN7WebCore4NodeE
__ZN6WebKit28InjectedBundlePageFormClient17didFocusTextFieldEPNS_7WebPageEPN7WebCore16HTMLInputElementEPNS_8WebFrameE
__ZN6WebKit12WebPageProxy18makeFirstResponderEv
__ZN6WebKit14PageClientImpl18makeFirstResponderEv
__ZN6WebKit15WebEditorClient19setInputMethodStateEb
__ZN6WebKit15WebEditorClient32isContinuousSpellCheckingEnabledEv
__ZN6WebKit15WebEditorClient24isGrammarCheckingEnabledEv
__ZN6WebKit15WebEditorClient11textCheckerEv
__ZThn8_NK6WebKit15WebEditorClient38shouldEraseMarkersAfterChangeSelectionEN7WebCore16TextCheckingTypeE
__ZN6WebKit15WebEditorClient25respondToChangedSelectionEPN7WebCore5FrameE
__ZN6WebKit30InjectedBundlePageEditorClient18didChangeSelectionEPNS_7WebPageEPN3WTF10StringImplE
__ZN6WebKit7WebPage18didChangeSelectionEv
__ZNK6WebKit7WebPage11editorStateEv
__ZN6WebKit7WebPage25focusedPluginViewForFrameEPN7WebCore5FrameE
__ZN7CoreIPC13MessageSender4sendIN8Messages12WebPageProxy18EditorStateChangedEEEbRKT_y
__ZNK6WebKit11EditorState6encodeERN7CoreIPC15ArgumentEncoderE
__ZN7CoreIPC13handleMessageIN8Messages12WebPageProxy18EditorStateChangedEN6WebKit12WebPageProxyEMS5_FvRKNS4_11EditorStateEEEEvRNS_14MessageDecoderEPT0_T1_
__ZN6WebKit11EditorState6decodeERN7CoreIPC15ArgumentDecoderERS0_
__ZN6WebKit12WebPageProxy18editorStateChangedERKNS_11EditorStateE
__ZN6WebKit14PageClientImpl22updateSecureInputStateEv
__ZNK6WebKit15WebChromeClient18scrollRectIntoViewERKN7WebCore7IntRectE
__ZNK7WebCore17FrameLoaderClient22shouldPaintBrokenImageERKNS_4KURLE
__ZN7WebCore5TimerIN6WebKit16WebMemorySamplerEE5firedEv
__ZN6WebKit16WebMemorySampler16sampleTimerFiredEPN7WebCore5TimerIS0_EE
__ZN6WebKit16WebMemorySampler23sendMemoryPressureEventEv
__ZN6WebKit16WebMemorySampler30appendCurrentMemoryUsageToFileERi
____ZN6WebKit16DiskCacheMonitorC2EPK20_CFCachedURLResponsePNS_21NetworkResourceLoaderE_block_invoke1
__ZN6WebKit21NetworkResourceLoader44tryGetShareableHandleFromCFURLCachedResponseERNS_17ShareableResource6HandleEPK20_CFCachedURLResponse
__ZN6WebKit16DiskCacheMonitor26messageSenderDestinationIDEv
__ZN7CoreIPC13MessageSender4sendIN8Messages24NetworkProcessConnection16DidCacheResourceEEEbRKT_y
__ZN6WebKit16DiskCacheMonitor23messageSenderConnectionEv
__ZN6WebKit16DiskCacheMonitorD0Ev
__ZN6WebKit24NetworkProcessConnection41didReceiveNetworkProcessConnectionMessageEPN7CoreIPC10ConnectionERNS1_14MessageDecoderE
__ZN7CoreIPC13handleMessageIN8Messages24NetworkProcessConnection16DidCacheResourceEN6WebKit24NetworkProcessConnectionEMS5_FvRKN7WebCore15ResourceRequestERKNS4_17ShareableResource6HandleEEEEvRNS_14MessageDecoderEPT0_T1_
__ZN7CoreIPC10Arguments2IN7WebCore15ResourceRequestEN6WebKit17ShareableResource6HandleEE6decodeERNS_15ArgumentDecoderERS6_
__ZN6WebKit24NetworkProcessConnection16didCacheResourceERKN7WebCore15ResourceRequestERKNS_17ShareableResource6HandleE
-[WKView validAttributesForMarkedText]
__ZN6WebKit7WebPage23viewWillStartLiveResizeEv
__ZN6WebKit7WebPage21viewWillEndLiveResizeEv
__ZN7CoreIPC13handleMessageIN8Messages7WebPage10MouseEventEN6WebKit7WebPageEMS5_FvRKNS4_13WebMouseEventEEEEvRNS_14MessageDecoderEPT0_T1_
__ZN6WebKit13WebMouseEventC1Ev
__ZN6WebKit8WebEventC2Ev
__ZN6WebKit13WebMouseEvent6decodeERN7CoreIPC15ArgumentDecoderERS0_
__ZN6WebKit8WebEvent6decodeERN7CoreIPC15ArgumentDecoderERS0_
__ZN7CoreIPC13ArgumentCoderIN7WebCore8IntPointEE6decodeERNS_15ArgumentDecoderERS2_
__ZN6WebKit7WebPage10mouseEventERKNS_13WebMouseEventE
__ZN6WebKitL16handleMouseEventERKNS_13WebMouseEventEPNS_7WebPageEb
__ZN6WebKit8platformERKNS_13WebMouseEventE
__ZN6WebKit25WebKit2PlatformMouseEventC2ERKNS_13WebMouseEventE
__ZN6WebKit15WebChromeClient23mouseDidMoveOverElementERKN7WebCore13HitTestResultEj
__ZN6WebKit26InjectedBundlePageUIClient23mouseDidMoveOverElementEPNS_7WebPageERKN7WebCore13HitTestResultENS_8WebEvent9ModifiersERN3WTF6RefPtrINS_9APIObjectEEE
_WKBundleHitTestResultCopyAbsoluteLinkURL
__ZNK6WebKit27InjectedBundleHitTestResult15absoluteLinkURLEv
_WKBundleHitTestResultGetFrame
__ZNK6WebKit27InjectedBundleHitTestResult5frameEv
_WKBundleHitTestResultGetTargetFrame
__ZNK6WebKit27InjectedBundleHitTestResult11targetFrameEv
__ZN6WebKit16WebHitTestResult4DataC1ERKN7WebCore13HitTestResultE
__ZN6WebKit16WebHitTestResult4DataC2ERKN7WebCore13HitTestResultE
__ZN6WebKit16WebHitTestResult4Data37elementBoundingBoxInWindowCoordinatesERKN7WebCore13HitTestResultE
__ZN7CoreIPC13MessageSender4sendIN8Messages12WebPageProxy23MouseDidMoveOverElementEEEbRKT_y
__ZNK6WebKit16WebHitTestResult4Data6encodeERN7CoreIPC15ArgumentEncoderE
__ZN7CoreIPC13ArgumentCoderIN7WebCore7IntRectEE6encodeERNS_15ArgumentEncoderERKS2_
__ZN6WebKit16WebHitTestResult4DataD1Ev
__ZN6WebKit16WebHitTestResult4DataD2Ev
__ZN6WebKit15WebChromeClient10setToolTipERKN3WTF6StringEN7WebCore13TextDirectionE
__ZN7CoreIPC21handleMessageVariadicIN8Messages12WebPageProxy23MouseDidMoveOverElementEN6WebKit12WebPageProxyEMS5_FvRKNS4_16WebHitTestResult4DataEjRNS_14MessageDecoderEEEEvSB_PT0_T1_
__ZN7CoreIPC13MessageSender4sendIN8Messages12WebPageProxy15DidReceiveEventEEEbRKT_y
__ZN7CoreIPC10Arguments2IN6WebKit16WebHitTestResult4DataEjE6decodeERNS_15ArgumentDecoderERS4_
__ZN6WebKit16WebHitTestResult4Data6decodeERN7CoreIPC15ArgumentDecoderERS1_
__ZN7CoreIPC13ArgumentCoderIN7WebCore7IntRectEE6decodeERNS_15ArgumentDecoderERS2_
__ZN6WebKit12WebPageProxy23mouseDidMoveOverElementERKNS_16WebHitTestResult4DataEjRN7CoreIPC14MessageDecoderE
__ZN6WebKit11WebUIClient23mouseDidMoveOverElementEPNS_12WebPageProxyERKNS_16WebHitTestResult4DataENS_8WebEvent9ModifiersEPNS_9APIObjectE
__ZN6WebKit16WebHitTestResult6createERKNS0_4DataE
__ZN6WebKit16WebHitTestResultD0Ev
__ZN7CoreIPC13handleMessageIN8Messages12WebPageProxy15DidReceiveEventEN6WebKit12WebPageProxyEMS5_FvjbEEEvRNS_14MessageDecoderEPT0_T1_
__ZN6WebKit12WebPageProxy15didReceiveEventEjb
_WKPageGetSessionBackForwardListItemValueType
_WKPageGetSessionHistoryURLValueType
_WKDataGetBytes
_WKDataGetSize
__ZN6WebKit20WebFrameLoaderClient37canAuthenticateAgainstProtectionSpaceEPN7WebCore14DocumentLoaderEmRKNS1_15ProtectionSpaceE
__ZN7CoreIPC10Connection8sendSyncIN8Messages12WebPageProxy44CanAuthenticateAgainstProtectionSpaceInFrameEEEbRKT_RKNS5_5ReplyEydj
__ZN7CoreIPC13ArgumentCoderIN7WebCore15ProtectionSpaceEE6encodeERNS_15ArgumentEncoderERKS2_
__ZN7CoreIPC13handleMessageIN8Messages12WebPageProxy44CanAuthenticateAgainstProtectionSpaceInFrameEN6WebKit12WebPageProxyEMS5_FvyRKN7WebCore15ProtectionSpaceERbEEEvRNS_14MessageDecoderERNS_14MessageEncoderEPT0_T1_
__ZN7CoreIPC10Arguments2IyN7WebCore15ProtectionSpaceEE6decodeERNS_15ArgumentDecoderERS3_
__ZN7CoreIPC13ArgumentCoderIN7WebCore15ProtectionSpaceEE6decodeERNS_15ArgumentDecoderERS2_
__ZN6WebKit12WebPageProxy44canAuthenticateAgainstProtectionSpaceInFrameEyRKN7WebCore15ProtectionSpaceERb
__ZN6WebKit18WebProtectionSpaceC1ERKN7WebCore15ProtectionSpaceE
__ZN6WebKit18WebProtectionSpaceC2ERKN7WebCore15ProtectionSpaceE
__ZN6WebKit15WebLoaderClient44canAuthenticateAgainstProtectionSpaceInFrameEPNS_12WebPageProxyEPNS_13WebFrameProxyEPNS_18WebProtectionSpaceE
_WKProtectionSpaceGetIsProxy
__ZNK6WebKit18WebProtectionSpace7isProxyEv
_WKProtectionSpaceGetAuthenticationScheme
__ZNK6WebKit18WebProtectionSpace20authenticationSchemeEv
__ZN6WebKit18WebProtectionSpaceD0Ev
__ZN6WebKit15StorageAreaImpl6lengthEv
__ZN6WebKit14StorageAreaMap6lengthEv
__ZN6WebKit15StorageAreaImpl3keyEj
__ZN6WebKit14StorageAreaMap3keyEj
_WKFilterIsManagedSession
_initWebFilterEvaluator
__ZN7CoreIPC6encodeERNS_15ArgumentEncoderEP23OpaqueSecCertificateRef
__ZN7CoreIPC6decodeERNS_15ArgumentDecoderERN3WTF9RetainPtrIP23OpaqueSecCertificateRefEE
__ZNK7WebCore17FrameLoaderClient32willCheckAndDispatchMessageEventEPNS_14SecurityOriginEPNS_12MessageEventE
__ZThn120_N6WebKit21WebPlatformStrategies30transientLocalStorageNamespaceEPN7WebCore9PageGroupEPNS1_14SecurityOriginE
__ZN3WTF9HashTableIyNS_12KeyValuePairIyPN6WebKit8WebFrameEEENS_24KeyValuePairKeyExtractorIS5_EENS_7IntHashIyEENS_18HashMapValueTraitsINS_10HashTraitsIyEENSB_IS4_EEEESC_E16lookupForWritingINS_22IdentityHashTranslatorIS9_EEyEENSt3__14pairIPS5_bEERKT0_
__ZN3WTF9HashTableIyNS_12KeyValuePairIyPN6WebKit8WebFrameEEENS_24KeyValuePairKeyExtractorIS5_EENS_7IntHashIyEENS_18HashMapValueTraitsINS_10HashTraitsIyEENSB_IS4_EEEESC_E3addINS_17HashMapTranslatorISE_S9_EEyS4_EENS_18HashTableAddResultINS_17HashTableIteratorIyS5_S7_S9_SE_SC_EEEERKT0_RKT1_
__ZN3WTF9HashTableIyNS_12KeyValuePairIyPN6WebKit8WebFrameEEENS_24KeyValuePairKeyExtractorIS5_EENS_7IntHashIyEENS_18HashMapValueTraitsINS_10HashTraitsIyEENSB_IS4_EEEESC_E4findINS_22IdentityHashTranslatorIS9_EEyEENS_17HashTableIteratorIyS5_S7_S9_SE_SC_EERKT0_
__ZN3WTF9HashTableIyNS_12KeyValuePairIyPN6WebKit8WebFrameEEENS_24KeyValuePairKeyExtractorIS5_EENS_7IntHashIyEENS_18HashMapValueTraitsINS_10HashTraitsIyEENSB_IS4_EEEESC_E6expandEv
__ZN3WTF9HashTableIyNS_12KeyValuePairIyPN6WebKit8WebFrameEEENS_24KeyValuePairKeyExtractorIS5_EENS_7IntHashIyEENS_18HashMapValueTraitsINS_10HashTraitsIyEENSB_IS4_EEEESC_E6lookupINS_22IdentityHashTranslatorIS9_EEyEEPS5_RKT0_
__ZN3WTF9HashTableIyNS_12KeyValuePairIyPN6WebKit8WebFrameEEENS_24KeyValuePairKeyExtractorIS5_EENS_7IntHashIyEENS_18HashMapValueTraitsINS_10HashTraitsIyEENSB_IS4_EEEESC_E6rehashEi
__ZN3WTF9HashTableIyNS_12KeyValuePairIyPN6WebKit8WebFrameEEENS_24KeyValuePairKeyExtractorIS5_EENS_7IntHashIyEENS_18HashMapValueTraitsINS_10HashTraitsIyEENSB_IS4_EEEESC_E6removeEPS5_
-[WKView resignFirstResponder]
-[WKView(Internal) _notifyInputContextAboutDiscardedComposition]
__ZN6WebKit15WebEditorClient22textFieldDidEndEditingEPN7WebCore7ElementE
__ZN6WebKit28InjectedBundlePageFormClient22textFieldDidEndEditingEPNS_7WebPageEPN7WebCore16HTMLInputElementEPNS_8WebFrameE
-[WKView acceptsFirstResponder]
__ZN3WTF5DequeINS_6OwnPtrIN7CoreIPC14MessageDecoderEEELm0EE6removeEm
__ZN6WebKit12WebPageProxy14clearSelectionEv
__ZN6WebKit17ChildProcessProxy4sendIN8Messages7WebPage14ClearSelectionEEEbRKT_yj
__ZN7CoreIPC10Connection29waitForAndDispatchImmediatelyIN8Messages16DrawingAreaProxy17DidUpdateGeometryEEEbyd
__ZN3WTF9HashTableIyNS_12KeyValuePairIyNS_6RefPtrIN6WebKit13WebFrameProxyEEEEENS_24KeyValuePairKeyExtractorIS6_EENS_7IntHashIyEENS_18HashMapValueTraitsINS_10HashTraitsIyEENSC_IS5_EEEESD_E15deallocateTableEPS6_i
__ZN3WTF9HashTableIyNS_12KeyValuePairIyNS_6RefPtrIN6WebKit13WebFrameProxyEEEEENS_24KeyValuePairKeyExtractorIS6_EENS_7IntHashIyEENS_18HashMapValueTraitsINS_10HashTraitsIyEENSC_IS5_EEEESD_E16lookupForWritingINS_22IdentityHashTranslatorISA_EEyEENSt3__14pairIPS6_bEERKT0_
__ZN3WTF9HashTableIyNS_12KeyValuePairIyNS_6RefPtrIN6WebKit13WebFrameProxyEEEEENS_24KeyValuePairKeyExtractorIS6_EENS_7IntHashIyEENS_18HashMapValueTraitsINS_10HashTraitsIyEENSC_IS5_EEEESD_E3addINS_17HashMapTranslatorISF_SA_EEyNS_10PassRefPtrIS4_EEEENS_18HashTableAddResultINS_17HashTableIteratorIyS6_S8_SA_SF_SD_EEEERKT0_RKT1_
__ZN3WTF9HashTableIyNS_12KeyValuePairIyNS_6RefPtrIN6WebKit13WebFrameProxyEEEEENS_24KeyValuePairKeyExtractorIS6_EENS_7IntHashIyEENS_18HashMapValueTraitsINS_10HashTraitsIyEENSC_IS5_EEEESD_E4findINS_22IdentityHashTranslatorISA_EEyEENS_17HashTableIteratorIyS6_S8_SA_SF_SD_EERKT0_
__ZN3WTF9HashTableIyNS_12KeyValuePairIyNS_6RefPtrIN6WebKit13WebFrameProxyEEEEENS_24KeyValuePairKeyExtractorIS6_EENS_7IntHashIyEENS_18HashMapValueTraitsINS_10HashTraitsIyEENSC_IS5_EEEESD_E6expandEv
__ZN3WTF9HashTableIyNS_12KeyValuePairIyNS_6RefPtrIN6WebKit13WebFrameProxyEEEEENS_24KeyValuePairKeyExtractorIS6_EENS_7IntHashIyEENS_18HashMapValueTraitsINS_10HashTraitsIyEENSC_IS5_EEEESD_E6lookupINS_22IdentityHashTranslatorISA_EEyEEPS6_RKT0_
__ZN3WTF9HashTableIyNS_12KeyValuePairIyNS_6RefPtrIN6WebKit13WebFrameProxyEEEEENS_24KeyValuePairKeyExtractorIS6_EENS_7IntHashIyEENS_18HashMapValueTraitsINS_10HashTraitsIyEENSC_IS5_EEEESD_E6rehashEi
__ZN3WTF9HashTableIyNS_12KeyValuePairIyNS_6RefPtrIN6WebKit13WebFrameProxyEEEEENS_24KeyValuePairKeyExtractorIS6_EENS_7IntHashIyEENS_18HashMapValueTraitsINS_10HashTraitsIyEENSC_IS5_EEEESD_E6removeEPS6_
__ZN7WebCore12ChromeClient14elementDidBlurEPKNS_4NodeE
__ZN6WebKit7WebPage14clearSelectionEv
__ZN6WebKit20WebFrameLoaderClient33dispatchWillPerformClientRedirectERKN7WebCore4KURLEdd
__ZN6WebKit30InjectedBundlePageLoaderClient33willPerformClientRedirectForFrameEPNS_7WebPageEPNS_8WebFrameERKN3WTF6StringEdd
__ZN6WebKit21WebFrameListenerProxy10invalidateEv
__ZN6WebKit27WebFramePolicyListenerProxyD0Ev
__ZN6WebKit21WebFrameListenerProxyD2Ev
__ZN6WebKitL22omitProcessSuppressionEv
__ZN7CoreIPC10Connection4sendIN8Messages10WebProcess28SetProcessSuppressionEnabledEEEbRKT_yj
_WebFilterEvaluatorFunction
__ZNK6WebKit20WebFrameLoaderClient12canCachePageEv
__ZN6WebKit23WebBackForwardListProxy8isActiveEv
__ZNK7WebCore14DocumentLoader35clientRedirectDestinationForHistoryEv
__ZN7CoreIPC10Connection4sendIN8Messages15WebProcessProxy24DidPerformClientRedirectEEEbRKT_yj
__ZN6WebKit20WebFrameLoaderClient31dispatchDidCancelClientRedirectEv
__ZN6WebKit30InjectedBundlePageLoaderClient31didCancelClientRedirectForFrameEPNS_7WebPageEPNS_8WebFrameE
__ZN7CoreIPC13handleMessageIN8Messages15WebProcessProxy24DidPerformClientRedirectEN6WebKit15WebProcessProxyEMS5_FvyRKN3WTF6StringES9_yEEEvRNS_14MessageDecoderEPT0_T1_
__ZN6WebKit15WebProcessProxy24didPerformClientRedirectEyRKN3WTF6StringES4_y
__ZN6WebKit16WebHistoryClient24didPerformClientRedirectEPNS_10WebContextEPNS_12WebPageProxyERKN3WTF6StringES8_PNS_13WebFrameProxyE
__ZN6WebKit7WebPage18reportUsedFeaturesEv
__ZN6WebKit30InjectedBundlePageLoaderClient18featuresUsedInPageEPNS_7WebPageERKN3WTF6VectorINS3_6StringELm0ENS3_15CrashOnOverflowEEE
__ZN6WebKit18WebCertificateInfoD0Ev
__ZN6WebKit20WebFrameLoaderClient22dispatchDidChangeIconsEN7WebCore8IconTypeE
_WKFrameGetCertificateInfo
_WKCertificateInfoGetCertificateChain
__ZN6WebKit15WebChromeClient35selectItemWritingDirectionIsNaturalEv
__ZN6WebKit15WebChromeClient46selectItemAlignmentFollowsMenuWritingDirectionEv
__ZN7WebCore17FrameLoaderClient13didChangeNameERKN3WTF6StringE
__ZN7WebCore18SecurityOriginHash5equalERKN3WTF6RefPtrINS_14SecurityOriginEEES6_
__ZN6WebKit20WebFrameLoaderClient33dispatchDidReplaceStateWithinPageEv
__ZN6WebKit30InjectedBundlePageLoaderClient33didSameDocumentNavigationForFrameEPNS_7WebPageEPNS_8WebFrameENS_26SameDocumentNavigationTypeERN3WTF6RefPtrINS_9APIObjectEEE
__ZN7CoreIPC13MessageSender4sendIN8Messages12WebPageProxy33DidSameDocumentNavigationForFrameEEEbRKT_y
__ZNK7CoreIPC10Arguments4IyjRKN3WTF6StringERKN6WebKit32InjectedBundleUserMessageEncoderEE6encodeERNS_15ArgumentEncoderE
__ZN7CoreIPC21handleMessageVariadicIN8Messages12WebPageProxy33DidSameDocumentNavigationForFrameEN6WebKit12WebPageProxyEMS5_FvyjRKN3WTF6StringERNS_14MessageDecoderEEEEvSB_PT0_T1_
__ZN7CoreIPC10Arguments3IyjN3WTF6StringEE6decodeERNS_15ArgumentDecoderERS3_
__ZN6WebKit12WebPageProxy33didSameDocumentNavigationForFrameEyjRKN3WTF6StringERN7CoreIPC14MessageDecoderE
__ZN6WebKit13WebFrameProxy25didSameDocumentNavigationERKN3WTF6StringE
__ZN6WebKit15WebLoaderClient33didSameDocumentNavigationForFrameEPNS_12WebPageProxyEPNS_13WebFrameProxyENS_26SameDocumentNavigationTypeEPNS_9APIObjectE
__ZN6WebKit24WebAlternativeTextClient18dismissAlternativeEN7WebCore34ReasonForDismissingAlternativeTextE
__ZN7CoreIPC13MessageSender4sendIN8Messages12WebPageProxy22DismissCorrectionPanelEEEbRKT_y
_WKFrameGetTypeID
__ZN6WebKit12WebPageProxy22dismissCorrectionPanelEi
_WKDrawFocusRing
__ZN6WebKit15WebChromeClient9setCursorERKN7WebCore6CursorE
__ZN7CoreIPC13MessageSender4sendIN8Messages12WebPageProxy9SetCursorEEEbRKT_y
__ZN7CoreIPC13ArgumentCoderIN7WebCore6CursorEE6encodeERNS_15ArgumentEncoderERKS2_
__ZN7CoreIPC13handleMessageIN8Messages12WebPageProxy9SetCursorEN6WebKit12WebPageProxyEMS5_FvRKN7WebCore6CursorEEEEvRNS_14MessageDecoderEPT0_T1_
__ZN7CoreIPC13ArgumentCoderIN7WebCore6CursorEE6decodeERNS_15ArgumentDecoderERS2_
__ZN6WebKit12WebPageProxy9setCursorERKN7WebCore6CursorE
__ZN6WebKit14PageClientImpl9setCursorERKN7WebCore6CursorE
-[WKView(Internal) _setCursor:]
__ZN3WTF6OwnPtrIN6WebKit19NativeWebMouseEventEEaSEDn
__ZThn104_N6WebKit15WebProcessProxy36interactionOccurredWhileUnresponsiveEPNS_19ResponsivenessTimerE
__ZN6WebKit15WebProcessProxy36interactionOccurredWhileUnresponsiveEPNS_19ResponsivenessTimerE
__ZN6WebKit12WebPageProxy43interactionOccurredWhileProcessUnresponsiveEv
__ZN6WebKit15WebLoaderClient43interactionOccurredWhileProcessUnresponsiveEPNS_12WebPageProxyE
__ZN6WebKit15WebChromeClient34notifyScrollerThumbIsVisibleInRectERKN7WebCore7IntRectE
__ZN7CoreIPC13MessageSender4sendIN8Messages12WebPageProxy34NotifyScrollerThumbIsVisibleInRectEEEbRKT_y
__ZN6WebKit12WebPageProxy34notifyScrollerThumbIsVisibleInRectERKN7WebCore7IntRectE
__ZThn16_N6WebKit15WebIconDatabase23didChangeIconForPageURLERKN3WTF6StringE
__ZN6WebKit12WebPageProxy18didSaveToPageCacheEv
__ZN6WebKit15WebProcessProxy18didSaveToPageCacheEv
__ZN6WebKit10WebContext19processDidCachePageEPNS_15WebProcessProxyE
__ZN7CoreIPC13handleMessageIN8Messages15WebIconDatabase21SetIconDataForIconURLEN6WebKit15WebIconDatabaseEMS5_FvRKNS_13DataReferenceERKN3WTF6StringEEEEvRNS_14MessageDecoderEPT0_T1_
__ZN7CoreIPC10Arguments2INS_13DataReferenceEN3WTF6StringEE6decodeERNS_15ArgumentDecoderERS4_
__ZN6WebKit15WebIconDatabase21setIconDataForIconURLERKN7CoreIPC13DataReferenceERKN3WTF6StringE
__ZN7CoreIPC13handleMessageIN8Messages15WebIconDatabase24DidReceiveIconForPageURLEN6WebKit15WebIconDatabaseEMS5_FvRKN3WTF6StringEEEEvRNS_14MessageDecoderEPT0_T1_
__ZN6WebKit15WebIconDatabase24didReceiveIconForPageURLERKN3WTF6StringE
__ZN6WebKit18PluginProcessProxy22createPropertyListFileERKNS_16PluginModuleInfoE
__ZN6WebKit33DynamicLinkerEnvironmentExtractorC1EP8NSStringi
__ZN6WebKit33DynamicLinkerEnvironmentExtractorC2EP8NSStringi
__ZN3WTF9RetainPtrI8NSStringEC2EPS1_
__ZN6WebKit33DynamicLinkerEnvironmentExtractor25processSingleArchitectureEPKvm
__ZN6WebKit33DynamicLinkerEnvironmentExtractor19processLoadCommandsEPKvmib
__ZN6WebKit33DynamicLinkerEnvironmentExtractor18processLoadCommandEPKvmb
__ZN3WTF6VectorIcLm256ENS_15CrashOnOverflowEE15reserveCapacityEm
__ZN3WTF6VectorIcLm256ENS_15CrashOnOverflowEE6appendIcEEvPKT_m
__ZN6WebKit33DynamicLinkerEnvironmentExtractor26processEnvironmentVariableEPKc
__ZN3WTF6VectorINSt3__14pairINS_7CStringES3_EELm0ENS_15CrashOnOverflowEE14appendSlowCaseIS4_EEvRKT_
__ZN3WTF6VectorINSt3__14pairINS_7CStringES3_EELm0ENS_15CrashOnOverflowEE14expandCapacityEmPKS4_
__ZN3WTF6VectorINSt3__14pairINS_7CStringES3_EELm0ENS_15CrashOnOverflowEE15reserveCapacityEm
__ZN3WTF16VectorBufferBaseINSt3__14pairINS_7CStringES3_EEE14allocateBufferEm
__ZN3WTF11VectorMoverILb0ENSt3__14pairINS_7CStringES3_EEE4moveEPKS4_S7_PS4_
__ZN3WTF12VectorBufferIcLm256EE16deallocateBufferEPc
__ZNK6WebKit33DynamicLinkerEnvironmentExtractor32getExtractedEnvironmentVariablesERNS_20EnvironmentVariablesE
__ZN6WebKit20EnvironmentVariables3setEPKcS2_
__ZN6WebKit20EnvironmentVariables24copyEnvironmentVariablesEv
__ZN3WTF6VectorIPcLm0ENS_15CrashOnOverflowEE14appendSlowCaseIS1_EEvRKT_
__ZN3WTF6VectorIPcLm0ENS_15CrashOnOverflowEE14expandCapacityEmPKS1_
__ZN3WTF6VectorIPcLm0ENS_15CrashOnOverflowEE15reserveCapacityEm
__ZN3WTF16VectorBufferBaseIPcE14allocateBufferEm
__ZN6WebKit20EnvironmentVariables23createStringForVariableEPKcS2_
__ZN7CoreIPC13handleMessageIN8Messages12WebPageProxy10FindPluginEN6WebKit12WebPageProxyEMS5_FvRKN3WTF6StringEjS9_S9_S9_bRyRS7_RjSB_EEEvRNS_14MessageDecoderERNS_14MessageEncoderEPT0_T1_
__ZN7CoreIPC10Arguments6IN3WTF6StringEjS2_S2_S2_bE6decodeERNS_15ArgumentDecoderERS3_
__ZN7CoreIPC10Arguments5IN3WTF6StringEjS2_S2_S2_E6decodeERNS_15ArgumentDecoderERS3_
__ZN7CoreIPC10Arguments4IN3WTF6StringEjS2_S2_E6decodeERNS_15ArgumentDecoderERS3_
__ZN7CoreIPC10Arguments3IN3WTF6StringEjS2_E6decodeERNS_15ArgumentDecoderERS3_
__ZN7CoreIPC10Arguments2IN3WTF6StringEjE6decodeERNS_15ArgumentDecoderERS3_
__ZN7CoreIPC18callMemberFunctionIN6WebKit12WebPageProxyEMS2_FvRKN3WTF6StringEjS6_S6_S6_bRyRS4_RjS8_ES4_jS4_S4_S4_byS4_jS4_EEvRKNS_10Arguments6IT1_T2_T3_T4_T5_T6_EERNS_10Arguments4IT7_T8_T9_T10_EEPT_T0_
__ZN6WebKit12WebPageProxy10findPluginERKN3WTF6StringEjS4_S4_S4_bRyRS2_RjS6_
__ZN6WebKit15PluginInfoStore10findPluginERN3WTF6StringERKN7WebCore4KURLENS4_10PluginData18AllowedPluginTypesE
__ZNK6WebKit15PluginInfoStore21findPluginForMIMETypeERKN3WTF6StringEN7WebCore10PluginData18AllowedPluginTypesE
__ZN6WebKit15PluginInfoStore26defaultLoadPolicyForPluginERKNS_16PluginModuleInfoE
_WKShouldBlockPlugin
__ZN15PluginBlacklist17shouldBlockPluginEP8NSStringS1_
____ZL30initializePluginBlacklistQueuev_block_invoke
____ZN15PluginBlacklist17shouldBlockPluginEP8NSStringS1__block_invoke
__ZL32reloadPluginBlacklistIfNecessaryv
__ZN15PluginBlacklist6createEP8NSStringP11objc_object
__ZN15PluginBlacklist14splitOSVersionEP8NSString
__ZN15PluginBlacklistC2EP12NSDictionaryS1_P5NSSet
__ZNK15PluginBlacklist11shouldBlockEP8NSStringS1_
__ZN6WebKit33createPluginInformationDictionaryERKNS_16PluginModuleInfoERKN3WTF6StringES6_S6_S6_S6_b
__ZN6WebKit26getPluginModuleInformationERKNS_16PluginModuleInfoERN3WTF7HashMapINS3_6StringENS3_6RefPtrINS_9APIObjectEEENS3_10StringHashENS3_10HashTraitsIS5_EENSA_IS8_EEEE
__ZN6WebKit34getPlatformPluginModuleInformationERKNS_16PluginModuleInfoERN3WTF7HashMapINS3_6StringENS3_6RefPtrINS_9APIObjectEEENS3_10StringHashENS3_10HashTraitsIS5_EENSA_IS8_EEEE
__ZN6WebKit36pluginInformationBundleIdentifierKeyEv
__ZN6WebKit33pluginInformationBundleVersionKeyEv
__ZN6WebKit38pluginInformationBundleShortVersionKeyEv
__ZN6WebKit64pluginInformationUpdatePastLastBlockedVersionIsKnownAvailableKeyEv
_WKIsPluginUpdateAvailable
__ZN15PluginBlacklist23isPluginUpdateAvailableEP8NSString
____ZN15PluginBlacklist23isPluginUpdateAvailableEP8NSString_block_invoke
__ZN6WebKit37pluginInformationHasSandboxProfileKeyEv
__ZN6WebKit23pluginHasSandboxProfileERKN3WTF6StringE
__ZN6WebKitL24pluginSandboxProfileNameERKN3WTF6StringE
__ZN3WTF6String7replaceEtt
__ZN6WebKitL31pluginSandboxProfileDirectoriesEv
__ZN6WebKit15WebLoaderClient16pluginLoadPolicyEPNS_12WebPageProxyENS_22PluginModuleLoadPolicyEPNS_19ImmutableDictionaryERN3WTF6StringE
_WKPluginInformationBundleIdentifierKey
_WKPluginInformationPathKey
__ZN6WebKit24pluginInformationPathKeyEv
_WKPluginInformationBundleVersionKey
_WKPluginInformationDefaultLoadPolicyKey
__ZN6WebKit37pluginInformationDefaultLoadPolicyKeyEv
_WKPluginInformationUpdatePastLastBlockedVersionIsKnownAvailableKey
_WKPluginInformationHasSandboxProfileKey
_WKPluginInformationPageURLKey
__ZN6WebKit27pluginInformationPageURLKeyEv
__ZN6WebKit20PluginProcessManager6sharedEv
__ZN6WebKit20PluginProcessManager18pluginProcessTokenERKNS_16PluginModuleInfoENS_17PluginProcessTypeENS_26PluginProcessSandboxPolicyE
__ZN3WTF6VectorIN7WebCore13MimeClassInfoELm0ENS_15CrashOnOverflowEEaSERKS4_
__ZN3WTF6VectorINSt3__14pairIN6WebKit23PluginProcessAttributesEyEELm0ENS_15CrashOnOverflowEE14appendSlowCaseIS5_EEvRKT_
__ZN3WTF6VectorINSt3__14pairIN6WebKit23PluginProcessAttributesEyEELm0ENS_15CrashOnOverflowEE14expandCapacityEmPKS5_
__ZN3WTF6VectorINSt3__14pairIN6WebKit23PluginProcessAttributesEyEELm0ENS_15CrashOnOverflowEE15reserveCapacityEm
__ZN3WTF16VectorBufferBaseINSt3__14pairIN6WebKit23PluginProcessAttributesEyEEE14allocateBufferEm
__ZN3WTF11VectorMoverILb0ENSt3__14pairIN6WebKit23PluginProcessAttributesEyEEE4moveEPKS5_S8_PS5_
__ZNK7CoreIPC10Arguments3IyN3WTF6StringEjE6encodeERNS_15ArgumentEncoderE
__ZN7CoreIPC20handleMessageDelayedIN8Messages15WebProcessProxy26GetPluginProcessConnectionEN6WebKit15WebProcessProxyEMS5_FvyN3WTF10PassRefPtrINS3_12DelayedReplyEEEEEEvPNS_10ConnectionERNS_14MessageDecoderERNS6_6OwnPtrINS_14MessageEncoderEEEPT0_T1_
__ZN7CoreIPC18callMemberFunctionIN6WebKit15WebProcessProxyEMS2_FvyN3WTF10PassRefPtrIN8Messages15WebProcessProxy26GetPluginProcessConnection12DelayedReplyEEEEyS8_EEvRKNS_10Arguments1IT1_EENS4_IT2_EEPT_T0_
__ZN6WebKit15WebProcessProxy26getPluginProcessConnectionEyN3WTF10PassRefPtrIN8Messages15WebProcessProxy26GetPluginProcessConnection12DelayedReplyEEE
__ZN6WebKit20PluginProcessManager26getPluginProcessConnectionEyN3WTF10PassRefPtrIN8Messages15WebProcessProxy26GetPluginProcessConnection12DelayedReplyEEE
__ZN6WebKit20PluginProcessManager24getOrCreatePluginProcessEy
__ZN6WebKit18PluginProcessProxy6createEPNS_20PluginProcessManagerERKNS_23PluginProcessAttributesEy
__ZN6WebKit18PluginProcessProxyC2EPNS_20PluginProcessManagerERKNS_23PluginProcessAttributesEy
__ZN6WebKit18PluginProcessProxy16getLaunchOptionsERNS_15ProcessLauncher13LaunchOptionsE
__ZN6WebKit18PluginProcessProxy24platformGetLaunchOptionsERNS_15ProcessLauncher13LaunchOptionsERKNS_23PluginProcessAttributesE
__ZN6WebKit18PluginProcessProxy25pluginNeedsExecutableHeapERKNS_16PluginModuleInfoE
__ZN3WTF6VectorINS_6RefPtrIN6WebKit18PluginProcessProxyEEELm0ENS_15CrashOnOverflowEE14appendSlowCaseINS_10PassRefPtrIS3_EEEEvRKT_
__ZN3WTF6VectorINS_6RefPtrIN6WebKit18PluginProcessProxyEEELm0ENS_15CrashOnOverflowEE15reserveCapacityEm
__ZN6WebKitL27addDYLDEnvironmentAdditionsERKNS_15ProcessLauncher13LaunchOptionsEbRNS_20EnvironmentVariablesE
__ZN3WTF16VectorBufferBaseINS_6RefPtrIN6WebKit18PluginProcessProxyEEEE14allocateBufferEm
__ZN6WebKit18PluginProcessProxy26getPluginProcessConnectionEN3WTF10PassRefPtrIN8Messages15WebProcessProxy26GetPluginProcessConnection12DelayedReplyEEE
__ZN3WTF5DequeINS_6RefPtrIN8Messages15WebProcessProxy26GetPluginProcessConnection12DelayedReplyEEELm0EE22expandCapacityIfNeededEv
__ZN3WTF5DequeINS_6RefPtrIN8Messages15WebProcessProxy26GetPluginProcessConnection12DelayedReplyEEELm0EE14expandCapacityEv
__ZN3WTF16VectorBufferBaseINS_6RefPtrIN8Messages15WebProcessProxy26GetPluginProcessConnection12DelayedReplyEEEE14allocateBufferEm
__ZN6WebKit20EnvironmentVariables11appendValueEPKcS2_c
__ZN3WTF6VectorINSt3__14pairINS_7CStringES3_EELm0ENS_15CrashOnOverflowEED2Ev
__ZN3WTF6VectorINSt3__14pairINS_7CStringES3_EELm0ENS_15CrashOnOverflowEE6shrinkEm
__ZN6WebKit15ProcessLauncher19processTypeAsStringENS0_11ProcessTypeE
__ZNK3WTF12StringAppendIPKcNS_6StringEEcvS3_Ev
__ZN3WTF6VectorINS_7CStringELm0ENS_15CrashOnOverflowEE14appendSlowCaseIS1_EEvRKT_
__ZN3WTF6VectorINS_7CStringELm0ENS_15CrashOnOverflowEE14expandCapacityEmPKS1_
__ZN3WTF6VectorINS_7CStringELm0ENS_15CrashOnOverflowEE15reserveCapacityEm
__ZN3WTF16VectorBufferBaseINS_7CStringEE14allocateBufferEm
__ZN3WTF11VectorMoverILb0ENS_7CStringEE4moveEPKS1_S4_PS1_
__ZN3WTF6VectorINS_7CStringELm0ENS_15CrashOnOverflowEED2Ev
__ZN3WTF6VectorINS_7CStringELm0ENS_15CrashOnOverflowEE6shrinkEm
__ZN6WebKit18PluginProcessProxy18didFinishLaunchingEPNS_15ProcessLauncherEN7CoreIPC10Connection10IdentifierE
__ZN6WebKit31PluginProcessCreationParametersC1Ev
__ZN6WebKit18PluginProcessProxy31platformInitializePluginProcessERNS_31PluginProcessCreationParametersE
__ZN7CoreIPC10Connection4sendIN8Messages13PluginProcess23InitializePluginProcessEEEbRKT_yj
__ZNK6WebKit31PluginProcessCreationParameters6encodeERN7CoreIPC15ArgumentEncoderE
__ZN3WTF6VectorIyLm0ENS_15CrashOnOverflowEE14shrinkCapacityEm
__ZN3WTF6VectorIN6WebKit18PluginProcessProxy20ClearSiteDataRequestELm0ENS_15CrashOnOverflowEE14shrinkCapacityEm
__ZN7CoreIPC10Connection4sendIN8Messages13PluginProcess26CreateWebProcessConnectionEEEbRKT_yj
__ZN6WebKit10WebContext50canEnableProcessSuppressionForGlobalChildProcessesEv
__ZThn8_N6WebKit18PluginProcessProxy17didReceiveMessageEPN7CoreIPC10ConnectionERNS1_14MessageDecoderE
__ZN6WebKit18PluginProcessProxy17didReceiveMessageEPN7CoreIPC10ConnectionERNS1_14MessageDecoderE
__ZN7CoreIPC13handleMessageIN8Messages18PluginProcessProxy29DidCreateWebProcessConnectionEN6WebKit18PluginProcessProxyEMS5_FvRKNS_10AttachmentEbEEEvRNS_14MessageDecoderEPT0_T1_
__ZN7CoreIPC10Arguments2INS_10AttachmentEbE6decodeERNS_15ArgumentDecoderERS2_
__ZN6WebKit18PluginProcessProxy29didCreateWebProcessConnectionERKN7CoreIPC10AttachmentEb
__ZN3WTF5DequeINS_6RefPtrIN8Messages15WebProcessProxy26GetPluginProcessConnection12DelayedReplyEEELm0EE11removeFirstEv
__ZN8Messages15WebProcessProxy26GetPluginProcessConnection12DelayedReply4sendERKN7CoreIPC10AttachmentEb
__ZN3WTF20ThreadSafeRefCountedIN8Messages15WebProcessProxy26GetPluginProcessConnection12DelayedReplyEE5derefEv
__ZN8Messages15WebProcessProxy26GetPluginProcessConnection12DelayedReplyD1Ev
__ZN8Messages15WebProcessProxy26GetPluginProcessConnection12DelayedReplyD2Ev
__ZN7CoreIPC13handleMessageIN8Messages12WebPageProxy31PluginFocusOrWindowFocusChangedEN6WebKit12WebPageProxyEMS5_FvybEEEvRNS_14MessageDecoderEPT0_T1_
__ZN7CoreIPC10Arguments2IybE6decodeERNS_15ArgumentDecoderERS1_
__ZN6WebKit12WebPageProxy31pluginFocusOrWindowFocusChangedEyb
__ZN6WebKit14PageClientImpl31pluginFocusOrWindowFocusChangedEyb
-[WKView(Internal) _pluginFocusOrWindowFocusChanged:pluginComplexTextInputIdentifier:]
__ZN6WebKit12WebPageProxy24backForwardBackListCountERi
__ZN6WebKit12WebPageProxy27backForwardForwardListCountERi
__ZN6WebKit15WebProcessProxy23enableSuddenTerminationEv
__ZN6WebKit12WebPageProxy27didRemoveFrameFromHierarchyEyRN7CoreIPC14MessageDecoderE
__ZN6WebKit15WebLoaderClient27didRemoveFrameFromHierarchyEPNS_12WebPageProxyEPNS_13WebFrameProxyEPNS_9APIObjectE
__ZN3WTF9HashTableIyNS_12KeyValuePairIyNS_6RefPtrIN6WebKit7WebPageEEEEENS_24KeyValuePairKeyExtractorIS6_EENS_7IntHashIyEENS_18HashMapValueTraitsINS_10HashTraitsIyEENSC_IS5_EEEESD_E15deallocateTableEPS6_i
__ZN3WTF9HashTableIyNS_12KeyValuePairIyNS_6RefPtrIN6WebKit7WebPageEEEEENS_24KeyValuePairKeyExtractorIS6_EENS_7IntHashIyEENS_18HashMapValueTraitsINS_10HashTraitsIyEENSC_IS5_EEEESD_E16lookupForWritingINS_22IdentityHashTranslatorISA_EEyEENSt3__14pairIPS6_bEERKT0_
__ZN3WTF9HashTableIyNS_12KeyValuePairIyNS_6RefPtrIN6WebKit7WebPageEEEEENS_24KeyValuePairKeyExtractorIS6_EENS_7IntHashIyEENS_18HashMapValueTraitsINS_10HashTraitsIyEENSC_IS5_EEEESD_E3addINS_17HashMapTranslatorISF_SA_EEyNS_10PassRefPtrIS4_EEEENS_18HashTableAddResultINS_17HashTableIteratorIyS6_S8_SA_SF_SD_EEEERKT0_RKT1_
__ZN3WTF9HashTableIyNS_12KeyValuePairIyNS_6RefPtrIN6WebKit7WebPageEEEEENS_24KeyValuePairKeyExtractorIS6_EENS_7IntHashIyEENS_18HashMapValueTraitsINS_10HashTraitsIyEENSC_IS5_EEEESD_E4findINS_22IdentityHashTranslatorISA_EEyEENS_17HashTableIteratorIyS6_S8_SA_SF_SD_EERKT0_
__ZN3WTF9HashTableIyNS_12KeyValuePairIyNS_6RefPtrIN6WebKit7WebPageEEEEENS_24KeyValuePairKeyExtractorIS6_EENS_7IntHashIyEENS_18HashMapValueTraitsINS_10HashTraitsIyEENSC_IS5_EEEESD_E6expandEv
__ZN3WTF9HashTableIyNS_12KeyValuePairIyNS_6RefPtrIN6WebKit7WebPageEEEEENS_24KeyValuePairKeyExtractorIS6_EENS_7IntHashIyEENS_18HashMapValueTraitsINS_10HashTraitsIyEENSC_IS5_EEEESD_E6lookupINS_22IdentityHashTranslatorISA_EEyEEPS6_RKT0_
__ZN3WTF9HashTableIyNS_12KeyValuePairIyNS_6RefPtrIN6WebKit7WebPageEEEEENS_24KeyValuePairKeyExtractorIS6_EENS_7IntHashIyEENS_18HashMapValueTraitsINS_10HashTraitsIyEENSC_IS5_EEEESD_E6rehashEi
__ZN3WTF9HashTableIyNS_12KeyValuePairIyNS_6RefPtrIN6WebKit7WebPageEEEEENS_24KeyValuePairKeyExtractorIS6_EENS_7IntHashIyEENS_18HashMapValueTraitsINS_10HashTraitsIyEENSC_IS5_EEEESD_E6removeEPS6_
__ZN3WTF9HashTableIyNS_12KeyValuePairIyNS_6RefPtrIN7WebCore13ScrollingTreeEEEEENS_24KeyValuePairKeyExtractorIS6_EENS_7IntHashIyEENS_18HashMapValueTraitsINS_10HashTraitsIyEENSC_IS5_EEEESD_E15deallocateTableEPS6_i
__ZN3WTF9HashTableIyNS_12KeyValuePairIyNS_6RefPtrIN7WebCore13ScrollingTreeEEEEENS_24KeyValuePairKeyExtractorIS6_EENS_7IntHashIyEENS_18HashMapValueTraitsINS_10HashTraitsIyEENSC_IS5_EEEESD_E16lookupForWritingINS_22IdentityHashTranslatorISA_EEyEENSt3__14pairIPS6_bEERKT0_
__ZN3WTF9HashTableIyNS_12KeyValuePairIyNS_6RefPtrIN7WebCore13ScrollingTreeEEEEENS_24KeyValuePairKeyExtractorIS6_EENS_7IntHashIyEENS_18HashMapValueTraitsINS_10HashTraitsIyEENSC_IS5_EEEESD_E3addINS_17HashMapTranslatorISF_SA_EEyNS_10PassRefPtrIS4_EEEENS_18HashTableAddResultINS_17HashTableIteratorIyS6_S8_SA_SF_SD_EEEERKT0_RKT1_
__ZN3WTF9HashTableIyNS_12KeyValuePairIyNS_6RefPtrIN7WebCore13ScrollingTreeEEEEENS_24KeyValuePairKeyExtractorIS6_EENS_7IntHashIyEENS_18HashMapValueTraitsINS_10HashTraitsIyEENSC_IS5_EEEESD_E4findINS_22IdentityHashTranslatorISA_EEyEENS_17HashTableIteratorIyS6_S8_SA_SF_SD_EERKT0_
__ZN3WTF9HashTableIyNS_12KeyValuePairIyNS_6RefPtrIN7WebCore13ScrollingTreeEEEEENS_24KeyValuePairKeyExtractorIS6_EENS_7IntHashIyEENS_18HashMapValueTraitsINS_10HashTraitsIyEENSC_IS5_EEEESD_E6expandEv
__ZN3WTF9HashTableIyNS_12KeyValuePairIyNS_6RefPtrIN7WebCore13ScrollingTreeEEEEENS_24KeyValuePairKeyExtractorIS6_EENS_7IntHashIyEENS_18HashMapValueTraitsINS_10HashTraitsIyEENSC_IS5_EEEESD_E6lookupINS_22IdentityHashTranslatorISA_EEyEEPS6_RKT0_
__ZN3WTF9HashTableIyNS_12KeyValuePairIyNS_6RefPtrIN7WebCore13ScrollingTreeEEEEENS_24KeyValuePairKeyExtractorIS6_EENS_7IntHashIyEENS_18HashMapValueTraitsINS_10HashTraitsIyEENSC_IS5_EEEESD_E6rehashEi
__ZN3WTF9HashTableIyNS_12KeyValuePairIyNS_6RefPtrIN7WebCore13ScrollingTreeEEEEENS_24KeyValuePairKeyExtractorIS6_EENS_7IntHashIyEENS_18HashMapValueTraitsINS_10HashTraitsIyEENSC_IS5_EEEESD_E6removeEPS6_
__ZN6WebKit15WebProcessProxy15didDestroyFrameEy
__ZN3WTF7HashMapIyNS_6RefPtrIN6WebKit13WebFrameProxyEEENS_7IntHashIyEENS_10HashTraitsIyEENS7_IS4_EEE6removeERKy
__ZN6WebKit13WebFrameProxyD0Ev
__ZN6WebKit13WebFrameProxyD2Ev
_WKSetNSURLConnectionDefersCallbacks
__ZN6WebKit30InjectedBundlePageLoaderClient33didNewFirstVisuallyNonEmptyLayoutEPNS_7WebPageERN3WTF6RefPtrINS_9APIObjectEEE
__ZN7CoreIPC13MessageSender4sendIN8Messages12WebPageProxy33DidNewFirstVisuallyNonEmptyLayoutEEEbRKT_y
__ZN6WebKit12WebPageProxy33didNewFirstVisuallyNonEmptyLayoutERN7CoreIPC14MessageDecoderE
__ZN6WebKit15WebLoaderClient33didNewFirstVisuallyNonEmptyLayoutEPNS_12WebPageProxyEPNS_9APIObjectE
__ZNK6WebKit15WebChromeClient21plugInExtraStyleSheetEv
__ZNK6WebKit26InjectedBundlePageUIClient21plugInExtraStyleSheetEv
__ZN6WebKit15WebPlugInClient25shouldAutoStartFromOriginERKN3WTF6StringES4_S4_
__ZN6WebKit10WebProcess31shouldPlugInAutoStartFromOriginEPKNS_7WebPageERKN3WTF6StringES7_S7_
__ZNK6WebKit7WebPage20matchesPrimaryPlugInERKN3WTF6StringES4_S4_
__ZN6WebKitL19hashForPlugInOriginERKN3WTF6StringES3_S3_
__ZN3WTF12StringHasher13addCharactersIhXadL_ZNS_15CaseFoldingHash8foldCaseIhEEtT_EEEEvPKS4_j
__ZN6WebKit10WebProcess27isPlugInAutoStartOriginHashEj
__ZN6WebKit20WebFrameLoaderClient12createPluginERKN7WebCore7IntSizeEPNS1_17HTMLPlugInElementERKNS1_4KURLERKN3WTF6VectorINSA_6StringELm0ENSA_15CrashOnOverflowEEESG_RKSC_b
__ZN6WebKit7WebPage12createPluginEPNS_8WebFrameEPN7WebCore17HTMLPlugInElementERKNS_6Plugin10ParametersERN3WTF6StringE
__ZN7CoreIPC10Connection8sendSyncIN8Messages12WebPageProxy10FindPluginEEEbRKT_RKNS5_5ReplyEydj
__ZNK7CoreIPC10Arguments6IRKN3WTF6StringEjS4_S4_S4_bE6encodeERNS_15ArgumentEncoderE
__ZNK7CoreIPC10Arguments4IRKN3WTF6StringEjS4_S4_E6encodeERNS_15ArgumentEncoderE
__ZN7CoreIPC10Arguments4IRyRN3WTF6StringERjS4_E6decodeERNS_15ArgumentDecoderERS6_
__ZN7CoreIPC10Arguments3IRyRN3WTF6StringERjE6decodeERNS_15ArgumentDecoderERS6_
__ZN7CoreIPC10Arguments2IRyRN3WTF6StringEE6decodeERNS_15ArgumentDecoderERS5_
__ZN6WebKit11PluginProxy6createEyb
__ZN6WebKit11PluginProxyC2Eyb
__ZN6WebKit6PluginC2Ev
__ZN6WebKit10PluginView6createEN3WTF10PassRefPtrIN7WebCore17HTMLPlugInElementEEENS2_INS_6PluginEEERKNS6_10ParametersE
__ZN6WebKit10PluginViewC2EN3WTF10PassRefPtrIN7WebCore17HTMLPlugInElementEEENS2_INS_6PluginEEERKNS6_10ParametersE
__ZN6WebKit18NPRuntimeObjectMapC1EPNS_10PluginViewE
__ZN6WebKit7WebPage13addPluginViewEPNS_10PluginViewE
__ZN3WTF9HashTableIPN6WebKit10PluginViewES3_NS_17IdentityExtractorENS_7PtrHashIS3_EENS_10HashTraitsIS3_EES8_E3addINS_22IdentityHashTranslatorIS6_EES3_S3_EENS_18HashTableAddResultINS_17HashTableIteratorIS3_S3_S4_S6_S8_S8_EEEERKT0_RKT1_
__ZN3WTF9HashTableIPN6WebKit10PluginViewES3_NS_17IdentityExtractorENS_7PtrHashIS3_EENS_10HashTraitsIS3_EES8_E6expandEv
__ZN3WTF9HashTableIPN6WebKit10PluginViewES3_NS_17IdentityExtractorENS_7PtrHashIS3_EENS_10HashTraitsIS3_EES8_E6rehashEi
__ZNK7WebCore14PluginViewBase16isPluginViewBaseEv
__ZNK6WebKit10PluginView21shouldAlwaysAutoStartEv
__ZNK6WebKit6Plugin21shouldAlwaysAutoStartEv
__ZN6WebKit10PluginView25transformsAffectFrameRectEv
__ZN6WebKit10PluginView12setFrameRectERKN7WebCore7IntRectE
__ZN6WebKit10PluginView21viewGeometryDidChangeEv
__ZN6WebKit10PluginView4showEv
__ZN6WebKit10PluginView9setParentEPN7WebCore10ScrollViewE
__ZN7WebCore6Widget16setParentVisibleEb
__ZN6WebKit10PluginView16initializePluginEv
__ZN6WebKit6Plugin10initializeEPNS_16PluginControllerERKNS0_10ParametersE
__ZN6WebKit11PluginProxy10initializeERKNS_6Plugin10ParametersE
__ZN6WebKit10WebProcess30pluginProcessConnectionManagerEv
__ZN6WebKit30PluginProcessConnectionManager26getPluginProcessConnectionEy
__ZN7CoreIPC10Connection8sendSyncIN8Messages15WebProcessProxy26GetPluginProcessConnectionEEEbRKT_RKNS5_5ReplyEydj
__ZNK6WebKit15PluginInfoStore22findPluginForExtensionERKN3WTF6StringERS2_N7WebCore10PluginData18AllowedPluginTypesE
____ZN6WebKit16DiskCacheMonitorC2EPK20_CFCachedURLResponsePNS_21NetworkResourceLoaderE_block_invoke
__ZN7CoreIPC10Arguments2IRNS_10AttachmentERbE6decodeERNS_15ArgumentDecoderERS4_
__ZN6WebKit23PluginProcessConnectionC1EPNS_30PluginProcessConnectionManagerEyN7CoreIPC10Connection10IdentifierEb
__ZN6WebKit23PluginProcessConnectionC2EPNS_30PluginProcessConnectionManagerEyN7CoreIPC10Connection10IdentifierEb
__ZN6WebKit17NPRemoteObjectMap6createEPN7CoreIPC10ConnectionE
__ZN3WTF6VectorINS_6RefPtrIN6WebKit23PluginProcessConnectionEEELm0ENS_15CrashOnOverflowEE14appendSlowCaseIS4_EEvRKT_
__ZN3WTF6VectorINS_6RefPtrIN6WebKit23PluginProcessConnectionEEELm0ENS_15CrashOnOverflowEE14expandCapacityEmPKS4_
__ZN3WTF6VectorINS_6RefPtrIN6WebKit23PluginProcessConnectionEEELm0ENS_15CrashOnOverflowEE15reserveCapacityEm
__ZN3WTF16VectorBufferBaseINS_6RefPtrIN6WebKit23PluginProcessConnectionEEEE14allocateBufferEm
__ZN3WTF7HashMapIyNS_6RefPtrIN7CoreIPC10ConnectionEEENS_7IntHashIyEENS_10HashTraitsIyEENS7_IS4_EEE3setERKyNS_10PassRefPtrIS3_EE
__ZN3WTF6RefPtrIN6WebKit23PluginProcessConnectionEEaSEPS2_
__ZN6WebKit23PluginProcessConnection14addPluginProxyEPNS_11PluginProxyE
__ZN6WebKit24PluginCreationParametersC1Ev
__ZN3WTF14deleteOwnedPtrIN6WebKit24PluginCreationParametersEEEvPT_
__ZN6WebKit11PluginProxy16windowNPObjectIDEv
__ZThn64_N6WebKit10PluginView20windowScriptNPObjectEv
__ZN6WebKit10PluginView20windowScriptNPObjectEv
__ZN6WebKit18NPRuntimeObjectMap19getOrCreateNPObjectERN3JSC2VMEPNS1_8JSObjectE
__ZN6WebKit10NPJSObject6createERN3JSC2VMEPNS_18NPRuntimeObjectMapEPNS1_8JSObjectE
__ZN6WebKit14createNPObjectEP4_NPPP7NPClass
__ZN6WebKit10NPJSObject11NP_AllocateEP4_NPPP7NPClass
__ZN3JSC6StrongINS_8JSObjectEE3setERNS_2VMEPS1_
__ZN6WebKit17NPRemoteObjectMap16registerNPObjectEP8NPObjectPNS_6PluginE
__ZN6WebKit23NPObjectMessageReceiver6createEPNS_17NPRemoteObjectMapEPNS_6PluginEyP8NPObject
__ZN6WebKit14retainNPObjectEP8NPObject
__ZN3WTF10PassOwnPtrIN6WebKit23NPObjectMessageReceiverEED2Ev
__ZN6WebKit15releaseNPObjectEP8NPObject
__ZThn64_N6WebKit10PluginView9userAgentEv
__ZN6WebKit10PluginView9userAgentEv
__ZThn64_N6WebKit10PluginView19contentsScaleFactorEv
__ZThn64_N6WebKit10PluginView24isPrivateBrowsingEnabledEv
__ZN6WebKit10PluginView24isPrivateBrowsingEnabledEv
__ZThn64_NK6WebKit10PluginView42artificialPluginInitializationDelayEnabledEv
__ZThn64_N6WebKit10PluginView31isAcceleratedCompositingEnabledEv
__ZN6WebKit10PluginView31isAcceleratedCompositingEnabledEv
__ZNK6WebKit11PluginProxy27canInitializeAsynchronouslyEv
__ZThn64_NK6WebKit10PluginView39asynchronousPluginInitializationEnabledEv
__ZN7CoreIPC10Connection4sendIN8Messages20WebProcessConnection26CreatePluginAsynchronouslyEEEbRKT_yj
__ZNK6WebKit24PluginCreationParameters6encodeERN7CoreIPC15ArgumentEncoderE
__ZNK6WebKit6Plugin10Parameters6encodeERN7CoreIPC15ArgumentEncoderE
__ZNK7WebCore6Widget11isFrameViewEv
__ZN6WebKit10PluginView16wantsWheelEventsEv
__ZN6WebKit20WebIconDatabaseProxy21setIconDataForIconURLEN3WTF10PassRefPtrIN7WebCore12SharedBufferEEERKNS1_6StringE
__ZN7CoreIPC10Connection4sendIN8Messages15WebIconDatabase21SetIconDataForIconURLEEEbRKT_yj
__ZN6WebKit20WebFrameLoaderClient22dispatchDidReceiveIconEv
__ZN7CoreIPC10Connection4sendIN8Messages15WebIconDatabase24DidReceiveIconForPageURLEEEbRKT_yj
__ZNK6WebKit10PluginView13platformLayerEv
__ZN7WebCore6Widget22widgetPositionsUpdatedEv
__ZN6WebKit23WebBackForwardListProxy13backListCountEv
__ZN7CoreIPC10Connection8sendSyncIN8Messages12WebPageProxy24BackForwardBackListCountEEEbRKT_RKNS5_5ReplyEydj
__ZN6WebKit23WebBackForwardListProxy16forwardListCountEv
__ZN7CoreIPC10Connection8sendSyncIN8Messages12WebPageProxy27BackForwardForwardListCountEEEbRKT_RKNS5_5ReplyEydj
__ZN6WebKit15WebChromeClient10windowRectEv
__ZN3WTF9HashTableIPN7WebCore12RenderObjectES3_NS_17IdentityExtractorENS_7PtrHashIS3_EENS_10HashTraitsIS3_EES8_E3addINS_22IdentityHashTranslatorIS6_EES3_S3_EENS_18HashTableAddResultINS_17HashTableIteratorIS3_S3_S4_S6_S8_S8_EEEERKT0_RKT1_
__ZN3WTF9HashTableIPN7WebCore12RenderObjectES3_NS_17IdentityExtractorENS_7PtrHashIS3_EENS_10HashTraitsIS3_EES8_E6expandEv
__ZN3WTF9HashTableIPN7WebCore12RenderObjectES3_NS_17IdentityExtractorENS_7PtrHashIS3_EENS_10HashTraitsIS3_EES8_E6rehashEi
__ZN3WTF9HashTableIPN7WebCore12RenderObjectES3_NS_17IdentityExtractorENS_7PtrHashIS3_EENS_10HashTraitsIS3_EES8_E16lookupForWritingINS_22IdentityHashTranslatorIS6_EES3_EENSt3__14pairIPS3_bEERKT0_
__ZN3WTF9HashTableIPN7WebCore12RenderObjectES3_NS_17IdentityExtractorENS_7PtrHashIS3_EENS_10HashTraitsIS3_EES8_E4findINS_22IdentityHashTranslatorIS6_EES3_EENS_17HashTableIteratorIS3_S3_S4_S6_S8_S8_EERKT0_
__ZN3WTF9HashTableIPN7WebCore12RenderObjectES3_NS_17IdentityExtractorENS_7PtrHashIS3_EENS_10HashTraitsIS3_EES8_E6lookupINS_22IdentityHashTranslatorIS6_EES3_EEPS3_RKT0_
__ZN6WebKit23PluginProcessConnection21didReceiveSyncMessageEPN7CoreIPC10ConnectionERNS1_14MessageDecoderERN3WTF6OwnPtrINS1_14MessageEncoderEEE
__ZN3WTF9HashTableIyNS_12KeyValuePairIyPN6WebKit11PluginProxyEEENS_24KeyValuePairKeyExtractorIS5_EENS_7IntHashIyEENS_18HashMapValueTraitsINS_10HashTraitsIyEENSB_IS4_EEEESC_E16lookupForWritingINS_22IdentityHashTranslatorIS9_EEyEENSt3__14pairIPS5_bEERKT0_
__ZN3WTF9HashTableIyNS_12KeyValuePairIyPN6WebKit11PluginProxyEEENS_24KeyValuePairKeyExtractorIS5_EENS_7IntHashIyEENS_18HashMapValueTraitsINS_10HashTraitsIyEENSB_IS4_EEEESC_E3addINS_17HashMapTranslatorISE_S9_EEyS4_EENS_18HashTableAddResultINS_17HashTableIteratorIyS5_S7_S9_SE_SC_EEEERKT0_RKT1_
__ZN3WTF9HashTableIyNS_12KeyValuePairIyPN6WebKit11PluginProxyEEENS_24KeyValuePairKeyExtractorIS5_EENS_7IntHashIyEENS_18HashMapValueTraitsINS_10HashTraitsIyEENSB_IS4_EEEESC_E4findINS_22IdentityHashTranslatorIS9_EEyEENS_17HashTableIteratorIyS5_S7_S9_SE_SC_EERKT0_
__ZN3WTF9HashTableIyNS_12KeyValuePairIyPN6WebKit11PluginProxyEEENS_24KeyValuePairKeyExtractorIS5_EENS_7IntHashIyEENS_18HashMapValueTraitsINS_10HashTraitsIyEENSB_IS4_EEEESC_E6expandEv
__ZN3WTF9HashTableIyNS_12KeyValuePairIyPN6WebKit11PluginProxyEEENS_24KeyValuePairKeyExtractorIS5_EENS_7IntHashIyEENS_18HashMapValueTraitsINS_10HashTraitsIyEENSB_IS4_EEEESC_E6lookupINS_22IdentityHashTranslatorIS9_EEyEEPS5_RKT0_
__ZN3WTF9HashTableIyNS_12KeyValuePairIyPN6WebKit11PluginProxyEEENS_24KeyValuePairKeyExtractorIS5_EENS_7IntHashIyEENS_18HashMapValueTraitsINS_10HashTraitsIyEENSB_IS4_EEEESC_E6rehashEi
__ZN3WTF9HashTableIyNS_12KeyValuePairIyPN6WebKit11PluginProxyEEENS_24KeyValuePairKeyExtractorIS5_EENS_7IntHashIyEENS_18HashMapValueTraitsINS_10HashTraitsIyEENSB_IS4_EEEESC_E6removeEPS5_
__ZN6WebKit11PluginProxy32didReceiveSyncPluginProxyMessageEPN7CoreIPC10ConnectionERNS1_14MessageDecoderERN3WTF6OwnPtrINS1_14MessageEncoderEEE
__ZN7CoreIPC13handleMessageIN8Messages11PluginProxy8EvaluateEN6WebKit11PluginProxyEMS5_FvRKNS4_13NPVariantDataERKN3WTF6StringEbRbRS6_EEEvRNS_14MessageDecoderERNS_14MessageEncoderEPT0_T1_
__ZN6WebKit13NPVariantDataC1Ev
__ZN7CoreIPC10Arguments3IN6WebKit13NPVariantDataEN3WTF6StringEbE6decodeERNS_15ArgumentDecoderERS5_
__ZN7CoreIPC10Arguments2IN6WebKit13NPVariantDataEN3WTF6StringEE6decodeERNS_15ArgumentDecoderERS5_
__ZN6WebKit13NPVariantData6decodeERN7CoreIPC15ArgumentDecoderERS0_
__ZN6WebKit11PluginProxy8evaluateERKNS_13NPVariantDataERKN3WTF6StringEbRbRS1_
__ZThn64_N6WebKit10PluginView28protectPluginFromDestructionEv
__ZN6WebKit17NPRemoteObjectMap24npVariantDataToNPVariantERKNS_13NPVariantDataEPNS_6PluginE
__ZN3WTF9HashTableIyNS_12KeyValuePairIyPN6WebKit23NPObjectMessageReceiverEEENS_24KeyValuePairKeyExtractorIS5_EENS_7IntHashIyEENS_18HashMapValueTraitsINS_10HashTraitsIyEENSB_IS4_EEEESC_E16lookupForWritingINS_22IdentityHashTranslatorIS9_EEyEENSt3__14pairIPS5_bEERKT0_
__ZN3WTF9HashTableIyNS_12KeyValuePairIyPN6WebKit23NPObjectMessageReceiverEEENS_24KeyValuePairKeyExtractorIS5_EENS_7IntHashIyEENS_18HashMapValueTraitsINS_10HashTraitsIyEENSB_IS4_EEEESC_E3addINS_17HashMapTranslatorISE_S9_EEyS4_EENS_18HashTableAddResultINS_17HashTableIteratorIyS5_S7_S9_SE_SC_EEEERKT0_RKT1_
__ZN3WTF9HashTableIyNS_12KeyValuePairIyPN6WebKit23NPObjectMessageReceiverEEENS_24KeyValuePairKeyExtractorIS5_EENS_7IntHashIyEENS_18HashMapValueTraitsINS_10HashTraitsIyEENSB_IS4_EEEESC_E4findINS_22IdentityHashTranslatorIS9_EEyEENS_17HashTableIteratorIyS5_S7_S9_SE_SC_EERKT0_
__ZN3WTF9HashTableIyNS_12KeyValuePairIyPN6WebKit23NPObjectMessageReceiverEEENS_24KeyValuePairKeyExtractorIS5_EENS_7IntHashIyEENS_18HashMapValueTraitsINS_10HashTraitsIyEENSB_IS4_EEEESC_E6expandEv
__ZN3WTF9HashTableIyNS_12KeyValuePairIyPN6WebKit23NPObjectMessageReceiverEEENS_24KeyValuePairKeyExtractorIS5_EENS_7IntHashIyEENS_18HashMapValueTraitsINS_10HashTraitsIyEENSB_IS4_EEEESC_E6lookupINS_22IdentityHashTranslatorIS9_EEyEEPS5_RKT0_
__ZN3WTF9HashTableIyNS_12KeyValuePairIyPN6WebKit23NPObjectMessageReceiverEEENS_24KeyValuePairKeyExtractorIS5_EENS_7IntHashIyEENS_18HashMapValueTraitsINS_10HashTraitsIyEENSB_IS4_EEEESC_E6rehashEi
__ZN3WTF9HashTableIyNS_12KeyValuePairIyPN6WebKit23NPObjectMessageReceiverEEENS_24KeyValuePairKeyExtractorIS5_EENS_7IntHashIyEENS_18HashMapValueTraitsINS_10HashTraitsIyEENSB_IS4_EEEESC_E6removeEPS5_
__ZThn64_N6WebKit10PluginView8evaluateEP8NPObjectRKN3WTF6StringEP10_NPVariantb
__ZN6WebKit10PluginView8evaluateEP8NPObjectRKN3WTF6StringEP10_NPVariantb
__ZN6WebKit18NPRuntimeObjectMap15PluginProtectorC1EPS0_
__ZN3WTF6RefPtrIN6WebKit10PluginViewEEaSEPS2_
__ZN6WebKit18NPRuntimeObjectMap8evaluateEP8NPObjectRKN3WTF6StringEP10_NPVariant
__ZNK6WebKit18NPRuntimeObjectMap12globalObjectEv
__ZNK6WebKit10PluginView5frameEv
__ZN3JSC6StrongINS_14JSGlobalObjectEEC2ERNS_2VMEPS1_
__ZN6WebKit18NPRuntimeObjectMap19getOrCreateJSObjectEPN3JSC14JSGlobalObjectEP8NPObject
__ZN6WebKit10NPJSObject12isNPJSObjectEP8NPObject
__ZN3JSC20StringSourceProvider6createERKN3WTF6StringES4_RKNS1_12TextPositionE
__ZN3JSC10SourceCodeC2EN3WTF10PassRefPtrINS_14SourceProviderEEEii
__ZNK3JSC20StringSourceProvider6sourceEv
__ZN6WebKit18NPRuntimeObjectMap25convertJSValueToNPVariantEPN3JSC9ExecStateENS1_7JSValueER10_NPVariant
__ZN3JSC6StrongINS_14JSGlobalObjectEE5clearEv
__ZN6WebKit18NPRuntimeObjectMap15PluginProtectorD1Ev
__ZN6WebKit18NPRuntimeObjectMap15PluginProtectorD2Ev
__ZN6WebKit17NPRemoteObjectMap24npVariantToNPVariantDataERK10_NPVariantPNS_6PluginE
__ZN6WebKit13NPVariantData8makeVoidEv
__ZN6WebKit21releaseNPVariantValueEP10_NPVariant
__ZThn64_N6WebKit10PluginView30unprotectPluginFromDestructionEv
__ZN6WebKit10PluginView30unprotectPluginFromDestructionEv
__ZNK6WebKit13NPVariantData6encodeERN7CoreIPC15ArgumentEncoderE
__ZN6WebKit17NPRemoteObjectMap21didReceiveSyncMessageEPN7CoreIPC10ConnectionERNS1_14MessageDecoderERN3WTF6OwnPtrINS1_14MessageEncoderEEE
__ZN6WebKit23NPObjectMessageReceiver44didReceiveSyncNPObjectMessageReceiverMessageEPN7CoreIPC10ConnectionERNS1_14MessageDecoderERN3WTF6OwnPtrINS1_14MessageEncoderEEE
__ZN7CoreIPC13handleMessageIN8Messages23NPObjectMessageReceiver6InvokeEN6WebKit23NPObjectMessageReceiverEMS5_FvRKNS4_16NPIdentifierDataERKN3WTF6VectorINS4_13NPVariantDataELm0ENS9_15CrashOnOverflowEEERbRSB_EEEvRNS_14MessageDecoderERNS_14MessageEncoderEPT0_T1_
__ZN6WebKit16NPIdentifierDataC1Ev
__ZN7CoreIPC10Arguments2IN6WebKit16NPIdentifierDataEN3WTF6VectorINS1_13NPVariantDataELm0ENS3_15CrashOnOverflowEEEE6decodeERNS_15ArgumentDecoderERS8_
__ZN6WebKit16NPIdentifierData6decodeERN7CoreIPC15ArgumentDecoderERS0_
__ZN7CoreIPC13ArgumentCoderIN3WTF7CStringEE6decodeERNS_15ArgumentDecoderERS2_
__ZN3WTF6RefPtrINS_13CStringBufferEEaSERKS2_
__ZN7CoreIPC19VectorArgumentCoderILb0EN6WebKit13NPVariantDataEE6decodeERNS_15ArgumentDecoderERN3WTF6VectorIS2_Lm0ENS6_15CrashOnOverflowEEE
__ZN3WTF6VectorIN6WebKit13NPVariantDataELm0ENS_15CrashOnOverflowEE14shrinkCapacityEm
__ZN3WTF6VectorIN6WebKit13NPVariantDataELm0ENS_15CrashOnOverflowEED2Ev
__ZN6WebKit23NPObjectMessageReceiver6invokeERKNS_16NPIdentifierDataERKN3WTF6VectorINS_13NPVariantDataELm0ENS4_15CrashOnOverflowEEERbRS6_
__ZNK6WebKit16NPIdentifierData18createNPIdentifierEv
__ZN6WebKit10NPJSObject9NP_InvokeEP8NPObjectPvPK10_NPVariantjPS4_
__ZN6WebKit10NPJSObject6invokeEPvPK10_NPVariantjPS2_
__ZNK6WebKit18NPRuntimeObjectMap10globalExecEv
__ZN6WebKitL27identifierFromIdentifierRepEPN3JSC9ExecStateEPN7WebCore13IdentifierRepE
__ZN3JSC10Identifier3addEPNS_9ExecStateEPN3WTF10StringImplE
__ZNK3JSC8JSObject3getEPNS_9ExecStateENS_12PropertyNameE
__ZNK3JSC12PropertySlot8getValueEPNS_9ExecStateENS_12PropertyNameE
__ZN6WebKit10NPJSObject6invokeEPN3JSC9ExecStateEPNS1_14JSGlobalObjectENS1_7JSValueEPK10_NPVariantjPS7_
__ZN3JSC20MarkedArgumentBufferD2Ev
__ZN6WebKit13NPObjectProxy15isNPObjectProxyEP8NPObject
__ZN6WebKit13NPVariantData19makeLocalNPObjectIDEy
__ZN3WTF6VectorI10_NPVariantLm0ENS_15CrashOnOverflowEED1Ev
__ZN6WebKit14createNPStringERKN3WTF7CStringE
__ZN6WebKit13NPVariantData10makeStringEPKcj
__ZN7CoreIPC13ArgumentCoderIN3WTF7CStringEE6encodeERNS_15ArgumentEncoderERKS2_
__ZN6WebKit23NPObjectMessageReceiver10deallocateEv
__ZN6WebKit17NPRemoteObjectMap18unregisterNPObjectEy
__ZN3WTF7HashMapIyPN6WebKit23NPObjectMessageReceiverENS_7IntHashIyEENS_10HashTraitsIyEENS6_IS3_EEE6removeERKy
__ZN6WebKit18deallocateNPObjectEP8NPObject
__ZN6WebKit10NPJSObject13NP_DeallocateEP8NPObject
__ZN6WebKit18NPRuntimeObjectMap19npJSObjectDestroyedEPNS_10NPJSObjectE
__ZN3WTF7HashMapIPN3JSC8JSObjectEPN6WebKit10NPJSObjectENS_7PtrHashIS3_EENS_10HashTraitsIS3_EENS9_IS6_EEE6removeERKS3_
__ZN3WTF9HashTableIPN3JSC8JSObjectENS_12KeyValuePairIS3_PN6WebKit10NPJSObjectEEENS_24KeyValuePairKeyExtractorIS8_EENS_7PtrHashIS3_EENS_18HashMapValueTraitsINS_10HashTraitsIS3_EENSE_IS7_EEEESF_E16lookupForWritingINS_22IdentityHashTranslatorISC_EES3_EENSt3__14pairIPS8_bEERKT0_
__ZN3WTF9HashTableIPN3JSC8JSObjectENS_12KeyValuePairIS3_PN6WebKit10NPJSObjectEEENS_24KeyValuePairKeyExtractorIS8_EENS_7PtrHashIS3_EENS_18HashMapValueTraitsINS_10HashTraitsIS3_EENSE_IS7_EEEESF_E3addINS_17HashMapTranslatorISH_SC_EES3_S7_EENS_18HashTableAddResultINS_17HashTableIteratorIS3_S8_SA_SC_SH_SF_EEEERKT0_RKT1_
__ZN3WTF9HashTableIPN3JSC8JSObjectENS_12KeyValuePairIS3_PN6WebKit10NPJSObjectEEENS_24KeyValuePairKeyExtractorIS8_EENS_7PtrHashIS3_EENS_18HashMapValueTraitsINS_10HashTraitsIS3_EENSE_IS7_EEEESF_E4findINS_22IdentityHashTranslatorISC_EES3_EENS_17HashTableIteratorIS3_S8_SA_SC_SH_SF_EERKT0_
__ZN3WTF9HashTableIPN3JSC8JSObjectENS_12KeyValuePairIS3_PN6WebKit10NPJSObjectEEENS_24KeyValuePairKeyExtractorIS8_EENS_7PtrHashIS3_EENS_18HashMapValueTraitsINS_10HashTraitsIS3_EENSE_IS7_EEEESF_E6expandEv
__ZN3WTF9HashTableIPN3JSC8JSObjectENS_12KeyValuePairIS3_PN6WebKit10NPJSObjectEEENS_24KeyValuePairKeyExtractorIS8_EENS_7PtrHashIS3_EENS_18HashMapValueTraitsINS_10HashTraitsIS3_EENSE_IS7_EEEESF_E6lookupINS_22IdentityHashTranslatorISC_EES3_EEPS8_RKT0_
__ZN3WTF9HashTableIPN3JSC8JSObjectENS_12KeyValuePairIS3_PN6WebKit10NPJSObjectEEENS_24KeyValuePairKeyExtractorIS8_EENS_7PtrHashIS3_EENS_18HashMapValueTraitsINS_10HashTraitsIS3_EENSE_IS7_EEEESF_E6rehashEi
__ZN3WTF9HashTableIPN3JSC8JSObjectENS_12KeyValuePairIS3_PN6WebKit10NPJSObjectEEENS_24KeyValuePairKeyExtractorIS8_EENS_7PtrHashIS3_EENS_18HashMapValueTraitsINS_10HashTraitsIS3_EENSE_IS7_EEEESF_E6removeEPS8_
__ZN3JSC6StrongINS_8JSObjectEE5clearEv
__ZNK6WebKit25WebFrameNetworkingContext31localFileContentSniffingEnabledEv
__ZN6WebKit23PluginProcessConnection17didReceiveMessageEPN7CoreIPC10ConnectionERNS1_14MessageDecoderE
__ZN6WebKit11PluginProxy28didReceivePluginProxyMessageEPN7CoreIPC10ConnectionERNS1_14MessageDecoderE
__ZN7CoreIPC13handleMessageIN8Messages11PluginProxy7LoadURLEN6WebKit11PluginProxyEMS5_FvyRKN3WTF6StringES9_S9_RKN7WebCore13HTTPHeaderMapERKNS6_6VectorIhLm0ENS6_15CrashOnOverflowEEEbEEEvRNS_14MessageDecoderEPT0_T1_
__ZN7CoreIPC10Arguments7IyN3WTF6StringES2_S2_N7WebCore13HTTPHeaderMapENS1_6VectorIhLm0ENS1_15CrashOnOverflowEEEbE6decodeERNS_15ArgumentDecoderERS8_
__ZN7CoreIPC10Arguments6IyN3WTF6StringES2_S2_N7WebCore13HTTPHeaderMapENS1_6VectorIhLm0ENS1_15CrashOnOverflowEEEE6decodeERNS_15ArgumentDecoderERS8_
__ZN7CoreIPC10Arguments5IyN3WTF6StringES2_S2_N7WebCore13HTTPHeaderMapEE6decodeERNS_15ArgumentDecoderERS5_
__ZN7CoreIPC13ArgumentCoderIN7WebCore13HTTPHeaderMapEE6decodeERNS_15ArgumentDecoderERS2_
__ZN7CoreIPC13ArgumentCoderIN3WTF7HashMapINS1_12AtomicStringENS1_6StringENS1_15CaseFoldingHashENS1_10HashTraitsIS3_EENS6_IS4_EEEEE6decodeERNS_15ArgumentDecoderERS9_
__ZN7CoreIPC13ArgumentCoderIN3WTF7HashMapINS1_12AtomicStringENS1_6StringENS1_15CaseFoldingHashENS1_10HashTraitsIS3_EENS6_IS4_EEEEE6encodeERNS_15ArgumentEncoderERKS9_
__ZN7CoreIPC19VectorArgumentCoderILb1EhE6decodeERNS_15ArgumentDecoderERN3WTF6VectorIhLm0ENS4_15CrashOnOverflowEEE
__ZN3WTF6VectorIhLm0ENS_15CrashOnOverflowEE6resizeEm
__ZN7CoreIPC18callMemberFunctionIN6WebKit11PluginProxyEMS2_FvyRKN3WTF6StringES6_S6_RKN7WebCore13HTTPHeaderMapERKNS3_6VectorIhLm0ENS3_15CrashOnOverflowEEEbEyS4_S4_S4_S8_SD_bEEvRKNS_10Arguments7IT1_T2_T3_T4_T5_T6_T7_EEPT_T0_
__ZN6WebKit11PluginProxy7loadURLEyRKN3WTF6StringES4_S4_RKN7WebCore13HTTPHeaderMapERKNS1_6VectorIhLm0ENS1_15CrashOnOverflowEEEb
__ZThn64_N6WebKit10PluginView7loadURLEyRKN3WTF6StringES4_S4_RKN7WebCore13HTTPHeaderMapERKNS1_6VectorIhLm0ENS1_15CrashOnOverflowEEEb
__ZN6WebKit10PluginView7loadURLEyRKN3WTF6StringES4_S4_RKN7WebCore13HTTPHeaderMapERKNS1_6VectorIhLm0ENS1_15CrashOnOverflowEEEb
__ZN7WebCore16FrameLoadRequestC2EPNS_14SecurityOriginE
__ZN6WebKit10PluginView10URLRequest6createEyRKN7WebCore16FrameLoadRequestEb
__ZN3WTF5DequeINS_6RefPtrIN6WebKit10PluginView10URLRequestEEELm0EE22expandCapacityIfNeededEv
__ZN3WTF5DequeINS_6RefPtrIN6WebKit10PluginView10URLRequestEEELm0EE14expandCapacityEv
__ZN3WTF16VectorBufferBaseINS_6RefPtrIN6WebKit10PluginView10URLRequestEEEE14allocateBufferEm
__ZN3WTF10RefCountedIN7WebCore8FormDataEE5derefEv
__ZN7CoreIPC13handleMessageIN8Messages11PluginProxy15DidCreatePluginEN6WebKit11PluginProxyEMS5_FvbjEEEvRNS_14MessageDecoderERNS_14MessageEncoderEPT0_T1_
__ZN7CoreIPC10Arguments2IbjE6decodeERNS_15ArgumentDecoderERS1_
__ZN6WebKit11PluginProxy15didCreatePluginEbj
__ZThn64_N6WebKit10PluginView19didInitializePluginEv
__ZN6WebKit10PluginView19didInitializePluginEv
__ZN6WebKit10PluginView26windowAndViewFramesChangedERKN7WebCore9FloatRectES4_
__ZN6WebKit11PluginProxy26windowAndViewFramesChangedERKN7WebCore7IntRectES4_
__ZN7CoreIPC10Connection4sendIN8Messages21PluginControllerProxy26WindowAndViewFramesChangedEEEbRKT_yj
__ZNK6WebKit10PluginView27clipRectInWindowCoordinatesEv
__ZN6WebKit11PluginProxy17geometryDidChangeERKN7WebCore7IntSizeERKNS1_7IntRectERKNS1_15AffineTransformE
__ZNK7WebCore15AffineTransformeqERKS0_
__ZN6WebKit11PluginProxy17geometryDidChangeEv
__ZN6WebKit15ShareableBitmap6HandleC1Ev
__ZN6WebKit11PluginProxy18updateBackingStoreEv
__ZN7CoreIPC10Connection4sendIN8Messages21PluginControllerProxy17GeometryDidChangeEEEbRKT_yj
__ZNK7CoreIPC10Arguments4IRKN7WebCore7IntSizeERKNS1_7IntRectERKNS1_15AffineTransformEfE6encodeERNS_15ArgumentEncoderE
__ZN7CoreIPC13ArgumentCoderIN7WebCore15AffineTransformEE6encodeERNS_15ArgumentEncoderERKS2_
__ZNK6WebKit15ShareableBitmap6Handle6encodeERN7CoreIPC15ArgumentEncoderE
__ZN6WebKit10PluginView21redeliverManualStreamEv
__ZN6WebKit11PluginProxy11pluginLayerEv
__ZN3WTF9RetainPtrI7CALayerEaSIPS1_EERS2_ONS0_IT_EE
__ZN6WebKitL15makeRenderLayerEP7CALayerj
__ZN6WebKit11PluginProxy23windowVisibilityChangedEb
__ZN7CoreIPC10Connection4sendIN8Messages21PluginControllerProxy23WindowVisibilityChangedEEEbRKT_yj
__ZNK6WebKit7WebPage15windowIsFocusedEv
__ZN6WebKit11PluginProxy18windowFocusChangedEb
__ZN7CoreIPC10Connection4sendIN8Messages21PluginControllerProxy18WindowFocusChangedEEEbRKT_yj
__ZN6WebKit11PluginProxy16wantsWheelEventsEv
__ZN6WebKit11PluginProxy31pluginFocusOrWindowFocusChangedEb
__ZThn64_N6WebKit10PluginView31pluginFocusOrWindowFocusChangedEb
__ZN6WebKit10PluginView31pluginFocusOrWindowFocusChangedEb
__ZNK6WebKit11PluginProxy32pluginComplexTextInputIdentifierEv
__ZN7CoreIPC13MessageSender4sendIN8Messages12WebPageProxy31PluginFocusOrWindowFocusChangedEEEbRKT_y
__ZN7WebCore7RunLoop5TimerIN6WebKit10PluginViewEE5firedEv
__ZN6WebKit10PluginView28pendingURLRequestsTimerFiredEv
__ZN3WTF5DequeINS_6RefPtrIN6WebKit10PluginView10URLRequestEEELm0EE11removeFirstEv
__ZN6WebKit10PluginView17performURLRequestEPNS0_10URLRequestE
__ZN6WebKit10PluginView9addStreamEPNS0_6StreamE
__ZN3WTF7HashMapIyNS_6RefPtrIN6WebKit10PluginView6StreamEEENS_7IntHashIyEENS_10HashTraitsIyEENS8_IS5_EEE3setERKyNS_10PassRefPtrIS4_EE
__ZN3WTF17HashMapTranslatorINS_18HashMapValueTraitsINS_10HashTraitsIyEENS2_INS_6RefPtrIN6WebKit10PluginView6StreamEEEEEEENS_7IntHashIyEEE9translateINS_12KeyValuePairIyS8_EEyNS_10PassRefPtrIS7_EEEEvRT_RKT0_RKT1_
__ZN3WTF6RefPtrIN6WebKit10PluginView6StreamEEaSERKNS_10PassRefPtrIS3_EE
__ZN6WebKit10PluginView6Stream5startEv
__ZN3WTF6RefPtrIN7WebCore26NetscapePlugInStreamLoaderEEaSERKNS_10PassRefPtrIS2_EE
__ZN3WTF10RefCountedIN6WebKit10PluginView10URLRequestEE5derefEv
__ZN6WebKit10PluginView6Stream18didReceiveResponseEPN7WebCore26NetscapePlugInStreamLoaderERKNS2_16ResourceResponseE
__ZN6WebKitL16buildHTTPHeadersERKN7WebCore16ResourceResponseERx
__ZN6WebKit11PluginProxy24streamDidReceiveResponseEyRKN7WebCore4KURLEjjRKN3WTF6StringES8_S8_
__ZN7CoreIPC10Connection4sendIN8Messages21PluginControllerProxy24StreamDidReceiveResponseEEEbRKT_yj
__ZNK7CoreIPC10Arguments6IyRKN3WTF6StringEjjS4_S4_E6encodeERNS_15ArgumentEncoderE
__ZNK7CoreIPC10Arguments4IyRKN3WTF6StringEjjE6encodeERNS_15ArgumentEncoderE
__ZNK7WebCore32NetscapePlugInStreamLoaderClient15wantsAllStreamsEv
__ZN6WebKit10PluginView6Stream14didReceiveDataEPN7WebCore26NetscapePlugInStreamLoaderEPKci
__ZN6WebKit11PluginProxy20streamDidReceiveDataEyPKci
__ZN7CoreIPC10Connection4sendIN8Messages21PluginControllerProxy20StreamDidReceiveDataEEEbRKT_yj
__ZN6WebKit10PluginView6Stream16didFinishLoadingEPN7WebCore26NetscapePlugInStreamLoaderE
__ZN6WebKit11PluginProxy22streamDidFinishLoadingEy
__ZN7CoreIPC10Connection4sendIN8Messages21PluginControllerProxy22StreamDidFinishLoadingEEEbRKT_yj
__ZN3WTF7HashMapIyNS_6RefPtrIN6WebKit10PluginView6StreamEEENS_7IntHashIyEENS_10HashTraitsIyEENS8_IS5_EEE6removeERKy
__ZN3WTF9HashTableIyNS_12KeyValuePairIyNS_6RefPtrIN6WebKit10PluginView6StreamEEEEENS_24KeyValuePairKeyExtractorIS7_EENS_7IntHashIyEENS_18HashMapValueTraitsINS_10HashTraitsIyEENSD_IS6_EEEESE_E12deleteBucketERS7_
__ZN3WTF9HashTableIyNS_12KeyValuePairIyNS_6RefPtrIN6WebKit10PluginView6StreamEEEEENS_24KeyValuePairKeyExtractorIS7_EENS_7IntHashIyEENS_18HashMapValueTraitsINS_10HashTraitsIyEENSD_IS6_EEEESE_E15deallocateTableEPS7_i
__ZN3WTF9HashTableIyNS_12KeyValuePairIyNS_6RefPtrIN6WebKit10PluginView6StreamEEEEENS_24KeyValuePairKeyExtractorIS7_EENS_7IntHashIyEENS_18HashMapValueTraitsINS_10HashTraitsIyEENSD_IS6_EEEESE_E16lookupForWritingINS_22IdentityHashTranslatorISB_EEyEENSt3__14pairIPS7_bEERKT0_
__ZN3WTF9HashTableIyNS_12KeyValuePairIyNS_6RefPtrIN6WebKit10PluginView6StreamEEEEENS_24KeyValuePairKeyExtractorIS7_EENS_7IntHashIyEENS_18HashMapValueTraitsINS_10HashTraitsIyEENSD_IS6_EEEESE_E3addINS_17HashMapTranslatorISG_SB_EEyNS_10PassRefPtrIS5_EEEENS_18HashTableAddResultINS_17HashTableIteratorIyS7_S9_SB_SG_SE_EEEERKT0_RKT1_
__ZN3WTF9HashTableIyNS_12KeyValuePairIyNS_6RefPtrIN6WebKit10PluginView6StreamEEEEENS_24KeyValuePairKeyExtractorIS7_EENS_7IntHashIyEENS_18HashMapValueTraitsINS_10HashTraitsIyEENSD_IS6_EEEESE_E4findINS_22IdentityHashTranslatorISB_EEyEENS_17HashTableIteratorIyS7_S9_SB_SG_SE_EERKT0_
__ZN3WTF9HashTableIyNS_12KeyValuePairIyNS_6RefPtrIN6WebKit10PluginView6StreamEEEEENS_24KeyValuePairKeyExtractorIS7_EENS_7IntHashIyEENS_18HashMapValueTraitsINS_10HashTraitsIyEENSD_IS6_EEEESE_E6expandEv
__ZN3WTF9HashTableIyNS_12KeyValuePairIyNS_6RefPtrIN6WebKit10PluginView6StreamEEEEENS_24KeyValuePairKeyExtractorIS7_EENS_7IntHashIyEENS_18HashMapValueTraitsINS_10HashTraitsIyEENSD_IS6_EEEESE_E6lookupINS_22IdentityHashTranslatorISB_EEyEEPS7_RKT0_
__ZN3WTF9HashTableIyNS_12KeyValuePairIyNS_6RefPtrIN6WebKit10PluginView6StreamEEEEENS_24KeyValuePairKeyExtractorIS7_EENS_7IntHashIyEENS_18HashMapValueTraitsINS_10HashTraitsIyEENSD_IS6_EEEESE_E6rehashEi
__ZN3WTF9HashTableIyNS_12KeyValuePairIyNS_6RefPtrIN6WebKit10PluginView6StreamEEEEENS_24KeyValuePairKeyExtractorIS7_EENS_7IntHashIyEENS_18HashMapValueTraitsINS_10HashTraitsIyEENSD_IS6_EEEESE_E6removeEPS7_
__ZN6WebKit10PluginView6StreamD0Ev
__ZN6WebKit10PluginView6StreamD2Ev
__ZN6WebKit15WebChromeClient23enableSuddenTerminationEv
__ZN7CoreIPC13MessageSender4sendIN8Messages15WebProcessProxy23EnableSuddenTerminationEEEbRKT_y
__ZN6WebKit20WebFrameLoaderClient19saveViewStateToItemEPN7WebCore11HistoryItemE
__ZN6WebKit20WebFrameLoaderClient19detachedFromParent2Ev
__ZN6WebKit30InjectedBundlePageLoaderClient27didRemoveFrameFromHierarchyEPNS_7WebPageEPNS_8WebFrameERN3WTF6RefPtrINS_9APIObjectEEE
__ZN7CoreIPC13MessageSender4sendIN8Messages12WebPageProxy27DidRemoveFrameFromHierarchyEEEbRKT_y
__ZN6WebKit20WebFrameLoaderClient19detachedFromParent3Ev
__ZN6WebKit15WebEditorClient19frameWillDetachPageEPN7WebCore5FrameE
__ZN6WebKit20WebFrameLoaderClient20frameLoaderDestroyedEv
__ZN6WebKit8WebFrame10invalidateEv
__ZN6WebKit10WebProcess14removeWebFrameEy
__ZN3WTF7HashMapIyPN6WebKit8WebFrameENS_7IntHashIyEENS_10HashTraitsIyEENS6_IS3_EEE6removeERKy
__ZN7CoreIPC10Connection4sendIN8Messages15WebProcessProxy15DidDestroyFrameEEEbRKT_yj
__ZN6WebKit25WebFrameNetworkingContextD0Ev
__ZN6WebKit8WebFrameD0Ev
__ZN6WebKit20WebFrameLoaderClientD1Ev
__ZN6WebKit20WebFrameLoaderClientD2Ev
__ZN6WebKit10PluginView15clipRectChangedEv
__ZN3JSC20StringSourceProviderD0Ev
__ZN7CoreIPC21handleMessageVariadicIN8Messages12WebPageProxy50DidReceiveServerRedirectForProvisionalLoadForFrameEN6WebKit12WebPageProxyEMS5_FvyRKN3WTF6StringERNS_14MessageDecoderEEEEvSB_PT0_T1_
__ZN6WebKit12WebPageProxy50didReceiveServerRedirectForProvisionalLoadForFrameEyRKN3WTF6StringERN7CoreIPC14MessageDecoderE
__ZN6WebKit13WebFrameProxy42didReceiveServerRedirectForProvisionalLoadERKN3WTF6StringE
__ZN6WebKit15WebLoaderClient50didReceiveServerRedirectForProvisionalLoadForFrameEPNS_12WebPageProxyEPNS_13WebFrameProxyEPNS_9APIObjectE
_WKErrorCopyLocalizedDescription
_WKErrorCopyWKErrorDomain
_WKPageLoadAlternateHTMLString
__ZN6WebKit12WebPageProxy23loadAlternateHTMLStringERKN3WTF6StringES4_S4_PNS_9APIObjectE
__ZN6WebKit15WebProcessProxy25assumeReadAccessToBaseURLERKN3WTF6StringE
__ZN6WebKit17ChildProcessProxy4sendIN8Messages7WebPage23LoadAlternateHTMLStringEEEbRKT_yj
__ZNK7CoreIPC10Arguments4IRKN3WTF6StringES4_S4_RKN6WebKit28WebContextUserMessageEncoderEE6encodeERNS_15ArgumentEncoderE
__ZNK3WTF6String10startsWithERKS0_
__ZN7CoreIPC13handleMessageIN8Messages15WebProcessProxy24DidPerformServerRedirectEN6WebKit15WebProcessProxyEMS5_FvyRKN3WTF6StringES9_yEEEvRNS_14MessageDecoderEPT0_T1_
__ZN6WebKit15WebProcessProxy24didPerformServerRedirectEyRKN3WTF6StringES4_y
__ZN6WebKit16WebHistoryClient24didPerformServerRedirectEPNS_10WebContextEPNS_12WebPageProxyERKN3WTF6StringES8_PNS_13WebFrameProxyE
__ZN3WTF9HashTableIyyNS_17IdentityExtractorENS_7IntHashIyEENS_10HashTraitsIyEES5_E16lookupForWritingINS_22IdentityHashTranslatorIS3_EEyEENSt3__14pairIPybEERKT0_
__ZN3WTF9HashTableIyyNS_17IdentityExtractorENS_7IntHashIyEENS_10HashTraitsIyEES5_E4findINS_22IdentityHashTranslatorIS3_EEyEENS_17HashTableIteratorIyyS1_S3_S5_S5_EERKT0_
__ZN6WebKit10PluginView18setWindowIsVisibleEb
__ZN6WebKit10PluginView18setWindowIsFocusedEb
__ZN3WTF9HashTableINS_6RefPtrIN7WebCore11HistoryItemEEENS_12KeyValuePairIS4_yEENS_24KeyValuePairKeyExtractorIS6_EENS_7PtrHashIS4_EENS_22KeyValuePairHashTraitsINS_10HashTraitsIS4_EENSC_IyEEEESD_E15deallocateTableEPS6_i
__ZN3WTF9HashTableINS_6RefPtrIN7WebCore11HistoryItemEEENS_12KeyValuePairIS4_yEENS_24KeyValuePairKeyExtractorIS6_EENS_7PtrHashIS4_EENS_22KeyValuePairHashTraitsINS_10HashTraitsIS4_EENSC_IyEEEESD_E16lookupForWritingINS_22IdentityHashTranslatorISA_EES4_EENSt3__14pairIPS6_bEERKT0_
__ZN3WTF9HashTableINS_6RefPtrIN7WebCore11HistoryItemEEENS_12KeyValuePairIS4_yEENS_24KeyValuePairKeyExtractorIS6_EENS_7PtrHashIS4_EENS_22KeyValuePairHashTraitsINS_10HashTraitsIS4_EENSC_IyEEEESD_E3addINS_17HashMapTranslatorISF_SA_EES4_yEENS_18HashTableAddResultINS_17HashTableIteratorIS4_S6_S8_SA_SF_SD_EEEERKT0_RKT1_
__ZN3WTF9HashTableINS_6RefPtrIN7WebCore11HistoryItemEEENS_12KeyValuePairIS4_yEENS_24KeyValuePairKeyExtractorIS6_EENS_7PtrHashIS4_EENS_22KeyValuePairHashTraitsINS_10HashTraitsIS4_EENSC_IyEEEESD_E4findINS_22IdentityHashTranslatorISA_EES4_EENS_17HashTableIteratorIS4_S6_S8_SA_SF_SD_EERKT0_
__ZN3WTF9HashTableINS_6RefPtrIN7WebCore11HistoryItemEEENS_12KeyValuePairIS4_yEENS_24KeyValuePairKeyExtractorIS6_EENS_7PtrHashIS4_EENS_22KeyValuePairHashTraitsINS_10HashTraitsIS4_EENSC_IyEEEESD_E6expandEv
__ZN3WTF9HashTableINS_6RefPtrIN7WebCore11HistoryItemEEENS_12KeyValuePairIS4_yEENS_24KeyValuePairKeyExtractorIS6_EENS_7PtrHashIS4_EENS_22KeyValuePairHashTraitsINS_10HashTraitsIS4_EENSC_IyEEEESD_E6lookupINS_17HashMapTranslatorISF_SA_EEPS3_EEPS6_RKT0_
__ZN3WTF9HashTableINS_6RefPtrIN7WebCore11HistoryItemEEENS_12KeyValuePairIS4_yEENS_24KeyValuePairKeyExtractorIS6_EENS_7PtrHashIS4_EENS_22KeyValuePairHashTraitsINS_10HashTraitsIS4_EENSC_IyEEEESD_E6lookupINS_22IdentityHashTranslatorISA_EES4_EEPS6_RKT0_
__ZN3WTF9HashTableINS_6RefPtrIN7WebCore11HistoryItemEEENS_12KeyValuePairIS4_yEENS_24KeyValuePairKeyExtractorIS6_EENS_7PtrHashIS4_EENS_22KeyValuePairHashTraitsINS_10HashTraitsIS4_EENSC_IyEEEESD_E6rehashEi
__ZN3WTF9HashTableINS_6RefPtrIN7WebCore11HistoryItemEEENS_12KeyValuePairIS4_yEENS_24KeyValuePairKeyExtractorIS6_EENS_7PtrHashIS4_EENS_22KeyValuePairHashTraitsINS_10HashTraitsIS4_EENSC_IyEEEESD_E6removeEPS6_
__ZNK6WebKit11PluginProxy17needsBackingStoreEv
__ZN6WebKit15ShareableBitmap6createERKN7WebCore7IntSizeEj
__ZN6WebKit15ShareableBitmap15createShareableERKN7WebCore7IntSizeEj
__ZN6WebKit15ShareableBitmap12createHandleERNS0_6HandleENS_12SharedMemory10ProtectionE
__ZN7WebCore22DeferrableOneShotTimerIN6WebKit10PluginViewEE7restartEv
__ZN6WebKit11PluginProxy6updateERKN7WebCore7IntRectE
__ZN6WebKit15ShareableBitmap21createGraphicsContextEv
__ZNK6WebKit15ShareableBitmap4dataEv
__ZN3WTF10PassOwnPtrIN7WebCore15GraphicsContextEED2Ev
__ZN6WebKit15ShareableBitmap5paintERN7WebCore15GraphicsContextEfRKNS1_8IntPointERKNS1_7IntRectE
__ZN6WebKit15ShareableBitmap15makeCGImageCopyEv
__ZN3WTF6OwnPtrIN7WebCore15GraphicsContextEED2Ev
__ZN6WebKit15ShareableBitmap24releaseBitmapContextDataEPvS1_
__ZN3WTF10RefCountedIN6WebKit15ShareableBitmapEE5derefEv
__ZN6WebKit10paintImageEP9CGContextP7CGImaged7CGPoint6CGRect
__ZThn64_N6WebKit10PluginView10invalidateERKN7WebCore7IntRectE
__ZN6WebKit10PluginView14invalidateRectERKN7WebCore7IntRectE
__ZN6WebKit12WebInspector29didReceiveWebInspectorMessageEPN7CoreIPC10ConnectionERNS1_14MessageDecoderE
__ZN6WebKit12WebInspector5closeEv
__ZN6WebKit10WebProcess28setProcessSuppressionEnabledEb
__ZN6WebKit7WebPage12setThrottledEb
__ZN6WebKit12ChildProcess28setProcessSuppressionEnabledEb
__ZN6WebKit10PluginView19horizontalScrollbarEv
__ZN6WebKit11PluginProxy19horizontalScrollbarEv
__ZN6WebKit10PluginView17verticalScrollbarEv
__ZN6WebKit11PluginProxy17verticalScrollbarEv
__ZN6WebKit14InjectedBundle22didInitializePageGroupEPNS_17WebPageGroupProxyE
__ZN6WebKit20InjectedBundleClient22didInitializePageGroupEPNS_14InjectedBundleEPNS_17WebPageGroupProxyE
__ZN6WebKit15DrawingAreaImpl6createEPNS_7WebPageERKNS_25WebPageCreationParametersE
__ZN6WebKit15DrawingAreaImplC2EPNS_7WebPageERKNS_25WebPageCreationParametersE
__ZN6WebKit15DrawingAreaImpl18setPaintingEnabledEb
__ZN3WTF9HashTableINS_6StringES1_NS_17IdentityExtractorENS_15CaseFoldingHashENS_10HashTraitsIS1_EES5_E3addINS_22IdentityHashTranslatorIS3_EES1_S1_EENS_18HashTableAddResultINS_17HashTableIteratorIS1_S1_S2_S3_S5_S5_EEEERKT0_RKT1_
__ZN3WTF9HashTableINS_6StringES1_NS_17IdentityExtractorENS_15CaseFoldingHashENS_10HashTraitsIS1_EES5_E6expandEv
__ZN3WTF9HashTableINS_6StringES1_NS_17IdentityExtractorENS_15CaseFoldingHashENS_10HashTraitsIS1_EES5_E6rehashEi
__ZN3WTF9HashTableINS_6StringES1_NS_17IdentityExtractorENS_15CaseFoldingHashENS_10HashTraitsIS1_EES5_E15deallocateTableEPS1_i
__ZN6WebKit15DrawingAreaImpl17updatePreferencesERKNS_19WebPreferencesStoreE
__ZN6WebKit11DrawingArea32didChangeScrollOffsetForAnyFrameEv
__ZN6WebKit15DrawingAreaImpl21setNeedsDisplayInRectERKN7WebCore7IntRectE
__ZN6WebKit11DrawingArea27mainFrameContentSizeChangedERKN7WebCore7IntSizeE
__ZN7CoreIPC13handleMessageIN8Messages7WebPage20PreferencesDidChangeEN6WebKit7WebPageEMS5_FvRKNS4_19WebPreferencesStoreEEEEvRNS_14MessageDecoderEPT0_T1_
__ZN6WebKit7WebPage20preferencesDidChangeERKNS_19WebPreferencesStoreE
__ZN6WebKit19WebPreferencesStore25removeTestRunnerOverridesEv
__ZN7WebCore22DeferrableOneShotTimerIN6WebKit10PluginViewEE5firedEv
__ZN6WebKit10PluginView24pluginSnapshotTimerFiredEPN7WebCore22DeferrableOneShotTimerIS0_EE
__ZNK6WebKit11PluginProxy20supportsSnapshottingEv
__ZN7CoreIPC10Connection8sendSyncIN8Messages21PluginControllerProxy20SupportsSnapshottingEEEbRKT_RKNS5_5ReplyEydj
__ZN6WebKit7WebPage14setMediaVolumeEf
__ZN7CoreIPC21handleMessageVariadicIN8Messages7WebPage7LoadURLEN6WebKit7WebPageEMS5_FvRKN3WTF6StringERKNS4_16SandboxExtension6HandleERNS_14MessageDecoderEEEEvSF_PT0_T1_
__ZN7CoreIPC10Arguments2IN3WTF6StringEN6WebKit16SandboxExtension6HandleEE6decodeERNS_15ArgumentDecoderERS6_
__ZN6WebKit7WebPage7loadURLERKN3WTF6StringERKNS_16SandboxExtension6HandleERN7CoreIPC14MessageDecoderE
__ZN6WebKit11PluginProxy8snapshotEv
__ZN7CoreIPC10Connection8sendSyncIN8Messages21PluginControllerProxy8SnapshotEEEbRKT_RKNS5_5ReplyEydj
__ZN6WebKit15ShareableBitmap6Handle6decodeERN7CoreIPC15ArgumentDecoderERS1_
__ZN6WebKit15ShareableBitmap6createERKNS0_6HandleENS_12SharedMemory10ProtectionE
__ZN6WebKit15ShareableBitmap11createImageEv
__ZN6WebKit15ShareableBitmap11makeCGImageEv
__ZNK6WebKit15ShareableBitmap13createCGImageEP14CGDataProvider
__ZN3WTF6RefPtrIN7WebCore5ImageEEaSERKNS_10PassRefPtrIS2_EE
__ZN6WebKit15DrawingAreaImpl25setLayerTreeStateIsFrozenEb
__ZN6WebKit10PluginViewD0Ev
__ZN6WebKit10PluginViewD2Ev
__ZN6WebKit7WebPage16removePluginViewEPNS_10PluginViewE
__ZN3WTF7HashSetIPN6WebKit10PluginViewENS_7PtrHashIS3_EENS_10HashTraitsIS3_EEE6removeERKS3_
__ZNK3WTF9HashTableIPN6WebKit10PluginViewES3_NS_17IdentityExtractorENS_7PtrHashIS3_EENS_10HashTraitsIS3_EES8_E4findINS_22IdentityHashTranslatorIS6_EES3_EENS_22HashTableConstIteratorIS3_S3_S4_S6_S8_S8_EERKT0_
__ZN3WTF9HashTableIPN6WebKit10PluginViewES3_NS_17IdentityExtractorENS_7PtrHashIS3_EENS_10HashTraitsIS3_EES8_E6lookupINS_22IdentityHashTranslatorIS6_EES3_EEPS3_RKT0_
__ZN3WTF9HashTableIPN6WebKit10PluginViewES3_NS_17IdentityExtractorENS_7PtrHashIS3_EENS_10HashTraitsIS3_EES8_E6removeEPS3_
__ZN6WebKit10PluginView21destroyPluginAndResetEv
__ZN6WebKit6Plugin13destroyPluginEv
__ZN6WebKit11PluginProxy7destroyEv
__ZN7CoreIPC10Connection8sendSyncIN8Messages20WebProcessConnection13DestroyPluginEEEbRKT_RKNS5_5ReplyEydj
__ZN7CoreIPC10Connection18connectionDidCloseEv
__ZN7CoreIPC10Connection18platformInvalidateEv
____ZN7CoreIPC10Connection24initializeDeadNameSourceEv_block_invoke
__ZN6WebKit23PluginProcessConnection17removePluginProxyEPNS_11PluginProxyE
____ZN7CoreIPCL25createDataAvailableSourceEjP9WorkQueueRKN3WTF8FunctionIFvvEEE_block_invoke
__ZN3WTF7HashMapIyPN6WebKit11PluginProxyENS_7IntHashIyEENS_10HashTraitsIyEENS6_IS3_EEE6removeERKy
__ZN6WebKit17NPRemoteObjectMap15pluginDestroyedEPNS_6PluginE
__ZN3WTF6VectorIPN6WebKit23NPObjectMessageReceiverELm0ENS_15CrashOnOverflowEE14appendSlowCaseIS3_EEvRKT_
__ZN3WTF6VectorIPN6WebKit23NPObjectMessageReceiverELm0ENS_15CrashOnOverflowEE14expandCapacityEmPKS3_
__ZN3WTF6VectorIPN6WebKit23NPObjectMessageReceiverELm0ENS_15CrashOnOverflowEE15reserveCapacityEm
__ZN3WTF16VectorBufferBaseIPN6WebKit23NPObjectMessageReceiverEE14allocateBufferEm
__ZN3WTF15deleteAllValuesIPN6WebKit23NPObjectMessageReceiverELm0ENS_15CrashOnOverflowEEEvRKNS_6VectorIT_XT0_ET1_EE
__ZN6WebKit23NPObjectMessageReceiverD1Ev
__ZNK3WTF9HashTableIPN6WebKit13NPObjectProxyES3_NS_17IdentityExtractorENS_7PtrHashIS3_EENS_10HashTraitsIS3_EES8_E5beginEv
__ZN3WTF10RefCountedIN6WebKit17NPRemoteObjectMapEE5derefEv
__ZN6WebKit17NPRemoteObjectMapD1Ev
__ZN6WebKit17NPRemoteObjectMapD2Ev
__ZN7CoreIPC10Connection10invalidateEv
__ZN6WebKit30PluginProcessConnectionManager29removePluginProcessConnectionEPNS_23PluginProcessConnectionE
__ZN3WTF7HashMapIyNS_6RefPtrIN7CoreIPC10ConnectionEEENS_7IntHashIyEENS_10HashTraitsIyEENS7_IS4_EEE6removeERKy
__ZN3WTF9HashTableIyNS_12KeyValuePairIyNS_6RefPtrIN7CoreIPC10ConnectionEEEEENS_24KeyValuePairKeyExtractorIS6_EENS_7IntHashIyEENS_18HashMapValueTraitsINS_10HashTraitsIyEENSC_IS5_EEEESD_E15deallocateTableEPS6_i
__ZN3WTF9HashTableIyNS_12KeyValuePairIyNS_6RefPtrIN7CoreIPC10ConnectionEEEEENS_24KeyValuePairKeyExtractorIS6_EENS_7IntHashIyEENS_18HashMapValueTraitsINS_10HashTraitsIyEENSC_IS5_EEEESD_E16lookupForWritingINS_22IdentityHashTranslatorISA_EEyEENSt3__14pairIPS6_bEERKT0_
__ZN3WTF9HashTableIyNS_12KeyValuePairIyNS_6RefPtrIN7CoreIPC10ConnectionEEEEENS_24KeyValuePairKeyExtractorIS6_EENS_7IntHashIyEENS_18HashMapValueTraitsINS_10HashTraitsIyEENSC_IS5_EEEESD_E3addINS_17HashMapTranslatorISF_SA_EEyNS_10PassRefPtrIS4_EEEENS_18HashTableAddResultINS_17HashTableIteratorIyS6_S8_SA_SF_SD_EEEERKT0_RKT1_
__ZN3WTF9HashTableIyNS_12KeyValuePairIyNS_6RefPtrIN7CoreIPC10ConnectionEEEEENS_24KeyValuePairKeyExtractorIS6_EENS_7IntHashIyEENS_18HashMapValueTraitsINS_10HashTraitsIyEENSC_IS5_EEEESD_E4findINS_22IdentityHashTranslatorISA_EEyEENS_17HashTableIteratorIyS6_S8_SA_SF_SD_EERKT0_
__ZN3WTF9HashTableIyNS_12KeyValuePairIyNS_6RefPtrIN7CoreIPC10ConnectionEEEEENS_24KeyValuePairKeyExtractorIS6_EENS_7IntHashIyEENS_18HashMapValueTraitsINS_10HashTraitsIyEENSC_IS5_EEEESD_E6expandEv
__ZN3WTF9HashTableIyNS_12KeyValuePairIyNS_6RefPtrIN7CoreIPC10ConnectionEEEEENS_24KeyValuePairKeyExtractorIS6_EENS_7IntHashIyEENS_18HashMapValueTraitsINS_10HashTraitsIyEENSC_IS5_EEEESD_E6lookupINS_22IdentityHashTranslatorISA_EEyEEPS6_RKT0_
__ZN3WTF9HashTableIyNS_12KeyValuePairIyNS_6RefPtrIN7CoreIPC10ConnectionEEEEENS_24KeyValuePairKeyExtractorIS6_EENS_7IntHashIyEENS_18HashMapValueTraitsINS_10HashTraitsIyEENSC_IS5_EEEESD_E6rehashEi
__ZN3WTF9HashTableIyNS_12KeyValuePairIyNS_6RefPtrIN7CoreIPC10ConnectionEEEEENS_24KeyValuePairKeyExtractorIS6_EENS_7IntHashIyEENS_18HashMapValueTraitsINS_10HashTraitsIyEENSC_IS5_EEEESD_E6removeEPS6_
__ZN3WTF6VectorINS_6RefPtrIN6WebKit23PluginProcessConnectionEEELm0ENS_15CrashOnOverflowEE6removeEm
__ZN3WTF5DequeINS_6RefPtrIN6WebKit10PluginView10URLRequestEEELm0EE5clearEv
__ZN3WTF5DequeINS_6RefPtrIN6WebKit10PluginView10URLRequestEEELm0EE10destroyAllEv
__ZN6WebKit18NPRuntimeObjectMap10invalidateEv
__ZN3WTF6VectorIPN6WebKit10NPJSObjectELm0ENS_15CrashOnOverflowEE6resizeEm
__ZNK3WTF9HashTableIPN3JSC8JSObjectENS_12KeyValuePairIS3_PN6WebKit10NPJSObjectEEENS_24KeyValuePairKeyExtractorIS8_EENS_7PtrHashIS3_EENS_18HashMapValueTraitsINS_10HashTraitsIS3_EENSE_IS7_EEEESF_E5beginEv
__ZN3WTF6VectorIP8NPObjectLm0ENS_15CrashOnOverflowEED1Ev
__ZN6WebKit10PluginView16cancelAllStreamsEv
__ZN3WTF6VectorINS_6RefPtrIN6WebKit10PluginView6StreamEEELm0ENS_15CrashOnOverflowEE6resizeEm
__ZN3WTF16VectorDestructorILb1ENS_6RefPtrIN6WebKit10PluginView6StreamEEEE8destructEPS5_S7_
__ZN3WTF6VectorINS_6RefPtrIN6WebKit10PluginView6StreamEEELm0ENS_15CrashOnOverflowEED2Ev
__ZN3WTF5DequeINS_6RefPtrIN6WebKit10PluginView10URLRequestEEELm0EED2Ev
__ZN6WebKit11PluginProxyD0Ev
__ZN6WebKit11PluginProxyD2Ev
__ZN6WebKit15ShareableBitmapD1Ev
__ZN6WebKit15ShareableBitmapD2Ev
__ZN6WebKit23PluginProcessConnectionD0Ev
__ZN6WebKit23PluginProcessConnectionD2Ev
__ZN6WebKit6PluginD2Ev
__ZNK6WebKit15WebChromeClient17plugInExtraScriptEv
__ZNK6WebKit26InjectedBundlePageUIClient17plugInExtraScriptEv
__ZNK6WebKit15WebChromeClient21plugInStartLabelTitleERKN3WTF6StringE
__ZNK6WebKit26InjectedBundlePageUIClient21plugInStartLabelTitleERKN3WTF6StringE
__ZNK6WebKit15WebChromeClient24plugInStartLabelSubtitleERKN3WTF6StringE
__ZNK6WebKit26InjectedBundlePageUIClient24plugInStartLabelSubtitleERKN3WTF6StringE
__ZN7CoreIPC10Connection26dispatchConnectionDidCloseEv
__ZN7CoreIPC10ConnectionD1Ev
__ZN7CoreIPC10ConnectionD2Ev
__ZN3WTF5DequeINS_6OwnPtrIN7CoreIPC14MessageEncoderEEELm0EED2Ev
__ZN3WTF5DequeINS_6OwnPtrIN7CoreIPC14MessageEncoderEEELm0EE10destroyAllEv
__ZN3WTF5DequeINS_6OwnPtrIN7CoreIPC14MessageDecoderEEELm0EED2Ev
__ZN3WTF5DequeINS_6OwnPtrIN7CoreIPC14MessageDecoderEEELm0EE10destroyAllEv
-[WKCustomProtocol initWithRequest:cachedResponse:client:]
__ZN6WebKit21CustomProtocolManager17addCustomProtocolEP16WKCustomProtocol
-[WKCustomProtocol customProtocolID]
__ZN3WTF9RetainPtrI16WKCustomProtocolEC2EPS1_
__ZN3WTF9RetainPtrI16WKCustomProtocolEaSERKS2_
+[WKCustomProtocol canonicalRequestForRequest:]
-[WKCustomProtocol startLoading]
__ZN7CoreIPC13MessageSender4sendIN8Messages26CustomProtocolManagerProxy12StartLoadingEEEbRKT_y
__ZThn8_N6WebKit12ChildProcess23messageSenderConnectionEv
__ZN6WebKit26CustomProtocolManagerProxy17didReceiveMessageEPN7CoreIPC10ConnectionERNS1_14MessageDecoderE
__ZN7CoreIPC13handleMessageIN8Messages26CustomProtocolManagerProxy12StartLoadingEN6WebKit26CustomProtocolManagerProxyEMS5_FvyRKN7WebCore15ResourceRequestEEEEvRNS_14MessageDecoderEPT0_T1_
__ZN7CoreIPC10Arguments2IyN7WebCore15ResourceRequestEE6decodeERNS_15ArgumentDecoderERS3_
__ZN6WebKit26CustomProtocolManagerProxy12startLoadingEyRKN7WebCore15ResourceRequestE
-[WKCustomProtocolLoader .cxx_construct]
-[WKCustomProtocolLoader initWithCustomProtocolManagerProxy:customProtocolID:request:connection:]
__ZN3WTF9RetainPtrI22WKCustomProtocolLoaderEC2EPS1_
__ZN3WTF9RetainPtrI22WKCustomProtocolLoaderEaSERKS2_
-[WKCustomProtocolLoader connection:willSendRequest:redirectResponse:]
-[WKCustomProtocolLoader connection:didReceiveResponse:]
__ZN7CoreIPC10Connection4sendIN8Messages21CustomProtocolManager18DidReceiveResponseEEEbRKT_yj
-[WKCustomProtocolLoader connection:didReceiveData:]
__ZN7CoreIPC10Connection4sendIN8Messages21CustomProtocolManager11DidLoadDataEEEbRKT_yj
__ZN7CoreIPC13handleMessageIN8Messages21CustomProtocolManager18DidReceiveResponseEN6WebKit21CustomProtocolManagerEMS5_FvyRKN7WebCore16ResourceResponseEjEEEvRNS_14MessageDecoderEPT0_T1_
-[WKCustomProtocolLoader connectionDidFinishLoading:]
__ZN7CoreIPC10Arguments3IyN7WebCore16ResourceResponseEjE6decodeERNS_15ArgumentDecoderERS3_
__ZN7CoreIPC10Arguments2IyN7WebCore16ResourceResponseEE6decodeERNS_15ArgumentDecoderERS3_
__ZN7CoreIPC10Connection4sendIN8Messages21CustomProtocolManager16DidFinishLoadingEEEbRKT_yj
__ZN3WTF7HashMapIyNS_9RetainPtrI22WKCustomProtocolLoaderEENS_7IntHashIyEENS_10HashTraitsIyEENS6_IS3_EEE6removeERKy
__ZN3WTF9HashTableIyNS_12KeyValuePairIyNS_9RetainPtrI22WKCustomProtocolLoaderEEEENS_24KeyValuePairKeyExtractorIS5_EENS_7IntHashIyEENS_18HashMapValueTraitsINS_10HashTraitsIyEENSB_IS4_EEEESC_E15deallocateTableEPS5_i
__ZN3WTF9HashTableIyNS_12KeyValuePairIyNS_9RetainPtrI22WKCustomProtocolLoaderEEEENS_24KeyValuePairKeyExtractorIS5_EENS_7IntHashIyEENS_18HashMapValueTraitsINS_10HashTraitsIyEENSB_IS4_EEEESC_E16lookupForWritingINS_22IdentityHashTranslatorIS9_EEyEENSt3__14pairIPS5_bEERKT0_
__ZN3WTF9HashTableIyNS_12KeyValuePairIyNS_9RetainPtrI22WKCustomProtocolLoaderEEEENS_24KeyValuePairKeyExtractorIS5_EENS_7IntHashIyEENS_18HashMapValueTraitsINS_10HashTraitsIyEENSB_IS4_EEEESC_E3addINS_17HashMapTranslatorISE_S9_EEyS4_EENS_18HashTableAddResultINS_17HashTableIteratorIyS5_S7_S9_SE_SC_EEEERKT0_RKT1_
__ZN3WTF9HashTableIyNS_12KeyValuePairIyNS_9RetainPtrI22WKCustomProtocolLoaderEEEENS_24KeyValuePairKeyExtractorIS5_EENS_7IntHashIyEENS_18HashMapValueTraitsINS_10HashTraitsIyEENSB_IS4_EEEESC_E4findINS_22IdentityHashTranslatorIS9_EEyEENS_17HashTableIteratorIyS5_S7_S9_SE_SC_EERKT0_
__ZN3WTF9HashTableIyNS_12KeyValuePairIyNS_9RetainPtrI22WKCustomProtocolLoaderEEEENS_24KeyValuePairKeyExtractorIS5_EENS_7IntHashIyEENS_18HashMapValueTraitsINS_10HashTraitsIyEENSB_IS4_EEEESC_E6expandEv
__ZN3WTF9HashTableIyNS_12KeyValuePairIyNS_9RetainPtrI22WKCustomProtocolLoaderEEEENS_24KeyValuePairKeyExtractorIS5_EENS_7IntHashIyEENS_18HashMapValueTraitsINS_10HashTraitsIyEENSB_IS4_EEEESC_E6lookupINS_22IdentityHashTranslatorIS9_EEyEEPS5_RKT0_
__ZN3WTF9HashTableIyNS_12KeyValuePairIyNS_9RetainPtrI22WKCustomProtocolLoaderEEEENS_24KeyValuePairKeyExtractorIS5_EENS_7IntHashIyEENS_18HashMapValueTraitsINS_10HashTraitsIyEENSB_IS4_EEEESC_E6rehashEi
__ZN3WTF9HashTableIyNS_12KeyValuePairIyNS_9RetainPtrI22WKCustomProtocolLoaderEEEENS_24KeyValuePairKeyExtractorIS5_EENS_7IntHashIyEENS_18HashMapValueTraitsINS_10HashTraitsIyEENSB_IS4_EEEESC_E6removeEPS5_
__ZN6WebKit21CustomProtocolManager18didReceiveResponseEyRKN7WebCore16ResourceResponseEj
__ZN6WebKit21CustomProtocolManager13protocolForIDEy
__ZN3WTF9HashTableIyNS_12KeyValuePairIyNS_9RetainPtrI16WKCustomProtocolEEEENS_24KeyValuePairKeyExtractorIS5_EENS_7IntHashIyEENS_18HashMapValueTraitsINS_10HashTraitsIyEENSB_IS4_EEEESC_E15deallocateTableEPS5_i
__ZN3WTF9HashTableIyNS_12KeyValuePairIyNS_9RetainPtrI16WKCustomProtocolEEEENS_24KeyValuePairKeyExtractorIS5_EENS_7IntHashIyEENS_18HashMapValueTraitsINS_10HashTraitsIyEENSB_IS4_EEEESC_E16lookupForWritingINS_22IdentityHashTranslatorIS9_EEyEENSt3__14pairIPS5_bEERKT0_
__ZN3WTF9HashTableIyNS_12KeyValuePairIyNS_9RetainPtrI16WKCustomProtocolEEEENS_24KeyValuePairKeyExtractorIS5_EENS_7IntHashIyEENS_18HashMapValueTraitsINS_10HashTraitsIyEENSB_IS4_EEEESC_E3addINS_17HashMapTranslatorISE_S9_EEyS4_EENS_18HashTableAddResultINS_17HashTableIteratorIyS5_S7_S9_SE_SC_EEEERKT0_RKT1_
__ZN3WTF9HashTableIyNS_12KeyValuePairIyNS_9RetainPtrI16WKCustomProtocolEEEENS_24KeyValuePairKeyExtractorIS5_EENS_7IntHashIyEENS_18HashMapValueTraitsINS_10HashTraitsIyEENSB_IS4_EEEESC_E4findINS_22IdentityHashTranslatorIS9_EEyEENS_17HashTableIteratorIyS5_S7_S9_SE_SC_EERKT0_
__ZN3WTF9HashTableIyNS_12KeyValuePairIyNS_9RetainPtrI16WKCustomProtocolEEEENS_24KeyValuePairKeyExtractorIS5_EENS_7IntHashIyEENS_18HashMapValueTraitsINS_10HashTraitsIyEENSB_IS4_EEEESC_E6expandEv
__ZN3WTF9HashTableIyNS_12KeyValuePairIyNS_9RetainPtrI16WKCustomProtocolEEEENS_24KeyValuePairKeyExtractorIS5_EENS_7IntHashIyEENS_18HashMapValueTraitsINS_10HashTraitsIyEENSB_IS4_EEEESC_E6lookupINS_22IdentityHashTranslatorIS9_EEyEEPS5_RKT0_
__ZN3WTF9HashTableIyNS_12KeyValuePairIyNS_9RetainPtrI16WKCustomProtocolEEEENS_24KeyValuePairKeyExtractorIS5_EENS_7IntHashIyEENS_18HashMapValueTraitsINS_10HashTraitsIyEENSB_IS4_EEEESC_E6rehashEi
__ZN3WTF9HashTableIyNS_12KeyValuePairIyNS_9RetainPtrI16WKCustomProtocolEEEENS_24KeyValuePairKeyExtractorIS5_EENS_7IntHashIyEENS_18HashMapValueTraitsINS_10HashTraitsIyEENSB_IS4_EEEESC_E6removeEPS5_
__ZN3WTF9RetainPtrI16WKCustomProtocolEC2ERKS2_
__ZN3WTF9RetainPtrI13NSURLResponseEC2ERKS2_
-[WKCustomProtocolLoader dealloc]
___copy_helper_block_48
-[WKCustomProtocolLoader .cxx_destruct]
____ZN6WebKit21CustomProtocolManager18didReceiveResponseEyRKN7WebCore16ResourceResponseEj_block_invoke
__ZN7CoreIPC13handleMessageIN8Messages21CustomProtocolManager11DidLoadDataEN6WebKit21CustomProtocolManagerEMS5_FvyRKNS_13DataReferenceEEEEvRNS_14MessageDecoderEPT0_T1_
__ZN7CoreIPC10Arguments2IyNS_13DataReferenceEE6decodeERNS_15ArgumentDecoderERS2_
__ZN6WebKit21CustomProtocolManager11didLoadDataEyRKN7CoreIPC13DataReferenceE
___destroy_helper_block_49
__ZN3WTF9RetainPtrI6NSDataEC2ERKS2_
___copy_helper_block_42
__ZN6WebKit21CustomProtocolManager16didFinishLoadingEy
____ZN6WebKit21CustomProtocolManager11didLoadDataEyRKN7CoreIPC13DataReferenceE_block_invoke
___copy_helper_block_54
__ZN6WebKit21CustomProtocolManager20removeCustomProtocolEP16WKCustomProtocol
__ZN3WTF7HashMapIyNS_9RetainPtrI16WKCustomProtocolEENS_7IntHashIyEENS_10HashTraitsIyEENS6_IS3_EEE6removeERKy
___destroy_helper_block_43
____ZN6WebKit21CustomProtocolManager16didFinishLoadingEy_block_invoke
___destroy_helper_block_55
-[WKCustomProtocol stopLoading]
__ZN7CoreIPC13MessageSender4sendIN8Messages26CustomProtocolManagerProxy11StopLoadingEEEbRKT_y
__ZN6WebKit26CustomProtocolManagerProxy11stopLoadingEy
__ZN7CoreIPC10Connection8sendSyncIN8Messages12WebPageProxy27DecidePolicyForResponseSyncEEEbRKT_RKNS5_5ReplyEydj
__ZNK7CoreIPC10Arguments4IyRKN7WebCore16ResourceResponseERKNS1_15ResourceRequestEyE6encodeERNS_15ArgumentEncoderE
__ZN7CoreIPC21handleMessageVariadicIN8Messages12WebPageProxy27DecidePolicyForResponseSyncEN6WebKit12WebPageProxyEMS5_FvyRKN7WebCore16ResourceResponseERKNS6_15ResourceRequestEyRNS_14MessageDecoderERbRySG_EEEvSE_RNS_14MessageEncoderEPT0_T1_
__ZN7CoreIPC10Arguments4IyN7WebCore16ResourceResponseENS1_15ResourceRequestEyE6decodeERNS_15ArgumentDecoderERS4_
__ZN7CoreIPC10Arguments3IyN7WebCore16ResourceResponseENS1_15ResourceRequestEE6decodeERNS_15ArgumentDecoderERS4_
__ZN7CoreIPC18callMemberFunctionIN6WebKit12WebPageProxyEMS2_FvyRKN7WebCore16ResourceResponseERKNS3_15ResourceRequestEyRNS_14MessageDecoderERbRySD_EyS4_S7_ybyyEEvRKNS_10Arguments4IT1_T2_T3_T4_EESB_RNS_10Arguments3IT5_T6_T7_EEPT_T0_
__ZN6WebKit12WebPageProxy27decidePolicyForResponseSyncEyRKN7WebCore16ResourceResponseERKNS1_15ResourceRequestEyRN7CoreIPC14MessageDecoderERbRySC_
__ZN6WebKit12WebPageProxy23decidePolicyForResponseEyRKN7WebCore16ResourceResponseERKNS1_15ResourceRequestEyRN7CoreIPC14MessageDecoderE
__ZN6WebKit15WebPolicyClient23decidePolicyForResponseEPNS_12WebPageProxyEPNS_13WebFrameProxyERKN7WebCore16ResourceResponseERKNS5_15ResourceRequestEPNS_27WebFramePolicyListenerProxyEPNS_9APIObjectE
__ZN3WTF9HashTableINS_6StringES1_NS_17IdentityExtractorENS_15CaseFoldingHashENS_10HashTraitsIS1_EES5_E6lookupINS_22IdentityHashTranslatorIS3_EES1_EEPS1_RKT0_
__ZN6WebKit15DrawingAreaImpl20graphicsLayerFactoryEv
__ZN6WebKit15DrawingAreaImpl29scheduleCompositingLayerFlushEv
__ZN6WebKit15DrawingAreaImpl23setRootCompositingLayerEPN7WebCore13GraphicsLayerE
__ZN6WebKit15DrawingAreaImpl31enterAcceleratedCompositingModeEPN7WebCore13GraphicsLayerE
__ZN6WebKit13LayerTreeHost6createEPNS_7WebPageE
__ZN6WebKit16LayerTreeHostMac6createEPNS_7WebPageE
__ZN6WebKit16LayerTreeHostMacC2EPNS_7WebPageE
__ZN6WebKit13LayerTreeHostC2EPNS_7WebPageE
__ZN6WebKit16LayerTreeHostMac10initializeEv
__ZN6WebKit13LayerTreeHost20graphicsLayerFactoryEv
__ZNK7WebCore19GraphicsLayerClient21shouldUseTiledBackingEPKNS_13GraphicsLayerE
__ZThn24_N6WebKit16LayerTreeHostMac19notifyFlushRequiredEPKN7WebCore13GraphicsLayerE
__ZNK6WebKit15DrawingAreaImpl22layerTreeStateIsFrozenEv
__ZN6WebKit16LayerTreeHostMac30setLayerFlushSchedulingEnabledEb
__ZN6WebKit16LayerTreeHostMac18scheduleLayerFlushEv
__ZN3WTF6RefPtrIN6WebKit13LayerTreeHostEEaSERKNS_10PassRefPtrIS2_EE
__ZN6WebKit16LayerTreeHostMac43setShouldNotifyAfterNextScheduledLayerFlushEb
__ZN6WebKit16LayerTreeHostMac23setRootCompositingLayerEPN7WebCore13GraphicsLayerE
__ZN3WTF12VectorBufferIiLm32EE4swapERS1_
__ZN3WTF12VectorBufferIN7WebCore6Region4SpanELm16EE4swapERS4_
__ZN3WTF6VectorIN7WebCore6Region4SpanELm16ENS_15CrashOnOverflowEED2Ev
__ZN3WTF6VectorIiLm32ENS_15CrashOnOverflowEED2Ev
__ZN6WebKit16LayerTreeHostMac41setNonCompositedContentsNeedDisplayInRectERKN7WebCore7IntRectE
__ZNK7WebCore19GraphicsLayerClient18isTrackingRepaintsEv
__ZThn32_N6WebKit16LayerTreeHostMac11flushLayersEv
__ZN6WebKit16LayerTreeHostMac26performScheduledLayerFlushEv
__ZN6WebKit16LayerTreeHostMac24flushPendingLayerChangesEv
__ZThn24_NK6WebKit16LayerTreeHostMac17deviceScaleFactorEv
__ZThn24_NK6WebKit16LayerTreeHostMac24didCommitChangesForLayerEPKN7WebCore13GraphicsLayerE
__ZN6WebKit15DrawingAreaImpl23layerHostDidFlushLayersEv
__ZN6WebKit16LayerTreeHostMac12forceRepaintEv
__ZThn24_N6WebKit16LayerTreeHostMac13paintContentsEPKN7WebCore13GraphicsLayerERNS1_15GraphicsContextEjRKNS1_7IntRectE
__ZN6WebKit16LayerTreeHostMac13paintContentsEPKN7WebCore13GraphicsLayerERNS1_15GraphicsContextEjRKNS1_7IntRectE
__ZN6WebKit7WebPage8drawRectERN7WebCore15GraphicsContextERKNS1_7IntRectE
__ZN6WebKit16LayerTreeHostMac16layerTreeContextEv
__ZN6WebKit20DrawingAreaProxyImpl31enterAcceleratedCompositingModeEyRKNS_16LayerTreeContextE
__ZN3WTF6OwnPtrIN6WebKit12BackingStoreEE5clearEv
__ZN6WebKit15WebChromeClient24decrementActivePageCountEv
__ZN6WebKit12ChildProcess24decrementActiveTaskCountEv
__ZThn8_N6WebKit18PluginProcessProxy8didCloseEPN7CoreIPC10ConnectionE
__ZN6WebKit18PluginProcessProxy8didCloseEPN7CoreIPC10ConnectionE
__ZN6WebKit17ChildProcessProxy4sendIN8Messages30PluginProcessConnectionManager20PluginProcessCrashedEEEbRKT_yj
__ZN6WebKit18PluginProcessProxy36pluginProcessCrashedOrFailedToLaunchEv
__ZN6WebKit20PluginProcessManager24removePluginProcessProxyEPNS_18PluginProcessProxyE
__ZN3WTF6VectorINS_6RefPtrIN6WebKit18PluginProcessProxyEEELm0ENS_15CrashOnOverflowEE6removeEm
__ZN6WebKit18PluginProcessProxyD0Ev
__ZN6WebKit18PluginProcessProxyD2Ev
__ZN3WTF6VectorIN6WebKit18PluginProcessProxy20ClearSiteDataRequestELm0ENS_15CrashOnOverflowEED2Ev
__ZN3WTF5DequeINS_6RefPtrIN8Messages15WebProcessProxy26GetPluginProcessConnection12DelayedReplyEEELm0EED2Ev
__ZN3WTF5DequeINS_6RefPtrIN8Messages15WebProcessProxy26GetPluginProcessConnection12DelayedReplyEEELm0EE10destroyAllEv
__ZN6WebKit30PluginProcessConnectionManager17didReceiveMessageEPN7CoreIPC10ConnectionERNS1_14MessageDecoderE
__ZN6WebKit17ChildProcessProxyD2Ev
__ZN6WebKit15ProcessLauncher10invalidateEv
__ZN6WebKit30PluginProcessConnectionManager20pluginProcessCrashedEy
__ZN6WebKit15ProcessLauncher18platformInvalidateEv
__ZN7CoreIPC18MessageReceiverMapD1Ev
__ZN7CoreIPC18MessageReceiverMapD2Ev
__ZN3WTF6VectorINSt3__14pairINS_6OwnPtrIN7CoreIPC14MessageEncoderEEEjEELm0ENS_15CrashOnOverflowEED2Ev
____ZN6WebKitL35setUpTerminationNotificationHandlerEi_block_invoke
____ZN6WebKitL35setUpTerminationNotificationHandlerEi_block_invoke_2
__ZThn72_N6WebKit21WebPlatformStrategies14cookiesEnabledERKN7WebCore21NetworkStorageSessionERKNS1_4KURLES7_
__ZN6WebKit21WebPlatformStrategies14cookiesEnabledERKN7WebCore21NetworkStorageSessionERKNS1_4KURLES7_
_WKGetHTTPCookieAcceptPolicy
__ZN7WebCore7RunLoop5TimerIN6WebKit12ChildProcessEE5firedEv
__ZN6WebKit12ChildProcess30suspensionHysteresisTimerFiredEv
__ZN3WTF9RetainPtrIP11objc_objectE5clearEv
__ZN6WebKit20WebFrameLoaderClient50dispatchDidReceiveServerRedirectForProvisionalLoadEv
__ZN6WebKit30InjectedBundlePageLoaderClient50didReceiveServerRedirectForProvisionalLoadForFrameEPNS_7WebPageEPNS_8WebFrameERN3WTF6RefPtrINS_9APIObjectEEE
__ZN7CoreIPC13MessageSender4sendIN8Messages12WebPageProxy50DidReceiveServerRedirectForProvisionalLoadForFrameEEEbRKT_y
__ZN6WebKitL37applicationWindowModificationsStoppedEjPvjS0_j
__ZN6WebKitL32applicationOcclusionStateChangedEv
__ZN6WebKit10WebContext45updateProcessSuppressionStateOfChildProcessesEv
__ZNK6WebKit10WebContext18usesNetworkProcessEv
__ZN6WebKit19NetworkProcessProxy28setProcessSuppressionEnabledEb
__ZN6WebKitL51updateProcessSuppressionStateOfGlobalChildProcessesEv
__ZN6WebKit20PluginProcessManager28setProcessSuppressionEnabledEb
__ZN7CoreIPC10Connection4sendIN8Messages14NetworkProcess28SetProcessSuppressionEnabledEEEbRKT_yj
__ZN7CoreIPC10Connection4sendIN8Messages15WebProcessProxy24DidPerformServerRedirectEEEbRKT_yj
__ZN6WebKit10PluginView12scriptObjectEPN3JSC14JSGlobalObjectE
__ZNK3WTF9HashTableIPN7WebCore14ScrollableAreaES3_NS_17IdentityExtractorENS_7PtrHashIS3_EENS_10HashTraitsIS3_EES8_E5beginEv
__ZN6WebKit10PluginView17frameRectsChangedEv
__ZN6WebKit11PluginProxy24pluginScriptableNPObjectEv
__ZN7CoreIPC10Connection8sendSyncIN8Messages21PluginControllerProxy27GetPluginScriptableNPObjectEEEbRKT_RKNS5_5ReplyEydj
__ZN6WebKit17NPRemoteObjectMap19createNPObjectProxyEyPNS_6PluginE
__ZN6WebKit13NPObjectProxy6createEPNS_17NPRemoteObjectMapEPNS_6PluginEy
__ZN6WebKit13NPObjectProxy11NP_AllocateEP4_NPPP7NPClass
__ZN3WTF9HashTableIPN6WebKit13NPObjectProxyES3_NS_17IdentityExtractorENS_7PtrHashIS3_EENS_10HashTraitsIS3_EES8_E3addINS_22IdentityHashTranslatorIS6_EES3_S3_EENS_18HashTableAddResultINS_17HashTableIteratorIS3_S3_S4_S6_S8_S8_EEEERKT0_RKT1_
__ZN3WTF9HashTableIPN6WebKit13NPObjectProxyES3_NS_17IdentityExtractorENS_7PtrHashIS3_EENS_10HashTraitsIS3_EES8_E6expandEv
__ZN3WTF9HashTableIPN6WebKit13NPObjectProxyES3_NS_17IdentityExtractorENS_7PtrHashIS3_EENS_10HashTraitsIS3_EES8_E6rehashEi
__ZNK3WTF7HashMapIP8NPObjectN3JSC4WeakIN6WebKit10JSNPObjectEEENS_7PtrHashIS2_EENS_10HashTraitsIS2_EENSA_IS7_EEE3getERKS2_
__ZN6WebKit10JSNPObject6createEPN3JSC14JSGlobalObjectEPNS_18NPRuntimeObjectMapEP8NPObject
__ZN3JSC12allocateCellINS_9StructureEEEPvRNS_4HeapE
__ZN3JSC12allocateCellIN6WebKit10JSNPObjectEEEPvRNS_4HeapE
__ZN6WebKit10JSNPObjectC1EPN3JSC14JSGlobalObjectEPNS1_9StructureEPNS_18NPRuntimeObjectMapEP8NPObject
__ZN6WebKit10JSNPObject14finishCreationEPN3JSC14JSGlobalObjectE
__ZN3WTF7HashMapIP8NPObjectN3JSC4WeakIN6WebKit10JSNPObjectEEENS_7PtrHashIS2_EENS_10HashTraitsIS2_EENSA_IS7_EEE3setERKS2_NS3_8PassWeakIS6_EE
__ZN6WebKit10JSNPObject18getOwnPropertySlotEPN3JSC6JSCellEPNS1_9ExecStateENS1_12PropertyNameERNS1_12PropertySlotE
__ZN6WebKitL26npIdentifierFromIdentifierEN3JSC12PropertyNameE
__ZN6WebKit13NPObjectProxy14NP_HasPropertyEP8NPObjectPv
__ZN6WebKit13NPObjectProxy11hasPropertyEPv
__ZN6WebKit16NPIdentifierData16fromNPIdentifierEPv
__ZN7CoreIPC10Connection8sendSyncIN8Messages23NPObjectMessageReceiver11HasPropertyEEEbRKT_RKNS5_5ReplyEydj
__ZNK6WebKit16NPIdentifierData6encodeERN7CoreIPC15ArgumentEncoderE
__ZN6WebKit13NPObjectProxy12NP_HasMethodEP8NPObjectPv
__ZN6WebKit13NPObjectProxy9hasMethodEPv
__ZN7CoreIPC10Connection8sendSyncIN8Messages23NPObjectMessageReceiver9HasMethodEEEbRKT_RKNS5_5ReplyEydj
__ZN3WTF9HashTableIPN6WebKit13NPObjectProxyES3_NS_17IdentityExtractorENS_7PtrHashIS3_EENS_10HashTraitsIS3_EES8_E16lookupForWritingINS_22IdentityHashTranslatorIS6_EES3_EENSt3__14pairIPS3_bEERKT0_
__ZN3WTF9HashTableIPN6WebKit13NPObjectProxyES3_NS_17IdentityExtractorENS_7PtrHashIS3_EENS_10HashTraitsIS3_EES8_E4findINS_22IdentityHashTranslatorIS6_EES3_EENS_17HashTableIteratorIS3_S3_S4_S6_S8_S8_EERKT0_
__ZN3WTF9HashTableIPN6WebKit13NPObjectProxyES3_NS_17IdentityExtractorENS_7PtrHashIS3_EENS_10HashTraitsIS3_EES8_E6lookupINS_22IdentityHashTranslatorIS6_EES3_EEPS3_RKT0_
__ZN7CoreIPC13handleMessageIN8Messages14StorageManager5ClearEN6WebKit14StorageManagerEMS5_FvPNS_10ConnectionEyyyRKN3WTF6StringEEEEvS7_RNS_14MessageDecoderEPT0_T1_
__ZN7CoreIPC18callMemberFunctionIN6WebKit14StorageManagerEMS2_FvPNS_10ConnectionEyyyRKN3WTF6StringEEyyyS6_EEvS4_RKNS_10Arguments4IT1_T2_T3_T4_EEPT_T0_
__ZN6WebKit14StorageManager5clearEPN7CoreIPC10ConnectionEyyyRKN3WTF6StringE
__ZN6WebKit14StorageManager11StorageArea5clearEPN7CoreIPC10ConnectionEyRKN3WTF6StringE
__ZN7CoreIPC10Connection4sendIN8Messages14StorageAreaMap8DidClearEEEbRKT_yj
__ZN6WebKit15ShareableBitmap23releaseDataProviderDataEPvPKvm
__ZN3WTF6VectorIPN6WebKit13NPObjectProxyELm0ENS_15CrashOnOverflowEE14appendSlowCaseIS3_EEvRKT_
__ZN3WTF6VectorIPN6WebKit13NPObjectProxyELm0ENS_15CrashOnOverflowEE14expandCapacityEmPKS3_
__ZN3WTF6VectorIPN6WebKit13NPObjectProxyELm0ENS_15CrashOnOverflowEE15reserveCapacityEm
__ZN3WTF16VectorBufferBaseIPN6WebKit13NPObjectProxyEE14allocateBufferEm
__ZN6WebKit13NPObjectProxy10invalidateEv
__ZN3WTF7HashSetIPN6WebKit13NPObjectProxyENS_7PtrHashIS3_EENS_10HashTraitsIS3_EEE6removeERKS3_
__ZNK3WTF9HashTableIPN6WebKit13NPObjectProxyES3_NS_17IdentityExtractorENS_7PtrHashIS3_EENS_10HashTraitsIS3_EES8_E4findINS_22IdentityHashTranslatorIS6_EES3_EENS_22HashTableConstIteratorIS3_S3_S4_S6_S8_S8_EERKT0_
__ZN3WTF9HashTableIPN6WebKit13NPObjectProxyES3_NS_17IdentityExtractorENS_7PtrHashIS3_EENS_10HashTraitsIS3_EES8_E6removeEPS3_
__ZN6WebKit10JSNPObject12leakNPObjectEv
__ZN3WTF6VectorIP8NPObjectLm0ENS_15CrashOnOverflowEE14appendSlowCaseIS2_EEvRKT_
__ZN3WTF6VectorIP8NPObjectLm0ENS_15CrashOnOverflowEE14expandCapacityEmPKS2_
__ZN3WTF6VectorIP8NPObjectLm0ENS_15CrashOnOverflowEE15reserveCapacityEm
__ZN3WTF16VectorBufferBaseIP8NPObjectE14allocateBufferEm
__ZN6WebKit13NPObjectProxy13NP_DeallocateEP8NPObject
__ZN6WebKit13NPObjectProxyD2Ev
__ZN6WebKit10JSNPObject7destroyEPN3JSC6JSCellE
__ZN6WebKit14StorageManager17destroyStorageMapEPN7CoreIPC10ConnectionEy
__ZN6WebKit14StorageManager11StorageArea14removeListenerEPN7CoreIPC10ConnectionEy
__ZN3WTF7HashSetINSt3__14pairINS_6RefPtrIN7CoreIPC10ConnectionEEEyEENS_8PairHashIS6_yEENS_10HashTraitsIS7_EEE6removeERKS7_
__ZN3WTF9HashTableINSt3__14pairINS_6RefPtrIN7CoreIPC10ConnectionEEEyEES7_NS_17IdentityExtractorENS_8PairHashIS6_yEENS_10HashTraitsIS7_EESC_E15deallocateTableEPS7_i
__ZN3WTF9HashTableINSt3__14pairINS_6RefPtrIN7CoreIPC10ConnectionEEEyEES7_NS_17IdentityExtractorENS_8PairHashIS6_yEENS_10HashTraitsIS7_EESC_E16lookupForWritingINS_22IdentityHashTranslatorISA_EES7_EENS2_IPS7_bEERKT0_
__ZN3WTF9HashTableINSt3__14pairINS_6RefPtrIN7CoreIPC10ConnectionEEEyEES7_NS_17IdentityExtractorENS_8PairHashIS6_yEENS_10HashTraitsIS7_EESC_E3addINS_22IdentityHashTranslatorISA_EES7_S7_EENS_18HashTableAddResultINS_17HashTableIteratorIS7_S7_S8_SA_SC_SC_EEEERKT0_RKT1_
__ZN3WTF9HashTableINSt3__14pairINS_6RefPtrIN7CoreIPC10ConnectionEEEyEES7_NS_17IdentityExtractorENS_8PairHashIS6_yEENS_10HashTraitsIS7_EESC_E4findINS_22IdentityHashTranslatorISA_EES7_EENS_17HashTableIteratorIS7_S7_S8_SA_SC_SC_EERKT0_
__ZN3WTF9HashTableINSt3__14pairINS_6RefPtrIN7CoreIPC10ConnectionEEEyEES7_NS_17IdentityExtractorENS_8PairHashIS6_yEENS_10HashTraitsIS7_EESC_E6expandEv
__ZN3WTF9HashTableINSt3__14pairINS_6RefPtrIN7CoreIPC10ConnectionEEEyEES7_NS_17IdentityExtractorENS_8PairHashIS6_yEENS_10HashTraitsIS7_EESC_E6lookupINS_22IdentityHashTranslatorISA_EES7_EEPS7_RKT0_
__ZN3WTF9HashTableINSt3__14pairINS_6RefPtrIN7CoreIPC10ConnectionEEEyEES7_NS_17IdentityExtractorENS_8PairHashIS6_yEENS_10HashTraitsIS7_EESC_E6rehashEi
__ZN3WTF9HashTableINSt3__14pairINS_6RefPtrIN7CoreIPC10ConnectionEEEyEES7_NS_17IdentityExtractorENS_8PairHashIS6_yEENS_10HashTraitsIS7_EESC_E6removeEPS7_
__ZN3WTF7HashMapINSt3__14pairINS_6RefPtrIN7CoreIPC10ConnectionEEEyEENS3_IN6WebKit14StorageManager11StorageAreaEEENS_8PairHashIS6_yEENS_10HashTraitsIS7_EENSE_ISB_EEE6removeERKS7_
__ZN3WTF20ThreadSafeRefCountedIN6WebKit14StorageManager11StorageAreaEE5derefEv
__ZN6WebKit15WebChromeClient18invalidateRootViewERKN7WebCore7IntRectEb
__ZN6WebKit15WebChromeClient6scrollERKN7WebCore7IntSizeERKNS1_7IntRectES7_
__ZN6WebKit7WebPage13pageDidScrollEv
__ZN6WebKit26InjectedBundlePageUIClient13pageDidScrollEPNS_7WebPageE
__ZN7CoreIPC13MessageSender4sendIN8Messages12WebPageProxy13PageDidScrollEEEbRKT_y
__ZN6WebKit29TiledCoreAnimationDrawingArea6scrollERKN7WebCore7IntRectERKNS1_7IntSizeE
__ZN6WebKit29TiledCoreAnimationDrawingArea25updateScrolledExposedRectEv
__ZN6WebKit7WebPage33didChangeScrollOffsetForMainFrameEv
__ZN7CoreIPC13MessageSender4sendIN8Messages12WebPageProxy40DidChangeScrollOffsetPinningForMainFrameEEEbRKT_y
__ZNK7CoreIPC10Arguments4IbbbbE6encodeERNS_15ArgumentEncoderE
__ZN6WebKit12WebPageProxy13pageDidScrollEv
__ZN6WebKit11WebUIClient13pageDidScrollEPNS_12WebPageProxyE
__ZN7CoreIPC13handleMessageIN8Messages12WebPageProxy40DidChangeScrollOffsetPinningForMainFrameEN6WebKit12WebPageProxyEMS5_FvbbbbEEEvRNS_14MessageDecoderEPT0_T1_
__ZN7CoreIPC10Arguments4IbbbbE6decodeERNS_15ArgumentDecoderERS1_
__ZN7CoreIPC10Arguments3IbbbE6decodeERNS_15ArgumentDecoderERS1_
__ZN7CoreIPC18callMemberFunctionIN6WebKit12WebPageProxyEMS2_FvbbbbEbbbbEEvRKNS_10Arguments4IT1_T2_T3_T4_EEPT_T0_
__ZN6WebKit12WebPageProxy40didChangeScrollOffsetPinningForMainFrameEbbbb
_WKBackForwardListGetBackItem
_PluginProcessMain
__ZN6WebKit16ChildProcessMainINS_13PluginProcessENS_25PluginProcessMainDelegateEEEiiPPc
__ZN6WebKit11CommandLine5parseEiPPc
__ZN6WebKit24ChildProcessMainDelegate21installSignalHandlersEv
__ZN6WebKit25PluginProcessMainDelegate23doPreInitializationWorkEv
__ZN6WebKit20NetscapePluginModule32createPluginMIMETypesPreferencesERKN3WTF6StringE
_WKBundleFrameGetContentBounds
__ZNK6WebKit8WebFrame13contentBoundsEv
_WKBundleFrameGetVisibleContentBounds
__ZNK6WebKit8WebFrame20visibleContentBoundsEv
_WKBundlePageCreateSnapshotInDocumentCoordinates
__ZN6WebKit7WebPage25scaledSnapshotWithOptionsERKN7WebCore7IntRectEdj
__ZN6WebKit8WebImage6createERKN7WebCore7IntSizeENS_12ImageOptionsE
__ZNK6WebKit14TypedAPIObjectILNS_9APIObject4TypeE12EE4typeEv
__ZN6WebKit8WebImageD0Ev
__ZN6WebKit8WebImage6createEN3WTF10PassRefPtrINS_15ShareableBitmapEEE
_WKImageGetTypeID
_WKPageGetBackingScaleFactor
__ZNK6WebKit12WebPageProxy17deviceScaleFactorEv
_WKImageCreateCGImage
_WKPageClose
__ZN6WebKit12WebPageProxy5closeEv
__ZN6WebKit18WebBackForwardList10pageClosedEv
__ZN6WebKit12WebPageProxy22backForwardRemovedItemEy
__ZN6WebKit17ChildProcessProxy4sendIN8Messages7WebPage24DidRemoveBackForwardItemEEEbRKT_yj
__ZN6WebKit14PageClientImpl10pageClosedEv
-[WKView(Internal) _pageClosed]
_WKAXRemoteProcessIdentifier
__ZN6WebKit7WebPage24didRemoveBackForwardItemEy
__ZN6WebKit23WebBackForwardListProxy10removeItemEy
__ZN6WebKit15WebProcessProxy24disconnectFramesFromPageEPNS_12WebPageProxyE
__ZN3WTF7HashMapINS_6RefPtrIN7WebCore11HistoryItemEEEyNS_7PtrHashIS4_EENS_10HashTraitsIS4_EENS7_IyEEE6removeERKS4_
__ZN3WTF6VectorINS_6RefPtrIN6WebKit13WebFrameProxyEEELm0ENS_15CrashOnOverflowEE6resizeEm
__ZN3WTF6VectorINS_6RefPtrIN6WebKit13WebFrameProxyEEELm0ENS_15CrashOnOverflowEE15reserveCapacityEm
__ZN3WTF9HashTableIyNS_12KeyValuePairIyNS_6RefPtrIN7WebCore11HistoryItemEEEEENS_24KeyValuePairKeyExtractorIS6_EENS_7IntHashIyEENS_18HashMapValueTraitsINS_10HashTraitsIyEENSC_IS5_EEEESD_E15deallocateTableEPS6_i
__ZN3WTF9HashTableIyNS_12KeyValuePairIyNS_6RefPtrIN7WebCore11HistoryItemEEEEENS_24KeyValuePairKeyExtractorIS6_EENS_7IntHashIyEENS_18HashMapValueTraitsINS_10HashTraitsIyEENSC_IS5_EEEESD_E16lookupForWritingINS_22IdentityHashTranslatorISA_EEyEENSt3__14pairIPS6_bEERKT0_
__ZN3WTF9HashTableIyNS_12KeyValuePairIyNS_6RefPtrIN7WebCore11HistoryItemEEEEENS_24KeyValuePairKeyExtractorIS6_EENS_7IntHashIyEENS_18HashMapValueTraitsINS_10HashTraitsIyEENSC_IS5_EEEESD_E3addINS_17HashMapTranslatorISF_SA_EEyNS_10PassRefPtrIS4_EEEENS_18HashTableAddResultINS_17HashTableIteratorIyS6_S8_SA_SF_SD_EEEERKT0_RKT1_
__ZN3WTF9HashTableIyNS_12KeyValuePairIyNS_6RefPtrIN7WebCore11HistoryItemEEEEENS_24KeyValuePairKeyExtractorIS6_EENS_7IntHashIyEENS_18HashMapValueTraitsINS_10HashTraitsIyEENSC_IS5_EEEESD_E4findINS_22IdentityHashTranslatorISA_EEyEENS_17HashTableIteratorIyS6_S8_SA_SF_SD_EERKT0_
__ZN3WTF9HashTableIyNS_12KeyValuePairIyNS_6RefPtrIN7WebCore11HistoryItemEEEEENS_24KeyValuePairKeyExtractorIS6_EENS_7IntHashIyEENS_18HashMapValueTraitsINS_10HashTraitsIyEENSC_IS5_EEEESD_E6expandEv
__ZN3WTF9HashTableIyNS_12KeyValuePairIyNS_6RefPtrIN7WebCore11HistoryItemEEEEENS_24KeyValuePairKeyExtractorIS6_EENS_7IntHashIyEENS_18HashMapValueTraitsINS_10HashTraitsIyEENSC_IS5_EEEESD_E6lookupINS_22IdentityHashTranslatorISA_EEyEEPS6_RKT0_
__ZN3WTF9HashTableIyNS_12KeyValuePairIyNS_6RefPtrIN7WebCore11HistoryItemEEEEENS_24KeyValuePairKeyExtractorIS6_EENS_7IntHashIyEENS_18HashMapValueTraitsINS_10HashTraitsIyEENSC_IS5_EEEESD_E6rehashEi
__ZN3WTF9HashTableIyNS_12KeyValuePairIyNS_6RefPtrIN7WebCore11HistoryItemEEEEENS_24KeyValuePairKeyExtractorIS6_EENS_7IntHashIyEENS_18HashMapValueTraitsINS_10HashTraitsIyEENSC_IS5_EEEESD_E6removeEPS6_
__ZN3WTF16VectorBufferBaseINS_6RefPtrIN6WebKit13WebFrameProxyEEEE14allocateBufferEm
__ZN3WTF6RefPtrIN6WebKit13WebFrameProxyEEaSERKS3_
__ZN6WebKit13WebFrameProxy10disconnectEv
__ZN3WTF6VectorINS_6RefPtrIN6WebKit13WebFrameProxyEEELm0ENS_15CrashOnOverflowEED2Ev
__ZN3WTF16VectorDestructorILb1ENS_6RefPtrIN6WebKit13WebFrameProxyEEEE8destructEPS4_S6_
__ZN6WebKit17WebInspectorProxy10invalidateEv
__ZN6WebKit17ChildProcessProxy21removeMessageReceiverEN7CoreIPC15StringReferenceEy
__ZN7CoreIPC18MessageReceiverMap21removeMessageReceiverENS_15StringReferenceEy
__ZN3WTF7HashMapINSt3__14pairIN7CoreIPC15StringReferenceEyEEPNS3_15MessageReceiverENS_8PairHashIS4_yEENS_10HashTraitsIS5_EENSA_IS7_EEE6removeERKS5_
__ZN6WebKit17WebInspectorProxyD0Ev
__ZN6WebKit17WebInspectorProxyD2Ev
__ZN6WebKit25WebFullScreenManagerProxy10invalidateEv
-[WKView(Internal) closeFullScreenWindowController]
__ZN3WTF6RefPtrIN6WebKit25WebFullScreenManagerProxyEEaSEPS2_
__ZN6WebKit25WebFullScreenManagerProxyD0Ev
__ZN6WebKit40GeolocationPermissionRequestManagerProxy18invalidateRequestsEv
__ZN6WebKit41NotificationPermissionRequestManagerProxy18invalidateRequestsEv
__ZN6WebKit27WebNotificationManagerProxy18clearNotificationsEPNS_12WebPageProxyE
__ZN6WebKit27WebNotificationManagerProxy18clearNotificationsEPNS_12WebPageProxyERKN3WTF6VectorIyLm0ENS3_15CrashOnOverflowEEEPFbyyyS8_E
__ZN6WebKit23WebNotificationProvider18clearNotificationsERKN3WTF6VectorIyLm0ENS1_15CrashOnOverflowEEE
__ZN6WebKit21invalidateCallbackMapIN3WTF6RefPtrINS_12VoidCallbackEEEEEvRNS1_7HashMapIyT_NS1_7IntHashIyEENS1_10HashTraitsIyEENS9_IS6_EEEE
__ZN3WTF6VectorINS_6RefPtrIN6WebKit12VoidCallbackEEELm0ENS_15CrashOnOverflowEE6resizeEm
__ZN3WTF16VectorDestructorILb1ENS_6RefPtrIN6WebKit12VoidCallbackEEEE8destructEPS4_S6_
__ZN3WTF6VectorINS_6RefPtrIN6WebKit12VoidCallbackEEELm0ENS_15CrashOnOverflowEED2Ev
__ZN6WebKit21invalidateCallbackMapIN3WTF6RefPtrINS_15GenericCallbackIPK12OpaqueWKDataPNS_7WebDataEEEEEEEvRNS1_7HashMapIyT_NS1_7IntHashIyEENS1_10HashTraitsIyEENSF_ISC_EEEE
__ZN3WTF6VectorINS_6RefPtrIN6WebKit15GenericCallbackIPK12OpaqueWKDataPNS2_7WebDataEEEEELm0ENS_15CrashOnOverflowEE6resizeEm
__ZN3WTF16VectorDestructorILb1ENS_6RefPtrIN6WebKit15GenericCallbackIPK12OpaqueWKDataPNS2_7WebDataEEEEEE8destructEPSA_SC_
__ZN3WTF6VectorINS_6RefPtrIN6WebKit15GenericCallbackIPK12OpaqueWKDataPNS2_7WebDataEEEEELm0ENS_15CrashOnOverflowEED2Ev
__ZN6WebKit21invalidateCallbackMapIN3WTF6RefPtrINS_13ImageCallbackEEEEEvRNS1_7HashMapIyT_NS1_7IntHashIyEENS1_10HashTraitsIyEENS9_IS6_EEEE
__ZN3WTF6VectorINS_6RefPtrIN6WebKit13ImageCallbackEEELm0ENS_15CrashOnOverflowEE6resizeEm
__ZN3WTF16VectorDestructorILb1ENS_6RefPtrIN6WebKit13ImageCallbackEEEE8destructEPS4_S6_
__ZN3WTF6VectorINS_6RefPtrIN6WebKit13ImageCallbackEEELm0ENS_15CrashOnOverflowEED2Ev
__ZN6WebKit21invalidateCallbackMapIN3WTF6RefPtrINS_15GenericCallbackIPK14OpaqueWKStringPNS1_10StringImplEEEEEEEvRNS1_7HashMapIyT_NS1_7IntHashIyEENS1_10HashTraitsIyEENSF_ISC_EEEE
__ZN3WTF6VectorINS_6RefPtrIN6WebKit15GenericCallbackIPK14OpaqueWKStringPNS_10StringImplEEEEELm0ENS_15CrashOnOverflowEE6resizeEm
__ZN3WTF16VectorDestructorILb1ENS_6RefPtrIN6WebKit15GenericCallbackIPK14OpaqueWKStringPNS_10StringImplEEEEEE8destructEPSA_SC_
__ZN3WTF6VectorINS_6RefPtrIN6WebKit15GenericCallbackIPK14OpaqueWKStringPNS_10StringImplEEEEELm0ENS_15CrashOnOverflowEED2Ev
__ZN6WebKit21invalidateCallbackMapIN3WTF6RefPtrINS_15GenericCallbackIPK29OpaqueWKSerializedScriptValuePNS_24WebSerializedScriptValueEEEEEEEvRNS1_7HashMapIyT_NS1_7IntHashIyEENS1_10HashTraitsIyEENSF_ISC_EEEE
__ZN3WTF16VectorDestructorILb1ENS_6RefPtrIN6WebKit15GenericCallbackIPK29OpaqueWKSerializedScriptValuePNS2_24WebSerializedScriptValueEEEEEE8destructEPSA_SC_
__ZN3WTF6VectorINS_6RefPtrIN6WebKit15GenericCallbackIPK29OpaqueWKSerializedScriptValuePNS2_24WebSerializedScriptValueEEEEELm0ENS_15CrashOnOverflowEE15reserveCapacityEm
__ZN3WTF6VectorINS_6RefPtrIN6WebKit15GenericCallbackIPK29OpaqueWKSerializedScriptValuePNS2_24WebSerializedScriptValueEEEEELm0ENS_15CrashOnOverflowEE6resizeEm
__ZN3WTF6VectorINS_6RefPtrIN6WebKit15GenericCallbackIPK29OpaqueWKSerializedScriptValuePNS2_24WebSerializedScriptValueEEEEELm0ENS_15CrashOnOverflowEED2Ev
__ZN6WebKit21invalidateCallbackMapIN3WTF6RefPtrINS_21ComputedPagesCallbackEEEEEvRNS1_7HashMapIyT_NS1_7IntHashIyEENS1_10HashTraitsIyEENS9_IS6_EEEE
__ZN3WTF6VectorINS_6RefPtrIN6WebKit21ComputedPagesCallbackEEELm0ENS_15CrashOnOverflowEE6resizeEm
__ZN3WTF16VectorDestructorILb1ENS_6RefPtrIN6WebKit21ComputedPagesCallbackEEEE8destructEPS4_S6_
__ZN3WTF6VectorINS_6RefPtrIN6WebKit21ComputedPagesCallbackEEELm0ENS_15CrashOnOverflowEED2Ev
__ZN3WTF6VectorIPN6WebKit19WebEditCommandProxyELm0ENS_15CrashOnOverflowEE6resizeEm
__ZNK3WTF9HashTableIPN6WebKit19WebEditCommandProxyES3_NS_17IdentityExtractorENS_7PtrHashIS3_EENS_10HashTraitsIS3_EES8_E5beginEv
__ZN3WTF6RefPtrIN6WebKit17WebPopupMenuProxyEEaSEPS2_
__ZN6WebKit20DrawingAreaProxyImplD0Ev
__ZN6WebKit20DrawingAreaProxyImplD2Ev
__ZNK6WebKit16LayerTreeContext7isEmptyEv
__ZN6WebKit12WebPageProxy30exitAcceleratedCompositingModeEv
__ZN6WebKit14PageClientImpl30exitAcceleratedCompositingModeEv
__ZN3WTF9RetainPtrI6NSViewEaSEPS1_
__ZN3WTF6OwnPtrIN6WebKit12BackingStoreEED2Ev
__ZN6WebKit16DrawingAreaProxyD2Ev
__ZN6WebKit17ChildProcessProxy4sendIN8Messages7WebPage5CloseEEEbRKT_yj
__ZN6WebKit15WebProcessProxy13removeWebPageEy
__ZN3WTF7HashMapIyPN6WebKit12WebPageProxyENS_7IntHashIyEENS_10HashTraitsIyEENS6_IS3_EEE6removeERKy
__ZN6WebKit14StorageManager30destroySessionStorageNamespaceEy
__ZN6WebKit7WebPage5closeEv
__ZN3WTF6VectorIPN6WebKit19WebEditCommandProxyELm0ENS_15CrashOnOverflowEED1Ev
__ZN3WTF17BoundFunctionImplINS_15FunctionWrapperIMN6WebKit14StorageManagerEFvyEEEFvPS3_yEEclEv
-[WKView dealloc]
__ZN6WebKit14StorageManager38destroySessionStorageNamespaceInternalEy
__ZN3WTF7HashMapIyNS_6RefPtrIN6WebKit14StorageManager23SessionStorageNamespaceEEENS_7IntHashIyEENS_10HashTraitsIyEENS8_IS5_EEE6removeERKy
-[WKViewData .cxx_destruct]
__ZN3WTF6OwnPtrIN6WebKit19FindIndicatorWindowEED2Ev
__ZN6WebKit14InjectedBundle15willDestroyPageEPNS_7WebPageE
__ZN6WebKit20InjectedBundleClient15willDestroyPageEPNS_14InjectedBundleEPNS_7WebPageE
__ZN3WTF6OwnPtrIN6WebKit17PDFViewControllerEED2Ev
__ZN3WTF20ThreadSafeRefCountedIN6WebKit14StorageManager23SessionStorageNamespaceEE5derefEv
__ZN6WebKit14PageClientImplD0Ev
__ZN6WebKit14StorageManager23SessionStorageNamespaceD2Ev
__ZN6WebKit14PageClientImplD2Ev
__ZN3WTF17BoundFunctionImplINS_15FunctionWrapperIMN6WebKit14StorageManagerEFvyEEEFvPS3_yEED0Ev
__ZN6WebKit15CorrectionPanelD1Ev
__ZN6WebKit12WebInspectorD0Ev
__ZN6WebKit15CorrectionPanelD2Ev
__ZN3WTF6RefPtrIN6WebKit20WebFullScreenManagerEEaSEPS2_
__ZN6WebKit7WebPage23SandboxExtensionTracker10invalidateEv
__ZN3WTF6OwnPtrIN7WebCore12PrintContextEE5clearEv
__ZN6WebKit12WebPageProxyD0Ev
__ZN6WebKit12WebPageProxyD2Ev
__ZN6WebKit12WebPageGroup10removePageEPNS_12WebPageProxyE
__ZN3WTF7HashSetIPN6WebKit12WebPageProxyENS_7PtrHashIS3_EENS_10HashTraitsIS3_EEE6removeERKS3_
__ZNK3WTF9HashTableIPN6WebKit12WebPageProxyES3_NS_17IdentityExtractorENS_7PtrHashIS3_EENS_10HashTraitsIS3_EES8_E4findINS_22IdentityHashTranslatorIS6_EES3_EENS_22HashTableConstIteratorIS3_S3_S4_S6_S8_S8_EERKT0_
__ZN3WTF9HashTableIPN6WebKit12WebPageProxyES3_NS_17IdentityExtractorENS_7PtrHashIS3_EENS_10HashTraitsIS3_EES8_E6removeEPS3_
__ZN3WTF6OwnPtrIN6WebKit19NativeWebMouseEventEED2Ev
__ZN3WTF5DequeINS_6OwnPtrINS_6VectorIN6WebKit19NativeWebWheelEventELm0ENS_15CrashOnOverflowEEEEELm0EED2Ev
__ZN3WTF5DequeINS_6OwnPtrINS_6VectorIN6WebKit19NativeWebWheelEventELm0ENS_15CrashOnOverflowEEEEELm0EE10destroyAllEv
__ZN3WTF5DequeIN6WebKit19NativeWebWheelEventELm0EED2Ev
__ZN3WTF5DequeIN6WebKit19NativeWebWheelEventELm0EE10destroyAllEv
__ZN3WTF5DequeIN6WebKit22NativeWebKeyboardEventELm0EED2Ev
__ZN3WTF5DequeIN6WebKit22NativeWebKeyboardEventELm0EE10destroyAllEv
__ZN6WebKit18WebBackForwardListD0Ev
__ZN6WebKit15DrawingAreaImpl34exitAcceleratedCompositingModeSoonEv
__ZN3WTF6OwnPtrIN7WebCore4PageEE5clearEv
__ZN6WebKit15WebEditorClient13pageDestroyedEv
__ZN6WebKit15WebEditorClientD0Ev
__ZN6WebKit15WebPlugInClient13pageDestroyedEv
__ZN6WebKit15WebPlugInClientD0Ev
__ZN6WebKit24WebAlternativeTextClient13pageDestroyedEv
__ZN6WebKit24WebAlternativeTextClientD0Ev
__ZN6WebKit18WebInspectorClient18inspectorDestroyedEv
__ZN6WebKit18WebInspectorClient22closeInspectorFrontendEv
__ZN6WebKit18WebInspectorClientD0Ev
__ZN6WebKit23WebBackForwardListProxy5closeEv
__ZN6WebKit23WebBackForwardListProxy9itemForIDEy
__ZN6WebKit23WebBackForwardListProxyD0Ev
__ZN6WebKit20WebContextMenuClient20contextMenuDestroyedEv
__ZN6WebKit20WebContextMenuClientD0Ev
__ZN6WebKit13WebDragClient23dragControllerDestroyedEv
__ZN6WebKit13WebDragClientD0Ev
__ZN6WebKit15WebChromeClient15chromeDestroyedEv
__ZN6WebKit15WebChromeClientD0Ev
__ZN6WebKit20WebGeolocationClient20geolocationDestroyedEv
__ZN6WebKit10WebProcess10supplementINS_21WebGeolocationManagerEEEPT_v
__ZN6WebKit21WebGeolocationManager17unregisterWebPageEPNS_7WebPageE
__ZN3WTF7HashSetIPN6WebKit7WebPageENS_7PtrHashIS3_EENS_10HashTraitsIS3_EEE6removeERKS3_
__ZNK3WTF9HashTableIPN6WebKit7WebPageES3_NS_17IdentityExtractorENS_7PtrHashIS3_EENS_10HashTraitsIS3_EES8_E4findINS_22IdentityHashTranslatorIS6_EES3_EENS_22HashTableConstIteratorIS3_S3_S4_S6_S8_S8_EERKT0_
__ZN7CoreIPC10Connection4sendIN8Messages26WebGeolocationManagerProxy12StopUpdatingEEEbRKT_yj
__ZN6WebKit20WebGeolocationClientD0Ev
__ZN6WebKit21WebNotificationClient31notificationControllerDestroyedEv
__ZN6WebKit21WebNotificationClientD0Ev
__ZN6WebKit15DrawingAreaImplD0Ev
__ZN6WebKit15DrawingAreaImplD2Ev
__ZN6WebKit16LayerTreeHostMac10invalidateEv
__ZN6WebKit19LayerHostingContext10invalidateEv
_WKCAContextInvalidate
__ZN3WTF6OwnPtrIN6WebKit19LayerHostingContextEE5clearEv
__ZN6WebKit19LayerHostingContextD1Ev
__ZN6WebKit16LayerTreeHostMacD0Ev
__ZN6WebKit16LayerTreeHostMacD2Ev
__ZN6WebKit13LayerTreeHostD2Ev
__ZN6WebKit11DrawingAreaD2Ev
__ZN6WebKit10WebProcess13removeWebPageEy
__ZN3WTF7HashMapIyNS_6RefPtrIN6WebKit7WebPageEEENS_7IntHashIyEENS_10HashTraitsIyEENS7_IS4_EEE6removeERKy
__ZN6WebKit7WebPageD0Ev
__ZN6WebKit7WebPageD2Ev
__ZN6WebKit12ChildProcess21removeMessageReceiverEN7CoreIPC15StringReferenceEy
__ZN6WebKit7WebPage23SandboxExtensionTrackerD2Ev
__ZN3WTF6OwnPtrIN7WebCore12PrintContextEED2Ev
__ZN3WTF6VectorINS_6RefPtrIN6WebKit11PageOverlayEEELm0ENS_15CrashOnOverflowEED2Ev
__ZN6WebKit14FindControllerD1Ev
__ZN3WTF6VectorINS_6RefPtrIN7WebCore5RangeEEELm0ENS_15CrashOnOverflowEED2Ev
-[WKAccessibilityWebPageObject dealloc]
_WKUnregisterUniqueIdForElement
__ZN3WTF6OwnPtrIN7WebCore4PageEED2Ev
__ZN6WebKit12ChildProcess17enableTerminationEv
__ZThn32_N6WebKit26WebGeolocationManagerProxy17didReceiveMessageEPN7CoreIPC10ConnectionERNS1_14MessageDecoderE
__ZN6WebKit26WebGeolocationManagerProxy17didReceiveMessageEPN7CoreIPC10ConnectionERNS1_14MessageDecoderE
__ZN6WebKit26WebGeolocationManagerProxy12stopUpdatingEv
__ZN6WebKit20WebFrameLoaderClient29savePlatformDataToCachedFrameEPN7WebCore11CachedFrameE
__ZN6WebKit20WebFrameLoaderClient18didSaveToPageCacheEv
__ZN7CoreIPC13MessageSender4sendIN8Messages12WebPageProxy18DidSaveToPageCacheEEEbRKT_y
__ZNK6WebKit20WebFrameLoaderClient25didPerformFirstNavigationEv
-[WKView viewDidUnhide]
__ZN6WebKit20StorageNamespaceImplD0Ev
__ZN6WebKit20StorageNamespaceImplD2Ev
__ZN6WebKit15StorageAreaImpl20decrementAccessCountEv
__ZN6WebKit15StorageAreaImplD0Ev
__ZN6WebKit15StorageAreaImplD2Ev
__ZN6WebKit14StorageAreaMapD0Ev
__ZN6WebKit14StorageAreaMapD2Ev
__ZN7CoreIPC10Connection4sendIN8Messages14StorageManager17DestroyStorageMapEEEbRKT_yj
__ZN3WTF10RefCountedIN7WebCore10StorageMapEE5derefEv
__ZN6WebKit14StorageManager11StorageAreaD2Ev
__ZN6WebKit14WebPreferences26updatePrivateBrowsingValueEb
_WKPreferencesSetCookieEnabled
__ZN6WebKit14WebPreferences16setCookieEnabledERKb
__ZN6WebKit10WebContext29willStartUsingPrivateBrowsingEv
__ZN6WebKit17ChildProcessProxy4sendIN8Messages14NetworkProcess28EnsurePrivateBrowsingSessionEEEbRKT_yj
__ZN6WebKit17ChildProcessProxy4sendIN8Messages10WebProcess28EnsurePrivateBrowsingSessionEEEbRKT_yj
__ZN6WebKit14NetworkProcess28ensurePrivateBrowsingSessionEv
__ZN6WebKit23RemoteNetworkingContext28ensurePrivateBrowsingSessionEv
__ZN6WebKitL29privateBrowsingStorageSessionEv
__ZN6WebKit17ChildProcessProxy4sendIN8Messages7WebPage24DidReceivePolicyDecisionEEEbRKT_yj
__ZNK7CoreIPC10Arguments4IyyjyE6encodeERNS_15ArgumentEncoderE
_WKCreatePrivateStorageSession
__ZN3WTF10PassOwnPtrIN7WebCore21NetworkStorageSessionEED2Ev
__ZN6WebKit10WebProcess28ensurePrivateBrowsingSessionEv
__ZN6WebKit25WebFrameNetworkingContext28ensurePrivateBrowsingSessionEv
__ZN7CoreIPC13handleMessageIN8Messages7WebPage24DidReceivePolicyDecisionEN6WebKit7WebPageEMS5_FvyyjyEEEvRNS_14MessageDecoderEPT0_T1_
__ZN7CoreIPC10Arguments4IyyjyE6decodeERNS_15ArgumentDecoderERS1_
__ZN7CoreIPC10Arguments3IyyjE6decodeERNS_15ArgumentDecoderERS1_
__ZN6WebKit7WebPage24didReceivePolicyDecisionEyyjy
__ZN3WTF9HashTableINS_6RefPtrIN7CoreIPC10ConnectionEEES4_NS_17IdentityExtractorENS_7PtrHashIS4_EENS_10HashTraitsIS4_EES9_E16lookupForWritingINS_22IdentityHashTranslatorIS7_EES4_EENSt3__14pairIPS4_bEERKT0_
__ZN3WTF9HashTableINS_6RefPtrIN7CoreIPC10ConnectionEEES4_NS_17IdentityExtractorENS_7PtrHashIS4_EENS_10HashTraitsIS4_EES9_E4findINS_22IdentityHashTranslatorIS7_EES4_EENS_17HashTableIteratorIS4_S4_S5_S7_S9_S9_EERKT0_
__ZN6WebKit20WebFrameLoaderClient19dispatchDidFailLoadERKN7WebCore13ResourceErrorE
__ZN6WebKit30InjectedBundlePageLoaderClient28didFailLoadWithErrorForFrameEPNS_7WebPageEPNS_8WebFrameERKN7WebCore13ResourceErrorERN3WTF6RefPtrINS_9APIObjectEEE
__ZN7CoreIPC13MessageSender4sendIN8Messages12WebPageProxy19DidFailLoadForFrameEEEbRKT_y
__ZN7CoreIPC21handleMessageVariadicIN8Messages12WebPageProxy19DidFailLoadForFrameEN6WebKit12WebPageProxyEMS5_FvyRKN7WebCore13ResourceErrorERNS_14MessageDecoderEEEEvSB_PT0_T1_
__ZN6WebKit12WebPageProxy19didFailLoadForFrameEyRKN7WebCore13ResourceErrorERN7CoreIPC14MessageDecoderE
__ZN6WebKit13WebFrameProxy11didFailLoadEv
__ZN6WebKit15WebLoaderClient28didFailLoadWithErrorForFrameEPNS_12WebPageProxyEPNS_13WebFrameProxyERKN7WebCore13ResourceErrorEPNS_9APIObjectE
__ZN6WebKit10WebContext28willStopUsingPrivateBrowsingEv
__ZN6WebKit17ChildProcessProxy4sendIN8Messages14NetworkProcess29DestroyPrivateBrowsingSessionEEEbRKT_yj
__ZN6WebKit17ChildProcessProxy4sendIN8Messages10WebProcess29DestroyPrivateBrowsingSessionEEEbRKT_yj
__ZN6WebKit14NetworkProcess29destroyPrivateBrowsingSessionEv
__ZN6WebKit23RemoteNetworkingContext29destroyPrivateBrowsingSessionEv
__ZN3WTF6OwnPtrIN7WebCore21NetworkStorageSessionEEaSEDn
__ZN6WebKit10WebProcess29destroyPrivateBrowsingSessionEv
__ZN6WebKit25WebFrameNetworkingContext29destroyPrivateBrowsingSessionEv
__ZN3WTF9HashTableIPN6WebKit10PluginViewES3_NS_17IdentityExtractorENS_7PtrHashIS3_EENS_10HashTraitsIS3_EES8_E16lookupForWritingINS_22IdentityHashTranslatorIS6_EES3_EENSt3__14pairIPS3_bEERKT0_
__ZN3WTF9HashTableIPN6WebKit10PluginViewES3_NS_17IdentityExtractorENS_7PtrHashIS3_EENS_10HashTraitsIS3_EES8_E4findINS_22IdentityHashTranslatorIS6_EES3_EENS_17HashTableIteratorIS3_S3_S4_S6_S8_S8_EERKT0_
_WKContextGetResourceCacheManager
__ZN6WebKit10WebContext10supplementINS_28WebResourceCacheManagerProxyEEEPT_v
_WKResourceCacheManagerClearCacheForAllOrigins
__ZN6WebKit28WebResourceCacheManagerProxy23clearCacheForAllOriginsENS_21ResourceCachesToClearE
__ZN6WebKit10WebContext45sendToNetworkingProcessRelaunchingIfNecessaryIN8Messages14NetworkProcess23ClearCacheForAllOriginsEEEvRKT_
__ZN6WebKit17ChildProcessProxy4sendIN8Messages14NetworkProcess23ClearCacheForAllOriginsEEEbRKT_yj
__ZN6WebKit10WebContext44sendToAllProcessesRelaunchingThemIfNecessaryIN8Messages23WebResourceCacheManager23ClearCacheForAllOriginsEEEvRKT_
__ZN6WebKit17ChildProcessProxy4sendIN8Messages23WebResourceCacheManager23ClearCacheForAllOriginsEEEbRKT_yj
_WKContextGetApplicationCacheManager
__ZN6WebKit10WebContext10supplementINS_31WebApplicationCacheManagerProxyEEEPT_v
_WKApplicationCacheManagerDeleteAllEntries
__ZN6WebKit31WebApplicationCacheManagerProxy16deleteAllEntriesEv
__ZN6WebKit10WebContext44sendToAllProcessesRelaunchingThemIfNecessaryIN8Messages26WebApplicationCacheManager16DeleteAllEntriesEEEvRKT_
__ZN6WebKit17ChildProcessProxy4sendIN8Messages26WebApplicationCacheManager16DeleteAllEntriesEEEbRKT_yj
_WKIconDatabaseRemoveAllIcons
__ZN6WebKit15WebIconDatabase14removeAllIconsEv
_WKCookieManagerDeleteAllCookies
__ZN6WebKit21WebCookieManagerProxy16deleteAllCookiesEv
__ZN6WebKit10WebContext45sendToNetworkingProcessRelaunchingIfNecessaryIN8Messages16WebCookieManager16DeleteAllCookiesEEEvRKT_
__ZN6WebKit17ChildProcessProxy4sendIN8Messages16WebCookieManager16DeleteAllCookiesEEEbRKT_yj
_WKContextGetDatabaseManager
__ZN6WebKit10WebContext10supplementINS_23WebDatabaseManagerProxyEEEPT_v
_WKDatabaseManagerDeleteAllDatabases
__ZN6WebKit23WebDatabaseManagerProxy18deleteAllDatabasesEv
__ZN6WebKit10WebContext16sendToOneProcessIN8Messages18WebDatabaseManager18DeleteAllDatabasesEEEvRKT_
__ZN6WebKit17ChildProcessProxy4sendIN8Messages18WebDatabaseManager18DeleteAllDatabasesEEEbRKT_yj
_WKContextGetKeyValueStorageManager
__ZN6WebKit10WebContext10supplementINS_25WebKeyValueStorageManagerEEEPT_v
_WKKeyValueStorageManagerDeleteAllEntries
__ZN6WebKit25WebKeyValueStorageManager16deleteAllEntriesEv
__ZN6WebKit14StorageManager16deleteAllEntriesEv
_WKContextGetMediaCacheManager
__ZN6WebKit10WebContext10supplementINS_25WebMediaCacheManagerProxyEEEPT_v
_WKMediaCacheManagerClearCacheForAllHostnames
__ZN6WebKit25WebMediaCacheManagerProxy25clearCacheForAllHostnamesEv
__ZN6WebKit10WebContext44sendToAllProcessesRelaunchingThemIfNecessaryIN8Messages20WebMediaCacheManager25ClearCacheForAllHostnamesEEEvRKT_
__ZN6WebKit17ChildProcessProxy4sendIN8Messages20WebMediaCacheManager25ClearCacheForAllHostnamesEEEbRKT_yj
_WKContextGetPluginSiteDataManager
_WKPluginSiteDataManagerClearAllSiteData
__ZN6WebKit24WebPluginSiteDataManager13clearSiteDataEPNS_14ImmutableArrayEyyN3WTF10PassRefPtrINS_12VoidCallbackEEE
__ZN3WTF7HashMapIyNS_6RefPtrIN6WebKit12VoidCallbackEEENS_7IntHashIyEENS_10HashTraitsIyEENS7_IS4_EEE3setERKyNS_10PassRefPtrIS3_EE
__ZN3WTF17HashMapTranslatorINS_18HashMapValueTraitsINS_10HashTraitsIyEENS2_INS_6RefPtrIN6WebKit12VoidCallbackEEEEEEENS_7IntHashIyEEE9translateINS_12KeyValuePairIyS7_EEyNS_10PassRefPtrIS6_EEEEvRT_RKT0_RKT1_
__ZN3WTF6RefPtrIN6WebKit12VoidCallbackEEaSERKNS_10PassRefPtrIS2_EE
__ZN3WTF7HashMapIyNS_6OwnPtrIN6WebKit24WebPluginSiteDataManager18ClearSiteDataStateEEENS_7IntHashIyEENS_10HashTraitsIyEENS8_IS5_EEE3setERKyNS_10PassOwnPtrIS4_EE
__ZN3WTF7HashMapIyNS_6OwnPtrIN6WebKit24WebPluginSiteDataManager18ClearSiteDataStateEEENS_7IntHashIyEENS_10HashTraitsIyEENS8_IS5_EEE4takeERKy
__ZN3WTF10PassOwnPtrIN6WebKit24WebPluginSiteDataManager18ClearSiteDataStateEED1Ev
__ZN6WebKit24WebPluginSiteDataManager18ClearSiteDataState26clearSiteDataForNextPluginEv
__ZN6WebKit20PluginProcessManager13clearSiteDataERKNS_16PluginModuleInfoEPNS_24WebPluginSiteDataManagerERKN3WTF6VectorINS6_6StringELm0ENS6_15CrashOnOverflowEEEyyy
__ZN6WebKit18PluginProcessProxy13clearSiteDataEPNS_24WebPluginSiteDataManagerERKN3WTF6VectorINS3_6StringELm0ENS3_15CrashOnOverflowEEEyyy
__ZN3WTF7HashMapIyNS_6RefPtrIN6WebKit24WebPluginSiteDataManagerEEENS_7IntHashIyEENS_10HashTraitsIyEENS7_IS4_EEE3setERKyNS_10PassRefPtrIS3_EE
__ZN3WTF17HashMapTranslatorINS_18HashMapValueTraitsINS_10HashTraitsIyEENS2_INS_6RefPtrIN6WebKit24WebPluginSiteDataManagerEEEEEEENS_7IntHashIyEEE9translateINS_12KeyValuePairIyS7_EEyNS_10PassRefPtrIS6_EEEEvRT_RKT0_RKT1_
__ZN3WTF6VectorIN6WebKit18PluginProcessProxy20ClearSiteDataRequestELm0ENS_15CrashOnOverflowEE14appendSlowCaseIS3_EEvRKT_
__ZN3WTF6VectorIN6WebKit18PluginProcessProxy20ClearSiteDataRequestELm0ENS_15CrashOnOverflowEE14expandCapacityEmPKS3_
__ZN3WTF6VectorIN6WebKit18PluginProcessProxy20ClearSiteDataRequestELm0ENS_15CrashOnOverflowEE15reserveCapacityEm
__ZN3WTF16VectorBufferBaseIN6WebKit18PluginProcessProxy20ClearSiteDataRequestEE14allocateBufferEm
__ZN3WTF11VectorMoverILb0EN6WebKit18PluginProcessProxy20ClearSiteDataRequestEE4moveEPKS3_S6_PS3_
__ZN3WTF6VectorIN6WebKit16PluginModuleInfoELm0ENS_15CrashOnOverflowEE10removeLastEv
_WKContextResetHSTSHosts
__ZN6WebKit10WebContext14resetHSTSHostsEv
__ZN3WTF17BoundFunctionImplINS_15FunctionWrapperIMN6WebKit14StorageManagerEFvvEEEFvPS3_EEclEv
__ZN6WebKit14StorageManager24deleteAllEntriesInternalEv
__ZN6WebKit14StorageManager21LocalStorageNamespace20clearAllStorageAreasEv
__ZN3WTF9HashTableINS_6RefPtrIN7WebCore14SecurityOriginEEENS_12KeyValuePairIS4_PN6WebKit14StorageManager11StorageAreaEEENS_24KeyValuePairKeyExtractorISA_EENS2_18SecurityOriginHashENS_22KeyValuePairHashTraitsINS_10HashTraitsIS4_EENSF_IS9_EEEESG_E15deallocateTableEPSA_i
__ZN3WTF9HashTableINS_6RefPtrIN7WebCore14SecurityOriginEEENS_12KeyValuePairIS4_PN6WebKit14StorageManager11StorageAreaEEENS_24KeyValuePairKeyExtractorISA_EENS2_18SecurityOriginHashENS_22KeyValuePairHashTraitsINS_10HashTraitsIS4_EENSF_IS9_EEEESG_E16lookupForWritingINS_22IdentityHashTranslatorISD_EES4_EENSt3__14pairIPSA_bEERKT0_
__ZN3WTF9HashTableINS_6RefPtrIN7WebCore14SecurityOriginEEENS_12KeyValuePairIS4_PN6WebKit14StorageManager11StorageAreaEEENS_24KeyValuePairKeyExtractorISA_EENS2_18SecurityOriginHashENS_22KeyValuePairHashTraitsINS_10HashTraitsIS4_EENSF_IS9_EEEESG_E3addINS_17HashMapTranslatorISI_SD_EES4_S9_EENS_18HashTableAddResultINS_17HashTableIteratorIS4_SA_SC_SD_SI_SG_EEEERKT0_RKT1_
__ZN3WTF9HashTableINS_6RefPtrIN7WebCore14SecurityOriginEEENS_12KeyValuePairIS4_PN6WebKit14StorageManager11StorageAreaEEENS_24KeyValuePairKeyExtractorISA_EENS2_18SecurityOriginHashENS_22KeyValuePairHashTraitsINS_10HashTraitsIS4_EENSF_IS9_EEEESG_E4findINS_17HashMapTranslatorISI_SD_EEPS3_EENS_17HashTableIteratorIS4_SA_SC_SD_SI_SG_EERKT0_
__ZN3WTF9HashTableINS_6RefPtrIN7WebCore14SecurityOriginEEENS_12KeyValuePairIS4_PN6WebKit14StorageManager11StorageAreaEEENS_24KeyValuePairKeyExtractorISA_EENS2_18SecurityOriginHashENS_22KeyValuePairHashTraitsINS_10HashTraitsIS4_EENSF_IS9_EEEESG_E4findINS_22IdentityHashTranslatorISD_EES4_EENS_17HashTableIteratorIS4_SA_SC_SD_SI_SG_EERKT0_
__ZN3WTF9HashTableINS_6RefPtrIN7WebCore14SecurityOriginEEENS_12KeyValuePairIS4_PN6WebKit14StorageManager11StorageAreaEEENS_24KeyValuePairKeyExtractorISA_EENS2_18SecurityOriginHashENS_22KeyValuePairHashTraitsINS_10HashTraitsIS4_EENSF_IS9_EEEESG_E5beginEv
__ZN3WTF9HashTableINS_6RefPtrIN7WebCore14SecurityOriginEEENS_12KeyValuePairIS4_PN6WebKit14StorageManager11StorageAreaEEENS_24KeyValuePairKeyExtractorISA_EENS2_18SecurityOriginHashENS_22KeyValuePairHashTraitsINS_10HashTraitsIS4_EENSF_IS9_EEEESG_E6expandEv
__ZN3WTF9HashTableINS_6RefPtrIN7WebCore14SecurityOriginEEENS_12KeyValuePairIS4_PN6WebKit14StorageManager11StorageAreaEEENS_24KeyValuePairKeyExtractorISA_EENS2_18SecurityOriginHashENS_22KeyValuePairHashTraitsINS_10HashTraitsIS4_EENSF_IS9_EEEESG_E6lookupINS_17HashMapTranslatorISI_SD_EEPS3_EEPSA_RKT0_
__ZN3WTF9HashTableINS_6RefPtrIN7WebCore14SecurityOriginEEENS_12KeyValuePairIS4_PN6WebKit14StorageManager11StorageAreaEEENS_24KeyValuePairKeyExtractorISA_EENS2_18SecurityOriginHashENS_22KeyValuePairHashTraitsINS_10HashTraitsIS4_EENSF_IS9_EEEESG_E6lookupINS_22IdentityHashTranslatorISD_EES4_EEPSA_RKT0_
__ZN3WTF9HashTableINS_6RefPtrIN7WebCore14SecurityOriginEEENS_12KeyValuePairIS4_PN6WebKit14StorageManager11StorageAreaEEENS_24KeyValuePairKeyExtractorISA_EENS2_18SecurityOriginHashENS_22KeyValuePairHashTraitsINS_10HashTraitsIS4_EENSF_IS9_EEEESG_E6rehashEi
__ZN3WTF9HashTableINS_6RefPtrIN7WebCore14SecurityOriginEEENS_12KeyValuePairIS4_PN6WebKit14StorageManager11StorageAreaEEENS_24KeyValuePairKeyExtractorISA_EENS2_18SecurityOriginHashENS_22KeyValuePairHashTraitsINS_10HashTraitsIS4_EENSF_IS9_EEEESG_E6removeEPSA_
__ZN6WebKit14StorageManager11StorageArea5clearEv
__ZN6WebKit20LocalStorageDatabase5closeEv
__ZN6WebKit20LocalStorageDatabase15databaseIsEmptyEv
__ZN6WebKit20LocalStorageDatabaseD1Ev
__ZN6WebKit20LocalStorageDatabaseD2Ev
__ZN7CoreIPC10Connection4sendIN8Messages14StorageAreaMap10ClearCacheEEEbRKT_yj
__ZN6WebKit27LocalStorageDatabaseTracker24deleteDatabaseWithOriginEPN7WebCore14SecurityOriginE
__ZN6WebKit27LocalStorageDatabaseTracker34removeDatabaseWithOriginIdentifierERKN3WTF6StringE
__ZN6WebKit27LocalStorageDatabaseTracker35pathForDatabaseWithOriginIdentifierERKN3WTF6StringE
____ZN6WebKitL22privateBrowsingSessionEv_block_invoke
_WKContextCopyPlugInAutoStartOriginHashes
__ZNK6WebKit10WebContext27plugInAutoStartOriginHashesEv
__ZNK6WebKit23PlugInAutoStartProvider25autoStartOriginsTableCopyEv
__ZN6WebKit17ChildProcessProxy4sendIN8Messages10WebProcess32ResetPlugInAutoStartOriginHashesEEEbRKT_yj
_WKNotificationManagerProviderDidRemoveNotificationPolicies
__ZN6WebKit27WebNotificationManagerProxy37providerDidRemoveNotificationPoliciesEPNS_14ImmutableArrayE
__ZN7CoreIPC10Connection4sendIN8Messages13PluginProcess13ClearSiteDataEEEbRKT_yj
__ZNK7CoreIPC10Arguments4IRKN3WTF6VectorINS1_6StringELm0ENS1_15CrashOnOverflowEEEyyyE6encodeERNS_15ArgumentEncoderE
__ZN3WTF6VectorIN6WebKit18PluginProcessProxy20ClearSiteDataRequestELm0ENS_15CrashOnOverflowEE6shrinkEm
__ZN3WTF7HashSetINS_6StringENS_10StringHashENS_10HashTraitsIS1_EEE6removeERKS1_
__ZNK3WTF9HashTableINS_6StringES1_NS_17IdentityExtractorENS_10StringHashENS_10HashTraitsIS1_EES5_E4findINS_22IdentityHashTranslatorIS3_EES1_EENS_22HashTableConstIteratorIS1_S1_S2_S3_S5_S5_EERKT0_
__ZN3WTF9HashTableINS_6StringES1_NS_17IdentityExtractorENS_10StringHashENS_10HashTraitsIS1_EES5_E6removeEPS1_
__ZN3WTF9HashTableINS_6StringES1_NS_17IdentityExtractorENS_10StringHashENS_10HashTraitsIS1_EES5_E12deleteBucketERS1_
__ZN6WebKit27LocalStorageDatabaseTracker18deleteAllDatabasesEv
__ZN3WTF17BoundFunctionImplINS_15FunctionWrapperIMN6WebKit14StorageManagerEFvvEEEFvPS3_EED0Ev
__ZThn16_N6WebKit15WebIconDatabase17didRemoveAllIconsEv
__ZN6WebKit21WebIconDatabaseClient17didRemoveAllIconsEPNS_15WebIconDatabaseE
__ZN6WebKit15WebEditorClient18shouldBeginEditingEPN7WebCore5RangeE
__ZN6WebKit30InjectedBundlePageEditorClient18shouldBeginEditingEPNS_7WebPageEPN7WebCore5RangeE
__ZN6WebKit15WebEditorClient15didBeginEditingEv
__ZN6WebKit30InjectedBundlePageEditorClient15didBeginEditingEPNS_7WebPageEPN3WTF10StringImplE
__ZN6WebKit18PluginProcessProxy16didClearSiteDataEy
__ZN3WTF7HashMapIyNS_6RefPtrIN6WebKit24WebPluginSiteDataManagerEEENS_7IntHashIyEENS_10HashTraitsIyEENS7_IS4_EEE4takeERKy
__ZN3WTF9HashTableIyNS_12KeyValuePairIyNS_6RefPtrIN6WebKit24WebPluginSiteDataManagerEEEEENS_24KeyValuePairKeyExtractorIS6_EENS_7IntHashIyEENS_18HashMapValueTraitsINS_10HashTraitsIyEENSC_IS5_EEEESD_E15deallocateTableEPS6_i
__ZN3WTF9HashTableIyNS_12KeyValuePairIyNS_6RefPtrIN6WebKit24WebPluginSiteDataManagerEEEEENS_24KeyValuePairKeyExtractorIS6_EENS_7IntHashIyEENS_18HashMapValueTraitsINS_10HashTraitsIyEENSC_IS5_EEEESD_E16lookupForWritingINS_22IdentityHashTranslatorISA_EEyEENSt3__14pairIPS6_bEERKT0_
__ZN3WTF9HashTableIyNS_12KeyValuePairIyNS_6RefPtrIN6WebKit24WebPluginSiteDataManagerEEEEENS_24KeyValuePairKeyExtractorIS6_EENS_7IntHashIyEENS_18HashMapValueTraitsINS_10HashTraitsIyEENSC_IS5_EEEESD_E3addINS_17HashMapTranslatorISF_SA_EEyNS_10PassRefPtrIS4_EEEENS_18HashTableAddResultINS_17HashTableIteratorIyS6_S8_SA_SF_SD_EEEERKT0_RKT1_
__ZN3WTF9HashTableIyNS_12KeyValuePairIyNS_6RefPtrIN6WebKit24WebPluginSiteDataManagerEEEEENS_24KeyValuePairKeyExtractorIS6_EENS_7IntHashIyEENS_18HashMapValueTraitsINS_10HashTraitsIyEENSC_IS5_EEEESD_E4findINS_22IdentityHashTranslatorISA_EEyEENS_17HashTableIteratorIyS6_S8_SA_SF_SD_EERKT0_
__ZN3WTF9HashTableIyNS_12KeyValuePairIyNS_6RefPtrIN6WebKit24WebPluginSiteDataManagerEEEEENS_24KeyValuePairKeyExtractorIS6_EENS_7IntHashIyEENS_18HashMapValueTraitsINS_10HashTraitsIyEENSC_IS5_EEEESD_E6expandEv
__ZN3WTF9HashTableIyNS_12KeyValuePairIyNS_6RefPtrIN6WebKit24WebPluginSiteDataManagerEEEEENS_24KeyValuePairKeyExtractorIS6_EENS_7IntHashIyEENS_18HashMapValueTraitsINS_10HashTraitsIyEENSC_IS5_EEEESD_E6lookupINS_22IdentityHashTranslatorISA_EEyEEPS6_RKT0_
__ZN3WTF9HashTableIyNS_12KeyValuePairIyNS_6RefPtrIN6WebKit24WebPluginSiteDataManagerEEEEENS_24KeyValuePairKeyExtractorIS6_EENS_7IntHashIyEENS_18HashMapValueTraitsINS_10HashTraitsIyEENSC_IS5_EEEESD_E6rehashEi
__ZN3WTF9HashTableIyNS_12KeyValuePairIyNS_6RefPtrIN6WebKit24WebPluginSiteDataManagerEEEEENS_24KeyValuePairKeyExtractorIS6_EENS_7IntHashIyEENS_18HashMapValueTraitsINS_10HashTraitsIyEENSC_IS5_EEEESD_E6removeEPS6_
__ZN6WebKit24WebPluginSiteDataManager31didClearSiteDataForSinglePluginEy
__ZN6WebKit24WebPluginSiteDataManager29didClearSiteDataForAllPluginsEy
__ZN3WTF9HashTableIyNS_12KeyValuePairIyNS_6OwnPtrIN6WebKit24WebPluginSiteDataManager18ClearSiteDataStateEEEEENS_24KeyValuePairKeyExtractorIS7_EENS_7IntHashIyEENS_18HashMapValueTraitsINS_10HashTraitsIyEENSD_IS6_EEEESE_E15deallocateTableEPS7_i
__ZN3WTF9HashTableIyNS_12KeyValuePairIyNS_6OwnPtrIN6WebKit24WebPluginSiteDataManager18ClearSiteDataStateEEEEENS_24KeyValuePairKeyExtractorIS7_EENS_7IntHashIyEENS_18HashMapValueTraitsINS_10HashTraitsIyEENSD_IS6_EEEESE_E16lookupForWritingINS_22IdentityHashTranslatorISB_EEyEENSt3__14pairIPS7_bEERKT0_
__ZN3WTF9HashTableIyNS_12KeyValuePairIyNS_6OwnPtrIN6WebKit24WebPluginSiteDataManager18ClearSiteDataStateEEEEENS_24KeyValuePairKeyExtractorIS7_EENS_7IntHashIyEENS_18HashMapValueTraitsINS_10HashTraitsIyEENSD_IS6_EEEESE_E3addINS_17HashMapTranslatorISG_SB_EEyNS_10PassOwnPtrIS5_EEEENS_18HashTableAddResultINS_17HashTableIteratorIyS7_S9_SB_SG_SE_EEEERKT0_RKT1_
__ZN3WTF9HashTableIyNS_12KeyValuePairIyNS_6OwnPtrIN6WebKit24WebPluginSiteDataManager18ClearSiteDataStateEEEEENS_24KeyValuePairKeyExtractorIS7_EENS_7IntHashIyEENS_18HashMapValueTraitsINS_10HashTraitsIyEENSD_IS6_EEEESE_E4findINS_22IdentityHashTranslatorISB_EEyEENS_17HashTableIteratorIyS7_S9_SB_SG_SE_EERKT0_
__ZN3WTF9HashTableIyNS_12KeyValuePairIyNS_6OwnPtrIN6WebKit24WebPluginSiteDataManager18ClearSiteDataStateEEEEENS_24KeyValuePairKeyExtractorIS7_EENS_7IntHashIyEENS_18HashMapValueTraitsINS_10HashTraitsIyEENSD_IS6_EEEESE_E6expandEv
__ZN3WTF9HashTableIyNS_12KeyValuePairIyNS_6OwnPtrIN6WebKit24WebPluginSiteDataManager18ClearSiteDataStateEEEEENS_24KeyValuePairKeyExtractorIS7_EENS_7IntHashIyEENS_18HashMapValueTraitsINS_10HashTraitsIyEENSD_IS6_EEEESE_E6lookupINS_22IdentityHashTranslatorISB_EEyEEPS7_RKT0_
__ZN3WTF9HashTableIyNS_12KeyValuePairIyNS_6OwnPtrIN6WebKit24WebPluginSiteDataManager18ClearSiteDataStateEEEEENS_24KeyValuePairKeyExtractorIS7_EENS_7IntHashIyEENS_18HashMapValueTraitsINS_10HashTraitsIyEENSD_IS6_EEEESE_E6rehashEi
__ZN3WTF9HashTableIyNS_12KeyValuePairIyNS_6OwnPtrIN6WebKit24WebPluginSiteDataManager18ClearSiteDataStateEEEEENS_24KeyValuePairKeyExtractorIS7_EENS_7IntHashIyEENS_18HashMapValueTraitsINS_10HashTraitsIyEENSD_IS6_EEEESE_E6removeEPS7_
__ZN6WebKit24WebPluginSiteDataManager16didClearSiteDataEy
__ZN3WTF7HashMapIyNS_6RefPtrIN6WebKit12VoidCallbackEEENS_7IntHashIyEENS_10HashTraitsIyEENS7_IS4_EEE4takeERKy
__ZN3WTF9HashTableIyNS_12KeyValuePairIyNS_6RefPtrIN6WebKit12VoidCallbackEEEEENS_24KeyValuePairKeyExtractorIS6_EENS_7IntHashIyEENS_18HashMapValueTraitsINS_10HashTraitsIyEENSC_IS5_EEEESD_E12deleteBucketERS6_
__ZN3WTF9HashTableIyNS_12KeyValuePairIyNS_6RefPtrIN6WebKit12VoidCallbackEEEEENS_24KeyValuePairKeyExtractorIS6_EENS_7IntHashIyEENS_18HashMapValueTraitsINS_10HashTraitsIyEENSC_IS5_EEEESD_E15deallocateTableEPS6_i
__ZN3WTF9HashTableIyNS_12KeyValuePairIyNS_6RefPtrIN6WebKit12VoidCallbackEEEEENS_24KeyValuePairKeyExtractorIS6_EENS_7IntHashIyEENS_18HashMapValueTraitsINS_10HashTraitsIyEENSC_IS5_EEEESD_E16lookupForWritingINS_22IdentityHashTranslatorISA_EEyEENSt3__14pairIPS6_bEERKT0_
__ZN3WTF9HashTableIyNS_12KeyValuePairIyNS_6RefPtrIN6WebKit12VoidCallbackEEEEENS_24KeyValuePairKeyExtractorIS6_EENS_7IntHashIyEENS_18HashMapValueTraitsINS_10HashTraitsIyEENSC_IS5_EEEESD_E3addINS_17HashMapTranslatorISF_SA_EEyNS_10PassRefPtrIS4_EEEENS_18HashTableAddResultINS_17HashTableIteratorIyS6_S8_SA_SF_SD_EEEERKT0_RKT1_
__ZN3WTF9HashTableIyNS_12KeyValuePairIyNS_6RefPtrIN6WebKit12VoidCallbackEEEEENS_24KeyValuePairKeyExtractorIS6_EENS_7IntHashIyEENS_18HashMapValueTraitsINS_10HashTraitsIyEENSC_IS5_EEEESD_E4findINS_22IdentityHashTranslatorISA_EEyEENS_17HashTableIteratorIyS6_S8_SA_SF_SD_EERKT0_
__ZN3WTF9HashTableIyNS_12KeyValuePairIyNS_6RefPtrIN6WebKit12VoidCallbackEEEEENS_24KeyValuePairKeyExtractorIS6_EENS_7IntHashIyEENS_18HashMapValueTraitsINS_10HashTraitsIyEENSC_IS5_EEEESD_E6expandEv
__ZN3WTF9HashTableIyNS_12KeyValuePairIyNS_6RefPtrIN6WebKit12VoidCallbackEEEEENS_24KeyValuePairKeyExtractorIS6_EENS_7IntHashIyEENS_18HashMapValueTraitsINS_10HashTraitsIyEENSC_IS5_EEEESD_E6lookupINS_22IdentityHashTranslatorISA_EEyEEPS6_RKT0_
__ZN3WTF9HashTableIyNS_12KeyValuePairIyNS_6RefPtrIN6WebKit12VoidCallbackEEEEENS_24KeyValuePairKeyExtractorIS6_EENS_7IntHashIyEENS_18HashMapValueTraitsINS_10HashTraitsIyEENSC_IS5_EEEESD_E6rehashEi
__ZN3WTF9HashTableIyNS_12KeyValuePairIyNS_6RefPtrIN6WebKit12VoidCallbackEEEEENS_24KeyValuePairKeyExtractorIS6_EENS_7IntHashIyEENS_18HashMapValueTraitsINS_10HashTraitsIyEENSC_IS5_EEEESD_E6removeEPS6_
__ZN6WebKit12VoidCallbackD0Ev
__ZN7WebCore5TimerIN6WebKit10WebProcessEE5firedEv
__ZN6WebKit10WebProcess34nonVisibleProcessCleanupTimerFiredEPN7WebCore5TimerIS0_EE
_WKDestroyRenderingResources
__ZThn104_N6WebKit21WebPlatformStrategies14refreshPluginsEv
__ZN6WebKit15PluginInfoStore7refreshEv
__ZThn328_N6WebKit21NetworkResourceLoader42canAuthenticateAgainstProtectionSpaceAsyncEPN7WebCore14ResourceHandleERKNS1_15ProtectionSpaceE
__ZN6WebKit21NetworkResourceLoader21sendAbortingOnFailureIN8Messages17WebResourceLoader37CanAuthenticateAgainstProtectionSpaceEEEbRKT_j
__ZN7CoreIPC10Connection4sendIN8Messages17WebResourceLoader37CanAuthenticateAgainstProtectionSpaceEEEbRKT_yj
__ZN7CoreIPC13handleMessageIN8Messages17WebResourceLoader37CanAuthenticateAgainstProtectionSpaceEN6WebKit17WebResourceLoaderEMS5_FvRKN7WebCore15ProtectionSpaceEEEEvRNS_14MessageDecoderEPT0_T1_
__ZN6WebKit17WebResourceLoader37canAuthenticateAgainstProtectionSpaceERKN7WebCore15ProtectionSpaceE
__ZN7CoreIPC13MessageSender4sendIN8Messages21NetworkResourceLoader45ContinueCanAuthenticateAgainstProtectionSpaceEEEbRKT_y
__ZN6WebKit21NetworkResourceLoader45continueCanAuthenticateAgainstProtectionSpaceEb
__ZN7WebCore17FrameLoaderClient18didNotAllowPluginsEv
-[WKView shouldDelayWindowOrderingForEvent:]
-[WKView mouseDown:]
-[WKView _setMouseDownEvent:]
-[WKView mouseDownInternal:]
__ZN7WebCore12ChromeClient29supportsImmediateInvalidationEv
-[WKView mouseUp:]
-[WKView mouseUpInternal:]
_WKBundleHitTestResultCopyLinkTitle
__ZNK6WebKit27InjectedBundleHitTestResult9linkTitleEv
_WKBundleHitTestResultCopyLinkLabel
__ZNK6WebKit27InjectedBundleHitTestResult9linkLabelEv
__ZThn88_N6WebKit21WebPlatformStrategies25loadResourceSynchronouslyEPN7WebCore17NetworkingContextEmRKNS1_15ResourceRequestENS1_17StoredCredentialsENS1_22ClientCredentialPolicyERNS1_13ResourceErrorERNS1_16ResourceResponseERN3WTF6VectorIcLm0ENSD_15CrashOnOverflowEEE
__ZN6WebKit21WebPlatformStrategies25loadResourceSynchronouslyEPN7WebCore17NetworkingContextEmRKNS1_15ResourceRequestENS1_17StoredCredentialsENS1_22ClientCredentialPolicyERNS1_13ResourceErrorERNS1_16ResourceResponseERN3WTF6VectorIcLm0ENSD_15CrashOnOverflowEEE
__ZNK7WebCore22FrameNetworkingContext40shouldClearReferrerOnHTTPSToHTTPRedirectEv
__ZN7CoreIPC10Connection8sendSyncIN8Messages29NetworkConnectionToWebProcess22PerformSynchronousLoadEEEbRKT_RKNS5_5ReplyEydj
__ZN7CoreIPC20handleMessageDelayedIN8Messages29NetworkConnectionToWebProcess22PerformSynchronousLoadEN6WebKit29NetworkConnectionToWebProcessEMS5_FvRKNS4_29NetworkResourceLoadParametersEN3WTF10PassRefPtrINS3_12DelayedReplyEEEEEEvPNS_10ConnectionERNS_14MessageDecoderERNS9_6OwnPtrINS_14MessageEncoderEEEPT0_T1_
__ZN7CoreIPC18callMemberFunctionIN6WebKit29NetworkConnectionToWebProcessEMS2_FvRKNS1_29NetworkResourceLoadParametersEN3WTF10PassRefPtrIN8Messages29NetworkConnectionToWebProcess22PerformSynchronousLoad12DelayedReplyEEEES3_SB_EEvRKNS_10Arguments1IT1_EENS7_IT2_EEPT_T0_
__ZN6WebKit29NetworkConnectionToWebProcess22performSynchronousLoadERKNS_29NetworkResourceLoadParametersEN3WTF10PassRefPtrIN8Messages29NetworkConnectionToWebProcess22PerformSynchronousLoad12DelayedReplyEEE
__ZN6WebKit25SyncNetworkResourceLoader6createERKNS_29NetworkResourceLoadParametersEPNS_29NetworkConnectionToWebProcessEN3WTF10PassRefPtrIN8Messages29NetworkConnectionToWebProcess22PerformSynchronousLoad12DelayedReplyEEE
__ZN6WebKit25SyncNetworkResourceLoaderC1ERKNS_29NetworkResourceLoadParametersEPNS_29NetworkConnectionToWebProcessEN3WTF10PassRefPtrIN8Messages29NetworkConnectionToWebProcess22PerformSynchronousLoad12DelayedReplyEEE
__ZN3WTF17HashMapTranslatorINS_18HashMapValueTraitsINS_10HashTraitsIyEENS2_INS_6RefPtrIN6WebKit25SyncNetworkResourceLoaderEEEEEEENS_7IntHashIyEEE9translateINS_12KeyValuePairIyS7_EEyNS_10PassRefPtrIS6_EEEEvRT_RKT0_RKT1_
__ZN3WTF6RefPtrIN6WebKit25SyncNetworkResourceLoaderEEaSERKNS_10PassRefPtrIS2_EE
__ZN6WebKit25SyncNetworkResourceLoader13isSynchronousEv
__ZN6WebKit25SyncNetworkResourceLoader5startEv
__ZN8Messages29NetworkConnectionToWebProcess22PerformSynchronousLoad12DelayedReply4sendERKN7WebCore13ResourceErrorERKNS3_16ResourceResponseERKN7CoreIPC13DataReferenceE
__ZN7CoreIPC10Arguments3IRN7WebCore13ResourceErrorERNS1_16ResourceResponseERNS_13DataReferenceEE6decodeERNS_15ArgumentDecoderERS8_
__ZN7CoreIPC10Arguments2IRN7WebCore13ResourceErrorERNS1_16ResourceResponseEE6decodeERNS_15ArgumentDecoderERS6_
__ZN3WTF6VectorIcLm0ENS_15CrashOnOverflowEE6resizeEm
__ZN6WebKit14EncoderAdapter11encodeBytesEPKhm
__ZN6WebKit16SandboxExtension11HandleArray8allocateEm
__ZNK6WebKit16SandboxExtension11HandleArray6encodeERN7CoreIPC15ArgumentEncoderE
__ZN6WebKit14DecoderAdapterC1EPKhm
__ZN6WebKit14DecoderAdapter10decodeBoolERb
__ZN6WebKit14DecoderAdapter11decodeBytesERN3WTF6VectorIhLm0ENS1_15CrashOnOverflowEEE
__ZN6WebKit14DecoderAdapter12decodeUInt64ERy
__ZN6WebKit14DecoderAdapter12decodeUInt32ERj
__ZN6WebKit14DecoderAdapter11decodeInt64ERx
__ZN6WebKit16SandboxExtension11HandleArray6decodeERN7CoreIPC15ArgumentDecoderERS1_
__ZN6WebKit18NPRuntimeObjectMap8finalizeEN3JSC6HandleINS1_7UnknownEEEPv
__ZN3WTF9HashTableIP8NPObjectNS_12KeyValuePairIS2_N3JSC4WeakIN6WebKit10JSNPObjectEEEEENS_24KeyValuePairKeyExtractorIS9_EENS_7PtrHashIS2_EENS_18HashMapValueTraitsINS_10HashTraitsIS2_EENSF_IS8_EEEESG_E15deallocateTableEPS9_i
__ZN3WTF9HashTableIP8NPObjectNS_12KeyValuePairIS2_N3JSC4WeakIN6WebKit10JSNPObjectEEEEENS_24KeyValuePairKeyExtractorIS9_EENS_7PtrHashIS2_EENS_18HashMapValueTraitsINS_10HashTraitsIS2_EENSF_IS8_EEEESG_E16lookupForWritingINS_22IdentityHashTranslatorISD_EES2_EENSt3__14pairIPS9_bEERKT0_
__ZN3WTF9HashTableIP8NPObjectNS_12KeyValuePairIS2_N3JSC4WeakIN6WebKit10JSNPObjectEEEEENS_24KeyValuePairKeyExtractorIS9_EENS_7PtrHashIS2_EENS_18HashMapValueTraitsINS_10HashTraitsIS2_EENSF_IS8_EEEESG_E3addINS_17HashMapTranslatorISI_SD_EES2_NS4_8PassWeakIS7_EEEENS_18HashTableAddResultINS_17HashTableIteratorIS2_S9_SB_SD_SI_SG_EEEERKT0_RKT1_
__ZN3WTF9HashTableIP8NPObjectNS_12KeyValuePairIS2_N3JSC4WeakIN6WebKit10JSNPObjectEEEEENS_24KeyValuePairKeyExtractorIS9_EENS_7PtrHashIS2_EENS_18HashMapValueTraitsINS_10HashTraitsIS2_EENSF_IS8_EEEESG_E4findINS_22IdentityHashTranslatorISD_EES2_EENS_17HashTableIteratorIS2_S9_SB_SD_SI_SG_EERKT0_
__ZN3WTF9HashTableIP8NPObjectNS_12KeyValuePairIS2_N3JSC4WeakIN6WebKit10JSNPObjectEEEEENS_24KeyValuePairKeyExtractorIS9_EENS_7PtrHashIS2_EENS_18HashMapValueTraitsINS_10HashTraitsIS2_EENSF_IS8_EEEESG_E5beginEv
__ZN3WTF9HashTableIP8NPObjectNS_12KeyValuePairIS2_N3JSC4WeakIN6WebKit10JSNPObjectEEEEENS_24KeyValuePairKeyExtractorIS9_EENS_7PtrHashIS2_EENS_18HashMapValueTraitsINS_10HashTraitsIS2_EENSF_IS8_EEEESG_E6expandEv
__ZN3WTF9HashTableIP8NPObjectNS_12KeyValuePairIS2_N3JSC4WeakIN6WebKit10JSNPObjectEEEEENS_24KeyValuePairKeyExtractorIS9_EENS_7PtrHashIS2_EENS_18HashMapValueTraitsINS_10HashTraitsIS2_EENSF_IS8_EEEESG_E6lookupINS_22IdentityHashTranslatorISD_EES2_EEPS9_RKT0_
__ZN3WTF9HashTableIP8NPObjectNS_12KeyValuePairIS2_N3JSC4WeakIN6WebKit10JSNPObjectEEEEENS_24KeyValuePairKeyExtractorIS9_EENS_7PtrHashIS2_EENS_18HashMapValueTraitsINS_10HashTraitsIS2_EENSF_IS8_EEEESG_E6rehashEi
__ZN3WTF9HashTableIP8NPObjectNS_12KeyValuePairIS2_N3JSC4WeakIN6WebKit10JSNPObjectEEEEENS_24KeyValuePairKeyExtractorIS9_EENS_7PtrHashIS2_EENS_18HashMapValueTraitsINS_10HashTraitsIS2_EENSF_IS8_EEEESG_E6removeEPS9_
__ZN6WebKit18NPRuntimeObjectMap22addToInvalidationQueueEP8NPObject
__ZN6WebKit22trySafeReleaseNPObjectEP8NPObject
__ZN7WebCore7RunLoop5TimerIN6WebKit18NPRuntimeObjectMapEE5firedEv
__ZN6WebKit18NPRuntimeObjectMap23invalidateQueuedObjectsEv
__ZN6WebKit17NPRemoteObjectMap22npObjectProxyDestroyedEP8NPObject
__ZN7CoreIPC10Connection8sendSyncIN8Messages23NPObjectMessageReceiver10DeallocateEEEbRKT_RKNS5_5ReplyEydj
__ZN3WTF6VectorIP8NPObjectLm0ENS_15CrashOnOverflowEE14shrinkCapacityEm
__ZN6WebKit10JSNPObject12methodGetterEPN3JSC9ExecStateENS1_7JSValueENS1_12PropertyNameE
__ZN6WebKit10JSNPMethod6createEPN3JSC9ExecStateEPNS1_14JSGlobalObjectERKN3WTF6StringEPv
__ZN3JSC12allocateCellIN6WebKit10JSNPMethodEEEPvRNS_4HeapE
__ZN6WebKit10JSNPMethodC1EPN3JSC14JSGlobalObjectEPNS1_9StructureEPv
__ZN6WebKit10JSNPMethod14finishCreationERN3JSC2VMERKN3WTF6StringE
__ZN6WebKit10JSNPMethod11getCallDataEPN3JSC6JSCellERNS1_8CallDataE
__ZN6WebKitL10callMethodEPN3JSC9ExecStateE
__ZN6WebKit10JSNPObject10callMethodEPN3JSC9ExecStateEPv
__ZN6WebKit13NPObjectProxy9NP_InvokeEP8NPObjectPvPK10_NPVariantjPS4_
__ZN6WebKit13NPObjectProxy6invokeEPvPK10_NPVariantjPS2_
__ZN3WTF6VectorIN6WebKit13NPVariantDataELm0ENS_15CrashOnOverflowEE14appendSlowCaseIS2_EEvRKT_
__ZN3WTF6VectorIN6WebKit13NPVariantDataELm0ENS_15CrashOnOverflowEE14expandCapacityEmPKS2_
__ZN3WTF6VectorIN6WebKit13NPVariantDataELm0ENS_15CrashOnOverflowEE15reserveCapacityEm
__ZN3WTF16VectorBufferBaseIN6WebKit13NPVariantDataEE14allocateBufferEm
__ZN3WTF11VectorMoverILb0EN6WebKit13NPVariantDataEE4moveEPKS2_S5_PS2_
__ZN7CoreIPC10Connection8sendSyncIN8Messages23NPObjectMessageReceiver6InvokeEEEbRKT_RKNS5_5ReplyEydj
__ZN7CoreIPC19VectorArgumentCoderILb0EN6WebKit13NPVariantDataEE6encodeERNS_15ArgumentEncoderERKN3WTF6VectorIS2_Lm0ENS6_15CrashOnOverflowEEE
__ZN6WebKit13NPVariantData8makeNullEv
__ZN7CoreIPC10Arguments2IRbRN6WebKit13NPVariantDataEE6decodeERNS_15ArgumentDecoderERS5_
__ZN3WTF6VectorIN6WebKit13NPVariantDataELm0ENS_15CrashOnOverflowEE6shrinkEm
__ZN6WebKit18NPRuntimeObjectMap30moveGlobalExceptionToExecStateEPN3JSC9ExecStateE
__ZN6WebKitL21globalExceptionStringEv
__ZN6WebKit18NPRuntimeObjectMap25convertNPVariantToJSValueEPN3JSC9ExecStateEPNS1_14JSGlobalObjectERK10_NPVariant
__ZN3WTF6VectorI10_NPVariantLm8ENS_15CrashOnOverflowEED2Ev
__ZN3WTF10RefCountedIN7WebCore9FormStateEE5derefEv
_WKBundleNavigationActionCopyFormElement
__ZN6WebKit20WebFrameLoaderClient22dispatchWillSubmitFormEMN7WebCore13PolicyCheckerEFvNS1_12PolicyActionEEN3WTF10PassRefPtrINS1_9FormStateEEE
__ZN6WebKit28InjectedBundlePageFormClient14willSubmitFormEPNS_7WebPageEPN7WebCore15HTMLFormElementEPNS_8WebFrameES7_RKN3WTF6VectorINSt3__14pairINS8_6StringESC_EELm0ENS8_15CrashOnOverflowEEERNS8_6RefPtrINS_9APIObjectEEE
__ZN7CoreIPC13MessageSender4sendIN8Messages12WebPageProxy14WillSubmitFormEEEbRKT_y
__ZNK7CoreIPC10Arguments4IyyRKN3WTF6VectorINSt3__14pairINS1_6StringES5_EELm0ENS1_15CrashOnOverflowEEEyE6encodeERNS_15ArgumentEncoderE
__ZN7CoreIPC19VectorArgumentCoderILb0ENSt3__14pairIN3WTF6StringES4_EEE6encodeERNS_15ArgumentEncoderERKNS3_6VectorIS5_Lm0ENS3_15CrashOnOverflowEEE
__ZN7CoreIPC21handleMessageVariadicIN8Messages12WebPageProxy14WillSubmitFormEN6WebKit12WebPageProxyEMS5_FvyyRKN3WTF6VectorINSt3__14pairINS6_6StringESA_EELm0ENS6_15CrashOnOverflowEEEyRNS_14MessageDecoderEEEEvSH_PT0_T1_
__ZN7CoreIPC10Arguments4IyyN3WTF6VectorINSt3__14pairINS1_6StringES5_EELm0ENS1_15CrashOnOverflowEEEyE6decodeERNS_15ArgumentDecoderERS9_
__ZN7CoreIPC10Arguments3IyyN3WTF6VectorINSt3__14pairINS1_6StringES5_EELm0ENS1_15CrashOnOverflowEEEE6decodeERNS_15ArgumentDecoderERS9_
__ZN7CoreIPC19VectorArgumentCoderILb0ENSt3__14pairIN3WTF6StringES4_EEE6decodeERNS_15ArgumentDecoderERNS3_6VectorIS5_Lm0ENS3_15CrashOnOverflowEEE
__ZN3WTF6VectorINSt3__14pairINS_6StringES3_EELm0ENS_15CrashOnOverflowEE14shrinkCapacityEm
__ZN3WTF6VectorINSt3__14pairINS_6StringES3_EELm0ENS_15CrashOnOverflowEED2Ev
__ZN7CoreIPC18callMemberFunctionIN6WebKit12WebPageProxyEMS2_FvyyRKN3WTF6VectorINSt3__14pairINS3_6StringES7_EELm0ENS3_15CrashOnOverflowEEEyRNS_14MessageDecoderEEyySA_yEEvRKNS_10Arguments4IT1_T2_T3_T4_EESE_PT_T0_
__ZN6WebKit12WebPageProxy14willSubmitFormEyyRKN3WTF6VectorINSt3__14pairINS1_6StringES5_EELm0ENS1_15CrashOnOverflowEEEyRN7CoreIPC14MessageDecoderE
__ZN6WebKit13WebFrameProxy32setUpFormSubmissionListenerProxyEy
__ZN6WebKit30WebFormSubmissionListenerProxyC1EPNS_13WebFrameProxyEy
__ZN6WebKit13WebFormClient14willSubmitFormEPNS_12WebPageProxyEPNS_13WebFrameProxyES4_RKN3WTF6VectorINSt3__14pairINS5_6StringES9_EELm0ENS5_15CrashOnOverflowEEEPNS_9APIObjectEPNS_30WebFormSubmissionListenerProxyE
_WKFormSubmissionListenerContinue
__ZN6WebKit30WebFormSubmissionListenerProxy18continueSubmissionEv
_WKBackForwardListCopyForwardListWithLimit
__ZNK6WebKit18WebBackForwardList36forwardListAsImmutableArrayWithLimitEj
_WKPageSetVisibilityState
__ZN6WebKit12WebPageProxy18setVisibilityStateEN7WebCore19PageVisibilityStateEb
__ZN6WebKit12MutableArray15reserveCapacityEj
__ZN6WebKit34TiledCoreAnimationDrawingAreaProxyD0Ev
__ZN6WebKit15WebProcessProxy24canTerminateChildProcessEv
__ZN6WebKit10WebContext15shouldTerminateEPNS_15WebProcessProxyE
__ZNK6WebKit20WebContextSupplement15shouldTerminateEPNS_15WebProcessProxyE
__ZThn16_NK6WebKit31WebApplicationCacheManagerProxy15shouldTerminateEPNS_15WebProcessProxyE
__ZThn16_NK6WebKit28WebResourceCacheManagerProxy15shouldTerminateEPNS_15WebProcessProxyE
__ZThn16_NK6WebKit25WebMediaCacheManagerProxy15shouldTerminateEPNS_15WebProcessProxyE
__ZThn16_NK6WebKit21WebCookieManagerProxy15shouldTerminateEPNS_15WebProcessProxyE
__ZThn16_NK6WebKit23WebDatabaseManagerProxy15shouldTerminateEPNS_15WebProcessProxyE
__ZNK6WebKit24WebPluginSiteDataManager15shouldTerminateEPNS_15WebProcessProxyE
__ZN6WebKit17ChildProcessProxy26abortProcessLaunchIfNeededEv
__ZN6WebKit15WebProcessProxy10disconnectEv
__ZN6WebKit17ChildProcessProxy15clearConnectionEv
__ZN6WebKit15WebProcessProxy19connectionWillCloseEPN7CoreIPC10ConnectionE
__ZN6WebKit10WebContext26processWillCloseConnectionEPNS_15WebProcessProxyE
__ZN6WebKit14StorageManager26processWillCloseConnectionEPNS_15WebProcessProxyE
__ZN3WTF4bindIMN6WebKit14StorageManagerEFvPN7CoreIPC10ConnectionEEPS2_NS_6RefPtrIS4_EEEENS_8FunctionIFNS_15FunctionWrapperIT_E10ResultTypeEvEEESD_RKT0_RKT1_
__ZN6WebKit14StorageManager28invalidateConnectionInternalEPN7CoreIPC10ConnectionE
__ZN6WebKit25WebConnectionToWebProcess10invalidateEv
__ZNK3WTF9HashTableINSt3__14pairINS_6RefPtrIN7CoreIPC10ConnectionEEEyEENS_12KeyValuePairIS7_NS3_IN6WebKit14StorageManager11StorageAreaEEEEENS_24KeyValuePairKeyExtractorISD_EENS_8PairHashIS6_yEENS_18HashMapValueTraitsINS_10HashTraitsIS7_EENSJ_ISC_EEEESK_E17makeConstIteratorEPSD_
__ZNK3WTF9HashTableINSt3__14pairINS_6RefPtrIN7CoreIPC10ConnectionEEEyEENS_12KeyValuePairIS7_NS3_IN6WebKit14StorageManager11StorageAreaEEEEENS_24KeyValuePairKeyExtractorISD_EENS_8PairHashIS6_yEENS_18HashMapValueTraitsINS_10HashTraitsIS7_EENSJ_ISC_EEEESK_E5beginEv
__ZN6WebKit25WebConnectionToWebProcessD0Ev
__ZN3WTF6RefPtrIN6WebKit14StorageManager11StorageAreaEEaSERKS4_
__ZN6WebKit13WebConnectionD2Ev
__ZN3WTF6VectorINSt3__14pairINS_6RefPtrIN7CoreIPC10ConnectionEEEyEELm0ENS_15CrashOnOverflowEED2Ev
__ZN6WebKit10WebContext17disconnectProcessEPNS_15WebProcessProxyE
__ZN6WebKit19VisitedLinkProvider15processDidCloseEPNS_15WebProcessProxyE
__ZN3WTF7HashSetIPN6WebKit15WebProcessProxyENS_7PtrHashIS3_EENS_10HashTraitsIS3_EEE6removeERKS3_
__ZNK3WTF9HashTableIPN6WebKit15WebProcessProxyES3_NS_17IdentityExtractorENS_7PtrHashIS3_EENS_10HashTraitsIS3_EES8_E4findINS_22IdentityHashTranslatorIS6_EES3_EENS_22HashTableConstIteratorIS3_S3_S4_S6_S8_S8_EERKT0_
__ZN3WTF9HashTableIPN6WebKit15WebProcessProxyES3_NS_17IdentityExtractorENS_7PtrHashIS3_EENS_10HashTraitsIS3_EES8_E6lookupINS_22IdentityHashTranslatorIS6_EES3_EEPS3_RKT0_
__ZN3WTF9HashTableIPN6WebKit15WebProcessProxyES3_NS_17IdentityExtractorENS_7PtrHashIS3_EENS_10HashTraitsIS3_EES8_E6removeEPS3_
__ZN3WTF6VectorINS_6RefPtrIN6WebKit15WebProcessProxyEEELm0ENS_15CrashOnOverflowEE6removeEm
__ZN6WebKitL29didCloseOnConnectionWorkQueueEPN7CoreIPC10ConnectionE
__ZN6WebKit29TiledCoreAnimationDrawingAreaD0Ev
__ZN6WebKit29TiledCoreAnimationDrawingAreaD2Ev
__ZN6WebKit15EventDispatcher26removeScrollingTreeForPageEPNS_7WebPageE
__ZN3WTF7HashMapIyNS_6RefPtrIN7WebCore13ScrollingTreeEEENS_7IntHashIyEENS_10HashTraitsIyEENS7_IS4_EEE6removeERKy
__ZN6WebKit10WebProcess15shouldTerminateEv
__ZN7CoreIPC10Connection8sendSyncIN8Messages15WebProcessProxy15ShouldTerminateEEEbRKT_RKNS5_5ReplyEydj
__ZN6WebKit29NetworkConnectionToWebProcess8didCloseEPN7CoreIPC10ConnectionE
__ZN6WebKit19NetworkBlobRegistry6sharedEv
__ZN6WebKit19NetworkBlobRegistry30connectionToWebProcessDidCloseEPNS_29NetworkConnectionToWebProcessE
__ZN6WebKit14NetworkProcess35removeNetworkConnectionToWebProcessEPNS_29NetworkConnectionToWebProcessE
__ZN3WTF6VectorINS_6RefPtrIN6WebKit29NetworkConnectionToWebProcessEEELm0ENS_15CrashOnOverflowEE6removeEm
__ZN6WebKit29NetworkConnectionToWebProcessD0Ev
__ZN6WebKit29NetworkConnectionToWebProcessD2Ev
____ZN6WebKitL16connectToServiceERKNS_15ProcessLauncher13LaunchOptionsEbPS0_MS0_FviN7CoreIPC10Connection10IdentifierEEPNS_12_GLO
__ZN6WebKit15WebProcessProxyD0Ev
__ZN6WebKit15WebProcessProxyD2Ev
__ZN3WTF6OwnPtrIN6WebKit16DownloadProxyMapEED2Ev
__ZN6WebKit22WebBackForwardListItemD0Ev
__ZN6WebKit22WebBackForwardListItemD2Ev
__ZN6WebKit19ResponsivenessTimerD1Ev
__ZN7WebCore12ChromeClient19addMessageToConsoleENS_13MessageSourceENS_11MessageTypeENS_12MessageLevelERKN3WTF6StringEjjS7_
__ZN6WebKit11PluginProxy19visibilityDidChangeEv
__ZN6WebKit13NPVariantData10makeDoubleEd
__ZN3JSC8jsStringEPNS_9ExecStateERKN3WTF6StringE
__ZN3JSC8JSString6createERNS_2VMEN3WTF10PassRefPtrINS3_10StringImplEEE
__ZNK3WTF10StringImpl4costEv
__ZN3JSC12allocateCellINS_8JSStringEEEPvRNS_4HeapE
__ZN3JSC8JSString14finishCreationERNS_2VMEmm
_WKFramePolicyListenerDownload
__ZN6WebKit27WebFramePolicyListenerProxy8downloadEv
__ZN6WebKit10WebContext19createDownloadProxyEv
__ZN6WebKit19NetworkProcessProxy19createDownloadProxyEv
__ZN6WebKit16DownloadProxyMapC1EPNS_17ChildProcessProxyE
__ZN3WTF6OwnPtrIN6WebKit16DownloadProxyMapEEaSERKNS_10PassOwnPtrIS2_EE
__ZN3WTF10PassOwnPtrIN6WebKit16DownloadProxyMapEED2Ev
__ZN6WebKit16DownloadProxyMap19createDownloadProxyEPNS_10WebContextE
__ZN6WebKit13DownloadProxy6createERNS_16DownloadProxyMapEPNS_10WebContextE
__ZN6WebKit13DownloadProxyC2ERNS_16DownloadProxyMapEPNS_10WebContextE
__ZN3WTF7HashMapIyNS_6RefPtrIN6WebKit13DownloadProxyEEENS_7IntHashIyEENS_10HashTraitsIyEENS7_IS4_EEE3setERKyNS_10PassRefPtrIS3_EE
__ZN3WTF9HashTableIyNS_12KeyValuePairIyNS_6RefPtrIN6WebKit13DownloadProxyEEEEENS_24KeyValuePairKeyExtractorIS6_EENS_7IntHashIyEENS_18HashMapValueTraitsINS_10HashTraitsIyEENSC_IS5_EEEESD_E15deallocateTableEPS6_i
__ZN3WTF9HashTableIyNS_12KeyValuePairIyNS_6RefPtrIN6WebKit13DownloadProxyEEEEENS_24KeyValuePairKeyExtractorIS6_EENS_7IntHashIyEENS_18HashMapValueTraitsINS_10HashTraitsIyEENSC_IS5_EEEESD_E16lookupForWritingINS_22IdentityHashTranslatorISA_EEyEENSt3__14pairIPS6_bEERKT0_
__ZN3WTF9HashTableIyNS_12KeyValuePairIyNS_6RefPtrIN6WebKit13DownloadProxyEEEEENS_24KeyValuePairKeyExtractorIS6_EENS_7IntHashIyEENS_18HashMapValueTraitsINS_10HashTraitsIyEENSC_IS5_EEEESD_E3addINS_17HashMapTranslatorISF_SA_EEyNS_10PassRefPtrIS4_EEEENS_18HashTableAddResultINS_17HashTableIteratorIyS6_S8_SA_SF_SD_EEEERKT0_RKT1_
__ZN3WTF9HashTableIyNS_12KeyValuePairIyNS_6RefPtrIN6WebKit13DownloadProxyEEEEENS_24KeyValuePairKeyExtractorIS6_EENS_7IntHashIyEENS_18HashMapValueTraitsINS_10HashTraitsIyEENSC_IS5_EEEESD_E4findINS_22IdentityHashTranslatorISA_EEyEENS_17HashTableIteratorIyS6_S8_SA_SF_SD_EERKT0_
__ZN3WTF9HashTableIyNS_12KeyValuePairIyNS_6RefPtrIN6WebKit13DownloadProxyEEEEENS_24KeyValuePairKeyExtractorIS6_EENS_7IntHashIyEENS_18HashMapValueTraitsINS_10HashTraitsIyEENSC_IS5_EEEESD_E6expandEv
__ZN3WTF9HashTableIyNS_12KeyValuePairIyNS_6RefPtrIN6WebKit13DownloadProxyEEEEENS_24KeyValuePairKeyExtractorIS6_EENS_7IntHashIyEENS_18HashMapValueTraitsINS_10HashTraitsIyEENSC_IS5_EEEESD_E6lookupINS_22IdentityHashTranslatorISA_EEyEEPS6_RKT0_
__ZN3WTF9HashTableIyNS_12KeyValuePairIyNS_6RefPtrIN6WebKit13DownloadProxyEEEEENS_24KeyValuePairKeyExtractorIS6_EENS_7IntHashIyEENS_18HashMapValueTraitsINS_10HashTraitsIyEENSC_IS5_EEEESD_E6rehashEi
__ZN3WTF9HashTableIyNS_12KeyValuePairIyNS_6RefPtrIN6WebKit13DownloadProxyEEEEENS_24KeyValuePairKeyExtractorIS6_EENS_7IntHashIyEENS_18HashMapValueTraitsINS_10HashTraitsIyEENSC_IS5_EEEESD_E6removeEPS6_
__ZN3WTF17HashMapTranslatorINS_18HashMapValueTraitsINS_10HashTraitsIyEENS2_INS_6RefPtrIN6WebKit13DownloadProxyEEEEEEENS_7IntHashIyEEE9translateINS_12KeyValuePairIyS7_EEyNS_10PassRefPtrIS6_EEEEvRT_RKT0_RKT1_
__ZN6WebKit20WebFrameLoaderClient33convertMainResourceLoadToDownloadEPN7WebCore14DocumentLoaderERKNS1_15ResourceRequestERKNS1_16ResourceResponseE
__ZN6WebKit8WebFrame33convertMainResourceLoadToDownloadEPN7WebCore14DocumentLoaderERKNS1_15ResourceRequestERKNS1_16ResourceResponseE
__ZN7CoreIPC10Connection4sendIN8Messages29NetworkConnectionToWebProcess33ConvertMainResourceLoadToDownloadEEEbRKT_yj
__ZNK7CoreIPC10Arguments4IyyRKN7WebCore15ResourceRequestERKNS1_16ResourceResponseEE6encodeERNS_15ArgumentEncoderE
__ZN6WebKit20WebFrameLoaderClient31interruptedForPolicyChangeErrorERKN7WebCore15ResourceRequestE
__ZN6WebKit31interruptedForPolicyChangeErrorERKN7WebCore15ResourceRequestE
__ZN7CoreIPC13handleMessageIN8Messages29NetworkConnectionToWebProcess33ConvertMainResourceLoadToDownloadEN6WebKit29NetworkConnectionToWebProcessEMS5_FvyyRKN7WebCore15ResourceRequestERKNS6_16ResourceResponseEEEEvRNS_14MessageDecoderEPT0_T1_
__ZN7CoreIPC10Arguments4IyyN7WebCore15ResourceRequestENS1_16ResourceResponseEE6decodeERNS_15ArgumentDecoderERS4_
__ZN7CoreIPC10Arguments3IyyN7WebCore15ResourceRequestEE6decodeERNS_15ArgumentDecoderERS3_
__ZN6WebKit29NetworkConnectionToWebProcess33convertMainResourceLoadToDownloadEyyRKN7WebCore15ResourceRequestERKNS1_16ResourceResponseE
__ZN6WebKit14NetworkProcess15downloadManagerEv
__ZN6WebKit15DownloadManagerC1EPNS0_6ClientE
__ZN6WebKit15DownloadManager23convertHandleToDownloadEyPN7WebCore14ResourceHandleERKNS1_15ResourceRequestERKNS1_16ResourceResponseE
__ZN6WebKit8Download6createERNS_15DownloadManagerEyRKN7WebCore15ResourceRequestE
__ZN6WebKit15DownloadManager17didCreateDownloadEv
__ZThn208_N6WebKit14NetworkProcess17didCreateDownloadEv
__ZN6WebKit8Download15startWithHandleEPN7WebCore14ResourceHandleERKNS1_16ResourceResponseE
-[WKDownloadAsDelegate initWithDownload:]
__ZN3WTF9RetainPtrIP20WKDownloadAsDelegateEC2ENS_10AdoptNSTagES2_
__ZN3WTF9RetainPtrI20WKDownloadAsDelegateEaSIPS1_EERS2_ONS0_IT_EE
-[WKDownloadAsDelegate downloadDidBegin:]
__ZL20dispatchOnMainThreadU13block_pointerFvvE
___41-[WKDownloadAsDelegate downloadDidBegin:]_block_invoke
__ZN6WebKit8Download8didStartEv
__ZN6WebKit8Download26messageSenderDestinationIDEv
__ZN7CoreIPC13MessageSender4sendIN8Messages13DownloadProxy8DidStartEEEbRKT_y
__ZN6WebKit8Download23messageSenderConnectionEv
__ZN6WebKit15DownloadManager23downloadProxyConnectionEv
__ZThn208_N6WebKit14NetworkProcess23downloadProxyConnectionEv
-[WKDownloadAsDelegate download:willSendRequest:redirectResponse:]
-[WKDownloadAsDelegate download:didReceiveResponse:]
___52-[WKDownloadAsDelegate download:didReceiveResponse:]_block_invoke
__ZN6WebKit8Download18didReceiveResponseERKN7WebCore16ResourceResponseE
__ZThn16_N6WebKit13DownloadProxy17didReceiveMessageEPN7CoreIPC10ConnectionERNS1_14MessageDecoderE
__ZN7CoreIPC13MessageSender4sendIN8Messages13DownloadProxy18DidReceiveResponseEEEbRKT_y
__ZN6WebKit13DownloadProxy17didReceiveMessageEPN7CoreIPC10ConnectionERNS1_14MessageDecoderE
__ZN7CoreIPC13handleMessageIN8Messages13DownloadProxy8DidStartEN6WebKit13DownloadProxyEMS5_FvRKN7WebCore15ResourceRequestEEEEvRNS_14MessageDecoderEPT0_T1_
__ZN3WTF9RetainPtrI13NSURLDownloadEaSI11objc_objectEERS2_PT_
__ZN6WebKit21NetworkResourceLoader26didConvertHandleToDownloadEv
__ZN6WebKit13DownloadProxy8didStartERKN7WebCore15ResourceRequestE
__ZN6WebKit17WebDownloadClient8didStartEPNS_10WebContextEPNS_13DownloadProxyE
_WKDownloadCopyRequest
__ZN6WebKit20WebFrameLoaderClient38dispatchDidLoadResourceFromMemoryCacheEPN7WebCore14DocumentLoaderERKNS1_15ResourceRequestERKNS1_16ResourceResponseEi
-[WKDownloadAsDelegate download:decideDestinationWithSuggestedFilename:]
___72-[WKDownloadAsDelegate download:decideDestinationWithSuggestedFilename:]_block_invoke
__ZN6WebKit8Download38decideDestinationWithSuggestedFilenameERKN3WTF6StringERb
__ZN6WebKit8Download40retrieveDestinationWithSuggestedFilenameERKN3WTF6StringERb
__ZN7CoreIPC10Connection8sendSyncIN8Messages13DownloadProxy38DecideDestinationWithSuggestedFilenameEEEbRKT_RKNS5_5ReplyEydj
__ZN7CoreIPC13handleMessageIN8Messages13DownloadProxy18DidReceiveResponseEN6WebKit13DownloadProxyEMS5_FvRKN7WebCore16ResourceResponseEEEEvRNS_14MessageDecoderEPT0_T1_
__ZN6WebKit13DownloadProxy18didReceiveResponseERKN7WebCore16ResourceResponseE
__ZN6WebKit17WebDownloadClient18didReceiveResponseEPNS_10WebContextEPNS_13DownloadProxyERKN7WebCore16ResourceResponseE
__ZThn8_N6WebKit19NetworkProcessProxy21didReceiveSyncMessageEPN7CoreIPC10ConnectionERNS1_14MessageDecoderERN3WTF6OwnPtrINS1_14MessageEncoderEEE
__ZThn16_N6WebKit13DownloadProxy21didReceiveSyncMessageEPN7CoreIPC10ConnectionERNS1_14MessageDecoderERN3WTF6OwnPtrINS1_14MessageEncoderEEE
__ZN6WebKit13DownloadProxy21didReceiveSyncMessageEPN7CoreIPC10ConnectionERNS1_14MessageDecoderERN3WTF6OwnPtrINS1_14MessageEncoderEEE
__ZN7CoreIPC13handleMessageIN8Messages13DownloadProxy38DecideDestinationWithSuggestedFilenameEN6WebKit13DownloadProxyEMS5_FvRKN3WTF6StringERS7_RbRNS4_16SandboxExtension6HandleEEEEvRNS_14MessageDecoderERNS_14MessageEncoderEPT0_T1_
__ZN6WebKit13DownloadProxy38decideDestinationWithSuggestedFilenameERKN3WTF6StringERS2_RbRNS_16SandboxExtension6HandleE
__ZN6WebKit17WebDownloadClient38decideDestinationWithSuggestedFilenameEPNS_10WebContextEPNS_13DownloadProxyERKN3WTF6StringERb
__ZN7CoreIPC10Arguments3IRN3WTF6StringERbRN6WebKit16SandboxExtension6HandleEE6decodeERNS_15ArgumentDecoderERS9_
__ZN7CoreIPC10Arguments2IRN3WTF6StringERbE6decodeERNS_15ArgumentDecoderERS5_
__ZN6WebKit8Download20didDecideDestinationERKN3WTF6StringEb
-[WKDownloadAsDelegate download:didCreateDestination:]
___54-[WKDownloadAsDelegate download:didCreateDestination:]_block_invoke
__ZN6WebKit8Download20didCreateDestinationERKN3WTF6StringE
__ZN7CoreIPC13MessageSender4sendIN8Messages13DownloadProxy20DidCreateDestinationEEEbRKT_y
__ZN7CoreIPC13handleMessageIN8Messages13DownloadProxy20DidCreateDestinationEN6WebKit13DownloadProxyEMS5_FvRKN3WTF6StringEEEEvRNS_14MessageDecoderEPT0_T1_
__ZN6WebKit13DownloadProxy20didCreateDestinationERKN3WTF6StringE
__ZN6WebKit17WebDownloadClient20didCreateDestinationEPNS_10WebContextEPNS_13DownloadProxyERKN3WTF6StringE
-[WKDownloadAsDelegate download:didReceiveDataOfLength:]
___56-[WKDownloadAsDelegate download:didReceiveDataOfLength:]_block_invoke
__ZN6WebKit8Download14didReceiveDataEy
__ZN7CoreIPC13MessageSender4sendIN8Messages13DownloadProxy14DidReceiveDataEEEbRKT_y
__ZN6WebKit13DownloadProxy14didReceiveDataEy
__ZN6WebKit17WebDownloadClient14didReceiveDataEPNS_10WebContextEPNS_13DownloadProxyEy
__ZN7WebCore12ChromeClient34requiresFullscreenForVideoPlaybackEv
__ZNK7WebCore12ChromeClient22isSVGImageChromeClientEv
-[WKDownloadAsDelegate downloadDidFinish:]
___42-[WKDownloadAsDelegate downloadDidFinish:]_block_invoke
__ZN6WebKit8Download9didFinishEv
__ZN6WebKit8Download17platformDidFinishEv
__ZN7CoreIPC13MessageSender4sendIN8Messages13DownloadProxy9DidFinishEEEbRKT_y
__ZN6WebKit16SandboxExtension6revokeEv
_WKSandboxExtensionInvalidate
__ZN6WebKit13DownloadProxy9didFinishEv
__ZN6WebKit15DownloadManager16downloadFinishedEPNS_8DownloadE
__ZN6WebKit17WebDownloadClient9didFinishEPNS_10WebContextEPNS_13DownloadProxyE
__ZN3WTF7HashMapIyPN6WebKit8DownloadENS_7IntHashIyEENS_10HashTraitsIyEENS6_IS3_EEE6removeERKy
__ZN3WTF9HashTableIyNS_12KeyValuePairIyPN6WebKit8DownloadEEENS_24KeyValuePairKeyExtractorIS5_EENS_7IntHashIyEENS_18HashMapValueTraitsINS_10HashTraitsIyEENSB_IS4_EEEESC_E16lookupForWritingINS_22IdentityHashTranslatorIS9_EEyEENSt3__14pairIPS5_bEERKT0_
__ZN3WTF9HashTableIyNS_12KeyValuePairIyPN6WebKit8DownloadEEENS_24KeyValuePairKeyExtractorIS5_EENS_7IntHashIyEENS_18HashMapValueTraitsINS_10HashTraitsIyEENSB_IS4_EEEESC_E3addINS_17HashMapTranslatorISE_S9_EEyS4_EENS_18HashTableAddResultINS_17HashTableIteratorIyS5_S7_S9_SE_SC_EEEERKT0_RKT1_
__ZN3WTF9HashTableIyNS_12KeyValuePairIyPN6WebKit8DownloadEEENS_24KeyValuePairKeyExtractorIS5_EENS_7IntHashIyEENS_18HashMapValueTraitsINS_10HashTraitsIyEENSB_IS4_EEEESC_E4findINS_22IdentityHashTranslatorIS9_EEyEENS_17HashTableIteratorIyS5_S7_S9_SE_SC_EERKT0_
__ZN3WTF9HashTableIyNS_12KeyValuePairIyPN6WebKit8DownloadEEENS_24KeyValuePairKeyExtractorIS5_EENS_7IntHashIyEENS_18HashMapValueTraitsINS_10HashTraitsIyEENSB_IS4_EEEESC_E6expandEv
__ZN3WTF9HashTableIyNS_12KeyValuePairIyPN6WebKit8DownloadEEENS_24KeyValuePairKeyExtractorIS5_EENS_7IntHashIyEENS_18HashMapValueTraitsINS_10HashTraitsIyEENSB_IS4_EEEESC_E6lookupINS_22IdentityHashTranslatorIS9_EEyEEPS5_RKT0_
__ZN3WTF9HashTableIyNS_12KeyValuePairIyPN6WebKit8DownloadEEENS_24KeyValuePairKeyExtractorIS5_EENS_7IntHashIyEENS_18HashMapValueTraitsINS_10HashTraitsIyEENSB_IS4_EEEESC_E6rehashEi
__ZN3WTF9HashTableIyNS_12KeyValuePairIyPN6WebKit8DownloadEEENS_24KeyValuePairKeyExtractorIS5_EENS_7IntHashIyEENS_18HashMapValueTraitsINS_10HashTraitsIyEENSB_IS4_EEEESC_E6removeEPS5_
__ZN6WebKit8DownloadD0Ev
__ZN6WebKit8DownloadD2Ev
__ZN6WebKit8Download18platformInvalidateEv
-[WKDownloadAsDelegate invalidate]
__ZN3WTF9RetainPtrI20WKDownloadAsDelegateEaSEPS1_
__ZN3WTF9RetainPtrI13NSURLDownloadEaSEPS1_
__ZN6WebKit15DownloadManager18didDestroyDownloadEv
__ZThn208_N6WebKit14NetworkProcess18didDestroyDownloadEv
__ZN6WebKit14NetworkProcess15shouldTerminateEv
_WKPreferencesGetJavaEnabled
__ZNK6WebKit14WebPreferences11javaEnabledEv
__ZN6WebKit16DownloadProxyMap16downloadFinishedEPNS_13DownloadProxyE
__ZN6WebKit13DownloadProxy10invalidateEv
__ZN3WTF7HashMapIyNS_6RefPtrIN6WebKit13DownloadProxyEEENS_7IntHashIyEENS_10HashTraitsIyEENS7_IS4_EEE6removeERKy
__ZN7WebCore17FrameLoaderClient29dispatchDidNavigateWithinPageEv
__ZN6WebKit20WebFrameLoaderClient29dispatchDidPopStateWithinPageEv
__ZN6WebKit20WebFrameLoaderClient35dispatchDidChangeLocationWithinPageEv
__ZN6WebKit20WebFrameLoaderClient13didFinishLoadEv
__ZN6WebKit15WebChromeClient12createWindowEPN7WebCore5FrameERKNS1_16FrameLoadRequestERKNS1_14WindowFeaturesERKNS1_16NavigationActionE
__ZN6WebKit30InjectedBundleNavigationAction30mouseButtonForNavigationActionERKN7WebCore16NavigationActionE
__ZN7CoreIPC10Connection8sendSyncIN8Messages12WebPageProxy13CreateNewPageEEEbRKT_RKNS5_5ReplyEydj
__ZNK7CoreIPC10Arguments4IRKN7WebCore15ResourceRequestERKNS1_14WindowFeaturesEjiE6encodeERNS_15ArgumentEncoderE
__ZN7CoreIPC13ArgumentCoderIN7WebCore14WindowFeaturesEE6encodeERNS_15ArgumentEncoderERKS2_
__ZN7CoreIPC13handleMessageIN8Messages12WebPageProxy13CreateNewPageEN6WebKit12WebPageProxyEMS5_FvRKN7WebCore15ResourceRequestERKNS6_14WindowFeaturesEjiRyRNS4_25WebPageCreationParametersEEEEvRNS_14MessageDecoderERNS_14MessageEncoderEPT0_T1_
__ZN7CoreIPC10Arguments4IN7WebCore15ResourceRequestENS1_14WindowFeaturesEjiE6decodeERNS_15ArgumentDecoderERS4_
__ZN7CoreIPC10Arguments3IN7WebCore15ResourceRequestENS1_14WindowFeaturesEjE6decodeERNS_15ArgumentDecoderERS4_
__ZN7CoreIPC10Arguments2IN7WebCore15ResourceRequestENS1_14WindowFeaturesEE6decodeERNS_15ArgumentDecoderERS4_
__ZN7CoreIPC13ArgumentCoderIN7WebCore14WindowFeaturesEE6decodeERNS_15ArgumentDecoderERS2_
__ZN7CoreIPC18callMemberFunctionIN6WebKit12WebPageProxyEMS2_FvRKN7WebCore15ResourceRequestERKNS3_14WindowFeaturesEjiRyRNS1_25WebPageCreationParametersEES4_S7_jiySB_EEvRKNS_10Arguments4IT1_T2_T3_T4_EERNS_10Arguments2IT5_T6_EEPT_T0_
__ZN6WebKit12WebPageProxy13createNewPageERKN7WebCore15ResourceRequestERKNS1_14WindowFeaturesEjiRyRNS_25WebPageCreationParametersE
__ZN6WebKit11WebUIClient13createNewPageEPNS_12WebPageProxyERKN7WebCore15ResourceRequestERKNS3_14WindowFeaturesENS_8WebEvent9ModifiersENS_13WebMouseEvent6ButtonE
_WKDictionaryGetSize
_WKStringCreateWithUTF8CString
__ZN6WebKit9WebString20createFromUTF8StringEPKc
__ZN3WTF9RetainPtrIP12CGColorSpaceEaSERKS3_
__ZN6WebKit14StorageManager28cloneSessionStorageNamespaceEyy
__ZN3WTF17BoundFunctionImplINS_15FunctionWrapperIMN6WebKit14StorageManagerEFvyyEEEFvPS3_yyEEclEv
__ZN6WebKit14StorageManager36cloneSessionStorageNamespaceInternalEyy
__ZN6WebKit14StorageManager23SessionStorageNamespace7cloneToERS1_
__ZN3WTF9HashTableINS_6RefPtrIN7WebCore14SecurityOriginEEENS_12KeyValuePairIS4_NS1_IN6WebKit14StorageManager11StorageAreaEEEEENS_24KeyValuePairKeyExtractorISA_EENS2_18SecurityOriginHashENS_22KeyValuePairHashTraitsINS_10HashTraitsIS4_EENSF_IS9_EEEESG_E15deallocateTableEPSA_i
__ZN3WTF9HashTableINS_6RefPtrIN7WebCore14SecurityOriginEEENS_12KeyValuePairIS4_NS1_IN6WebKit14StorageManager11StorageAreaEEEEENS_24KeyValuePairKeyExtractorISA_EENS2_18SecurityOriginHashENS_22KeyValuePairHashTraitsINS_10HashTraitsIS4_EENSF_IS9_EEEESG_E16lookupForWritingINS_22IdentityHashTranslatorISD_EES4_EENSt3__14pairIPSA_bEERKT0_
__ZN3WTF9HashTableINS_6RefPtrIN7WebCore14SecurityOriginEEENS_12KeyValuePairIS4_NS1_IN6WebKit14StorageManager11StorageAreaEEEEENS_24KeyValuePairKeyExtractorISA_EENS2_18SecurityOriginHashENS_22KeyValuePairHashTraitsINS_10HashTraitsIS4_EENSF_IS9_EEEESG_E3addINS_17HashMapTranslatorISI_SD_EES4_NS_10PassRefPtrIS8_EEEENS_18HashTableAddResultINS_17HashTableIteratorIS4_SA_SC_SD_SI_SG_EEEERKT0_RKT1_
__ZN3WTF9HashTableINS_6RefPtrIN7WebCore14SecurityOriginEEENS_12KeyValuePairIS4_NS1_IN6WebKit14StorageManager11StorageAreaEEEEENS_24KeyValuePairKeyExtractorISA_EENS2_18SecurityOriginHashENS_22KeyValuePairHashTraitsINS_10HashTraitsIS4_EENSF_IS9_EEEESG_E4findINS_22IdentityHashTranslatorISD_EES4_EENS_17HashTableIteratorIS4_SA_SC_SD_SI_SG_EERKT0_
__ZN3WTF9HashTableINS_6RefPtrIN7WebCore14SecurityOriginEEENS_12KeyValuePairIS4_NS1_IN6WebKit14StorageManager11StorageAreaEEEEENS_24KeyValuePairKeyExtractorISA_EENS2_18SecurityOriginHashENS_22KeyValuePairHashTraitsINS_10HashTraitsIS4_EENSF_IS9_EEEESG_E5beginEv
__ZN3WTF9HashTableINS_6RefPtrIN7WebCore14SecurityOriginEEENS_12KeyValuePairIS4_NS1_IN6WebKit14StorageManager11StorageAreaEEEEENS_24KeyValuePairKeyExtractorISA_EENS2_18SecurityOriginHashENS_22KeyValuePairHashTraitsINS_10HashTraitsIS4_EENSF_IS9_EEEESG_E6expandEv
__ZN3WTF9HashTableINS_6RefPtrIN7WebCore14SecurityOriginEEENS_12KeyValuePairIS4_NS1_IN6WebKit14StorageManager11StorageAreaEEEEENS_24KeyValuePairKeyExtractorISA_EENS2_18SecurityOriginHashENS_22KeyValuePairHashTraitsINS_10HashTraitsIS4_EENSF_IS9_EEEESG_E6lookupINS_22IdentityHashTranslatorISD_EES4_EEPSA_RKT0_
__ZN3WTF9HashTableINS_6RefPtrIN7WebCore14SecurityOriginEEENS_12KeyValuePairIS4_NS1_IN6WebKit14StorageManager11StorageAreaEEEEENS_24KeyValuePairKeyExtractorISA_EENS2_18SecurityOriginHashENS_22KeyValuePairHashTraitsINS_10HashTraitsIS4_EENSF_IS9_EEEESG_E6rehashEi
__ZNK6WebKit14StorageManager11StorageArea5cloneEv
__ZN3WTF6RefPtrIN7WebCore10StorageMapEEaSERKS3_
__ZN3WTF17BoundFunctionImplINS_15FunctionWrapperIMN6WebKit14StorageManagerEFvyyEEEFvPS3_yyEED0Ev
__ZN7CoreIPC10Arguments2IRyRN6WebKit25WebPageCreationParametersEE6decodeERNS_15ArgumentDecoderERS5_
__ZN6WebKit20StorageNamespaceImpl4copyEPN7WebCore4PageE
__ZN6WebKit15WebChromeClient18setToolbarsVisibleEb
__ZN7CoreIPC13MessageSender4sendIN8Messages12WebPageProxy21SetToolbarsAreVisibleEEEbRKT_y
__ZN6WebKit15WebChromeClient19setStatusbarVisibleEb
__ZN7CoreIPC13MessageSender4sendIN8Messages12WebPageProxy21SetStatusBarIsVisibleEEEbRKT_y
__ZN6WebKit15WebChromeClient20setScrollbarsVisibleEb
__ZN6WebKit15WebChromeClient17setMenubarVisibleEb
__ZN7CoreIPC13MessageSender4sendIN8Messages12WebPageProxy19SetMenuBarIsVisibleEEEbRKT_y
__ZN6WebKit15WebChromeClient12setResizableEb
__ZN7CoreIPC13MessageSender4sendIN8Messages12WebPageProxy14SetIsResizableEEEbRKT_y
__ZN7CoreIPC10Connection8sendSyncIN8Messages12WebPageProxy14GetWindowFrameEEEbRKT_RKNS5_5ReplyEydj
__ZN6WebKit12WebPageProxy21setToolbarsAreVisibleEb
__ZN6WebKit11WebUIClient21setToolbarsAreVisibleEPNS_12WebPageProxyEb
__ZN6WebKit12WebPageProxy21setStatusBarIsVisibleEb
__ZN6WebKit11WebUIClient21setStatusBarIsVisibleEPNS_12WebPageProxyEb
__ZN6WebKit12WebPageProxy19setMenuBarIsVisibleEb
__ZN6WebKit11WebUIClient19setMenuBarIsVisibleEPNS_12WebPageProxyEb
__ZN6WebKit12WebPageProxy14setIsResizableEb
__ZN6WebKit11WebUIClient14setIsResizableEPNS_12WebPageProxyEb
__ZN6WebKit12WebPageProxy14getWindowFrameERN7WebCore9FloatRectE
__ZN6WebKit15WebChromeClient8pageRectEv
__ZNK7WebCore12ChromeClient17minimumWindowSizeEv
__ZN6WebKit15WebChromeClient13setWindowRectERKN7WebCore9FloatRectE
__ZN6WebKit7WebPage18sendSetWindowFrameERKN7WebCore9FloatRectE
__ZN7CoreIPC13MessageSender4sendIN8Messages12WebPageProxy14SetWindowFrameEEEbRKT_y
__ZN6WebKit15WebChromeClient4showEv
__ZN6WebKit7WebPage4showEv
__ZN7CoreIPC13MessageSender4sendIN8Messages12WebPageProxy8ShowPageEEEbRKT_y
__ZN6WebKit12WebPageProxy14setWindowFrameERKN7WebCore9FloatRectE
__ZN6WebKit14PageClientImpl20convertToDeviceSpaceERKN7WebCore9FloatRectE
-[WKView(Internal) _convertToDeviceSpace:]
__ZN6WebKit11WebUIClient14setWindowFrameEPNS_12WebPageProxyERKN7WebCore9FloatRectE
__ZN6WebKit12WebPageProxy8showPageEv
__ZN6WebKit11WebUIClient8showPageEPNS_12WebPageProxyE
-[WKView keyDown:]
-[WKView _tryHandlePluginComplexTextInputKeyDown:]
__ZN6WebKit22NativeWebKeyboardEventC1EP7NSEventP6NSView
__ZN6WebKit22NativeWebKeyboardEventC2EP7NSEventP6NSView
__ZN6WebKit15WebEventFactory22createWebKeyboardEventEP7NSEventP6NSView
_WKGetNSEventKeyChar
__ZN6WebKit16WebKeyboardEventC1ENS_8WebEvent4TypeERKN3WTF6StringES6_S6_iiibbbNS1_9ModifiersEd
__ZN6WebKit16WebKeyboardEventC2ENS_8WebEvent4TypeERKN3WTF6StringES6_S6_iiibbbNS1_9ModifiersEd
__ZN6WebKit12WebPageProxy19handleKeyboardEventERKNS_22NativeWebKeyboardEventE
__ZN3WTF5DequeIN6WebKit22NativeWebKeyboardEventELm0EE6appendIS2_EEvRKT_
__ZN3WTF5DequeIN6WebKit22NativeWebKeyboardEventELm0EE22expandCapacityIfNeededEv
__ZN3WTF5DequeIN6WebKit22NativeWebKeyboardEventELm0EE14expandCapacityEv
__ZN3WTF16VectorBufferBaseIN6WebKit22NativeWebKeyboardEventEE14allocateBufferEm
__ZN3WTF11VectorMoverILb0EN6WebKit22NativeWebKeyboardEventEE4moveEPKS2_S5_PS2_
__ZN6WebKit17ChildProcessProxy4sendIN8Messages7WebPage8KeyEventEEEbRKT_yj
__ZNK6WebKit16WebKeyboardEvent6encodeERN7CoreIPC15ArgumentEncoderE
__ZN7CoreIPC13handleMessageIN8Messages7WebPage8KeyEventEN6WebKit7WebPageEMS5_FvRKNS4_16WebKeyboardEventEEEEvRNS_14MessageDecoderEPT0_T1_
__ZN6WebKit16WebKeyboardEvent6decodeERN7CoreIPC15ArgumentDecoderERS0_
__ZN6WebKit7WebPage8keyEventERKNS_16WebKeyboardEventE
__ZN6WebKitL14handleKeyEventERKNS_16WebKeyboardEventEPN7WebCore4PageE
__ZN6WebKit8platformERKNS_16WebKeyboardEventE
__ZN6WebKit28WebKit2PlatformKeyboardEventC2ERKNS_16WebKeyboardEventE
__ZN6WebKit15WebEditorClient24handleInputMethodKeydownEPN7WebCore13KeyboardEventE
__ZN6WebKit7WebPage26handleEditingKeyboardEventEPN7WebCore13KeyboardEventEb
__ZN7CoreIPC10Connection8sendSyncIN8Messages12WebPageProxy23InterpretQueuedKeyEventEEEbRKT_RKNS5_5ReplyEydj
__ZN7CoreIPC13handleMessageIN8Messages12WebPageProxy23InterpretQueuedKeyEventEN6WebKit12WebPageProxyEMS5_FvRKNS4_11EditorStateERbRN3WTF6VectorIN7WebCore15KeypressCommandELm0ENSA_15CrashOnOverflowEEEEEEvRNS_14MessageDecoderERNS_14MessageEncoderEPT0_T1_
__ZN6WebKit12WebPageProxy23interpretQueuedKeyEventERKNS_11EditorStateERbRN3WTF6VectorIN7WebCore15KeypressCommandELm0ENS5_15CrashOnOverflowEEE
__ZN6WebKit14PageClientImpl17interpretKeyEventERKNS_22NativeWebKeyboardEventERN3WTF6VectorIN7WebCore15KeypressCommandELm0ENS4_15CrashOnOverflowEEE
-[WKView(Internal) _interpretKeyEvent:savingCommandsTo:]
-[WKView hasMarkedText]
-[WKView insertText:replacementRange:]
__ZN3WTF6VectorIN7WebCore15KeypressCommandELm0ENS_15CrashOnOverflowEE14appendSlowCaseIS2_EEvRKT_
__ZN3WTF6VectorIN7WebCore15KeypressCommandELm0ENS_15CrashOnOverflowEE14expandCapacityEmPKS2_
__ZN3WTF6VectorIN7WebCore15KeypressCommandELm0ENS_15CrashOnOverflowEE15reserveCapacityEm
__ZN3WTF16VectorBufferBaseIN7WebCore15KeypressCommandEE14allocateBufferEm
__ZN3WTF11VectorMoverILb0EN7WebCore15KeypressCommandEE4moveEPKS2_S5_PS2_
__ZN3WTF6VectorIN7WebCore24TextAlternativeWithRangeELm0ENS_15CrashOnOverflowEED2Ev
__ZN7CoreIPC19VectorArgumentCoderILb0EN7WebCore15KeypressCommandEE6encodeERNS_15ArgumentEncoderERKN3WTF6VectorIS2_Lm0ENS6_15CrashOnOverflowEEE
__ZN7CoreIPC13ArgumentCoderIN7WebCore15KeypressCommandEE6encodeERNS_15ArgumentEncoderERKS2_
__ZN3WTF6VectorIN7WebCore15KeypressCommandELm0ENS_15CrashOnOverflowEED2Ev
__ZN3WTF6VectorIN7WebCore15KeypressCommandELm0ENS_15CrashOnOverflowEE6shrinkEm
__ZN7CoreIPC10Arguments2IRbRN3WTF6VectorIN7WebCore15KeypressCommandELm0ENS2_15CrashOnOverflowEEEE6decodeERNS_15ArgumentDecoderERS9_
__ZN7CoreIPC19VectorArgumentCoderILb0EN7WebCore15KeypressCommandEE6decodeERNS_15ArgumentDecoderERN3WTF6VectorIS2_Lm0ENS6_15CrashOnOverflowEEE
__ZN7CoreIPC13ArgumentCoderIN7WebCore15KeypressCommandEE6decodeERNS_15ArgumentDecoderERS2_
__ZN3WTF6VectorIN7WebCore15KeypressCommandELm0ENS_15CrashOnOverflowEE14shrinkCapacityEm
__ZN6WebKit15WebEditorClient27doTextFieldCommandFromEventEPN7WebCore7ElementEPNS1_13KeyboardEventE
__ZN6WebKit15WebEditorClient19handleKeyboardEventEPN7WebCore13KeyboardEventE
__ZN6WebKitL26commandNameForSelectorNameERKN3WTF6StringE
__ZNK3WTF6StringixEj
__ZN6WebKit7WebPage31executeKeypressCommandsInternalERKN3WTF6VectorIN7WebCore15KeypressCommandELm0ENS1_15CrashOnOverflowEEEPNS3_13KeyboardEventE
__ZN6WebKit15WebEditorClient16shouldInsertTextERKN3WTF6StringEPN7WebCore5RangeENS5_18EditorInsertActionE
__ZN6WebKit30InjectedBundlePageEditorClient16shouldInsertTextEPNS_7WebPageEPN3WTF10StringImplEPN7WebCore5RangeENS6_18EditorInsertActionE
__ZN6WebKit15WebEditorClient25shouldChangeSelectedRangeEPN7WebCore5RangeES3_NS1_9EAffinityEb
__ZN6WebKit30InjectedBundlePageEditorClient25shouldChangeSelectedRangeEPNS_7WebPageEPN7WebCore5RangeES5_NS3_9EAffinityEb
__ZN6WebKit15WebEditorClient24textFieldDidBeginEditingEPN7WebCore7ElementE
__ZN6WebKit28InjectedBundlePageFormClient24textFieldDidBeginEditingEPNS_7WebPageEPN7WebCore16HTMLInputElementEPNS_8WebFrameE
__ZN6WebKit15WebEditorClient24textDidChangeInTextFieldEPN7WebCore7ElementE
__ZN6WebKit28InjectedBundlePageFormClient24textDidChangeInTextFieldEPNS_7WebPageEPN7WebCore16HTMLInputElementEPNS_8WebFrameE
__ZN6WebKit15WebEditorClient16registerUndoStepEN3WTF10PassRefPtrIN7WebCore8UndoStepEEE
__ZN6WebKit11WebUndoStep6createEN3WTF10PassRefPtrIN7WebCore8UndoStepEEE
__ZN6WebKit7WebPage14addWebUndoStepEyPNS_11WebUndoStepE
__ZN3WTF7HashMapIyNS_6RefPtrIN6WebKit11WebUndoStepEEENS_7IntHashIyEENS_10HashTraitsIyEENS7_IS4_EEE3setERKyNS_10PassRefPtrIS3_EE
__ZN7CoreIPC13MessageSender4sendIN8Messages12WebPageProxy26RegisterEditCommandForUndoEEEbRKT_y
__ZN3WTF10RefCountedIN6WebKit11WebUndoStepEE5derefEv
__ZN6WebKit15WebEditorClient24respondToChangedContentsEv
__ZN6WebKit30InjectedBundlePageEditorClient9didChangeEPNS_7WebPageEPN3WTF10StringImplE
__ZN6WebKit15WebEditorClient36isAutomaticSpellingCorrectionEnabledEv
__ZN7CoreIPC13handleMessageIN8Messages12WebPageProxy26RegisterEditCommandForUndoEN6WebKit12WebPageProxyEMS5_FvyjEEEvRNS_14MessageDecoderEPT0_T1_
__ZN6WebKit12WebPageProxy26registerEditCommandForUndoEyj
__ZN6WebKit19WebEditCommandProxyC1EyN7WebCore10EditActionEPNS_12WebPageProxyE
__ZN6WebKit12WebPageProxy14addEditCommandEPNS_19WebEditCommandProxyE
__ZN3WTF9HashTableIPN6WebKit19WebEditCommandProxyES3_NS_17IdentityExtractorENS_7PtrHashIS3_EENS_10HashTraitsIS3_EES8_E3addINS_22IdentityHashTranslatorIS6_EES3_S3_EENS_18HashTableAddResultINS_17HashTableIteratorIS3_S3_S4_S6_S8_S8_EEEERKT0_RKT1_
__ZN3WTF9HashTableIPN6WebKit19WebEditCommandProxyES3_NS_17IdentityExtractorENS_7PtrHashIS3_EENS_10HashTraitsIS3_EES8_E6expandEv
__ZN3WTF9HashTableIPN6WebKit19WebEditCommandProxyES3_NS_17IdentityExtractorENS_7PtrHashIS3_EENS_10HashTraitsIS3_EES8_E6rehashEi
__ZN6WebKit12WebPageProxy19registerEditCommandEN3WTF10PassRefPtrINS_19WebEditCommandProxyEEENS0_10UndoOrRedoE
__ZN6WebKit14PageClientImpl19registerEditCommandEN3WTF10PassRefPtrINS_19WebEditCommandProxyEEENS_12WebPageProxy10UndoOrRedoE
-[WKEditCommandObjC .cxx_construct]
-[WKEditCommandObjC initWithWebEditCommandProxy:]
__ZN3WTF6RefPtrIN6WebKit19WebEditCommandProxyEEaSERKNS_10PassRefPtrIS2_EE
__ZN3WTF9RetainPtrIP17WKEditCommandObjCEC2ENS_10AdoptNSTagES2_
__ZN3WTF9RetainPtrI17WKEditCommandObjCEC2IPS1_EERKNS0_IT_EE
__ZN6WebKit19WebEditCommandProxy17nameForEditActionEN7WebCore10EditActionE
__ZN3WTF5DequeIN6WebKit22NativeWebKeyboardEventELm0EE11removeFirstEv
__ZN6WebKit14PageClientImpl16doneWithKeyEventERKNS_22NativeWebKeyboardEventEb
-[WKView(Internal) _doneWithKeyEvent:eventWasHandled:]
-[WKView(Internal) _tryPostProcessPluginComplexTextInputKeyDown:]
_WKBundleNodeHandleSetHTMLInputElementAutofilled
__ZN6WebKit24InjectedBundleNodeHandle29setHTMLInputElementAutofilledEb
-[WKView keyUp:]
__ZN6WebKit7WebPage33performDefaultBehaviorForKeyEventERKNS_16WebKeyboardEventE
__ZNK6WebKit11WebUIClient30implementsDidNotHandleKeyEventEv
-[WKView doCommandBySelector:]
__ZN6WebKit15WebEditorClient24smartInsertDeleteEnabledEv
__ZN6WebKit7WebPage26isSmartInsertDeleteEnabledEv
__ZN6WebKit15WebEditorClient17shouldDeleteRangeEPN7WebCore5RangeE
__ZN6WebKit30InjectedBundlePageEditorClient17shouldDeleteRangeEPNS_7WebPageEPN7WebCore5RangeE
__ZN6WebKit15WebEditorClient28textWillBeDeletedInTextFieldEPN7WebCore7ElementE
__ZN6WebKit28InjectedBundlePageFormClient30shouldPerformActionInTextFieldEPNS_7WebPageEPN7WebCore16HTMLInputElementEjPNS_8WebFrameE
-[WKView acceptsFirstMouse:]
__ZN6WebKit12WebPageProxy17acceptsFirstMouseEiRKNS_13WebMouseEventE
__ZN7CoreIPC10Connection8sendSyncIN8Messages7WebPage17AcceptsFirstMouseEEEbRKT_RKNS5_5ReplyEydj
__ZN6WebKit10WebProcess21didReceiveSyncMessageEPN7CoreIPC10ConnectionERNS1_14MessageDecoderERN3WTF6OwnPtrINS1_14MessageEncoderEEE
__ZThn16_N6WebKit7WebPage21didReceiveSyncMessageEPN7CoreIPC10ConnectionERNS1_14MessageDecoderERN3WTF6OwnPtrINS1_14MessageEncoderEEE
__ZN6WebKit7WebPage28didReceiveSyncWebPageMessageEPN7CoreIPC10ConnectionERNS1_14MessageDecoderERN3WTF6OwnPtrINS1_14MessageEncoderEEE
__ZN7CoreIPC13handleMessageIN8Messages7WebPage17AcceptsFirstMouseEN6WebKit7WebPageEMS5_FviRKNS4_13WebMouseEventERbEEEvRNS_14MessageDecoderERNS_14MessageEncoderEPT0_T1_
__ZN7CoreIPC10Arguments2IiN6WebKit13WebMouseEventEE6decodeERNS_15ArgumentDecoderERS3_
__ZN6WebKit7WebPage17acceptsFirstMouseEiRKNS_13WebMouseEventERb
___29-[WKView viewDidMoveToWindow]_block_invoke
-[WKView _postFakeMouseMovedEventForFlagsChangedEvent:]
-[WKView flagsChanged:]
__ZN6WebKit15WebEditorClient35isAutomaticQuoteSubstitutionEnabledEv
__ZN6WebKit15WebEditorClient31isAutomaticLinkDetectionEnabledEv
__ZN6WebKit15WebEditorClient34isAutomaticDashSubstitutionEnabledEv
__ZN6WebKit15WebEditorClient33isAutomaticTextReplacementEnabledEv
__ZN7CoreIPC13MessageSender4sendIN8Messages12WebPageProxy10SetToolTipEEEbRKT_y
__ZN7CoreIPC13handleMessageIN8Messages12WebPageProxy10SetToolTipEN6WebKit12WebPageProxyEMS5_FvRKN3WTF6StringEEEEvRNS_14MessageDecoderEPT0_T1_
__ZN6WebKit12WebPageProxy10setToolTipERKN3WTF6StringE
__ZN6WebKit14PageClientImpl14toolTipChangedERKN3WTF6StringES4_
-[WKView(Internal) _toolTipChangedFrom:to:]
-[WKView(Internal) _sendToolTipMouseExited]
-[WKView(Internal) addTrackingRect:owner:userData:assumeInside:]
-[WKView(Internal) _sendToolTipMouseEntered]
__ZN6WebKit20WebFrameLoaderClient52dispatchWillDestroyGlobalObjectForDOMWindowExtensionEPN7WebCore18DOMWindowExtensionE
__ZN6WebKit30InjectedBundlePageLoaderClient44willDestroyGlobalObjectForDOMWindowExtensionEPNS_7WebPageEPN7WebCore18DOMWindowExtensionE
__ZN6WebKit32InjectedBundleDOMWindowExtension3getEPN7WebCore18DOMWindowExtensionE
_WKBundleDOMWindowExtensionGetFrame
__ZNK6WebKit32InjectedBundleDOMWindowExtension5frameEv
_WKBundleDOMWindowExtensionGetScriptWorld
__ZNK6WebKit32InjectedBundleDOMWindowExtension5worldEv
__ZN6WebKit32InjectedBundleDOMWindowExtensionD0Ev
__ZN6WebKit32InjectedBundleDOMWindowExtensionD2Ev
__ZN3WTF7HashMapIPN7WebCore18DOMWindowExtensionEPN6WebKit32InjectedBundleDOMWindowExtensionENS_7PtrHashIS3_EENS_10HashTraitsIS3_EENS9_IS6_EEE6removeERKS3_
__ZThn8_N6WebKit15WebEditorClient20checkTextOfParagraphEPKtijRN3WTF6VectorIN7WebCore18TextCheckingResultELm0ENS3_15CrashOnOverflowEEE
__ZN6WebKit15WebEditorClient20checkTextOfParagraphEPKtijRN3WTF6VectorIN7WebCore18TextCheckingResultELm0ENS3_15CrashOnOverflowEEE
__ZN7CoreIPC10Connection8sendSyncIN8Messages12WebPageProxy20CheckTextOfParagraphEEEbRKT_RKNS5_5ReplyEydj
__ZN7CoreIPC13handleMessageIN8Messages12WebPageProxy20CheckTextOfParagraphEN6WebKit12WebPageProxyEMS5_FvRKN3WTF6StringEyRNS6_6VectorIN7WebCore18TextCheckingResultELm0ENS6_15CrashOnOverflowEEEEEEvRNS_14MessageDecoderERNS_14MessageEncoderEPT0_T1_
__ZN6WebKit12WebPageProxy20checkTextOfParagraphERKN3WTF6StringEyRNS1_6VectorIN7WebCore18TextCheckingResultELm0ENS1_15CrashOnOverflowEEE
__ZN6WebKit11TextChecker22uniqueSpellDocumentTagEPNS_12WebPageProxyE
__ZN6WebKit11TextChecker20checkTextOfParagraphExPKtiy
__ZN3WTF6VectorIN7WebCore18TextCheckingResultELm0ENS_15CrashOnOverflowEED2Ev
__ZN7CoreIPC19VectorArgumentCoderILb0EN7WebCore18TextCheckingResultEE6encodeERNS_15ArgumentEncoderERKN3WTF6VectorIS2_Lm0ENS6_15CrashOnOverflowEEE
__ZN7CoreIPC19VectorArgumentCoderILb0EN7WebCore18TextCheckingResultEE6decodeERNS_15ArgumentDecoderERN3WTF6VectorIS2_Lm0ENS6_15CrashOnOverflowEEE
__ZN3WTF6VectorIN7WebCore18TextCheckingResultELm0ENS_15CrashOnOverflowEE14shrinkCapacityEm
-[WKView beginGestureWithEvent:]
__ZN6WebKit15WebEventFactory21createWebGestureEventEP7NSEventP6NSView
__ZN6WebKit15WebGestureEventC1ENS_8WebEvent4TypeERKN7WebCore8IntPointES6_NS1_9ModifiersEd
__ZN6WebKit12WebPageProxy18handleGestureEventERKNS_15WebGestureEventE
__ZN3WTF5DequeIN6WebKit15WebGestureEventELm0EE22expandCapacityIfNeededEv
__ZN3WTF5DequeIN6WebKit15WebGestureEventELm0EE14expandCapacityEv
__ZN3WTF16VectorBufferBaseIN6WebKit15WebGestureEventEE14allocateBufferEm
__ZN6WebKit17ChildProcessProxy4sendIN8Messages15EventDispatcher12GestureEventEEEbRKT_yj
__ZNK6WebKit15WebGestureEvent6encodeERN7CoreIPC15ArgumentEncoderE
___copy_helper_block_266
__ZN6WebKit15EventDispatcher17didReceiveMessageEPN7CoreIPC10ConnectionERNS1_14MessageDecoderE
__ZN7CoreIPC13handleMessageIN8Messages15EventDispatcher12GestureEventEN6WebKit15EventDispatcherEMS5_FvyRKNS4_15WebGestureEventEEEEvRNS_14MessageDecoderEPT0_T1_
__ZN7CoreIPC10Arguments2IyN6WebKit15WebGestureEventEE6decodeERNS_15ArgumentDecoderERS3_
__ZN6WebKit15WebGestureEvent6decodeERN7CoreIPC15ArgumentDecoderERS0_
__ZN6WebKit15EventDispatcher12gestureEventEyRKNS_15WebGestureEventE
__ZN3WTF17BoundFunctionImplINS_15FunctionWrapperIMN6WebKit15EventDispatcherEFvyRKNS2_15WebGestureEventEEEEFvPS3_yS4_EEclEv
__ZN6WebKit15EventDispatcher20dispatchGestureEventEyRKNS_15WebGestureEventE
__ZN6WebKit7WebPage12gestureEventERKNS_15WebGestureEventE
__ZN6WebKit8platformERKNS_15WebGestureEventE
__ZN6WebKit27WebKit2PlatformGestureEventC2ERKNS_15WebGestureEventE
__ZN3WTF17BoundFunctionImplINS_15FunctionWrapperIMN6WebKit15EventDispatcherEFvyRKNS2_15WebGestureEventEEEEFvPS3_yS4_EED0Ev
-[WKView scrollWheel:]
__ZN6WebKit19NativeWebWheelEventC1EP7NSEventP6NSView
__ZN6WebKit15WebEventFactory19createWebWheelEventEP7NSEventP6NSView
_WKGetWheelEventDeltas
__ZN6WebKit13WebWheelEventC1ENS_8WebEvent4TypeERKN7WebCore8IntPointES6_RKNS3_9FloatSizeES9_NS0_11GranularityEbNS0_5PhaseESB_bjS9_NS1_9ModifiersEd
__ZN6WebKit12WebPageProxy16handleWheelEventERKNS_19NativeWebWheelEventE
__ZN3WTF10PassOwnPtrINS_6VectorIN6WebKit19NativeWebWheelEventELm0ENS_15CrashOnOverflowEEEED2Ev
__ZN3WTF6VectorIN6WebKit19NativeWebWheelEventELm0ENS_15CrashOnOverflowEE14appendSlowCaseIS2_EEvRKT_
__ZN3WTF6VectorIN6WebKit19NativeWebWheelEventELm0ENS_15CrashOnOverflowEE14expandCapacityEmPKS2_
__ZN3WTF6VectorIN6WebKit19NativeWebWheelEventELm0ENS_15CrashOnOverflowEE15reserveCapacityEm
__ZN3WTF16VectorBufferBaseIN6WebKit19NativeWebWheelEventEE14allocateBufferEm
__ZN3WTF11VectorMoverILb0EN6WebKit19NativeWebWheelEventEE4moveEPKS2_S5_PS2_
__ZN3WTF5DequeINS_6OwnPtrINS_6VectorIN6WebKit19NativeWebWheelEventELm0ENS_15CrashOnOverflowEEEEELm0EE22expandCapacityIfNeededEv
__ZN3WTF5DequeINS_6OwnPtrINS_6VectorIN6WebKit19NativeWebWheelEventELm0ENS_15CrashOnOverflowEEEEELm0EE14expandCapacityEv
__ZN3WTF16VectorBufferBaseINS_6OwnPtrINS_6VectorIN6WebKit19NativeWebWheelEventELm0ENS_15CrashOnOverflowEEEEEE14allocateBufferEm
__ZN6WebKit12WebPageProxy14sendWheelEventERKNS_13WebWheelEventE
__ZN6WebKit17ChildProcessProxy4sendIN8Messages15EventDispatcher10WheelEventEEEbRKT_yj
__ZNK7CoreIPC10Arguments3IyRKN6WebKit13WebWheelEventEbE6encodeERNS_15ArgumentEncoderE
__ZNK6WebKit13WebWheelEvent6encodeERN7CoreIPC15ArgumentEncoderE
__ZN7CoreIPC13ArgumentCoderIN7WebCore9FloatSizeEE6encodeERNS_15ArgumentEncoderERKS2_
__ZN3WTF6OwnPtrINS_6VectorIN6WebKit19NativeWebWheelEventELm0ENS_15CrashOnOverflowEEEED2Ev
__ZN7CoreIPC13handleMessageIN8Messages15EventDispatcher10WheelEventEN6WebKit15EventDispatcherEMS5_FvyRKNS4_13WebWheelEventEbbEEEvRNS_14MessageDecoderEPT0_T1_
__ZN7CoreIPC10Arguments4IyN6WebKit13WebWheelEventEbbE6decodeERNS_15ArgumentDecoderERS3_
__ZN7CoreIPC10Arguments3IyN6WebKit13WebWheelEventEbE6decodeERNS_15ArgumentDecoderERS3_
__ZN7CoreIPC10Arguments2IyN6WebKit13WebWheelEventEE6decodeERNS_15ArgumentDecoderERS3_
__ZN6WebKit14PageClientImpl20doneWithGestureEventERKNS_15WebGestureEventEb
__ZN6WebKit13WebWheelEvent6decodeERN7CoreIPC15ArgumentDecoderERS0_
__ZN7CoreIPC13ArgumentCoderIN7WebCore9FloatSizeEE6decodeERNS_15ArgumentDecoderERS2_
__ZN7CoreIPC18callMemberFunctionIN6WebKit15EventDispatcherEMS2_FvyRKNS1_13WebWheelEventEbbEyS3_bbEEvRKNS_10Arguments4IT1_T2_T3_T4_EEPT_T0_
__ZN6WebKit15EventDispatcher10wheelEventEyRKNS_13WebWheelEventEbb
__ZN6WebKit8platformERKNS_13WebWheelEventE
__ZN6WebKit25WebKit2PlatformWheelEventC2ERKNS_13WebWheelEventE
__ZN7CoreIPC10Connection4sendIN8Messages12WebPageProxy15DidReceiveEventEEEbRKT_yj
__ZN3WTF17BoundFunctionImplINS_15FunctionWrapperIMN7WebCore13ScrollingTreeEFvbbEEEFvPS3_bbEEclEv
_WKNSReboundDeltaForElasticDelta
__ZN3WTF5DequeINS_6OwnPtrINS_6VectorIN6WebKit19NativeWebWheelEventELm0ENS_15CrashOnOverflowEEEEELm0EE9takeFirstEv
__ZN3WTF5DequeINS_6OwnPtrINS_6VectorIN6WebKit19NativeWebWheelEventELm0ENS_15CrashOnOverflowEEEEELm0EE11removeFirstEv
__ZN3WTF17BoundFunctionImplINS_15FunctionWrapperIMN7WebCore13ScrollingTreeEFvbbEEEFvPS3_bbEED0Ev
__ZN3WTF6VectorIN6WebKit19NativeWebWheelEventELm0ENS_15CrashOnOverflowEED2Ev
__ZN3WTF6VectorIN6WebKit19NativeWebWheelEventELm0ENS_15CrashOnOverflowEE6shrinkEm
___32-[WKView beginGestureWithEvent:]_block_invoke
-[WKView shortCircuitedEndGestureWithEvent:]
___destroy_helper_block_267
__ZN3WTF5DequeIN6WebKit19NativeWebWheelEventELm0EE6appendIS2_EEvRKT_
__ZN3WTF5DequeIN6WebKit19NativeWebWheelEventELm0EE22expandCapacityIfNeededEv
__ZN3WTF5DequeIN6WebKit19NativeWebWheelEventELm0EE14expandCapacityEv
__ZN6WebKit12WebPageProxy27processNextQueuedWheelEventEv
__ZN3WTF5DequeIN6WebKit19NativeWebWheelEventELm0EE9takeFirstEv
__ZN3WTF5DequeIN6WebKit19NativeWebWheelEventELm0EE11removeFirstEv
-[WKBrowsingContextGroup initWithIdentifier:]
-[WKBrowsingContextGroupData .cxx_construct]
-[WKBrowsingContextGroup setAllowsPlugIns:]
-[WKBrowsingContextGroup(Private) _pageGroupRef]
-[WKBrowsingContextGroup removeAllUserStyleSheets]
_WKPageGroupRemoveAllUserStyleSheets
__ZN6WebKit12WebPageGroup24removeAllUserStyleSheetsEv
__ZN6WebKit12WebPageGroup25sendToAllProcessesInGroupIN8Messages17WebPageGroupProxy24RemoveAllUserStyleSheetsEEEvRKT_y
-[WKBrowsingContextGroup addUserStyleSheet:baseURL:whitelistedURLPatterns:blacklistedURLPatterns:mainFrameOnly:]
__ZL13createWKArrayP7NSArray
_WKPageGroupAddUserStyleSheet
__ZN6WebKit12WebPageGroup17addUserStyleSheetERKN3WTF6StringES4_PNS_14ImmutableArrayES6_N7WebCore25UserContentInjectedFramesENS7_14UserStyleLevelE
__ZN7WebCore14UserStyleSheetC2ERKN3WTF6StringERKNS_4KURLERKNS1_6VectorIS2_Lm0ENS1_15CrashOnOverflowEEESC_NS_25UserContentInjectedFramesENS_14UserStyleLevelE
__ZN3WTF6VectorIN7WebCore14UserStyleSheetELm0ENS_15CrashOnOverflowEE14appendSlowCaseIS2_EEvRKT_
__ZN3WTF6VectorIN7WebCore14UserStyleSheetELm0ENS_15CrashOnOverflowEE14expandCapacityEmPKS2_
__ZN3WTF6VectorIN7WebCore14UserStyleSheetELm0ENS_15CrashOnOverflowEE15reserveCapacityEm
__ZN3WTF16VectorBufferBaseIN7WebCore14UserStyleSheetEE14allocateBufferEm
__ZN3WTF11VectorMoverILb0EN7WebCore14UserStyleSheetEE4moveEPKS2_S5_PS2_
__ZN6WebKit12WebPageGroup25sendToAllProcessesInGroupIN8Messages17WebPageGroupProxy17AddUserStyleSheetEEEvRKT_y
-[WKBrowsingContextGroup removeAllUserScripts]
_WKPageGroupRemoveAllUserScripts
__ZN6WebKit12WebPageGroup20removeAllUserScriptsEv
__ZN6WebKit12WebPageGroup25sendToAllProcessesInGroupIN8Messages17WebPageGroupProxy20RemoveAllUserScriptsEEEvRKT_y
-[WKBrowsingContextGroup addUserScript:baseURL:whitelistedURLPatterns:blacklistedURLPatterns:injectionTime:mainFrameOnly:]
_WKPageGroupAddUserScript
__ZN6WebKit12WebPageGroup13addUserScriptERKN3WTF6StringES4_PNS_14ImmutableArrayES6_N7WebCore25UserContentInjectedFramesENS7_23UserScriptInjectionTimeE
__ZN7WebCore10UserScriptC2ERKN3WTF6StringERKNS_4KURLERKNS1_6VectorIS2_Lm0ENS1_15CrashOnOverflowEEESC_NS_23UserScriptInjectionTimeENS_25UserContentInjectedFramesE
__ZN3WTF6VectorIN7WebCore10UserScriptELm0ENS_15CrashOnOverflowEE14appendSlowCaseIS2_EEvRKT_
__ZN3WTF6VectorIN7WebCore10UserScriptELm0ENS_15CrashOnOverflowEE14expandCapacityEmPKS2_
__ZN3WTF6VectorIN7WebCore10UserScriptELm0ENS_15CrashOnOverflowEE15reserveCapacityEm
__ZN3WTF16VectorBufferBaseIN7WebCore10UserScriptEE14allocateBufferEm
__ZN3WTF11VectorMoverILb0EN7WebCore10UserScriptEE4moveEPKS2_S5_PS2_
__ZN6WebKit12WebPageGroup25sendToAllProcessesInGroupIN8Messages17WebPageGroupProxy13AddUserScriptEEEvRKT_y
__ZN3WTF6VectorIN7WebCore14UserStyleSheetELm0ENS_15CrashOnOverflowEE6shrinkEm
__ZN3WTF6VectorIN7WebCore10UserScriptELm0ENS_15CrashOnOverflowEE6shrinkEm
-[WKProcessGroup initWithInjectedBundleURL:]
-[WKProcessGroupData .cxx_construct]
_WKContextSetConnectionClient
__ZN6WebKit10WebContext26initializeConnectionClientEPK25WKContextConnectionClient
__ZN6WebKit9APIClientI25WKContextConnectionClientLi0EE10initializeEPKS1_
-[WKProcessGroup setDelegate:]
-[WKView initWithFrame:processGroup:browsingContextGroup:]
-[WKProcessGroup(Private) _contextRef]
__ZL39getInjectedBundleInitializationUserDataPK15OpaqueWKContextPKv
-[WKProcessGroup delegate]
__ZN3WTF6RefPtrIN6WebKit9APIObjectEEaSERKS3_
__ZN7CoreIPC13ArgumentCoderIN7WebCore14UserStyleSheetEE6encodeERNS_15ArgumentEncoderERKS2_
__ZN7CoreIPC13ArgumentCoderIN7WebCore10UserScriptEE6encodeERNS_15ArgumentEncoderERKS2_
-[WKView browsingContextController]
-[WKBrowsingContextController(Internal) _initWithPageRef:]
-[WKBrowsingContextControllerData .cxx_construct]
__ZN6WebKit11WKRetainPtrIPK12OpaqueWKPageEaSES3_
__ZN3WTF9RetainPtrIP27WKBrowsingContextControllerEC2ENS_10AdoptNSTagES2_
__ZN3WTF9RetainPtrI27WKBrowsingContextControllerEaSIPS1_EERS2_ONS0_IT_EE
-[WKBrowsingContextController setLoadDelegate:]
_WKPageSetPageFindMatchesClient
__ZN6WebKit12WebPageProxy27initializeFindMatchesClientEPK23WKPageFindMatchesClient
__ZN6WebKit9APIClientI23WKPageFindMatchesClientLi0EE10initializeEPKS1_
_WKPageGetPageGroup
_WKPreferencesSetShouldRespectImageOrientation
__ZN6WebKit14WebPreferences32setShouldRespectImageOrientationERKb
_WKPreferencesSetSuppressesIncrementalRendering
__ZN6WebKit14WebPreferences33setSuppressesIncrementalRenderingERKb
_WKPreferencesSetIncrementalRenderingSuppressionTimeout
__ZN6WebKit14WebPreferences41setIncrementalRenderingSuppressionTimeoutERKd
__ZN6WebKit19WebPreferencesStore20setDoubleValueForKeyERKN3WTF6StringEd
__ZN6WebKit14WebPreferences31platformUpdateDoubleValueForKeyERKN3WTF6StringEd
_WKPreferencesSetShowsURLsInToolTipsEnabled
__ZN6WebKit14WebPreferences29setShowsURLsInToolTipsEnabledERKb
_WKPreferencesSetJavaScriptMarkupEnabled
__ZN6WebKit14WebPreferences26setJavaScriptMarkupEnabledERKb
_WKPreferencesSetTiledScrollingIndicatorVisible
__ZN6WebKit14WebPreferences33setTiledScrollingIndicatorVisibleERKb
-[WKView intrinsicContentSize]
-[WKView accessibilityIsIgnored]
-[WKView(Private) minimumSizeForAutoLayout]
-[WKView(Private) setMinimumSizeForAutoLayout:]
__ZN6WebKit12WebPageProxy20setMinimumLayoutSizeERKN7WebCore7IntSizeE
__ZN6WebKit17ChildProcessProxy4sendIN8Messages7WebPage20SetMinimumLayoutSizeEEEbRKT_yj
__ZN6WebKit34TiledCoreAnimationDrawingAreaProxy26minimumLayoutSizeDidChangeEv
__ZN6WebKit12WebPageProxy24setMainFrameIsScrollableEb
__ZN6WebKit17ChildProcessProxy4sendIN8Messages7WebPage24SetMainFrameIsScrollableEEEbRKT_yj
-[WKView(Private) setShouldClipToVisibleRect:]
-[WKView _updateViewExposedRect]
__ZN6WebKit12WebPageProxy22viewExposedRectChangedERKN7WebCore9FloatRectEb
-[WKView prepareContentInRect:]
-[WKBrowsingContextController loadData:MIMEType:textEncodingName:baseURL:userData:]
__ZN6WebKit7WebData20createWithoutCopyingEPKhmPFvPhPKvES5_
__ZN6WebKit15ObjCObjectGraph6createEP11objc_object
__ZN3WTF9RetainPtrIP11objc_objectEC2ES2_
-[WKBrowsingContextController _pageRef]
_WKPageLoadDataWithUserData
__ZN6WebKit12WebPageProxy8loadDataEPNS_7WebDataERKN3WTF6StringES6_S6_PNS_9APIObjectE
__ZN6WebKit17ChildProcessProxy4sendIN8Messages7WebPage8LoadDataEEEbRKT_yj
__ZNK7CoreIPC10Arguments4IRKNS_13DataReferenceERKN3WTF6StringES7_S7_E6encodeERNS_15ArgumentEncoderE
__ZNK6WebKit14TypedAPIObjectILNS_9APIObject4TypeE86EE4typeEv
__ZNK6WebKit36WebContextObjCObjectGraphEncoderImpl6encodeERN7CoreIPC15ArgumentEncoderE
__ZNK6WebKit22ObjCObjectGraphEncoderINS_36WebContextObjCObjectGraphEncoderImplEE10baseEncodeERN7CoreIPC15ArgumentEncoderERNS_12WebKitNSTypeE
__ZN6WebKitL14typeFromObjectEP11objc_object
__ZN7CoreIPC6encodeERNS_15ArgumentEncoderEP6NSData
__ZN6WebKit15ObjCObjectGraphD0Ev
__ZL13releaseNSDataPhPKv
__ZN7WebCore5TimerIN6WebKit12WebPageProxyEE5firedEv
__ZN6WebKit12WebPageProxy28exposedRectChangedTimerFiredEPN7WebCore5TimerIS0_EE
__ZN6WebKit17ChildProcessProxy4sendIN8Messages7WebPage22ViewExposedRectChangedEEEbRKT_yj
__ZN6WebKit20WebFrameLoaderClient27dispatchWillSendSubmitEventEN3WTF10PassRefPtrIN7WebCore9FormStateEEE
__ZN6WebKit28InjectedBundlePageFormClient19willSendSubmitEventEPNS_7WebPageEPN7WebCore15HTMLFormElementEPNS_8WebFrameES7_RKN3WTF6VectorINSt3__14pairINS8_6StringESC_EELm0ENS8_15CrashOnOverflowEEE
_WKNSElasticDeltaForReboundDelta
__ZN3WTF6VectorINSt3__14pairINS_6StringES3_EELm0ENS_15CrashOnOverflowEE6shrinkEm
__ZN7CoreIPC13ArgumentCoderINSt3__14pairIN3WTF6StringES4_EEE6decodeERNS_15ArgumentDecoderERS5_
__ZN3WTF6VectorINSt3__14pairINS_6StringES3_EELm0ENS_15CrashOnOverflowEE14appendSlowCaseIS4_EEvRKT_
__ZN3WTF6VectorINSt3__14pairINS_6StringES3_EELm0ENS_15CrashOnOverflowEE14expandCapacityEmPKS4_
__ZN3WTF6VectorINSt3__14pairINS_6StringES3_EELm0ENS_15CrashOnOverflowEE15reserveCapacityEm
__ZN3WTF16VectorBufferBaseINSt3__14pairINS_6StringES3_EEE14allocateBufferEm
__ZN3WTF16VectorBufferBaseINSt3__14pairINS_6StringES3_EEE16reallocateBufferEm
_WKNSElasticDeltaForTimeDelta
__ZL19didCreateConnectionPK15OpaqueWKContextPK18OpaqueWKConnectionPKv
-[WKConnection(Internal) _initWithConnectionRef:]
-[WKConnectionData .cxx_construct]
__ZN6WebKit11WKRetainPtrIPK18OpaqueWKConnectionEaSES3_
_WKConnectionSetConnectionClient
__ZN6WebKit13WebConnection26initializeConnectionClientEPK18WKConnectionClient
__ZN6WebKit9APIClientI18WKConnectionClientLi0EE10initializeEPKS1_
__ZN3WTF9RetainPtrIP12WKConnectionEC2ENS_10AdoptNSTagES2_
__ZN3WTF9RetainPtrI12WKConnectionEC2IPS1_EERKNS0_IT_EE
-[WKConnection setDelegate:]
-[WKView mouseDragged:]
-[WKView mouseDraggedInternal:]
__ZN6WebKit13WebDragClient28dragSourceActionMaskForPointERKN7WebCore8IntPointE
-[WKWebProcessPlugInController .cxx_construct]
-[WKWebProcessPlugInController(Internal) _initWithPrincipalClassInstance:bundleRef:]
__ZN6WebKit11WKRetainPtrIPK14OpaqueWKBundleEaSES3_
_WKBundleGetApplicationConnection
__ZNK6WebKit14InjectedBundle24webConnectionToUIProcessEv
__ZN3WTF9RetainPtrIP12WKConnectionEaSEOS3_
+[WKWebProcessPlugInController(Internal) _shared]
-[WKWebProcessPlugInController connection]
__ZN7CoreIPC13ArgumentCoderIN7WebCore14UserStyleSheetEE6decodeERNS_15ArgumentDecoderERS2_
__ZN7CoreIPC13ArgumentCoderIN7WebCore10UserScriptEE6decodeERNS_15ArgumentDecoderERS2_
__ZL13didCreatePagePK14OpaqueWKBundlePK18OpaqueWKBundlePagePKv
-[WKWebProcessPlugInBrowserContextController .cxx_construct]
-[WKWebProcessPlugInBrowserContextController(Internal) _initWithBundlePageRef:]
__ZN6WebKit11WKRetainPtrIPK18OpaqueWKBundlePageEaSES3_
__ZN3WTF9RetainPtrIP42WKWebProcessPlugInBrowserContextControllerEC2ES2_
__ZN3WTF7HashMapIPK18OpaqueWKBundlePageNS_9RetainPtrIP42WKWebProcessPlugInBrowserContextControllerEENS_7PtrHashIS3_EENS_10HashTraitsIS3_EENSA_IS7_EEE3setERKS3_RKS7_
__ZN3WTF9RetainPtrIP42WKWebProcessPlugInBrowserContextControllerEaSERKS3_
-[WKWebProcessPlugInBrowserContextController(Private) _bundlePageRef]
_WKBundlePageSetEditorClient
__ZN6WebKit7WebPage36initializeInjectedBundleEditorClientEP24WKBundlePageEditorClient
__ZN6WebKit9APIClientI24WKBundlePageEditorClientLi1EE10initializeEPKS1_
__ZN6WebKit7WebPage24setMainFrameIsScrollableEb
__ZN6WebKit11DrawingArea29mainFrameScrollabilityChangedEb
__ZN7CoreIPC21handleMessageVariadicIN8Messages7WebPage8LoadDataEN6WebKit7WebPageEMS5_FvRKNS_13DataReferenceERKN3WTF6StringESC_SC_RNS_14MessageDecoderEEEEvSE_PT0_T1_
__ZN7CoreIPC10Arguments4INS_13DataReferenceEN3WTF6StringES3_S3_E6decodeERNS_15ArgumentDecoderERS4_
__ZN7CoreIPC10Arguments3INS_13DataReferenceEN3WTF6StringES3_E6decodeERNS_15ArgumentDecoderERS4_
__ZN6WebKit7WebPage8loadDataERKN7CoreIPC13DataReferenceERKN3WTF6StringES8_S8_RNS1_14MessageDecoderE
__ZN6WebKit7WebPage12loadDataImplEN3WTF10PassRefPtrIN7WebCore12SharedBufferEEERKNS1_6StringES8_RKNS3_4KURLESB_RN7CoreIPC14MessageDecoderE
__ZN6WebKit36InjectedBundleObjCObjectGraphDecoderC1ERN3WTF6RefPtrINS_15ObjCObjectGraphEEEPNS_10WebProcessE
__ZN6WebKit36InjectedBundleObjCObjectGraphDecoder6decodeERN7CoreIPC15ArgumentDecoderERS0_
__ZN6WebKit40InjectedBundleObjCObjectGraphDecoderImpl6decodeERN7CoreIPC15ArgumentDecoderERS0_
__ZN6WebKit22ObjCObjectGraphDecoderINS_40InjectedBundleObjCObjectGraphDecoderImplEE10baseDecodeERN7CoreIPC15ArgumentDecoderERS1_RNS_12WebKitNSTypeE
__ZN7CoreIPC6decodeERNS_15ArgumentDecoderERN3WTF9RetainPtrI6NSDataEE
__ZN3WTF9RetainPtrI6NSDataEaSIPS1_EERS2_ONS0_IT_EE
__ZN3WTF9RetainPtrIP11objc_objectEaSI6NSDataEERS3_RKNS0_IT_EE
__ZN7WebCore14SubstituteDataC2EN3WTF10PassRefPtrINS_12SharedBufferEEERKNS1_6StringES7_RKNS_4KURLESA_
__ZN6WebKit30InjectedBundlePageLoaderClient19willLoadDataRequestEPNS_7WebPageERKN7WebCore15ResourceRequestEPKNS3_12SharedBufferERKN3WTF6StringESD_RKNS3_4KURLEPNS_9APIObjectE
_WKObjCTypeWrapperGetObject
__ZN6WebKitL19releaseSharedBufferEPhPKv
_WKURLCopyScheme
__ZNK6WebKit6WebURL8protocolEv
__ZNK6WebKit6WebURL19parseURLIfNecessaryEv
__ZL31didStartProvisionalLoadForFramePK12OpaqueWKPagePK13OpaqueWKFramePKvS6_
-[WKBrowsingContextController loadDelegate]
__ZN7CoreIPC13handleMessageIN8Messages7WebPage22ViewExposedRectChangedEN6WebKit7WebPageEMS5_FvRKN7WebCore9FloatRectEbEEEvRNS_14MessageDecoderEPT0_T1_
__ZN7CoreIPC10Arguments2IN7WebCore9FloatRectEbE6decodeERNS_15ArgumentDecoderERS3_
__ZN6WebKit7WebPage22viewExposedRectChangedERKN7WebCore9FloatRectEb
__ZN6WebKit29TiledCoreAnimationDrawingArea14setExposedRectERKN7WebCore9FloatRectE
__ZN6WebKit29TiledCoreAnimationDrawingArea21setClipsToExposedRectEb
__ZN6WebKit20WebFrameLoaderClient27forcePageTransitionIfNeededEv
__ZN7WebCore5TimerIN6WebKit29TiledCoreAnimationDrawingAreaEE5firedEv
__ZN6WebKit29TiledCoreAnimationDrawingArea36updateIntrinsicContentSizeTimerFiredEPN7WebCore5TimerIS0_EE
__ZN7CoreIPC13MessageSender4sendIN8Messages16DrawingAreaProxy29IntrinsicContentSizeDidChangeEEEbRKT_y
__ZNK6WebKit15WebChromeClient22layerTreeStateIsFrozenEv
__ZNK6WebKit29TiledCoreAnimationDrawingArea22layerTreeStateIsFrozenEv
__ZN7CoreIPC13handleMessageIN8Messages16DrawingAreaProxy29IntrinsicContentSizeDidChangeEN6WebKit16DrawingAreaProxyEMS5_FvRKN7WebCore7IntSizeEEEEvRNS_14MessageDecoderEPT0_T1_
__ZN6WebKit34TiledCoreAnimationDrawingAreaProxy29intrinsicContentSizeDidChangeERKN7WebCore7IntSizeE
__ZN6WebKit12WebPageProxy29intrinsicContentSizeDidChangeERKN7WebCore7IntSizeE
__ZN6WebKit14PageClientImpl29intrinsicContentSizeDidChangeERKN7WebCore7IntSizeE
-[WKView(Internal) _setIntrinsicContentSize:]
__ZL21didCommitLoadForFramePK12OpaqueWKPagePK13OpaqueWKFramePKvS6_
_WKBundleFrameGetJavaScriptContext
__ZN6WebKit8WebFrame9jsContextEv
__ZThn328_N6WebKit21NetworkResourceLoader11didSendDataEPN7WebCore14ResourceHandleEyy
__ZN7CoreIPC13MessageSender4sendIN8Messages17WebResourceLoader11DidSendDataEEEbRKT_y
__ZN7CoreIPC13handleMessageIN8Messages17WebResourceLoader11DidSendDataEN6WebKit17WebResourceLoaderEMS5_FvyyEEEvRNS_14MessageDecoderEPT0_T1_
__ZN6WebKit17WebResourceLoader11didSendDataEyy
-[WKConnection sendMessageWithName:body:]
_WKConnectionPostMessage
__ZN6WebKit13WebConnection11postMessageERKN3WTF6StringEPNS_9APIObjectE
__ZNK6WebKit24WebConnectionToUIProcess18hasValidConnectionEv
__ZN6WebKit24WebConnectionToUIProcess17encodeMessageBodyERN7CoreIPC15ArgumentEncoderEPNS_9APIObjectE
__ZNK6WebKit40InjectedBundleObjCObjectGraphEncoderImpl6encodeERN7CoreIPC15ArgumentEncoderE
__ZNK6WebKit22ObjCObjectGraphEncoderINS_40InjectedBundleObjCObjectGraphEncoderImplEE10baseEncodeERN7CoreIPC15ArgumentEncoderERNS_12WebKitNSTypeE
__ZN7CoreIPC6encodeERNS_15ArgumentEncoderEP8NSString
__ZThn24_N6WebKit24WebConnectionToUIProcess23messageSenderConnectionEv
__ZThn16_N6WebKit13WebConnection17didReceiveMessageEPN7CoreIPC10ConnectionERNS1_14MessageDecoderE
__ZN6WebKit13WebConnection30didReceiveWebConnectionMessageEPN7CoreIPC10ConnectionERNS1_14MessageDecoderE
__ZN6WebKit13WebConnection13handleMessageERN7CoreIPC14MessageDecoderE
__ZN6WebKit25WebConnectionToWebProcess17decodeMessageBodyERN7CoreIPC15ArgumentDecoderERN3WTF6RefPtrINS_9APIObjectEEE
__ZN6WebKit32WebContextObjCObjectGraphDecoderC1ERN3WTF6RefPtrINS_15ObjCObjectGraphEEEPNS_15WebProcessProxyE
__ZN6WebKit32WebContextObjCObjectGraphDecoder6decodeERN7CoreIPC15ArgumentDecoderERS0_
__ZN6WebKit36WebContextObjCObjectGraphDecoderImpl6decodeERN7CoreIPC15ArgumentDecoderERS0_
__ZN6WebKit22ObjCObjectGraphDecoderINS_36WebContextObjCObjectGraphDecoderImplEE10baseDecodeERN7CoreIPC15ArgumentDecoderERS1_RNS_12WebKitNSTypeE
__ZN3WTF9RetainPtrIP19NSMutableDictionaryEC2ENS_10AdoptNSTagES2_
__ZN3WTF9RetainPtrI19NSMutableDictionaryEC2IPS1_EERKNS0_IT_EE
__ZN7CoreIPC6decodeERNS_15ArgumentDecoderERN3WTF9RetainPtrI8NSStringEE
__ZN3WTF9RetainPtrI8NSStringEaSIPS1_EERS2_ONS0_IT_EE
__ZN3WTF9RetainPtrIP11objc_objectEaSI8NSStringEERS3_RKNS0_IT_EE
-[WKWebProcessPlugInBrowserContextController mainFrameDocument]
__ZN6WebKit15toWKDOMDocumentEPN7WebCore8DocumentE
__ZN6WebKit11toWKDOMNodeEPN7WebCore4NodeE
__ZN6WebKit14WKDOMNodeCacheEv
+[WKBrowsingContextController(Internal) _browsingContextControllerForPageRef:]
__ZN3WTF9HashTableIPN7WebCore4NodeENS_12KeyValuePairIS3_P9WKDOMNodeEENS_24KeyValuePairKeyExtractorIS7_EENS_7PtrHashIS3_EENS_18HashMapValueTraitsINS_10HashTraitsIS3_EENSD_IS6_EEEESE_E16lookupForWritingINS_22IdentityHashTranslatorISB_EES3_EENSt3__14pairIPS7_bEERKT0_
__ZN3WTF9HashTableIPN7WebCore4NodeENS_12KeyValuePairIS3_P9WKDOMNodeEENS_24KeyValuePairKeyExtractorIS7_EENS_7PtrHashIS3_EENS_18HashMapValueTraitsINS_10HashTraitsIS3_EENSD_IS6_EEEESE_E3addINS_17HashMapTranslatorISG_SB_EES3_S6_EENS_18HashTableAddResultINS_17HashTableIteratorIS3_S7_S9_SB_SG_SE_EEEERKT0_RKT1_
__ZN3WTF9HashTableIPN7WebCore4NodeENS_12KeyValuePairIS3_P9WKDOMNodeEENS_24KeyValuePairKeyExtractorIS7_EENS_7PtrHashIS3_EENS_18HashMapValueTraitsINS_10HashTraitsIS3_EENSD_IS6_EEEESE_E4findINS_22IdentityHashTranslatorISB_EES3_EENS_17HashTableIteratorIS3_S7_S9_SB_SG_SE_EERKT0_
__ZN3WTF9HashTableIPN7WebCore4NodeENS_12KeyValuePairIS3_P9WKDOMNodeEENS_24KeyValuePairKeyExtractorIS7_EENS_7PtrHashIS3_EENS_18HashMapValueTraitsINS_10HashTraitsIS3_EENSD_IS6_EEEESE_E6expandEv
__ZN3WTF9HashTableIPN7WebCore4NodeENS_12KeyValuePairIS3_P9WKDOMNodeEENS_24KeyValuePairKeyExtractorIS7_EENS_7PtrHashIS3_EENS_18HashMapValueTraitsINS_10HashTraitsIS3_EENSD_IS6_EEEESE_E6lookupINS_22IdentityHashTranslatorISB_EES3_EEPS7_RKT0_
__ZN3WTF9HashTableIPN7WebCore4NodeENS_12KeyValuePairIS3_P9WKDOMNodeEENS_24KeyValuePairKeyExtractorIS7_EENS_7PtrHashIS3_EENS_18HashMapValueTraitsINS_10HashTraitsIS3_EENSD_IS6_EEEESE_E6rehashEi
__ZN3WTF9HashTableIPN7WebCore4NodeENS_12KeyValuePairIS3_P9WKDOMNodeEENS_24KeyValuePairKeyExtractorIS7_EENS_7PtrHashIS3_EENS_18HashMapValueTraitsINS_10HashTraitsIS3_EENSD_IS6_EEEESE_E6removeEPS7_
__ZN3WTF9RetainPtrIP11objc_objectEaSI27WKBrowsingContextControllerEERS3_PT_
__ZN3WTF9RetainPtrIP11objc_objectEaSI19NSMutableDictionaryEERS3_RKNS0_IT_EE
-[WKDOMNode .cxx_construct]
-[WKDOMNode _initWithImpl:]
__ZN3WTF6RefPtrIN7WebCore4NodeEEaSEPS2_
__ZN6WebKit19WebConnectionClient17didReceiveMessageEPNS_13WebConnectionERKN3WTF6StringEPNS_9APIObjectE
__ZL17didReceiveMessagePK18OpaqueWKConnectionPK14OpaqueWKStringPKvS6_
-[WKDOMDocument body]
-[WKConnection delegate]
__ZN6WebKit14toWKDOMElementEPN7WebCore7ElementE
-[WKDOMRange .cxx_construct]
-[WKDOMRange initWithDocument:]
__ZN6WebKit17toWebCoreDocumentEP13WKDOMDocument
-[WKDOMRange _initWithImpl:]
__ZN3WTF6RefPtrIN7WebCore5RangeEEaSEPS2_
__ZN6WebKit15WKDOMRangeCacheEv
-[WKDOMRange selectNode:]
__ZN6WebKit13toWebCoreNodeEP9WKDOMNode
-[WKDOMRange isCollapsed]
-[WKDOMTextIterator .cxx_construct]
-[WKDOMTextIterator initWithRange:]
__ZN6WebKit14toWebCoreRangeEP10WKDOMRange
__ZN3WTF6OwnPtrIN7WebCore12TextIteratorEEaSERKNS_10PassOwnPtrIS2_EE
__ZN3WTF10PassOwnPtrIN7WebCore12TextIteratorEED2Ev
-[WKDOMRange dealloc]
__ZN3WTF7HashMapIPN7WebCore5RangeEP10WKDOMRangeNS_7PtrHashIS3_EENS_10HashTraitsIS3_EENS8_IS5_EEE6removeERKS3_
__ZN3WTF9HashTableIPN7WebCore5RangeENS_12KeyValuePairIS3_P10WKDOMRangeEENS_24KeyValuePairKeyExtractorIS7_EENS_7PtrHashIS3_EENS_18HashMapValueTraitsINS_10HashTraitsIS3_EENSD_IS6_EEEESE_E16lookupForWritingINS_22IdentityHashTranslatorISB_EES3_EENSt3__14pairIPS7_bEERKT0_
__ZN3WTF9HashTableIPN7WebCore5RangeENS_12KeyValuePairIS3_P10WKDOMRangeEENS_24KeyValuePairKeyExtractorIS7_EENS_7PtrHashIS3_EENS_18HashMapValueTraitsINS_10HashTraitsIS3_EENSD_IS6_EEEESE_E3addINS_17HashMapTranslatorISG_SB_EES3_S6_EENS_18HashTableAddResultINS_17HashTableIteratorIS3_S7_S9_SB_SG_SE_EEEERKT0_RKT1_
__ZN3WTF9HashTableIPN7WebCore5RangeENS_12KeyValuePairIS3_P10WKDOMRangeEENS_24KeyValuePairKeyExtractorIS7_EENS_7PtrHashIS3_EENS_18HashMapValueTraitsINS_10HashTraitsIS3_EENSD_IS6_EEEESE_E4findINS_22IdentityHashTranslatorISB_EES3_EENS_17HashTableIteratorIS3_S7_S9_SB_SG_SE_EERKT0_
__ZN3WTF9HashTableIPN7WebCore5RangeENS_12KeyValuePairIS3_P10WKDOMRangeEENS_24KeyValuePairKeyExtractorIS7_EENS_7PtrHashIS3_EENS_18HashMapValueTraitsINS_10HashTraitsIS3_EENSD_IS6_EEEESE_E6expandEv
__ZN3WTF9HashTableIPN7WebCore5RangeENS_12KeyValuePairIS3_P10WKDOMRangeEENS_24KeyValuePairKeyExtractorIS7_EENS_7PtrHashIS3_EENS_18HashMapValueTraitsINS_10HashTraitsIS3_EENSD_IS6_EEEESE_E6lookupINS_22IdentityHashTranslatorISB_EES3_EEPS7_RKT0_
__ZN3WTF9HashTableIPN7WebCore5RangeENS_12KeyValuePairIS3_P10WKDOMRangeEENS_24KeyValuePairKeyExtractorIS7_EENS_7PtrHashIS3_EENS_18HashMapValueTraitsINS_10HashTraitsIS3_EENSD_IS6_EEEESE_E6rehashEi
__ZN3WTF9HashTableIPN7WebCore5RangeENS_12KeyValuePairIS3_P10WKDOMRangeEENS_24KeyValuePairKeyExtractorIS7_EENS_7PtrHashIS3_EENS_18HashMapValueTraitsINS_10HashTraitsIS3_EENSD_IS6_EEEESE_E6removeEPS7_
-[WKDOMRange .cxx_destruct]
-[WKDOMTextIterator atEnd]
-[WKDOMTextIterator currentTextLength]
-[WKDOMTextIterator currentTextPointer]
-[WKDOMTextIterator advance]
-[WKDOMTextIterator .cxx_destruct]
__ZN3WTF6OwnPtrIN7WebCore12TextIteratorEED2Ev
-[WKDOMNode dealloc]
__ZN3WTF7HashMapIPN7WebCore4NodeEP9WKDOMNodeNS_7PtrHashIS3_EENS_10HashTraitsIS3_EENS8_IS5_EEE6removeERKS3_
-[WKDOMNode .cxx_destruct]
__ZL21didFinishLoadForFramePK12OpaqueWKPagePK13OpaqueWKFramePKvS6_
-[WKBrowsingContextController activeURL]
_WKPageCopyActiveURL
__ZNK6WebKit12WebPageProxy9activeURLEv
-[WKDOMNode firstChild]
-[WKDOMElement tagName]
-[WKDOMNode nextSibling]
-[WKDOMNode parentNode]
-[WKDOMElement hasAttribute:]
-[WKDOMElement getAttribute:]
-[WKDOMRange selectNodeContents:]
-[WKDOMTextIterator currentRange]
__ZN6WebKit12toWKDOMRangeEPN7WebCore5RangeE
-[WKDOMRange endOffset]
-[WKDOMRange startOffset]
-[WKDOMRange startContainer]
__ZN6WebKit30WebFormSubmissionListenerProxyD0Ev
__ZNK6WebKit23RemoteNetworkingContext40shouldClearReferrerOnHTTPSToHTTPRedirectEv
_WKBundlePageOverlayCreate
__ZN6WebKit11PageOverlay6createEPNS0_6ClientE
__ZN6WebKit11PageOverlayC2EPNS0_6ClientE
_WKBundlePageInstallPageOverlay
__ZN6WebKit7WebPage18installPageOverlayEN3WTF10PassRefPtrINS_11PageOverlayEEEb
__ZN3WTF6VectorINS_6RefPtrIN6WebKit11PageOverlayEEELm0ENS_15CrashOnOverflowEE14appendSlowCaseIS4_EEvRKT_
__ZN3WTF6VectorINS_6RefPtrIN6WebKit11PageOverlayEEELm0ENS_15CrashOnOverflowEE14expandCapacityEmPKS4_
__ZN3WTF6VectorINS_6RefPtrIN6WebKit11PageOverlayEEELm0ENS_15CrashOnOverflowEE15reserveCapacityEm
__ZN3WTF16VectorBufferBaseINS_6RefPtrIN6WebKit11PageOverlayEEEE14allocateBufferEm
__ZN6WebKit11PageOverlay7setPageEPNS_7WebPageE
__ZN21PageOverlayClientImpl17willMoveToWebPageEPN6WebKit11PageOverlayEPNS0_7WebPageE
__ZN21PageOverlayClientImpl16didMoveToWebPageEPN6WebKit11PageOverlayEPNS0_7WebPageE
__ZNK6WebKit11DrawingArea38pageOverlayShouldApplyFadeWhenPaintingEv
__ZN6WebKit29TiledCoreAnimationDrawingArea21didInstallPageOverlayEPNS_11PageOverlayE
__ZN6WebKit29TiledCoreAnimationDrawingArea22createPageOverlayLayerEPNS_11PageOverlayE
__ZThn24_N6WebKit29TiledCoreAnimationDrawingArea19notifyFlushRequiredEPKN7WebCore13GraphicsLayerE
__ZN3WTF9RetainPtrI7CALayerEC2EPS1_
__ZN3WTF7HashMapIPKN7WebCore13GraphicsLayerENS_9RetainPtrI7CALayerEENS_7PtrHashIS4_EENS_10HashTraitsIS4_EENSA_IS7_EEE3setERKS4_RKS7_
__ZN3WTF9RetainPtrI7CALayerEaSERKS2_
-[WKDOMRange textRects]
__ZN6WebKit9toNSArrayERKN3WTF6VectorIN7WebCore7IntRectELm0ENS0_15CrashOnOverflowEEE
__ZN3WTF6VectorIN7WebCore7IntRectELm0ENS_15CrashOnOverflowEED1Ev
-[WKDOMRange setStart:offset:]
-[WKDOMRange setEnd:offset:]
-[WKDOMRange endContainer]
-[WKDOMText data]
-[WKDOMDocument createTextNode:]
__ZN6WebKit11toWKDOMTextEPN7WebCore4TextE
-[WKDOMNode insertNode:before:]
-[WKDOMDocument createElement:]
-[WKDOMElement setAttribute:value:]
-[WKDOMNode appendChild:]
-[WKDOMText setData:]
__ZNK7WebCore19GraphicsLayerClient39customPositionForVisibleRectComputationEPKNS_13GraphicsLayerERNS_10FloatPointE
__ZNK7WebCore19GraphicsLayerClient19getCurrentTransformEPKNS_13GraphicsLayerERNS_20TransformationMatrixE
__ZThn24_NK6WebKit29TiledCoreAnimationDrawingArea17deviceScaleFactorEv
__ZThn24_NK6WebKit29TiledCoreAnimationDrawingArea24didCommitChangesForLayerEPKN7WebCore13GraphicsLayerE
__ZNK6WebKit29TiledCoreAnimationDrawingArea24didCommitChangesForLayerEPKN7WebCore13GraphicsLayerE
__ZNK3WTF7HashMapIPKN7WebCore13GraphicsLayerENS_9RetainPtrI7CALayerEENS_7PtrHashIS4_EENS_10HashTraitsIS4_EENSA_IS7_EEE3getERKS4_
__ZN3WTF9HashTableIPKN7WebCore13GraphicsLayerENS_12KeyValuePairIS4_NS_9RetainPtrI7CALayerEEEENS_24KeyValuePairKeyExtractorIS9_EENS_7PtrHashIS4_EENS_18HashMapValueTraitsINS_10HashTraitsIS4_EENSF_IS8_EEEESG_E15deallocateTableEPS9_i
__ZN3WTF9HashTableIPKN7WebCore13GraphicsLayerENS_12KeyValuePairIS4_NS_9RetainPtrI7CALayerEEEENS_24KeyValuePairKeyExtractorIS9_EENS_7PtrHashIS4_EENS_18HashMapValueTraitsINS_10HashTraitsIS4_EENSF_IS8_EEEESG_E16lookupForWritingINS_22IdentityHashTranslatorISD_EES4_EENSt3__14pairIPS9_bEERKT0_
__ZN3WTF9HashTableIPKN7WebCore13GraphicsLayerENS_12KeyValuePairIS4_NS_9RetainPtrI7CALayerEEEENS_24KeyValuePairKeyExtractorIS9_EENS_7PtrHashIS4_EENS_18HashMapValueTraitsINS_10HashTraitsIS4_EENSF_IS8_EEEESG_E3addINS_17HashMapTranslatorISI_SD_EES4_S8_EENS_18HashTableAddResultINS_17HashTableIteratorIS4_S9_SB_SD_SI_SG_EEEERKT0_RKT1_
__ZN3WTF9HashTableIPKN7WebCore13GraphicsLayerENS_12KeyValuePairIS4_NS_9RetainPtrI7CALayerEEEENS_24KeyValuePairKeyExtractorIS9_EENS_7PtrHashIS4_EENS_18HashMapValueTraitsINS_10HashTraitsIS4_EENSF_IS8_EEEESG_E4findINS_22IdentityHashTranslatorISD_EES4_EENS_17HashTableIteratorIS4_S9_SB_SD_SI_SG_EERKT0_
__ZN3WTF9HashTableIPKN7WebCore13GraphicsLayerENS_12KeyValuePairIS4_NS_9RetainPtrI7CALayerEEEENS_24KeyValuePairKeyExtractorIS9_EENS_7PtrHashIS4_EENS_18HashMapValueTraitsINS_10HashTraitsIS4_EENSF_IS8_EEEESG_E6expandEv
__ZN3WTF9HashTableIPKN7WebCore13GraphicsLayerENS_12KeyValuePairIS4_NS_9RetainPtrI7CALayerEEEENS_24KeyValuePairKeyExtractorIS9_EENS_7PtrHashIS4_EENS_18HashMapValueTraitsINS_10HashTraitsIS4_EENSF_IS8_EEEESG_E6lookupINS_22IdentityHashTranslatorISD_EES4_EEPS9_RKT0_
__ZN3WTF9HashTableIPKN7WebCore13GraphicsLayerENS_12KeyValuePairIS4_NS_9RetainPtrI7CALayerEEEENS_24KeyValuePairKeyExtractorIS9_EENS_7PtrHashIS4_EENS_18HashMapValueTraitsINS_10HashTraitsIS4_EENSF_IS8_EEEESG_E6rehashEi
__ZN3WTF9HashTableIPKN7WebCore13GraphicsLayerENS_12KeyValuePairIS4_NS_9RetainPtrI7CALayerEEEENS_24KeyValuePairKeyExtractorIS9_EENS_7PtrHashIS4_EENS_18HashMapValueTraitsINS_10HashTraitsIS4_EENSF_IS8_EEEESG_E6removeEPS9_
__ZN3WTF9RetainPtrI7CALayerEC2ERKS2_
__ZN6WebKit11PageOverlay10mouseEventERKNS_13WebMouseEventE
__ZNK6WebKit11PageOverlay6boundsEv
__ZN21PageOverlayClientImpl10mouseEventEPN6WebKit11PageOverlayERKNS0_13WebMouseEventE
-[WKView validateUserInterfaceItem:]
__ZL22commandNameForSelectorP13objc_selector
__ZN3WTF9HashTableIP13objc_selectorNS_12KeyValuePairIS1_NS_6StringEEENS_24KeyValuePairKeyExtractorIS4_EENS_7PtrHashIS1_EENS_18HashMapValueTraitsINS_10HashTraitsIS1_EENSA_IS3_EEEESB_E15deallocateTableEPS4_i
__ZN3WTF9HashTableIP13objc_selectorNS_12KeyValuePairIS1_NS_6StringEEENS_24KeyValuePairKeyExtractorIS4_EENS_7PtrHashIS1_EENS_18HashMapValueTraitsINS_10HashTraitsIS1_EENSA_IS3_EEEESB_E16lookupForWritingINS_22IdentityHashTranslatorIS8_EES1_EENSt3__14pairIPS4_bEERKT0_
__ZN3WTF9HashTableIP13objc_selectorNS_12KeyValuePairIS1_NS_6StringEEENS_24KeyValuePairKeyExtractorIS4_EENS_7PtrHashIS1_EENS_18HashMapValueTraitsINS_10HashTraitsIS1_EENSA_IS3_EEEESB_E3addINS_17HashMapTranslatorISD_S8_EES1_S3_EENS_18HashTableAddResultINS_17HashTableIteratorIS1_S4_S6_S8_SD_SB_EEEERKT0_RKT1_
__ZN3WTF9HashTableIP13objc_selectorNS_12KeyValuePairIS1_NS_6StringEEENS_24KeyValuePairKeyExtractorIS4_EENS_7PtrHashIS1_EENS_18HashMapValueTraitsINS_10HashTraitsIS1_EENSA_IS3_EEEESB_E4findINS_22IdentityHashTranslatorIS8_EES1_EENS_17HashTableIteratorIS1_S4_S6_S8_SD_SB_EERKT0_
__ZN3WTF9HashTableIP13objc_selectorNS_12KeyValuePairIS1_NS_6StringEEENS_24KeyValuePairKeyExtractorIS4_EENS_7PtrHashIS1_EENS_18HashMapValueTraitsINS_10HashTraitsIS1_EENSA_IS3_EEEESB_E6expandEv
__ZN3WTF9HashTableIP13objc_selectorNS_12KeyValuePairIS1_NS_6StringEEENS_24KeyValuePairKeyExtractorIS4_EENS_7PtrHashIS1_EENS_18HashMapValueTraitsINS_10HashTraitsIS1_EENSA_IS3_EEEESB_E6lookupINS_22IdentityHashTranslatorIS8_EES1_EEPS4_RKT0_
__ZN3WTF9HashTableIP13objc_selectorNS_12KeyValuePairIS1_NS_6StringEEENS_24KeyValuePairKeyExtractorIS4_EENS_7PtrHashIS1_EENS_18HashMapValueTraitsINS_10HashTraitsIS1_EENSA_IS3_EEEESB_E6rehashEi
__ZNK3WTF9HashTableIP13objc_selectorNS_12KeyValuePairIS1_NS_6StringEEENS_24KeyValuePairKeyExtractorIS4_EENS_7PtrHashIS1_EENS_18HashMapValueTraitsINS_10HashTraitsIS1_EENSA_IS3_EEEESB_E4findINS_22IdentityHashTranslatorIS8_EES1_EENS_22HashTableConstIteratorIS1_S4_S6_S8_SD_SB_EERKT0_
__ZN3WTF22KeyValuePairHashTraitsINS_10HashTraitsINS_6StringEEENS1_INS_6VectorINS_9RetainPtrIP11objc_objectEELm0ENS_15CrashOnOverflowEEEEEE10emptyValueEv
__ZN3WTF12KeyValuePairINS_6StringENS_6VectorINS_9RetainPtrIP11objc_objectEELm0ENS_15CrashOnOverflowEEEEC2ERKS1_RKS8_
__ZN3WTF6VectorINS_9RetainPtrIP11objc_objectEELm0ENS_15CrashOnOverflowEEC2ERKS6_
__ZN3WTF6VectorINS_9RetainPtrIP11objc_objectEELm0ENS_15CrashOnOverflowEED2Ev
__ZN3WTF6VectorINS_9RetainPtrIP11objc_objectEELm0ENS_15CrashOnOverflowEEaSERKS6_
__ZN3WTF6VectorINS_9RetainPtrIP11objc_objectEELm0ENS_15CrashOnOverflowEE14appendSlowCaseIS3_EEvRKT_
__ZN3WTF6VectorINS_9RetainPtrIP11objc_objectEELm0ENS_15CrashOnOverflowEE15reserveCapacityEm
__ZN3WTF16VectorBufferBaseINS_9RetainPtrIP11objc_objectEEE14allocateBufferEm
__ZN3WTF11VectorMoverILb0ENS_9RetainPtrIP11objc_objectEEE4moveEPKS4_S7_PS4_
__ZN6WebKit12WebPageProxy15validateCommandERKN3WTF6StringENS1_10PassRefPtrINS_23ValidateCommandCallbackEEE
__ZN3WTF7HashMapIyNS_6RefPtrIN6WebKit23ValidateCommandCallbackEEENS_7IntHashIyEENS_10HashTraitsIyEENS7_IS4_EEE3setERKyNS_10PassRefPtrIS3_EE
__ZN3WTF9HashTableIyNS_12KeyValuePairIyNS_6RefPtrIN6WebKit23ValidateCommandCallbackEEEEENS_24KeyValuePairKeyExtractorIS6_EENS_7IntHashIyEENS_18HashMapValueTraitsINS_10HashTraitsIyEENSC_IS5_EEEESD_E12deleteBucketERS6_
__ZN3WTF9HashTableIyNS_12KeyValuePairIyNS_6RefPtrIN6WebKit23ValidateCommandCallbackEEEEENS_24KeyValuePairKeyExtractorIS6_EENS_7IntHashIyEENS_18HashMapValueTraitsINS_10HashTraitsIyEENSC_IS5_EEEESD_E15deallocateTableEPS6_i
__ZN3WTF9HashTableIyNS_12KeyValuePairIyNS_6RefPtrIN6WebKit23ValidateCommandCallbackEEEEENS_24KeyValuePairKeyExtractorIS6_EENS_7IntHashIyEENS_18HashMapValueTraitsINS_10HashTraitsIyEENSC_IS5_EEEESD_E16lookupForWritingINS_22IdentityHashTranslatorISA_EEyEENSt3__14pairIPS6_bEERKT0_
