Certificate:
    Data:
        Version: 3 (0x2)
        Serial Number: 1 (0x1)
        Signature Algorithm: sha256WithRSAEncryption
        Issuer: CN=web-platform-tests
        Validity
            Not Before: Mar  6 02:47:26 2015 GMT
            Not After : Apr  5 02:47:26 2015 GMT
        Subject: CN=web-platform-tests
        Subject Public Key Info:
            Public Key Algorithm: rsaEncryption
            RSA Public Key: (2048 bit)
                Modulus (2048 bit):
                    00:ac:3a:b3:99:0b:ee:23:b3:9e:fb:e1:6e:a5:c5:
                    18:d4:1d:22:84:83:f9:52:71:26:a2:a4:e4:7f:c8:
                    5d:69:0e:a6:a2:32:44:9f:cf:4b:2f:b2:d0:ca:8e:
                    0a:46:93:bf:dc:62:aa:2b:62:59:b2:22:1a:13:0b:
                    84:74:68:9e:85:db:4e:1c:53:be:46:89:75:55:42:
                    84:f7:54:88:2a:01:fb:6d:af:0e:26:d2:45:69:e8:
                    88:7d:f1:b1:60:9a:ec:a1:64:51:9f:82:b2:c3:1c:
                    40:68:6b:ef:ba:81:9a:60:2a:66:17:a5:4a:14:fa:
                    de:dd:7a:0b:18:08:47:d0:f6:cc:74:b0:db:6c:b2:
                    6a:17:ef:ad:72:29:56:db:68:4d:88:e7:d7:b5:d8:
                    1d:c6:dd:08:e6:9c:17:1d:8b:bc:78:e3:d5:89:38:
                    26:89:f9:ce:cb:ed:b4:46:2d:a5:7f:90:84:a0:66:
                    c3:01:e5:96:17:c6:fb:8d:80:a3:22:af:6b:8b:72:
                    08:80:cd:7d:33:dc:c3:e8:d9:8d:de:4f:94:e9:70:
                    33:03:de:ec:f7:50:d0:e5:52:b4:48:43:bf:fe:fd:
                    34:44:7a:ed:a0:9c:c5:d3:51:53:3b:7e:7f:60:f4:
                    21:a5:b0:41:df:af:98:2a:05:67:c0:47:48:0e:cb:
                    75:55
                Exponent: 65537 (0x10001)
        X509v3 extensions:
            X509v3 Basic Constraints: 
                CA:TRUE
            X509v3 Subject Key Identifier: 
                A8:E4:4B:32:2E:48:E8:EC:5C:0E:40:F9:9D:C6:B0:D0:59:1E:86:23
            X509v3 Authority Key Identifier: 
                keyid:A8:E4:4B:32:2E:48:E8:EC:5C:0E:40:F9:9D:C6:B0:D0:59:1E:86:23
                DirName:/CN=web-platform-tests
                serial:01

            X509v3 Key Usage: 
                Certificate Sign
            X509v3 Extended Key Usage: 
                TLS Web Server Authentication
    Signature Algorithm: sha256WithRSAEncryption
        95:42:33:cb:e6:60:1c:18:0d:ba:58:5a:77:f6:12:fb:d2:42:
        6a:58:ff:cc:33:93:bd:26:4f:c0:c5:09:62:34:16:25:e5:ea:
        6f:ce:c7:f9:c6:cd:f1:c3:cd:6d:80:93:1d:7f:80:a3:09:ca:
        bc:b9:64:29:02:e7:e4:b4:96:6d:9e:a6:4c:4c:18:67:42:a6:
        a2:b7:05:8f:f5:5f:af:13:8d:96:26:db:d5:73:b9:32:0e:61:
        99:73:3d:2e:8e:e4:fc:12:4d:9c:d9:3e:52:05:be:5b:cb:25:
        60:cd:4a:36:dd:de:75:f7:42:a5:eb:f1:3c:d7:d0:b8:f5:7f:
        09:c7:19:73:fe:5e:ba:20:31:27:70:78:c6:3a:fc:27:7f:90:
        8f:2c:2f:ea:a0:2b:60:f1:e5:d2:80:15:b0:0f:df:9f:80:5f:
        96:7f:13:21:31:be:48:28:d6:cf:47:f3:7c:61:e8:d8:db:82:
        4e:b4:19:fd:f8:cf:6e:ed:2e:02:bd:d9:90:91:06:ab:c5:40:
        f7:d4:56:83:88:71:89:ad:47:ac:08:7d:43:16:9d:04:be:67:
        ad:c7:1c:bc:c9:ef:82:02:e4:98:8c:b4:31:c2:5b:0d:8b:d8:
        f3:ee:78:71:bd:a9:0c:51:a8:2b:a4:2a:0f:91:cb:a5:cf:d0:
        e8:14:bc:83
-----BEGIN CERTIFICATE-----
MIIDTzCCAjegAwIBAgIBATANBgkqhkiG9w0BAQsFADAdMRswGQYDVQQDDBJ3ZWIt
cGxhdGZvcm0tdGVzdHMwHhcNMTUwMzA2MDI0NzI2WhcNMTUwNDA1MDI0NzI2WjAd
MRswGQYDVQQDDBJ3ZWItcGxhdGZvcm0tdGVzdHMwggEiMA0GCSqGSIb3DQEBAQUA
A4IBDwAwggEKAoIBAQCsOrOZC+4js5774W6lxRjUHSKEg/lScSaipOR/yF1pDqai
MkSfz0svstDKjgpGk7/cYqorYlmyIhoTC4R0aJ6F204cU75GiXVVQoT3VIgqAftt
rw4m0kVp6Ih98bFgmuyhZFGfgrLDHEBoa++6gZpgKmYXpUoU+t7degsYCEfQ9sx0
sNtssmoX761yKVbbaE2I59e12B3G3QjmnBcdi7x449WJOCaJ+c7L7bRGLaV/kISg
ZsMB5ZYXxvuNgKMir2uLcgiAzX0z3MPo2Y3eT5TpcDMD3uz3UNDlUrRIQ7/+/TRE
eu2gnMXTUVM7fn9g9CGlsEHfr5gqBWfAR0gOy3VVAgMBAAGjgZkwgZYwDAYDVR0T
BAUwAwEB/zAdBgNVHQ4EFgQUqORLMi5I6OxcDkD5ncaw0FkehiMwRQYDVR0jBD4w
PIAUqORLMi5I6OxcDkD5ncaw0FkehiOhIaQfMB0xGzAZBgNVBAMMEndlYi1wbGF0
Zm9ybS10ZXN0c4IBATALBgNVHQ8EBAMCAgQwEwYDVR0lBAwwCgYIKwYBBQUHAwEw
DQYJKoZIhvcNAQELBQADggEBAJVCM8vmYBwYDbpYWnf2EvvSQmpY/8wzk70mT8DF
CWI0FiXl6m/Ox/nGzfHDzW2Akx1/gKMJyry5ZCkC5+S0lm2epkxMGGdCpqK3BY/1
X68TjZYm29VzuTIOYZlzPS6O5PwSTZzZPlIFvlvLJWDNSjbd3nX3QqXr8TzX0Lj1
fwnHGXP+XrogMSdweMY6/Cd/kI8sL+qgK2Dx5dKAFbAP35+AX5Z/EyExvkgo1s9H
83xh6Njbgk60Gf34z27tLgK92ZCRBqvFQPfUVoOIcYmtR6wIfUMWnQS+Z63HHLzJ
74IC5JiMtDHCWw2L2PPueHG9qQxRqCukKg+Ry6XP0OgUvIM=
-----END CERTIFICATE-----
