Certificate:
    Data:
        Version: 3 (0x2)
        Serial Number: 2 (0x2)
    Signature Algorithm: sha256WithRSAEncryption
        Issuer: CN=web-platform-tests
        Validity
            Not Before: Jan 27 09:27:41 2015 GMT
            Not After : Feb 26 09:27:41 2015 GMT
        Subject: CN=localhost
        Subject Public Key Info:
            Public Key Algorithm: rsaEncryption
                Public-Key: (2048 bit)
                Modulus:
                    00:e8:51:ec:61:80:b6:ac:66:ed:73:09:db:00:30:
                    48:04:83:e1:41:65:95:2d:8f:0d:50:63:d2:8c:2a:
                    50:93:4b:56:78:65:96:cf:79:4c:9c:3c:e8:86:ea:
                    c5:c2:e9:0a:9c:5f:15:8b:a5:fd:21:57:ea:13:23:
                    55:06:c2:8a:cc:3f:aa:ab:d4:dd:b9:ea:d9:8a:c9:
                    28:7a:de:14:d8:72:24:b8:a4:bf:c6:64:72:d7:a9:
                    d0:de:0e:df:4c:a6:50:18:26:f3:5b:ec:40:6a:1a:
                    27:0c:19:85:47:34:ad:49:37:af:73:8e:77:b3:43:
                    d3:83:3a:4b:76:16:b3:b8:e9:15:99:ff:07:aa:5f:
                    e1:26:b9:72:02:87:07:69:3b:86:85:8f:79:ad:ac:
                    ec:15:c4:16:2e:45:2a:a9:1a:82:24:de:ac:84:56:
                    88:bd:67:f3:f3:bb:84:d7:af:f9:65:23:01:e9:01:
                    d0:04:ce:a6:06:09:09:44:58:a7:ba:89:ab:b2:ca:
                    97:b6:18:6a:6c:84:a8:47:e7:f5:5f:8f:bf:71:7b:
                    4f:b9:ad:31:dd:73:bf:63:9f:b4:46:8c:93:85:24:
                    25:19:73:ed:03:19:f3:3f:1d:af:0e:8b:a4:76:90:
                    88:39:b5:27:f9:17:86:f1:4b:bb:7e:60:7f:f9:d7:
                    fb:65
                Exponent: 65537 (0x10001)
        X509v3 extensions:
            X509v3 Basic Constraints: 
                CA:FALSE
            X509v3 Subject Key Identifier: 
                F6:CB:82:64:B0:C4:02:1A:85:53:0E:9A:6B:D8:C2:30:AC:05:61:C8
            X509v3 Authority Key Identifier: 
                keyid:0E:31:C1:0D:6C:94:E1:F0:D9:8C:C4:E4:A5:DF:FD:1C:CB:3B:CC:58

            X509v3 Key Usage: 
                Digital Signature, Non Repudiation, Key Encipherment
            X509v3 Extended Key Usage: 
                TLS Web Server Authentication
            X509v3 Subject Alternative Name: 
                DNS:localhost, DNS:www.localhost, DNS:xn--n8j6ds53lwwkrqhv28a.localhost, DNS:xn--lve-6lad.localhost, DNS:www2.localhost, DNS:www1.localhost
    Signature Algorithm: sha256WithRSAEncryption
         80:b4:23:83:d9:5b:c8:5f:fe:16:25:2c:df:64:88:08:6b:1e:
         f9:15:46:58:54:ce:e0:28:88:af:f1:58:c3:7f:c2:08:7c:8b:
         d4:2f:da:f3:c5:bd:95:26:f6:0e:0f:66:34:4e:6a:35:3c:14:
         69:eb:15:2e:fe:0d:0d:c1:ff:30:2d:32:ce:28:c8:8b:57:ac:
         fc:54:89:9c:37:01:22:08:fe:db:bb:40:96:ec:8b:97:61:9f:
         68:c8:25:4d:19:77:f7:a6:86:51:2c:f0:b7:39:2b:a0:79:83:
         4b:42:75:6e:ca:c6:2a:0c:28:8b:69:83:46:3e:9e:0f:0f:7e:
         1a:17:09:1b:9b:02:ce:21:87:c2:e2:0d:68:91:1b:3a:5c:6d:
         c5:05:c8:2b:13:d1:28:a3:ed:94:73:ea:7d:b5:b7:b8:4d:be:
         85:3c:af:66:46:1b:0a:27:5d:71:b5:c6:9d:dc:ff:d6:e4:23:
         ed:89:11:64:69:16:4f:2f:c5:d6:81:41:d4:75:8d:8e:9b:4d:
         87:1d:02:bd:a7:d0:cf:a2:41:fb:27:cf:52:cb:2e:19:49:41:
         5c:d4:2f:c7:39:13:98:72:66:1d:47:97:cb:6b:dd:31:53:4e:
         b2:b0:af:6c:86:a7:38:1f:a1:a3:9f:54:6b:e1:c7:a2:15:f1:
         f0:d4:5a:57
-----BEGIN CERTIFICATE-----
MIIDnTCCAoWgAwIBAgIBAjANBgkqhkiG9w0BAQsFADAdMRswGQYDVQQDDBJ3ZWIt
cGxhdGZvcm0tdGVzdHMwHhcNMTUwMTI3MDkyNzQxWhcNMTUwMjI2MDkyNzQxWjAU
MRIwEAYDVQQDDAlsb2NhbGhvc3QwggEiMA0GCSqGSIb3DQEBAQUAA4IBDwAwggEK
AoIBAQDoUexhgLasZu1zCdsAMEgEg+FBZZUtjw1QY9KMKlCTS1Z4ZZbPeUycPOiG
6sXC6QqcXxWLpf0hV+oTI1UGworMP6qr1N256tmKySh63hTYciS4pL/GZHLXqdDe
Dt9MplAYJvNb7EBqGicMGYVHNK1JN69zjnezQ9ODOkt2FrO46RWZ/weqX+EmuXIC
hwdpO4aFj3mtrOwVxBYuRSqpGoIk3qyEVoi9Z/Pzu4TXr/llIwHpAdAEzqYGCQlE
WKe6iauyype2GGpshKhH5/Vfj79xe0+5rTHdc79jn7RGjJOFJCUZc+0DGfM/Ha8O
i6R2kIg5tSf5F4bxS7t+YH/51/tlAgMBAAGjgfAwge0wCQYDVR0TBAIwADAdBgNV
HQ4EFgQU9suCZLDEAhqFUw6aa9jCMKwFYcgwHwYDVR0jBBgwFoAUDjHBDWyU4fDZ
jMTkpd/9HMs7zFgwCwYDVR0PBAQDAgXgMBMGA1UdJQQMMAoGCCsGAQUFBwMBMH4G
A1UdEQR3MHWCCWxvY2FsaG9zdIINd3d3LmxvY2FsaG9zdIIheG4tLW44ajZkczUz
bHd3a3JxaHYyOGEubG9jYWxob3N0ghZ4bi0tbHZlLTZsYWQubG9jYWxob3N0gg53
d3cyLmxvY2FsaG9zdIIOd3d3MS5sb2NhbGhvc3QwDQYJKoZIhvcNAQELBQADggEB
AIC0I4PZW8hf/hYlLN9kiAhrHvkVRlhUzuAoiK/xWMN/wgh8i9Qv2vPFvZUm9g4P
ZjROajU8FGnrFS7+DQ3B/zAtMs4oyItXrPxUiZw3ASII/tu7QJbsi5dhn2jIJU0Z
d/emhlEs8Lc5K6B5g0tCdW7KxioMKItpg0Y+ng8PfhoXCRubAs4hh8LiDWiRGzpc
bcUFyCsT0Sij7ZRz6n21t7hNvoU8r2ZGGwonXXG1xp3c/9bkI+2JEWRpFk8vxdaB
QdR1jY6bTYcdAr2n0M+iQfsnz1LLLhlJQVzUL8c5E5hyZh1Hl8tr3TFTTrKwr2yG
pzgfoaOfVGvhx6IV8fDUWlc=
-----END CERTIFICATE-----
