Certificate:
    Data:
        Version: 3 (0x2)
        Serial Number: 1 (0x1)
    Signature Algorithm: sha256WithRSAEncryption
        Issuer: CN=web-platform-tests
        Validity
            Not Before: Jan 27 09:27:40 2015 GMT
            Not After : Feb 26 09:27:40 2015 GMT
        Subject: CN=web-platform-tests
        Subject Public Key Info:
            Public Key Algorithm: rsaEncryption
                Public-Key: (2048 bit)
                Modulus:
                    00:b2:d3:a2:d8:cd:93:82:4f:87:74:4b:35:77:23:
                    ef:d4:8b:f8:ad:00:da:cd:66:3f:0f:5d:17:75:44:
                    d0:ee:83:ca:8c:73:f4:55:20:a4:92:85:40:e4:a2:
                    5f:59:50:75:89:47:50:73:66:d7:40:aa:a3:cb:26:
                    ca:0c:b0:94:8e:3f:2e:c7:e2:53:ae:d1:c4:3f:c5:
                    d8:54:d7:27:2c:b6:f0:9f:18:06:30:b9:de:c4:3d:
                    6d:7b:62:84:f3:5a:39:b4:81:fd:87:f6:d9:cd:15:
                    e5:9c:3c:ec:7d:d0:50:e6:9f:4e:c2:75:ca:99:3a:
                    a2:4d:85:70:ad:51:d6:13:a4:5d:0e:69:f7:98:3a:
                    48:01:86:26:29:f8:8c:be:6b:23:cc:9e:00:c4:11:
                    2d:c2:bf:25:e2:12:0a:64:41:ad:a8:37:be:01:a8:
                    b7:77:f7:23:71:55:f2:67:30:e1:80:6f:48:ea:e3:
                    9a:be:b1:f9:52:0a:d4:38:4b:07:d7:8a:6c:86:54:
                    24:e7:01:c8:70:eb:b4:3f:5a:54:57:13:a0:d1:6d:
                    8b:a6:9b:bb:60:88:25:a1:f8:ce:7d:05:d6:52:2b:
                    6f:f4:14:e1:ed:6c:e4:00:1b:e6:1f:5c:f8:60:a7:
                    1e:f7:b7:90:9d:28:93:17:c9:5e:16:ed:9a:e9:68:
                    9f:af
                Exponent: 65537 (0x10001)
        X509v3 extensions:
            X509v3 Basic Constraints: 
                CA:TRUE
            X509v3 Subject Key Identifier: 
                0E:31:C1:0D:6C:94:E1:F0:D9:8C:C4:E4:A5:DF:FD:1C:CB:3B:CC:58
            X509v3 Authority Key Identifier: 
                keyid:0E:31:C1:0D:6C:94:E1:F0:D9:8C:C4:E4:A5:DF:FD:1C:CB:3B:CC:58
                DirName:/CN=web-platform-tests
                serial:01

            X509v3 Key Usage: 
                Certificate Sign
            X509v3 Extended Key Usage: 
                TLS Web Server Authentication
    Signature Algorithm: sha256WithRSAEncryption
         32:a7:f6:ff:bd:ce:59:2c:93:94:e9:a1:57:87:7c:01:82:20:
         d6:25:6a:09:05:f6:74:d5:3f:37:78:a9:f9:5c:f6:3c:14:e6:
         5c:1e:96:74:9e:46:b8:5f:3b:88:bc:18:3c:c4:f6:68:e0:79:
         92:55:7c:c9:5b:b2:88:1e:77:54:ad:bc:e3:43:cb:2c:4c:f2:
         04:4d:06:b4:b2:1b:32:07:06:de:e8:b6:d1:fb:c6:b2:c5:45:
         fa:30:46:df:49:22:a8:ea:c5:0c:a1:ee:c2:fc:29:49:12:89:
         76:44:2f:92:53:cf:d3:5c:a0:3a:82:99:cd:1e:47:2f:98:2a:
         eb:64:98:db:b5:94:4f:cf:1c:0f:88:cb:fb:98:7a:cd:a7:5d:
         2d:57:99:4d:52:65:49:c8:9a:da:59:f3:d0:d3:75:c9:1b:9c:
         c6:8d:8a:f1:d5:29:63:f4:53:00:81:e0:19:8c:89:f3:f9:02:
         ad:44:48:0e:cd:fd:66:79:fc:25:c0:07:07:86:1c:24:98:37:
         72:fc:74:b5:7f:12:cd:08:27:70:d1:ce:01:01:01:16:ea:4b:
         bf:dd:3a:65:77:31:20:db:9e:1f:82:ae:ac:9c:5b:47:0e:b2:
         41:c0:b2:82:ba:59:aa:94:b8:c1:31:f5:07:56:76:94:60:f5:
         64:13:48:52
-----BEGIN CERTIFICATE-----
MIIDTzCCAjegAwIBAgIBATANBgkqhkiG9w0BAQsFADAdMRswGQYDVQQDDBJ3ZWIt
cGxhdGZvcm0tdGVzdHMwHhcNMTUwMTI3MDkyNzQwWhcNMTUwMjI2MDkyNzQwWjAd
MRswGQYDVQQDDBJ3ZWItcGxhdGZvcm0tdGVzdHMwggEiMA0GCSqGSIb3DQEBAQUA
A4IBDwAwggEKAoIBAQCy06LYzZOCT4d0SzV3I+/Ui/itANrNZj8PXRd1RNDug8qM
c/RVIKSShUDkol9ZUHWJR1BzZtdAqqPLJsoMsJSOPy7H4lOu0cQ/xdhU1ycstvCf
GAYwud7EPW17YoTzWjm0gf2H9tnNFeWcPOx90FDmn07CdcqZOqJNhXCtUdYTpF0O
afeYOkgBhiYp+Iy+ayPMngDEES3CvyXiEgpkQa2oN74BqLd39yNxVfJnMOGAb0jq
45q+sflSCtQ4SwfXimyGVCTnAchw67Q/WlRXE6DRbYumm7tgiCWh+M59BdZSK2/0
FOHtbOQAG+YfXPhgpx73t5CdKJMXyV4W7ZrpaJ+vAgMBAAGjgZkwgZYwDAYDVR0T
BAUwAwEB/zAdBgNVHQ4EFgQUDjHBDWyU4fDZjMTkpd/9HMs7zFgwRQYDVR0jBD4w
PIAUDjHBDWyU4fDZjMTkpd/9HMs7zFihIaQfMB0xGzAZBgNVBAMMEndlYi1wbGF0
Zm9ybS10ZXN0c4IBATALBgNVHQ8EBAMCAgQwEwYDVR0lBAwwCgYIKwYBBQUHAwEw
DQYJKoZIhvcNAQELBQADggEBADKn9v+9zlksk5TpoVeHfAGCINYlagkF9nTVPzd4
qflc9jwU5lwelnSeRrhfO4i8GDzE9mjgeZJVfMlbsoged1StvONDyyxM8gRNBrSy
GzIHBt7ottH7xrLFRfowRt9JIqjqxQyh7sL8KUkSiXZEL5JTz9NcoDqCmc0eRy+Y
KutkmNu1lE/PHA+Iy/uYes2nXS1XmU1SZUnImtpZ89DTdckbnMaNivHVKWP0UwCB
4BmMifP5Aq1ESA7N/WZ5/CXABweGHCSYN3L8dLV/Es0IJ3DRzgEBARbqS7/dOmV3
MSDbnh+CrqycW0cOskHAsoK6WaqUuMEx9QdWdpRg9WQTSFI=
-----END CERTIFICATE-----
