Certificate:
    Data:
        Version: 3 (0x2)
        Serial Number: 2 (0x2)
        Signature Algorithm: sha256WithRSAEncryption
        Issuer: CN=web-platform-tests
        Validity
            Not Before: Mar  6 02:47:26 2015 GMT
            Not After : Apr  5 02:47:26 2015 GMT
        Subject: CN=localhost
        Subject Public Key Info:
            Public Key Algorithm: rsaEncryption
            RSA Public Key: (2048 bit)
                Modulus (2048 bit):
                    00:d0:4d:a0:9d:12:39:8b:52:d8:60:1a:2f:ad:0f:
                    db:56:4a:86:61:e3:6c:f1:8e:59:9b:65:f8:a5:18:
                    21:73:05:87:ea:d8:49:f4:bb:85:9c:f6:78:4c:e5:
                    35:19:2e:20:5a:a2:ed:11:67:4a:5a:be:b1:55:2e:
                    83:91:c7:94:ee:b1:b8:00:2f:34:42:c5:ee:37:84:
                    69:5c:80:1b:f4:b0:1d:69:c8:9a:b1:d1:9a:ea:47:
                    11:0d:d3:f7:ca:57:35:0b:07:53:2f:cc:b3:87:dc:
                    ed:66:48:70:1a:86:95:65:be:f9:64:74:2d:7b:c5:
                    73:db:9b:e5:f4:04:ea:7f:a5:90:60:12:1e:2c:ef:
                    04:61:2d:79:8c:df:2e:f0:30:9a:be:f6:8d:1f:ab:
                    36:70:13:19:79:01:8e:3d:1b:c7:d2:39:53:d0:5a:
                    0d:d5:f5:03:df:1f:3b:a7:96:21:85:fa:e4:95:5a:
                    39:78:fa:af:ce:9d:de:de:9c:5b:4b:00:87:9a:0e:
                    0b:08:87:e6:8e:95:0b:47:ff:ce:7d:d6:34:04:bb:
                    d7:31:af:c8:76:db:89:e9:f1:ed:ce:6e:cf:64:78:
                    82:8a:0f:15:17:1c:73:cd:ba:2e:16:61:58:c7:bb:
                    0c:27:9c:c1:80:9b:75:e9:98:a3:e6:e5:80:c1:dc:
                    47:c5
                Exponent: 65537 (0x10001)
        X509v3 extensions:
            X509v3 Basic Constraints: 
                CA:FALSE
            X509v3 Subject Key Identifier: 
                31:CE:2F:B4:8D:F8:09:33:5F:C6:E7:6B:39:C6:C8:EE:8D:40:08:23
            X509v3 Authority Key Identifier: 
                keyid:A8:E4:4B:32:2E:48:E8:EC:5C:0E:40:F9:9D:C6:B0:D0:59:1E:86:23

            X509v3 Key Usage: 
                Digital Signature, Non Repudiation, Key Encipherment
            X509v3 Extended Key Usage: 
                TLS Web Server Authentication
            X509v3 Subject Alternative Name: 
                DNS:localhost, DNS:www.localhost, DNS:xn--n8j6ds53lwwkrqhv28a.localhost, DNS:xn--lve-6lad.localhost, DNS:www2.localhost, DNS:www1.localhost
    Signature Algorithm: sha256WithRSAEncryption
        54:f1:f8:f3:7f:dc:fc:10:67:6a:d1:1f:68:c8:11:7f:b6:7a:
        5d:62:1d:34:db:60:d0:f4:28:b9:74:9c:9d:9d:8d:f0:50:89:
        87:a6:23:2e:da:f3:f3:bf:0c:56:05:a5:7a:39:00:77:93:ab:
        68:ff:98:1d:9c:83:e2:b5:ab:a4:d8:b9:96:f0:d4:e6:68:4f:
        d8:e8:01:8f:c9:95:5c:41:88:16:d7:e0:8f:f9:5e:a4:eb:8b:
        95:2d:3c:b3:fc:0b:eb:b5:6b:a2:bb:6f:bf:1e:09:33:9c:af:
        93:e8:98:16:5e:f6:87:71:21:0c:0d:2c:57:17:00:1a:dc:dd:
        f4:1c:4a:15:18:34:cf:4d:13:7a:11:52:48:37:4f:0f:00:50:
        45:18:af:66:99:72:a5:28:13:ea:d4:45:c6:e3:19:e3:30:45:
        4a:72:7c:5a:88:68:4f:5d:f6:e5:1c:c3:30:49:a5:ba:e4:33:
        3b:2a:9c:1d:94:8e:3c:41:06:99:17:36:04:56:d7:24:4e:75:
        25:a8:ae:14:5a:a5:82:a2:2e:c8:76:00:0b:86:5c:5d:2f:b5:
        49:e3:24:09:e8:67:8b:48:6b:b6:95:da:57:c6:50:c0:24:95:
        54:14:24:08:62:38:da:d3:c6:63:87:cf:82:c1:35:ab:16:a6:
        17:03:5c:a9
-----BEGIN CERTIFICATE-----
MIIDnTCCAoWgAwIBAgIBAjANBgkqhkiG9w0BAQsFADAdMRswGQYDVQQDDBJ3ZWIt
cGxhdGZvcm0tdGVzdHMwHhcNMTUwMzA2MDI0NzI2WhcNMTUwNDA1MDI0NzI2WjAU
MRIwEAYDVQQDDAlsb2NhbGhvc3QwggEiMA0GCSqGSIb3DQEBAQUAA4IBDwAwggEK
AoIBAQDQTaCdEjmLUthgGi+tD9tWSoZh42zxjlmbZfilGCFzBYfq2En0u4Wc9nhM
5TUZLiBaou0RZ0pavrFVLoORx5TusbgALzRCxe43hGlcgBv0sB1pyJqx0ZrqRxEN
0/fKVzULB1MvzLOH3O1mSHAahpVlvvlkdC17xXPbm+X0BOp/pZBgEh4s7wRhLXmM
3y7wMJq+9o0fqzZwExl5AY49G8fSOVPQWg3V9QPfHzunliGF+uSVWjl4+q/Ond7e
nFtLAIeaDgsIh+aOlQtH/8591jQEu9cxr8h224np8e3Obs9keIKKDxUXHHPNui4W
YVjHuwwnnMGAm3XpmKPm5YDB3EfFAgMBAAGjgfAwge0wCQYDVR0TBAIwADAdBgNV
HQ4EFgQUMc4vtI34CTNfxudrOcbI7o1ACCMwHwYDVR0jBBgwFoAUqORLMi5I6Oxc
DkD5ncaw0FkehiMwCwYDVR0PBAQDAgXgMBMGA1UdJQQMMAoGCCsGAQUFBwMBMH4G
A1UdEQR3MHWCCWxvY2FsaG9zdIINd3d3LmxvY2FsaG9zdIIheG4tLW44ajZkczUz
bHd3a3JxaHYyOGEubG9jYWxob3N0ghZ4bi0tbHZlLTZsYWQubG9jYWxob3N0gg53
d3cyLmxvY2FsaG9zdIIOd3d3MS5sb2NhbGhvc3QwDQYJKoZIhvcNAQELBQADggEB
AFTx+PN/3PwQZ2rRH2jIEX+2el1iHTTbYND0KLl0nJ2djfBQiYemIy7a8/O/DFYF
pXo5AHeTq2j/mB2cg+K1q6TYuZbw1OZoT9joAY/JlVxBiBbX4I/5XqTri5UtPLP8
C+u1a6K7b78eCTOcr5PomBZe9odxIQwNLFcXABrc3fQcShUYNM9NE3oRUkg3Tw8A
UEUYr2aZcqUoE+rURcbjGeMwRUpyfFqIaE9d9uUcwzBJpbrkMzsqnB2UjjxBBpkX
NgRW1yROdSWorhRapYKiLsh2AAuGXF0vtUnjJAnoZ4tIa7aV2lfGUMAklVQUJAhi
ONrTxmOHz4LBNasWphcDXKk=
-----END CERTIFICATE-----
