single module:__ZN5khtml16CSSStyleSelector16checkOneSelectorEPN3DOM11CSSSelectorEPNS1_11ElementImplE
single module:__ZNK3DOM11ElementImpl12getAttributeEj
single module:__ZN5khtml16CSSStyleSelector13checkSelectorEiPN3DOM11ElementImplE
single module:__ZN5khtml12RenderObject14setNeedsLayoutEb
single module:__ZNK5khtml12RenderObject9containerEv
single module:__ZN5khtml16CSSStyleSelector15styleForElementEPN3DOM11ElementImplE
single module:__ZNK13KWQFontFamily11getNSFamilyEv
single module:__ZN3DOM9DOMStringD4Ev
single module:__ZN3DOM9DOMStringD1Ev
single module:__ZN5khtml11isBreakableEPK5QCharii
single module:__ZN5khtml10RenderText11paintObjectEP8QPainteriiiiii11PaintAction
single module:__ZNK3DOM12DocumentImpl15documentElementEv
single module:__ZNK19KWQListIteratorImpl7currentEv
single module:__ZN5khtml11RenderBlock17findNextLineBreakERNS_12BidiIteratorE
single module:__ZN3DOM10strcasecmpERKNS_9DOMStringES2_
single module:__ZN5khtml11RenderBlock11paintObjectEP8QPainteriiiiii11PaintAction
single module:__ZN5khtml20CSSStyleSelectorList7collectEP8QPtrListIN3DOM11CSSSelectorEEPNS_22CSSOrderedPropertyListENS_6SourceES8_
single module:__ZN7QStringD4Ev
single module:__ZNK5khtml12RenderObject6isRootEv
single module:__Znwm
single module:__ZNK13KWQFontFamilyeqERKS_
single module:__ZN5khtml12RenderInline11paintObjectEP8QPainteriiiiii11PaintAction
single module:__ZNK3DOM12NodeBaseImpl10firstChildEv
single module:__ZNK3DOM16NamedAttrMapImpl16getAttributeItemEj
single module:__ZNK12QFontMetrics10floatWidthEPK5QChariiiiib
single module:__ZNK3DOM9DOMString6lengthEv
single module:__ZNK3DOM8NodeImpl16traverseNextNodeEPS0_
single module:__ZN3DOM12NodeBaseImpl27dispatchChildInsertedEventsEPNS_8NodeImplERi
single module:__ZN5khtml16CSSStyleSelector9applyRuleEiPN3DOM12CSSValueImplE
single module:__ZNK12KWQArrayImpl2atEm
single module:__ZN5khtml11RenderBlock19layoutBlockChildrenEb
single module:__ZN5khtml11RenderBlock22insertPositionedObjectEPNS_12RenderObjectE
single module:__ZdlPv
single module:__ZNK11KWQListImpl7currentEv
single module:__ZN11KWQListImpl4nextEv
single module:__ZN5khtml11RenderBlock5paintEP8QPainteriiiiii11PaintAction
single module:__ZNK3DOM11ElementImpl8nodeTypeEv
single module:__ZN8QPainter8drawTextEiiPK5QChariiiiRK6QColorNS_13TextDirectionEiib
single module:__ZNK3DOM11ElementImpl10defaultMapEv
single module:__ZN5khtml11RenderLayer14constructZTreeE5QRectS1_PS0_bii
single module:__ZN5khtml10RenderFlow28paintLineBoxBackgroundBorderEP8QPainteriiiiii11PaintAction
single module:__ZN5khtml18RenderTableSection5paintEP8QPainteriiiiii11PaintAction
single module:__ZN3DOM11CSSSelectoreqERKS0_
single module:__ZN5khtml10RenderText15calcMinMaxWidthEv
single module:__ZN3DOM9CSSParser3lexEPv
single module:__ZN13KWQStringDataD1Ev
single module:__ZN13KWQStringDataD4Ev
single module:__ZN5khtml11RenderBlock15bidiReorderLineERKNS_12BidiIteratorES3_
single module:__ZN11KWQListImpl6insertEjPKv
single module:__ZN3DOM8NodeImpl20insertedIntoDocumentEv
single module:__ZN5khtml22getBorderPaddingMarginEPNS_12RenderObjectEb
single module:__ZN5khtml10RenderFlow23paintLineBoxDecorationsEP8QPainteriiiiii11PaintAction
single module:__Z10cssyyparsePv
single module:__ZN19KWQListIteratorImplppEv
single module:__ZN5khtml11RenderBlock21calcInlineMinMaxWidthEv
single module:__ZN3DOM23CSSStyleDeclarationImpl14removePropertyEib
single module:__ZNK3DOM12DocumentImpl14getElementByIdERKNS_9DOMStringE
single module:__ZN13KWQStringDataC1Ev
single module:__ZN13KWQStringDataC4Ev
single module:__ZN11KWQListImpl5clearEb
single module:__ZN7QStringC4Ev
single module:__ZN7QStringD1Ev
single module:__Z14allocateHandlev
single module:__ZN3DOM9DOMStringC1EPNS_13DOMStringImplE
single module:__ZN3DOM9DOMStringC4EPNS_13DOMStringImplE
single module:__ZNK5khtml10RenderFlow17rightmostPositionEb
single module:__ZN5khtml10RenderText5paintEP8QPainteriiiiii11PaintAction
single module:__ZNK5khtml12RenderObject11paddingLeftEv
single module:__ZN7QStringC4ERKS_
single module:__Znam
single module:__ZNK5khtml9RenderBox12contentWidthEv
single module:__ZNK5khtml4Font5widthEP5QChariii
single module:__ZN5khtml11RenderLayer19updateLayerPositionEv
single module:__ZN7QStringC4EPK5QCharj
single module:__ZNK5khtml12RenderObject12paddingRightEv
single module:__ZNK5khtml9RenderBox6heightEv
single module:__ZNK7QString8containsERKS_b
single module:__ZNK5QFonteqERKS_
single module:__Z9ucstrncmpPK5QCharS1_i
single module:__ZN5khtml12RenderInline5paintEP8QPainteriiiiii11PaintAction
single module:__ZN3DOM8NodeImpl22createRendererIfNeededEv
single module:__ZNK5khtml9RenderBox5widthEv
single module:__ZNK3DOM18HTMLDivElementImpl2idEv
single module:__ZN5QRectC1Eiiii
single module:__ZN5QRectC4Eiiii
single module:__ZN5khtml11RenderBlock20layoutInlineChildrenEb
single module:__ZN7QStringaSERKS_
single module:__ZN3DOMeqERKNS_9DOMStringES2_
single module:__ZN11KHTMLParser10parseTokenEPN5khtml5TokenE
single module:__ZNK4QPen5colorEv
single module:__ZN13HTMLTokenizer12processTokenEv
single module:__ZN11KHTMLParser10insertNodeEPN3DOM8NodeImplEb
single module:__ZN13HTMLTokenizer8parseTagERN5khtml11DOMStringItE
single module:__ZN5khtml22getBorderPaddingMarginEPNS_12RenderObjectEb
single module:__ZNK5khtml12RenderObject11renderArenaEv
single module:__ZNK5khtml11RenderBlock11floatBottomEv
single module:__ZNK5QRect9intersectERKS_
single module:__ZNK3DOM8NodeImpl10firstChildEv
single module:__ZN5khtml11getBPMWidthEiNS_6LengthE
single module:__ZNK5khtml12RenderObject15containingBlockEv
single module:__ZNK5khtml11RenderBlock17rightmostPositionEb
single module:__ZN11KWQListImpl6appendEPKv
single module:__ZN5khtml13InlineFlowBox20placeBoxesVerticallyEiiibRiS1_
single module:__ZN5khtml20InlineMinMaxIterator4nextEv
single module:__ZNK3DOM9DOMString4findE5QChari
single module:__ZNK5khtml12RenderObject20verticalPositionHintEb
single module:__ZNK3DOM21HTMLAnchorElementImpl2idEv
single module:__ZN11RenderArena8allocateEm
single module:__ZN3DOM8NodeImpl10setChangedEb
single module:__ZNK5khtml12RenderObject10lineHeightEb
single module:__ZdaPv
single module:__ZN8QPainter15_updateRendererEPP8NSString
single module:__Z22_initializeHandleNodesv
single module:__Z13_allocateNodeP14HandlePageNode
single module:__ZN3DOM12NodeBaseImpl8addChildEPNS_8NodeImplE
single module:__ZN3DOM21CSSPrimitiveValueImpl8getIdentEv
single module:__ZN3DOM11ElementImpl12childAllowedEPNS_8NodeImplE
single module:__ZNK5khtml10RenderText5widthEjjPKNS_4FontE
single module:__Z10freeHandlePv
single module:__ZN7QStringC1ERKS_
single module:__ZN7QString5derefEv
single module:__ZN7QString6detachEv
single module:__ZN13HTMLTokenizer5writeERK7QStringb
single module:__ZNK12KWQArrayImpl4sizeEv
single module:__ZN3DOM11ElementImpl11recalcStyleENS_8NodeImpl11StyleChangeE
single module:__ZN7QString10setUnicodeEPK5QCharj
single module:__ZN5khtml11RenderStyle14getPseudoStyleENS0_8PseudoIdE
single module:__ZN9KHTMLPart7jScriptEv
single module:__ZN11KHTMLParser10getElementEPN5khtml5TokenE
single module:__ZN5khtml9RenderBox19calcVerticalMarginsEv
single module:__ZN5khtml8BidinextEPNS_12RenderObjectES1_bPb
single module:__ZNK12QFontMetrics6ascentEv
single module:__ZN9KHTMLView16scheduleRelayoutEPN5khtml12RenderObjectE
single module:__ZN5khtml9RenderBox19paintBoxDecorationsEP8QPainteriiiiii
single module:__ZN3DOM9CSSParser10parseValueEPNS_23CSSStyleDeclarationImplEiRKNS_9DOMStringEbb
single module:__ZN3DOM21CSSPrimitiveValueImpl18computeLengthFloatEPN5khtml11RenderStyleEP19QPaintDeviceMetrics
single module:__ZN5khtml13InlineFlowBox24computeLogicalBoxHeightsERiS1_S1_S1_b
single module:__ZNK5khtml12RenderObject19getVerticalPositionEb
single module:__Z8cssyylexP7YYSTYPE
single module:__ZN3DOM9CSSParser3lexEv
single module:__ZN3DOM9CSSParser4textEPi
single module:__ZN11KWQListImplD4Ev
single module:__ZN5khtml9RenderBox8setStyleEPNS_11RenderStyleE
single module:__ZNK3DOM21CSSPrimitiveValueImpl12cssValueTypeEv
single module:__ZN5khtml12RenderObject16scheduleRelayoutEPS0_
single module:__ZN3DOM21CSSPrimitiveValueImpl13computeLengthEPN5khtml11RenderStyleEP19QPaintDeviceMetrics
single module:__ZNK12QFontMetrics6heightEv
single module:__ZNK8QPainter3penEv
single module:__ZN5khtml11RenderImage11paintObjectEP8QPainteriiiiii11PaintAction
single module:__ZNK3DOM9DOMString7unicodeEv
single module:__ZN5khtml16CSSStyleSelector10buildListsEv
single module:__ZNK5khtml10RenderFlow14lowestPositionEb
single module:__ZN5khtml11RenderLayer5paintEP8QPainteriiiib
single module:__ZN3DOM8NodeImpl20dispatchGenericEventEPNS_9EventImplERi
single module:__ZNK3DOM23HTMLTableRowElementImpl2idEv
single module:__ZNK5QRect10intersectsERKS_
single module:__ZNK5khtml12TextRunArray17findFirstMatchingEPv
single module:__ZNK5khtml4Font8drawTextEP8QPainteriiP5QChariiiiNS1_13TextDirectionEii6QColor
single module:__ZN7QString20makeSharedNullHandleEv
single module:__ZNK5khtml11RenderBlock14lowestPositionEb
single module:__ZN5khtml12RenderObject11nodeAtPointERNS0_8NodeInfoEiiiib
single module:__ZN3KJS10WindowFunc7tryCallEPNS_9ExecStateERNS_6ObjectERKNS_4ListE
single module:__ZN5khtml9RenderBox6setPosEii
single module:__ZN5khtml11RenderBlock11layoutBlockEb
single module:__ZN5khtml11RenderLayer15RenderZTreeNodenwEmP11RenderArena
single module:__ZN5khtml11RenderTable5paintEP8QPainteriiiiii11PaintAction
single module:__ZN7QStringC1Ev
single module:__ZN11KWQListImpl2atEj
single module:__ZN3DOM23CSSStyleDeclarationImpl11setPropertyEiRKNS_9DOMStringEbb
single module:__ZNK3DOM20HTMLImageElementImpl2idEv
single module:__ZN5khtml11inlineWidthEPNS_12RenderObjectEbb
single module:__ZNK5khtml10RenderText4xPosEv
single module:__ZN3DOM9CSSParser10parseValueEib
single module:__ZN5khtml9RenderBox9calcWidthEv
single module:__ZNK5khtml12RenderObject10paddingTopEv
single module:__ZNK3DOM20HTMLTableElementImpl2idEv
single module:__ZN3DOM8TextImpl11recalcStyleENS_8NodeImpl11StyleChangeE
single module:__ZN5khtml15RenderTableCell19paintBoxDecorationsEP8QPainteriiiiii
single module:__ZN5khtml11getBPMWidthEiNS_6LengthE
single module:__ZN7QStringC4EPKc
single module:__ZN5khtml15RenderContainer17insertPseudoChildENS_11RenderStyle8PseudoIdEPNS_12RenderObjectE
single module:__ZN5khtml16CSSStyleSelector21addInlineDeclarationsEPN3DOM11ElementImplEPNS1_23CSSStyleDeclarationImplEj
single module:__ZNK5khtml12RenderObject16baselinePositionEb
single module:__ZNK5khtml10RenderText16baselinePositionEb
single module:__ZN19KWQListIteratorImplD1Ev
single module:__ZN19KWQListIteratorImplD4Ev
single module:__ZNK11KWQListImpl11addIteratorEP19KWQListIteratorImpl
single module:__ZNK11KWQListImpl14removeIteratorEP19KWQListIteratorImpl
single module:__ZN13KWQStringData10initializeEPK5QCharj
single module:__ZN13HTMLTokenizer10addPendingEv
single module:__ZNK5khtml9RenderBox17rightmostPositionEb
single module:__ZN11RenderArena4freeEmPv
single module:__ZN5khtml10RenderText18trimmedMinMaxWidthERsRbS1_S2_S2_S2_S1_S1_S1_S1_S2_
single module:__ZN5khtml19appendRunsForObjectEiiPNS_12RenderObjectE
single module:__ZNK12QFontMetrics7descentEv
single module:__ZN5khtml13InlineFlowBox24paintBackgroundAndBorderEP8QPainteriiiiiii
single module:__ZN11KWQListImplC1EPFvPvE
single module:__ZN11KWQListImplC4EPFvPvE
single module:__ZN3DOM9DOMStringC4EPK5QCharj
single module:__ZN13KWQFontFamilyaSERKS_
single module:__ZN13KWQFontFamilyC4ERKS_
single module:__ZN11KWQListImpl6removeEb
single module:__ZN11QStringList5splitERK7QStringS2_b
single module:__ZNK6QColor10getNSColorEv
single module:__ZN5khtml11RenderLayer20convertToLayerCoordsEPS0_RiS2_
single module:__ZNK12QFontMetrics11lineSpacingEv
single module:__ZNK5khtml11RenderBlock9lineWidthEi
single module:__ZN4KURL5parseEPKcPK7QString
single module:__ZN5khtml15RenderContainer15appendChildNodeEPNS_12RenderObjectE
single module:__ZNK3KJS6Window3getEPNS_9ExecStateERKNS_10IdentifierE
single module:__ZNK5khtml10RenderText8htmlFontEb
single module:__ZN5khtml10RenderText10deleteRunsEP11RenderArena
single module:__ZN5khtml10RenderFlow15createInlineBoxEb
single module:__ZNK3DOM17HTMLBRElementImpl2idEv
single module:__ZN3KJS22DOMCSSStyleDeclaration6tryPutEPNS_9ExecStateERKNS_10IdentifierERKNS_5ValueEi
single module:__ZN19KWQListIteratorImplC1ERK11KWQListImpl
single module:__ZN19KWQListIteratorImplC4ERK11KWQListImpl
single module:__ZN5khtml12RenderObject8setStyleEPNS_11RenderStyleE
single module:__ZNK5QChar5lowerEv
single module:__ZN5khtml15RenderContainer8addChildEPNS_12RenderObjectES2_
single module:__ZN3DOM8NodeImpl10isReadOnlyEv
single module:__ZNK3DOM27HTMLTableSectionElementImpl2idEv
single module:__ZN5khtml15AutoTableLayout15calcMinMaxWidthEv
single module:__ZN5khtml15AutoTableLayout18calcEffectiveWidthEv
single module:__ZN5khtml13InlineFlowBox22placeBoxesHorizontallyEi
single module:__ZN5khtml11RenderLayer27enclosingPositionedAncestorEv
single module:__ZN13KWQStringData10initializeEPKcj
single module:__ZNK7QWidget7getViewEv
single module:__ZN4KURLC4ERK7QString
single module:__ZN3DOM9DOMStringC4ERK7QString
single module:__ZN7QStringC1EPK5QCharj
single module:__ZN5khtml16CSSStyleSelector10clearListsEv
single module:__ZN5khtml22CSSOrderedPropertyList6appendEPN3DOM23CSSStyleDeclarationImplEjjNS_6SourceES4_
single module:__ZN14QPtrCollectionD2Ev
single module:__ZN14QPtrCollectionD4Ev
single module:__ZNK9KHTMLPart14jScriptEnabledEv
single module:__ZN5khtml11RenderBlock14addChildToFlowEPNS_12RenderObjectES2_
single module:__ZN3DOM10checkChildEtt
single module:__ZN3DOM16NamedAttrMapImpl12addAttributeEPNS_13AttributeImplE
single module:__ZN5khtml9RenderBox14calcWidthUsingENS_9WidthTypeEiRNS_10LengthTypeE
single module:__ZN4QPenC1ERK6QColorjN2Qt8PenStyleE
single module:__ZN4QPenC4ERK6QColorjN2Qt8PenStyleE
single module:__ZN11KWQListImpl6removeEjb
single module:__ZNK19QPaintDeviceMetrics11logicalDpiYEv
single module:__ZNK5khtml10RenderText10lineHeightEb
single module:__ZN8QPainter6setPenERK4QPen
single module:__ZNK7QPixmap4rectEv
single module:__ZN5khtml7TextRun15paintDecorationEP8QPainteriii
single module:__ZN16KWQValueListImpl10appendNodeEP20KWQValueListNodeImpl
single module:__ZN16KWQValueListImpl11copyOnWriteEv
single module:__ZN5QRectC1Ev
single module:__ZN5QRectC4Ev
single module:__ZN5khtml8getTagIDEPKci
single module:__Z7findTagPKcj
single module:__ZN11KWQListImplD1Ev
single module:__ZN5khtml11RenderBlock15calcMinMaxWidthEv
single module:__ZN5khtml10RenderFlow15deleteLineBoxesEP11RenderArena
single module:__ZNK8QPainter6deviceEv
single module:__ZN5khtml9RenderBox23paintBackgroundExtendedEP8QPainterRK6QColorPNS_11CachedImageEiiiiiiii
single module:__ZN5khtml10RenderText15createInlineBoxEb
single module:__ZN5khtml12TextRunArray12compareItemsEPvS1_
single module:__ZNK8QPainter4fontEv
single module:__ZN3DOM11ElementImpl15setAttributeMapEPNS_16NamedAttrMapImplE
single module:__ZN11KHTMLParser8popBlockEi
single module:__ZN12KJSProxyImpl8evaluateE7QStringiRKS0_RKN3DOM4NodeE
single module:__ZNK3KJS6Window12isSafeScriptEPNS_9ExecStateE
single module:__ZN5khtml12RenderObject18recalcMinMaxWidthsEv
single module:__ZN5khtml9RenderBox15paintBackgroundEP8QPainterRK6QColorPNS_11CachedImageEiiiiii
single module:__ZN5khtml11RenderLayer15RenderZTreeNode6detachEP11RenderArena
single module:__ZNK5QFont9getNSFontEv
single module:__ZN5khtml15AutoTableLayout12recalcColumnEi
single module:__ZN5khtml15AutoTableLayout6layoutEv
single module:__ZN5khtml13InlineFlowBox23marginBorderPaddingLeftEv
single module:__ZN5khtml13InlineFlowBox24marginBorderPaddingRightEv
single module:__ZNK7QPixmap4sizeEv
single module:__ZN5khtml15RenderTableCell5paintEP8QPainteriiiiii11PaintAction
single module:__ZN3KJS10PluginBaseC4EPNS_9ExecStateE
single module:__ZN24KWQValueListIteratorImplC1EPK20KWQValueListNodeImpl
single module:__ZN24KWQValueListIteratorImplC4EPK20KWQValueListNodeImpl
single module:__ZN3DOM9CSSParser11addPropertyEiPNS_12CSSValueImplEb
single module:__ZN5khtml9getAttrIDEPKci
single module:__Z8findAttrPKcj
single module:__ZN5QFontaSERKS_
single module:__ZN3DOM8NodeImpl16rendererIsNeededEPN5khtml11RenderStyleE
single module:__ZN5khtml12RenderObject9addLayersEPNS_11RenderLayerEPS0_
single module:__ZNK3DOM13DOMStringImpl22containsOnlyWhitespaceEv
single module:__ZN11KHTMLParser11popOneBlockEb
single module:__ZNK5khtml12RenderObject13paddingBottomEv
single module:__ZN5khtml11RenderBlock23layoutPositionedObjectsEb
single module:__ZN5khtml11RenderLayer20subtractScrollOffsetERiS1_
single module:__ZN5khtml11RenderBlock11paintFloatsEP8QPainteriiiiiib
single module:__ZN19KWQListIteratorImplmmEv
single module:__ZN5khtml12RenderObject12createObjectEPN3DOM8NodeImplEPNS_11RenderStyleE
single module:__ZNK5khtml11RenderBlock10leftOffsetEv
single module:__ZN5khtml18RenderTableSection13calcRowHeightEv
single module:__ZN5khtml18RenderTableSection10layoutRowsEi
single module:__ZN5khtml11RenderBlock13constructLineERKNS_12BidiIteratorES3_
single module:__ZN5khtml9InlineBoxnwEmP11RenderArena
single module:__ZN8QPainter15drawLineForTextEiiii
single module:-[NSView(KWQExtensions) _KWQ_isScrollView]
single module:__ZNK11QScrollView13visibleHeightEv
single module:__ZN16KWQValueListImpl3endEv
single module:__ZN7QString12fromCFStringEPK10__CFString
single module:__ZNK7QString5lowerEv
single module:__ZN13KWQStringData9makeAsciiEv
single module:__ZNK7QString8toDoubleEPb
single module:__ZN5khtml12RenderObjectnwEmP11RenderArena
single module:__ZN5khtml11RenderBlock8setStyleEPNS_11RenderStyleE
single module:__ZN5khtml6Loader20servePendingRequestsEv
single module:__Z10ok_in_base5QChari
single module:__ZN5khtml5Cache12requestImageEPNS_9DocLoaderERKN3DOM9DOMStringEbl
single module:__ZN5khtml9appendRunEv
single module:__ZN5khtml7BidiRunnwEmP11RenderArena
single module:__ZN5khtml11RenderBlock15createLineBoxesEPNS_12RenderObjectE
single module:__ZN5khtml11RenderBlock33computeHorizontalPositionsForLineEPNS_13InlineFlowBoxEPNS_11BidiContextE
single module:__ZN5khtml13InlineFlowBox19getFlowSpacingWidthEv
single module:__ZNK5QRect7isValidEv
single module:__ZN13KWQFontFamilyC4Ev
single module:__ZN13KWQStringDataC1EPKcj
single module:__ZN13KWQStringDataC4EPKcj
single module:__ZNK11QScrollView12visibleWidthEv
single module:__Z22appendEscapingBadCharsRPcPKcm
single module:__ZNK7QString2atEj
single module:__ZN3DOM9DOMStringC1ERKS0_
single module:__ZN3DOM9DOMStringC4ERKS0_
single module:__ZN13KWQFontFamilyC1ERKS_
single module:__ZNK3DOM8TextImpl2idEv
single module:__ZNK5khtml9RenderBox14lowestPositionEb
single module:__ZNK11QScrollView9contentsXEv
single module:__ZNK11QScrollView9contentsYEv
single module:__ZNK7QString6toLongEPbi
single module:__ZN3DOM8TextImpl16rendererIsNeededEPN5khtml11RenderStyleE
single module:__ZNK5QFont12isFixedPitchEv
single module:__ZN5khtml7TextRunnwEmP11RenderArena
single module:__ZN5khtml13InlineFlowBox10marginLeftEv
single module:__ZN5khtml13InlineFlowBox11marginRightEv
single module:__ZNK5khtml10RenderText20verticalPositionHintEb
single module:__ZN5khtml7BidiRun6detachEP11RenderArena
single module:__ZN5khtml14RenderReplaced5paintEP8QPainteriiiiii11PaintAction
single module:__ZNK5khtml11CachedImage10valid_rectEv
single module:__ZN5khtml9InlineBox6detachEP11RenderArena
single module:__ZN5khtml11RenderTable10colElementEi
single module:__ZN3KJS13WindowQObject10timerEventEP11QTimerEvent
single module:+[WebCoreTextRendererFactory sharedFactory]
single module:__Z13KWQNamesMatchPKcS0_
single module:__ZN7KWQSlotC4EP7QObjectPKc
single module:__ZN7QString21setBufferFromCFStringEPK10__CFString
single module:__ZN16KWQValueListImpl5beginEv
single module:__ZNK16KWQValueListImpl5beginEv
single module:__ZN16KWQValueListImpl19KWQValueListPrivate10deleteListEP20KWQValueListNodeImpl
single module:__ZN3DOM12NodeBaseImplC4EPNS_11DocumentPtrE
single module:__ZN3DOM8NodeImplC2EPNS_11DocumentPtrE
single module:__ZN3DOM8NodeImplC4EPNS_11DocumentPtrE
single module:__ZNK5khtml4Font6updateEP19QPaintDeviceMetrics
single module:__ZN3DOM15HTMLElementImplC4EPNS_11DocumentPtrE
single module:__ZN3DOM11ElementImplC4EPNS_11DocumentPtrE
single module:__ZN5khtml10bubbleSortEPPNS_18CSSOrderedPropertyES2_
single module:__ZN3DOM11ElementImpl16childTypeAllowedEt
single module:__ZN3DOM12DocumentImpl11completeURLERK7QString
single module:__ZNK9KWQSignal4callEPN5khtml9DocLoaderEPNS0_12CachedObjectE
single module:__ZN5khtml9RenderBox10calcHeightEv
single module:__ZN5khtml11RenderBlock10checkClearEPNS_12RenderObjectE
single module:__ZN13KWQVectorImpl6insertEjPvb
single module:__ZneRK5QRectS1_
single module:__ZN12QConstStringC4EPK5QCharj
single module:__ZN19KWQListIteratorImpl6toLastEv
single module:__ZNK5khtml4Font5widthEP5QCharii
single module:__ZNK5khtml11RenderBlock11rightOffsetEv
single module:__ZN5khtml18RenderTableSection13setCellWidthsEv
single module:__ZNK5khtml10RenderText5widthEjjb
single module:__ZNK5khtml9RenderBox13contentHeightEv
single module:__ZNK5khtml11CachedImage11pixmap_sizeEv
single module:__ZN5khtml9RenderBox16repaintRectangleEiiiibb
single module:__ZNK5khtml10RenderText4yPosEv
single module:__ZN5khtml16checkPseudoStateEPN3DOM11ElementImplE
single module:__ZN5khtml7TextRun6detachEP11RenderArena
single module:__ZN16KWQValueListImplC4EPFvP20KWQValueListNodeImplEPFS1_S1_E
single module:__ZN20KWQValueListNodeImplC2Ev
single module:__ZN20KWQValueListNodeImplC4Ev
single module:__ZN5QFontC4Ev
single module:__ZNK9KHTMLPart10xmlDocImplEv
single module:__ZNK16KWQValueListImpl3endEv
single module:__ZN3DOM9DOMStringC1EPK5QCharj
single module:__Z8hash_tagPKcj
single module:__ZN5khtml15RenderContainerC4EPN3DOM8NodeImplE
single module:__ZN5QFontD4Ev
single module:__ZN3DOM8NodeImpl6attachEv
single module:__ZN12KWQArrayImpl6resizeEm
single module:__ZN3DOM8TextImplC4EPNS_11DocumentPtrERKNS_9DOMStringE
single module:__ZN3DOM17CharacterDataImplC4EPNS_11DocumentPtrERKNS_9DOMStringE
single module:__ZN3DOM8NodeImpl15childrenChangedEv
single module:__ZN11KHTMLParser9pushBlockEii
single module:__ZN3DOM11ElementImpl6attachEv
single module:__ZN3DOM12DocumentImpl21shouldCreateRenderersEv
single module:__ZNK5khtml15RenderContainer15canHaveChildrenEv
single module:__ZN5khtml12RenderObject14enclosingLayerEv
single module:__ZNK3DOM8TextImpl8nodeTypeEv
single module:__ZN3DOM8NodeImpl14maintainsStateEv
single module:__ZN3DOM8NodeImpl13closeRendererEv
single module:__Z11check_arraytPKt
single module:__ZN3KJS6Window18getJSEventListenerERKNS_5ValueEb
single module:__ZN3DOM16HTMLDocumentImpl4bodyEv
single module:__ZN3DOM7ElementD4Ev
single module:__ZN5khtml11RenderLayer18RenderLayerElementnwEmP11RenderArena
single module:__ZN5khtml11RenderLayer15RenderZTreeNode18constructLayerListEP10QPtrVectorINS0_18RenderLayerElementEES5_
single module:__ZN24CachedObjectClientWalker4nextEv
single module:__ZNK5QChar7isDigitEv
single module:__ZN5khtml11RenderBlock11nodeAtPointERNS_12RenderObject8NodeInfoEiiiib
single module:__ZN5khtml10RenderText8setStyleEPNS_11RenderStyleE
single module:__ZN5khtml10RenderText11cacheWidthsEv
single module:__ZN5khtml11RenderImage17updateFromElementEv
single module:__ZN3DOM20HTMLTableElementImpl14parseAttributeEPNS_13AttributeImplE
single module:__ZN5khtml18RenderTableSection7addCellEPNS_15RenderTableCellE
single module:__ZN5khtml15AutoTableLayout10fullRecalcEv
single module:__ZN5khtml11RenderBlock31computeVerticalPositionsForLineEPNS_13InlineFlowBoxE
single module:__ZNK7QPixmap6isNullEv
single module:__ZN5QSizeC1Eii
single module:__ZN5QSizeC4Eii
single module:__ZNK11KWQListImpl7getLastEv
single module:__ZN11KWQListImpl10removeLastEb
single module:__ZNK3KJS11HTMLElement6tryGetEPNS_9ExecStateERKNS_10IdentifierE
single module:__ZN3DOM19CSSStyleDeclaration11setPropertyERKNS_9DOMStringES3_S3_
single module:__ZN3KJS13WindowQObject14installTimeoutERKNS_7UStringEib
single module:__ZN3KJS13WindowQObject12clearTimeoutEib
single module:__ZN7QStringC1EPKc
single module:__ZN12KWQArrayImplC4Emm
single module:__ZN7QObject7connectEPKS_PKcS1_S3_
single module:__Z4qRgbiii
single module:__ZN13KWQStringDataC1EPK5QCharj
single module:__ZN13KWQStringDataC4EPK5QCharj
single module:__ZN3DOM4NodeD4Ev
single module:__ZNK7QString11getNSStringEv
single module:__ZN14KWQMapNodeImpl4leftEv
single module:__ZN16KWQValueListImplD4Ev
single module:__ZNK7QString6isNullEv
single module:__ZN3DOM21CSSPrimitiveValueImplC4EdNS_17CSSPrimitiveValue9UnitTypesE
single module:__ZN3DOM12CSSValueImplC2Ev
single module:__ZN3DOM12CSSValueImplC4Ev
single module:__Z9hash_attrPKcj
single module:__ZN5khtml20CSSStyleSelectorList6appendEPN3DOM17CSSStyleSheetImplERKNS1_9DOMStringE
single module:__ZN5khtml9RenderBoxC4EPN3DOM8NodeImplE
single module:__ZN5khtml12RenderObjectC2EPN3DOM8NodeImplE
single module:__ZN5khtml12RenderObjectC4EPN3DOM8NodeImplE
single module:__ZN5khtml11RenderStyleC4Ev
single module:__ZN5khtml18StyleInheritedDataC4ERKS0_
single module:__ZN5QFontC4ERKS_
single module:__ZN3DOM11ElementImpl14createRendererEP11RenderArenaPN5khtml11RenderStyleE
single module:__ZN3DOM8NodeImpl12nextRendererEv
single module:__ZN7QObject10startTimerEi
single module:__ZN5khtml15RenderContainer15insertChildNodeEPNS_12RenderObjectES2_
single module:__Z9addLayersPN5khtml12RenderObjectEPNS_11RenderLayerERS1_RS3_
single module:__ZN3DOM16NamedAttrMapImplC4EPNS_11ElementImplE
single module:__ZNK3DOM9DOMString6stringEv
single module:__ZN3DOM8TextImpl6attachEv
single module:__ZN11KHTMLParser15processCloseTagEPN5khtml5TokenE
single module:__ZN11KHTMLParser25isAffectedByResidualStyleEi
single module:__ZN3DOM10strcasecmpERKNS_9DOMStringEPKc
single module:__ZN3DOM15HTMLElementImpl14parseAttributeEPNS_13AttributeImplE
single module:__ZN4KURLC4ERKS_RK7QStringPK10QTextCodec
single module:__ZN3KJS7UStringC4ERK7QString
single module:__ZN3KJS11DOMFunction4callEPNS_9ExecStateERNS_6ObjectERKNS_4ListE
single module:__ZN9KHTMLView6layoutEv
single module:__ZN5khtml12RenderCanvas11paintObjectEP8QPainteriiiiii11PaintAction
single module:__ZN5khtml9RenderBox23paintRootBoxDecorationsEP8QPainteriiiiii
single module:__ZN5khtml11RenderLayer15RenderZTreeNodedlEPvm
single module:__ZN5khtml6Loader12slotFinishedEPN3KIO3JobE
single module:__ZN7QStringC4EP13KWQStringDatab
single module:__ZN9KHTMLView10timerEventEP11QTimerEvent
single module:__ZN3DOM15HTMLElementImpl12addCSSLengthEiRKNS_9DOMStringE
single module:__ZNK3DOM19HTMLBodyElementImpl2idEv
single module:__ZN3DOM8TextImpl14createRendererEP11RenderArenaPN5khtml11RenderStyleE
single module:__ZN5khtml10RenderTextC4EPN3DOM8NodeImplEPNS1_13DOMStringImplE
single module:__ZN5khtml9DocLoader12requestImageERKN3DOM9DOMStringE
single module:__ZN5khtml12RenderInline8setStyleEPNS_11RenderStyleE
single module:__ZNK3DOM19HTMLAreaElementImpl2idEv
single module:__ZN5khtml18RenderTableSection10ensureRowsEi
single module:__ZNK5khtml11RenderBlock13leftRelOffsetEiiPi
single module:__ZNK5khtml12RenderObject10hasStaticXEv
single module:__ZNK5khtml12RenderObject10hasStaticYEv
single module:__ZN5khtml11RenderTable6layoutEv
single module:__ZN5khtml6addRunEPNS_7BidiRunE
single module:__ZN5khtml10RenderText8positionEPNS_9InlineBoxEiib
single module:__ZN5khtml14deleteBidiRunsEP11RenderArena
single module:__ZN5khtml11CachedImage4dataER7QBufferb
single module:__ZNK5khtml11RenderImage17calcReplacedWidthEv
single module:__ZNK3DOM20HTMLInputElementImpl2idEv
single module:__ZN8QPainter10drawPixmapEiiRK7QPixmapiiii
single module:__ZN13KWQVectorImpl6removeEjb
single module:__ZN3DOM11HTMLElementaSERKNS_4NodeE
single module:__ZNK3KJS10DOMElement6tryGetEPNS_9ExecStateERKNS_10IdentifierE
single module:__ZN9KHTMLPart13executeScriptERKN3DOM4NodeERK7QStringb
single module:__ZN17KWQGuardedPtrBaseC4EP7QObject
single module:__ZN3DOM4NodeC4Ev
single module:__ZN9KWQSignal7connectERK7KWQSlot
single module:__ZN13KWQFontFamilyC1Ev
single module:__ZN11QColorGroupC4Ev
single module:__ZNK9KHTMLPart8settingsEv
single module:__ZN11QScrollView14resizeContentsEii
single module:__ZN7QStringC4EPKci
single module:__ZN4KURL13decode_stringERK7QString
single module:__ZNK11QScrollView15getDocumentViewEv
single module:__ZN3DOM12NodeBaseImplC2EPNS_11DocumentPtrE
single module:__ZNK12KWQArrayImpl4dataEv
single module:__ZN3DOM9DOMStringaSERKS0_
single module:__ZN3DOM13getPropertyIDEPKci
single module:__Z8findPropPKcj
single module:__ZN3DOM9ValueListC1Ev
single module:__ZN3DOM9ValueListC4Ev
single module:__ZN3DOM9ValueList8addValueERKNS_5ValueE
single module:__ZN3DOM9ValueListD1Ev
single module:__ZN3DOM9ValueListD4Ev
single module:__ZN3DOM9CSSParser22createStyleDeclarationEPNS_16CSSStyleRuleImplE
single module:__ZN3DOM9DOMStringC4EPKc
single module:__ZN5khtml16CSSStyleSelector19computeFontSizesForEP19QPaintDeviceMetricsiR10QValueListIiEb
single module:__ZN3DOM12DocumentImpl11recalcStyleENS_8NodeImpl11StyleChangeE
single module:__ZN5khtml11RenderStyleC1Ev
single module:__ZN13KWQFontFamily9setFamilyERK7QString
single module:__ZeqRK7QStringS1_
single module:__ZN3DOM12DocumentImpl18setDocumentChangedEb
single module:__ZN3DOM12NodeBaseImpl6attachEv
single module:__Z16encodingNameHashPKv
single module:__ZN7QStringC4E5QChar
single module:__ZN3DOM15HTMLElementImplC2EPNS_11DocumentPtrE
single module:__ZN3DOM11ElementImplC2EPNS_11DocumentPtrE
single module:__ZN3DOM11ElementImpl16styleForRendererEPN5khtml12RenderObjectE
single module:__ZN5khtml11RenderStyle11inheritFromEPKS0_
single module:__ZN5khtml10RenderFlow8addChildEPNS_12RenderObjectES2_
single module:__ZN11KHTMLParser18isResidualStyleTagEi
single module:__Z11crossDomainRK7QStringS1_
single module:__Z15KWQServeRequestPN5khtml6LoaderEPNS_7RequestEPN3KIO11TransferJobE
single module:__ZN5khtml5Cache17removeFromLRUListEPNS_12CachedObjectE
single module:__ZN5khtml5Cache13getLRUListForEPNS_12CachedObjectE
single module:__ZNK3DOM4Node6handleEv
single module:__ZN3KJS6Window8retrieveEP9KHTMLPart
single module:__ZN3DOM4NodeD2Ev
single module:__ZNK3KJS9DOMObject3getEPNS_9ExecStateERKNS_10IdentifierE
single module:__ZN3DOM7ElementC4Ev
single module:__ZN3DOM11HTMLElementD4Ev
single module:__ZN5khtml9DocLoader10needReloadERK4KURL
single module:__ZN5khtml12RenderCanvas6layoutEv
single module:__ZN5khtml11RenderBlock11clearFloatsEv
single module:__ZN12KWQKHTMLPart8rendererEv
single module:__ZN8QPainterC4Eb
single module:__ZN12KWQKHTMLPart5paintEP8QPainterRK5QRect
single module:__ZeqRK5QRectS1_
single module:__ZN12QConstStringD4Ev
single module:__ZNK5QChar10digitValueEv
single module:__ZN3DOM12DocumentImpl19recalcStyleSelectorEv
single module:__ZN5khtml11RenderBlock18isPointInScrollbarEiiii
single module:__ZNK5khtml12RenderObject11mouseInsideEv
single module:-[KWQObjectTimerTarget sendTimerEvent]
single module:__ZN3DOM11ElementImpl10createDeclEv
single module:__ZN3DOM23CSSStyleDeclarationImpl10setChangedEv
single module:__ZNK3DOM21CSSPrimitiveValueImpl7cssTextEv
single module:__ZplRK7QStringPKc
single module:__ZN5khtml12TextRunArrayC4Ev
single module:__ZNK5khtml10RenderText23shouldUseMonospaceCacheEPKNS_4FontE
single module:__ZN3DOM20HTMLImageElementImpl14parseAttributeEPNS_13AttributeImplE
single module:__ZN3DOM12NodeBaseImpl11appendChildEPNS_8NodeImplERi
single module:__ZNK9KWQSignal4callEv
single module:__ZN5khtml15RenderTableCell15calcMinMaxWidthEv
single module:__ZNK5khtml11RenderBlock14rightRelOffsetEiiPi
single module:__ZNK5khtml9RenderBox20containingBlockWidthEv
single module:__ZN5khtml13InlineFlowBox28determineSpacingForFlowBoxesEbPNS_12RenderObjectE
single module:__ZN5khtml13InlineFlowBox20verticallyAlignBoxesERi
single module:__ZNK5khtml10RenderText7metricsEb
single module:__ZN5khtml7BidiRundlEPvm
single module:__ZN5khtml11RenderTable14borderTopExtraEv
single module:__ZNK5QRect4sizeEv
single module:__ZN5khtml9InlineBoxdlEPvm
single module:__ZNK3KJS7UString7qstringEv
single module:__ZNK3DOM19HTMLFontElementImpl2idEv
single module:__ZN5khtml7TextRundlEPvm
single module:__ZNK3KJS11HTMLElement9classInfoEv
single module:__ZN3KJS25getDOMCSSStyleDeclarationEPNS_9ExecStateEN3DOM19CSSStyleDeclarationE
single module:__Z12jsNameToPropRKN3KJS10IdentifierE
single module:__ZN3DOM19CSSStyleDeclaration14removePropertyERKNS_9DOMStringE
single module:__ZN10KWQMapImpl19removeEqualInternalEP14KWQMapNodeImplb
single module:__ZN3KJS15ScheduledAction7executeEPNS_6WindowE
single module:__ZN7QObjectC4EPS_PKc
single module:__ZN14KWQMapNodeImplC2Ev
single module:__ZN14KWQMapNodeImplC4Ev
single module:__ZNK7QObject10findSignalEPKc
single module:__ZNK10__cxxabiv120__si_class_type_info12__do_dyncastEiNS_17__class_type_info10__sub_kindEPKS1_PKvS4_S6_RNS1_16__dyncast_resultE
single module:__ZNKSt9type_infoeqERKS_
single module:__ZN19KWQListIteratorImplC1ERKS_
single module:__ZN19KWQListIteratorImplC4ERKS_
single module:__ZN5QFontC1Ev
single module:__ZNK7QWidget13frameGeometryEv
single module:__ZNK16KWQValueListImpl9firstNodeEv
single module:__ZN24KWQValueListIteratorImplneERKS_
single module:__ZN18KWQMapIteratorImplC2Ev
single module:__ZN18KWQMapIteratorImplC4Ev
single module:__ZNK7QString3midEjj
single module:__ZNK7QString10startsWithERKS_
single module:__ZNK16KWQValueListImpl19KWQValueListPrivate8copyListEP20KWQValueListNodeImpl
single module:__ZN16KWQValueListImplD1Ev
single module:__ZN16KWQValueListImpl19KWQValueListPrivateD1Ev
single module:__ZN16KWQValueListImpl19KWQValueListPrivateD4Ev
single module:__ZN3DOM4NodeaSERKS0_
single module:__ZN13KWQStringData11makeUnicodeEv
single module:__ZN4KURLC1ERK7QString
single module:__ZNK7QString8containsEPKcb
single module:__ZN7QStringpLERKS_
single module:__ZN3DOM9DOMStringC1ERK7QString
single module:__ZN3DOM9CSSParserC1Eb
single module:__ZN3DOM9CSSParserC4Eb
single module:__Z9validUnitPN3DOM5ValueEib
single module:__ZN3DOM21CSSPrimitiveValueImplC1EdNS_17CSSPrimitiveValue9UnitTypesE
single module:__Z9findValuePKcj
single module:__ZN3DOM21CSSPrimitiveValueImplC4Ei
single module:__ZN3DOM13DOMStringImplC4EPKc
single module:__ZN11KWQListImpl5firstEv
single module:__ZN5khtml11RenderBlockC4EPN3DOM8NodeImplE
single module:__ZN5khtml9RenderBoxC2EPN3DOM8NodeImplE
single module:__ZN5khtml15RenderContainerC2EPN3DOM8NodeImplE
single module:__ZN5QFontC1ERKS_
single module:__ZN12QFontMetricsaSERKS_
single module:__ZN5QFontD1Ev
single module:__ZN12QFontMetrics7setFontERK5QFont
single module:__Z17buildDictionariesv
single module:__ZnamRKSt9nothrow_t
single module:__ZnwmRKSt9nothrow_t
single module:__ZN7QString9setLengthEj
single module:__ZNK5khtml11RenderStyleeqERKS0_
single module:__ZN3DOM8TextImplC1EPNS_11DocumentPtrERKNS_9DOMStringE
single module:__ZN3DOM17CharacterDataImplC2EPNS_11DocumentPtrERKNS_9DOMStringE
single module:__ZN3DOM12addForbiddenEiPt
single module:__ZN5khtml11RenderBlock21makeChildrenNonInlineEPNS_12RenderObjectE
single module:__ZNK3DOM17CharacterDataImpl22containsOnlyWhitespaceEv
single module:__ZN3DOM16NamedAttrMapImplC1EPNS_11ElementImplE
single module:__ZN3DOM16NamedNodeMapImplC2Ev
single module:__ZN3DOM16NamedNodeMapImplC4Ev
single module:__ZN3DOM15removeForbiddenEiPt
single module:__ZN11KHTMLParser23reopenResidualStyleTagsEP13HTMLStackElem
single module:__ZNK3DOM16NamedAttrMapImpl6lengthEv
single module:__ZN5khtml8parseURLERKN3DOM9DOMStringE
single module:__ZNK24KWQValueListIteratorImpl4nodeEv
single module:__ZNK7KWQSlot4callEPN5khtml9DocLoaderEPNS0_12CachedObjectE
single module:__ZN24KWQValueListIteratorImplppEv
single module:__ZN13KWQStringDataC1EP5QCharjj
single module:__ZN13KWQStringDataC4EP5QCharjj
single module:__ZN11QStringList5splitERK5QCharRK7QStringb
single module:__Z11GetCFStringRK7QString
single module:__ZN5khtml12CachedObject3refEPNS_18CachedObjectClientE
single module:__ZNK3KJS6Window11hasPropertyEPNS_9ExecStateERKNS_10IdentifierE
single module:__ZN3DOM4NodeC2Ev
single module:__ZNK14KWQPtrDictImpl4findEPv
single module:__ZN3DOM12DocumentImpl24updateDocumentsRenderingEv
single module:__Z11nowPrintingP13WebCoreBridge
single module:__ZN5khtml11RenderBlock20calcBlockMinMaxWidthEv
single module:-[WebCoreBridge drawRect:]
single module:-[WebCoreBridge drawRect:withPainter:]
single module:__ZN8QPainter8fillRectEiiiiRK6QBrush
single module:__ZN13KWQVectorImplC1EPFvPvE
single module:__ZN13KWQVectorImplC4EPFvPvE
single module:__ZN5khtml11RenderLayer18constructLayerListEPNS0_15RenderZTreeNodeEP10QPtrVectorINS0_18RenderLayerElementEE
single module:__ZNK5QRect7isEmptyEv
single module:__ZN5khtml11RenderLayer18positionScrollbarsERK5QRect
single module:__ZN5khtml11RenderLayer15paintScrollbarsEP8QPainteriiii
single module:__ZN5khtml11RenderLayer18RenderLayerElement6detachEP11RenderArena
single module:__ZN3DOM9CSSParserD1Ev
single module:__ZN3DOM9CSSParserD4Ev
single module:__ZN3DOM17CSSStyleSheetImpl9isLoadingEv
single module:__ZN9KHTMLPart14checkCompletedEv
single module:__ZN7QObject9killTimerEi
single module:__ZN11QScrollView14updateContentsERK5QRectb
single module:__ZN3DOM23CSSStyleDeclarationImpl17setLengthPropertyEiRKNS_9DOMStringEbbb
single module:__ZN3DOM13StyleBaseImpl10stylesheetEv
single module:__ZN12KJSProxyImpl22createHTMLEventHandlerE7QStringS0_
single module:__ZN3DOM8NodeImpl16styleForRendererEPN5khtml12RenderObjectE
single module:__ZN5khtml9RenderBox5closeEv
single module:__ZN10KWQMapImpl14insertInternalEP14KWQMapNodeImplb
single module:__ZN10KWQMapImpl11copyOnWriteEv
single module:__ZN14KWQMapNodeImpl5rightEv
single module:__ZN5khtml12RenderInline14addChildToFlowEPNS_12RenderObjectES2_
single module:__ZNK3DOM13DOMStringImpl5toIntEPb
single module:__ZN3DOM8NodeImpl13checkAddChildEPS0_Ri
single module:__ZN3DOM24HTMLTableCellElementImpl14parseAttributeEPNS_13AttributeImplE
single module:__ZN3DOM24HTMLTablePartElementImpl14parseAttributeEPNS_13AttributeImplE
single module:__ZN3DOM24HTMLTableCellElementImpl6attachEv
single module:__ZN7QObjectD4Ev
single module:__ZN5khtml12RenderInline15calcMinMaxWidthEv
single module:__ZN5khtml11RenderTable9calcWidthEv
single module:__ZN5khtml5firstEPNS_12RenderObjectEb
single module:__ZN7QPixmap12receivedDataERK9QMemArrayIcEb
single module:__ZN5khtml11CachedImage9do_notifyERK7QPixmapRK5QRect
single module:__ZN5khtml11RenderImage9setPixmapERK7QPixmapRK5QRectPNS_11CachedImageE
single module:__ZNK3DOM19HTMLFormElementImpl2idEv
single module:__ZN5khtml11RenderTable12appendColumnEi
single module:__ZN5khtml14RenderReplaced15calcMinMaxWidthEv
single module:__ZNK7QPixmap5widthEv
single module:__ZNK7QPixmap6heightEv
single module:__ZN5khtml9cleanpathER7QString
single module:__ZNK7QString4findEPKcib
single module:__ZNK6KParts15HistoryProvider8containsERK7QString
single module:__ZN5khtml13InlineFlowBox16nextOnLineExistsEv
single module:__ZN5khtml9RenderBox22relativePositionOffsetERiS1_
single module:__ZN3DOM7ElementaSERKNS_4NodeE
single module:__ZN5khtml12RenderObject23getTextDecorationColorsEiR6QColorS2_S2_b
single module:__ZN10KWQMapImpl11endInternalEv
single module:__ZN3KJS15ScheduledActionD4Ev
single module:__ZN9KWQSignalC4EP7QObjectPKc
single module:__ZN16KWQValueListImplC1EPFvP20KWQValueListNodeImplEPFS1_S1_E
single module:__ZN16KWQValueListImpl19KWQValueListPrivateC1EPFvP20KWQValueListNodeImplEPFS2_S2_E
single module:__ZN16KWQValueListImpl19KWQValueListPrivateC4EPFvP20KWQValueListNodeImplEPFS2_S2_E
single module:__ZN19KWQListIteratorImplaSERKS_
single module:__ZN12KWQArrayImplC1Emm
single module:__ZN12KWQArrayImpl15KWQArrayPrivateC1Emm
single module:__ZN12KWQArrayImpl15KWQArrayPrivateC4Emm
single module:___dynamic_cast
single module:__ZN11KWQListImpl7prependEPKv
single module:__ZN7QString12fromNSStringEP8NSString
single module:_KWQLog
single module:__ZNK7QWidget12getOuterViewEv
single module:__ZN5QRectC1ERK7_NSRect
single module:__ZN5QRectC4ERK7_NSRect
single module:__ZN6QPointC1Eii
single module:__ZN6QPointC4Eii
single module:__ZN7QWidget16setFrameGeometryERK5QRect
single module:__ZNK5QRectcv7_NSRectEv
single module:__ZN3KIO11TransferJob11addMetaDataERK7QStringS3_
single module:__ZNK4KURL4hostEv
single module:__ZNK7QString4leftEj
single module:__ZN16KWQValueListImpl19KWQValueListPrivateC4ERKS0_
single module:__ZN12KWQArrayImplD1Ev
single module:__ZN12KWQArrayImplD4Ev
single module:__ZN3DOM12DocumentImplC4EPNS_21DOMImplementationImplEP9KHTMLView
single module:__ZN5khtml16CSSStyleSelectorC4EPN3DOM12DocumentImplE7QStringPNS1_18StyleSheetListImplERK4KURLb
single module:__Z9hash_propPKcj
single module:__Z8hash_valPKcj
single module:__ZN3DOM21CSSPrimitiveValueImplC1Ei
single module:__ZN3DOM9CSSParser12parse4ValuesEPKib
single module:__ZN3DOM9CSSParser15parseFontFamilyEv
single module:__ZN3DOM19FontFamilyValueImplC4ERK7QString
single module:__ZN3DOM9DOMStringC1EPKc
single module:__ZN3DOM13DOMStringImplC1EPKc
single module:__ZN3DOM11CSSSelector11specificityEv
single module:__ZNK3DOM11CSSSelector17extractPseudoTypeEv
single module:__ZN12QFontMetricsC1Ev
single module:__ZN12QFontMetricsC4Ev
single module:__Z11hashQStringPKv
single module:__ZNK7QString4hashEv
single module:__ZN5khtml18StyleInheritedDataC1ERKS0_
single module:__ZN12QFontMetricsC1ERKS_
single module:__ZN12QFontMetricsC4ERKS_
single module:__ZN12QFontMetricsD1Ev
single module:__ZN12QFontMetricsD4Ev
single module:__ZN5QFont14setFirstFamilyERK13KWQFontFamily
single module:__ZNK3DOM8NodeImpl4diffEPN5khtml11RenderStyleES3_
single module:__Z18encodingNamesEqualPKvS0_
single module:__ZN5khtml7Decoder6decodeEPKci
single module:__ZN7QString12forceUnicodeEv
single module:__ZNK7QString4findEci
single module:__Z12equalQStringPKvS0_
single module:__ZNK5khtml11RenderStyle4diffEPKS0_
single module:__ZNK5khtml12StyleBoxDataeqERKS0_
single module:__ZNK5khtml17StyleSurroundDataeqERKS0_
single module:__ZN5khtml11RenderStyleD4Ev
single module:__ZNK3DOM9DOMString7isEmptyEv
single module:__ZN5khtml12StyleBoxDataC1ERKS0_
single module:__ZN5khtml12StyleBoxDataC4ERKS0_
single module:-[KWQObjectTimerTarget initWithQObject:timerId:]
single module:__ZN7QObject9_addTimerEP7NSTimeri
single module:__ZN3DOM8TextImplD4Ev
single module:__ZN3DOM17CharacterDataImplD4Ev
single module:__ZNK3DOM19HTMLHeadElementImpl2idEv
single module:__ZN13HTMLTokenizer14processListingEN5khtml11DOMStringItE
single module:__ZNK16KWQValueListImpl5countEv
single module:__ZN11QStringList9pop_frontEv
single module:__ZN16KWQValueListImpl14removeIteratorER24KWQValueListIteratorImpl
single module:__ZN5khtml5Cache15insertInLRUListEPNS_12CachedObjectE
single module:__ZN11KWQListImpl6removeEPKvbPFiPvS2_S2_ES2_
single module:__ZNK3DOM21HTMLScriptElementImpl2idEv
single module:__ZN13HTMLTokenizer13scriptHandlerEv
single module:__ZN13HTMLTokenizer15scriptExecutionERK7QStringS0_i
single module:__ZN3KJS6Window3putEPNS_9ExecStateERKNS_10IdentifierERKNS_5ValueEi
single module:__ZN8KJSProxy5proxyEP9KHTMLPart
single module:__ZN12KJSProxyImpl11interpreterEv
single module:__ZN3KJS7UStringC1ERK7QString
single module:__ZN3DOM8DocumentD4Ev
single module:__ZN3KJS10getDOMNodeEPNS_9ExecStateERKN3DOM4NodeE
single module:__ZThn64_NK3DOM12DocumentImpl8nodeTypeEv
single module:__ZNK3DOM12DocumentImpl8nodeTypeEv
single module:__ZNK3KJS12HTMLDocument6tryGetEPNS_9ExecStateERKNS_10IdentifierE
single module:__ZN3DOM7ElementC2Ev
single module:__ZNK3DOM4Node9elementIdEv
single module:__ZN3DOM11HTMLElementD1Ev
single module:__ZN3DOM7ElementD2Ev
single module:__ZN3KJS15HTMLDocFunction7tryCallEPNS_9ExecStateERNS_6ObjectERKNS_4ListE
single module:__ZNK11KWQDictImpl4findERK7QString
single module:__ZN8QVariantC4Ev
single module:__ZN8QVariantD1Ev
single module:__ZN8QVariantD4Ev
single module:-[WebCoreBridge _setupRootForPrinting:]
single module:__ZN5khtml11RenderBlock6layoutEv
single module:__ZN5khtml12RenderObject27invalidateVerticalPositionsEv
single module:__ZN5khtml11RenderBlock17positionNewFloatsEv
single module:__ZNK5khtml12RenderCanvas8docWidthEv
single module:__ZNK5khtml12RenderCanvas9docHeightEv
single module:-[WebCoreBridge needsLayout]
single module:__ZN13KWQVectorImpl6resizeEjb
single module:__Z12sortByZOrderP10QPtrVectorIN5khtml11RenderLayer18RenderLayerElementEES4_jj
single module:__ZN5khtml12RenderCanvas5paintEP8QPainteriiiiii11PaintAction
single module:__ZNK5khtml12RenderObject6canvasEv
single module:__ZNK11QScrollView13contentsWidthEv
single module:__ZN5khtml11RenderLayer18RenderLayerElementdlEPvm
single module:__ZN8QPainterD4Ev
single module:__ZN7QString6insertEjRKS_
single module:__ZN5khtml6Loader8slotDataEPN3KIO3JobEPKci
single module:__ZN7QBuffer10writeBlockEPKcj
single module:__ZN12QConstStringC1EPK5QCharj
single module:__ZN7QStringC2EP13KWQStringDatab
single module:__ZN12QConstStringD1Ev
single module:__ZN7QStringD2Ev
single module:__ZNK7QString5toIntEPbi
single module:__ZN3KJS14ValueToVariantEPNS_9ExecStateERKNS_5ValueE
single module:__ZN5khtml12CachedObject6finishEv
single module:__ZN5khtml11RenderLayer11nodeAtPointERNS_12RenderObject8NodeInfoEii
single module:__ZN5khtml12RenderObject17setHoverAndActiveERNS0_8NodeInfoEbb
single module:__ZN3DOM9EventImpl16setCurrentTargetEPNS_8NodeImplE
single module:__ZN3DOM8NodeImpl17handleLocalEventsEPNS_9EventImplEb
single module:__ZN3DOM23CSSStyleDeclarationImplC1EPNS_11CSSRuleImplE
single module:__ZN3DOM23CSSStyleDeclarationImplC4EPNS_11CSSRuleImplE
single module:__ZN3DOM12DocumentImpl12elementSheetEv
single module:__ZN7QString6numberEd
single module:__ZN7QString7sprintfEPKcz
single module:__ZN3DOM21CSSPrimitiveValueImplD4Ev
single module:__ZN5khtml17StyleSurroundDataC1ERKS0_
single module:__ZN5khtml17StyleSurroundDataC4ERKS0_
single module:__ZN5khtml16colorForCSSValueEi
single module:__ZN13HTMLTokenizer11parseEntityERN5khtml11DOMStringItERP5QCharb
single module:__Z10findEntityPKcj
single module:__ZN5khtml10RenderTextC1EPN3DOM8NodeImplEPNS1_13DOMStringImplE
single module:__ZN5khtml12TextRunArrayC1Ev
single module:__ZNK5khtml4Font12isFixedPitchEv
single module:__ZN5khtml11RenderBlock5closeEv
single module:__ZNK3DOM9DOMString5toIntEv
single module:__ZN3DOM20HTMLImageElementImpl6attachEv
single module:__ZN5khtml11RenderImageC4EPN3DOM15HTMLElementImplE
single module:__ZN5khtml11CachedImage3refEPNS_18CachedObjectClientE
single module:__ZNK3DOM20HTMLImageElementImpl7altTextEv
single module:__ZN5khtml12RenderInlineC4EPN3DOM8NodeImplE
single module:__ZN3DOM21HTMLAnchorElementImplC4EPNS_11DocumentPtrE
single module:__ZNK3DOM13DOMStringImpl13toLengthArrayERi
single module:__ZN3DOM11parseLengthEP5QCharj
single module:__ZN5khtml11RenderTableC4EPN3DOM8NodeImplE
single module:__ZN12KWQArrayImpl4fillEPKvi
single module:__ZN5khtml11RenderTable8setStyleEPNS_11RenderStyleE
single module:__ZN5khtml15RenderContainer15removeChildNodeEPNS_12RenderObjectE
single module:__ZN3DOM20HTMLTableElementImpl8addChildEPNS_8NodeImplE
single module:__ZN5khtml18RenderTableSection8addChildEPNS_12RenderObjectES2_
single module:__ZN3DOM23HTMLTableRowElementImpl8addChildEPNS_8NodeImplE
single module:__ZN3DOM24HTMLTableCellElementImplC4EPNS_11DocumentPtrEi
single module:__ZN3DOM20HTMLTableElementImpl21createSharedCellDeclsEv
single module:__ZN3DOM24HTMLTableCellElementImpl23getAdditionalStyleDeclsEv
single module:__ZN5khtml15RenderTableCellC4EPN3DOM8NodeImplE
single module:__ZN5khtml15RenderTableCell8setStyleEPNS_11RenderStyleE
single module:__ZN5khtml14RenderTableRow8addChildEPNS_12RenderObjectES2_
single module:__ZN3KIO11TransferJobD4Ev
single module:__ZN5khtml11RenderTable15calcMinMaxWidthEv
single module:__Z18shouldScaleColumnsPN5khtml11RenderTableE
single module:__ZN5khtml9RenderBox21calcHorizontalMarginsERKNS_6LengthES3_i
single module:__ZNK5khtml11BidiContext5derefEv
single module:__ZN5khtml14RenderTableRow6layoutEv
single module:__ZN5khtml9RenderBox22calcAbsoluteHorizontalEv
single module:__ZN5khtml11RenderBlock7newLineEv
single module:__ZN5khtml9RenderBox20calcAbsoluteVerticalEv
single module:__ZN5khtml10RenderBody19paintBoxDecorationsEP8QPainteriiiiii
single module:__ZN5khtml11RenderTable17borderBottomExtraEv
single module:__ZN8QPainter7setFontERK5QFont
single module:__ZNK5khtml11RenderImage17isHeightSpecifiedEv
single module:__ZNK5khtml11RenderImage16isWidthSpecifiedEv
single module:__ZNK5khtml9RenderBox17calcReplacedWidthEv
single module:__ZNK5khtml11RenderImage18calcReplacedHeightEv
single module:__ZN5khtml12RenderCanvas16repaintRectangleEiiiibb
single module:__ZNK5khtml12RenderCanvas8viewRectEv
single module:__ZN9KHTMLView15scheduleRepaintEiiii
single module:__ZN5khtml11CachedImage11checkNotifyEv
single module:__ZN3DOM20HTMLImageElementImplC4EPNS_11DocumentPtrE
single module:__ZN11QScrollView8addChildEP7QWidgetii
single module:__ZN7QWidget4moveEii
single module:__ZN5khtml17RenderFormElement17updateFromElementEv
single module:__ZN3DOM20HTMLInputElementImpl6attachEv
single module:__ZN11KWQListImpl4takeEv
single module:__ZNK8QPaletteeqERKS_
single module:__ZNK11QColorGroupeqERKS_
single module:__ZeqRK5QSizeS1_
single module:__ZN5khtml11RenderImage6layoutEv
single module:__ZN8QPainter15drawTiledPixmapEiiiiRK7QPixmapii
single module:__ZN8QPainter10drawPixmapERK6QPointRK7QPixmapRK5QRect
single module:__ZN7QWidget5paintEP8QPainterRK5QRect
single module:__ZplRK7QStringS1_
single module:__ZNK7KConfig9readEntryEPKcRK7QString
single module:__ZNK10KWQMapImpl12findInternalEP14KWQMapNodeImpl
single module:__ZN3KJS20DOMDocumentProtoFunc7tryCallEPNS_9ExecStateERNS_6ObjectERKNS_4ListE
single module:__ZN3KJS9DOMObject3putEPNS_9ExecStateERKNS_10IdentifierERKNS_5ValueEi
single module:__ZNK9KHTMLPart4viewEv
single module:__ZN3KJS15ScheduledActionC4ERK7QStringb
single module:__ZNK5khtml12RenderObject21containingBlockHeightEv
single module:__ZN9KHTMLPart13executeScriptERK7QStringb
single module:__ZNSt6locale2idC1Ev
single module:__ZNSt6locale2idC4Ev
single module:+[WebCoreViewFactory sharedFactory]
single module:-[WebCoreViewFactory init]
single module:-[WebCoreTextRendererFactory init]
single module:+[WebCoreImageRendererFactory sharedFactory]
single module:-[WebCoreImageRendererFactory init]
single module:-[WebCoreSettings init]
single module:__Z17_allocatePageNodev
single module:__Z26_initializeHandleNodeBlockP14HandlePageNode
single module:__ZN12KWQKHTMLPartC4Ev
single module:__ZN9KHTMLPartC2EP7QWidgetPKcP7QObjectS3_NS_10GUIProfileE
single module:__ZN9KHTMLPartC4EP7QWidgetPKcP7QObjectS3_NS_10GUIProfileE
single module:__ZN7QObjectC2EPS_PKc
single module:__ZN9KWQSignalC1EP7QObjectPKc
single module:__ZN4KURLC1Ev
single module:__ZN4KURLC4Ev
single module:__ZN12KHTMLFactory8instanceEv
single module:__ZN5khtml5Cache4initEv
single module:__ZN11KWQDictImplC1EibPFvPvE
single module:__ZN11KWQDictImplC4EibPFvPvE
single module:__ZN14KWQPtrDictImplC2EiPFvPvEPK24CFDictionaryKeyCallBacks
single module:__ZN14KWQPtrDictImplC4EiPFvPvEPK24CFDictionaryKeyCallBacks
single module:__ZN17KWQPtrDictPrivateC1EiPFvPvEPK24CFDictionaryKeyCallBacks
single module:__ZN17KWQPtrDictPrivateC4EiPFvPvEPK24CFDictionaryKeyCallBacks
single module:__ZN7QPixmapC1Ev
single module:__ZN7QPixmapC4Ev
single module:__Z13KWQLoadPixmapPKc
single module:__ZN5khtml6LoaderC4Ev
single module:__ZN14KWQPtrDictImplC1EiPFvPvEPK24CFDictionaryKeyCallBacks
single module:__ZN9KWQLoaderC1EPN5khtml6LoaderE
single module:__ZN9KWQLoaderC4EPN5khtml6LoaderE
single module:__ZN9KHTMLPart4initEP9KHTMLViewNS_10GUIProfileE
single module:__ZN17KWQGuardedPtrBaseC2EP7QObject
single module:__ZN19KWQListIteratorImplC1Ev
single module:__ZN19KWQListIteratorImplC4Ev
single module:__ZN3DOM4NodeC1Ev
single module:__ZN6QTimerC1Ev
single module:__ZN6QTimerC4Ev
single module:__ZN6QPointC1Ev
single module:__ZN6QPointC4Ev
single module:__ZN25KHTMLPartBrowserExtensionC1EP9KHTMLPart
single module:__ZN25KHTMLPartBrowserExtensionC4EP9KHTMLPart
single module:__ZN10KWQMapImplC2EP14KWQMapNodeImplPFvS1_E
single module:__ZN10KWQMapImplC4EP14KWQMapNodeImplPFvS1_E
single module:__ZN10KWQMapImpl13KWQMapPrivateC1EP14KWQMapNodeImpljPFvS2_E
single module:__ZN10KWQMapImpl13KWQMapPrivateC4EP14KWQMapNodeImpljPFvS2_E
single module:__ZN7KWQSlotC1EP7QObjectPKc
single module:__ZNK16KWQValueListImpl18containsEqualNodesEP20KWQValueListNodeImplPFbPKS0_S3_E
single module:__ZN9KHTMLPart13findTextBeginEPN3DOM8NodeImplEi
single module:__ZN12KWQKHTMLPart16mutableInstancesEv
single module:__ZN6QTimer10setMonitorEPFvPvES0_
single module:-[WebCoreBridge init]
single module:__ZN12KWQKHTMLPart9setBridgeEP13WebCoreBridge
single module:__ZN15KWQWindowWidgetC1EP13WebCoreBridge
single module:__ZN15KWQWindowWidgetC4EP13WebCoreBridge
single module:__ZN7QWidgetC2Ev
single module:__ZN7QWidgetC4Ev
single module:__ZN11QColorGroupC1Ev
single module:-[KWQView initWithWidget:]
single module:-[KWQView initWithFrame:]
single module:__ZN5khtml5Cache7setSizeEi
single module:__ZN5khtml5Cache5flushEb
single module:-[WebCoreBridge setName:]
single module:-[WebCoreBridge initializeSettings:]
single module:-[WebCoreSettings settings]
single module:__ZN12KWQKHTMLPart11setSettingsEP13KHTMLSettings
single module:-[WebCoreBridge setTextSizeMultiplier:]
single module:__ZNK9KHTMLPart10zoomFactorEv
single module:-[WebCoreSettings setCursiveFontFamily:]
single module:-[WebCoreSettings _updateAllViews]
single module:-[WebCoreSettings setDefaultFixedFontSize:]
single module:-[WebCoreSettings setDefaultFontSize:]
single module:-[WebCoreSettings setDefaultTextEncoding:]
single module:-[WebCoreSettings setFantasyFontFamily:]
single module:-[WebCoreSettings setFixedFontFamily:]
single module:-[WebCoreSettings setJavaEnabled:]
single module:-[WebCoreSettings setJavaScriptEnabled:]
single module:-[WebCoreSettings setJavaScriptCanOpenWindowsAutomatically:]
single module:-[WebCoreSettings setMinimumFontSize:]
single module:-[WebCoreSettings setPluginsEnabled:]
single module:-[WebCoreSettings setSansSerifFontFamily:]
single module:-[WebCoreSettings setSerifFontFamily:]
single module:-[WebCoreSettings setStandardFontFamily:]
single module:-[WebCoreSettings setWillLoadImagesAutomatically:]
single module:-[WebCoreSettings setUserStyleSheetLocation:]
single module:-[WebCoreBridge canCachePage]
single module:__ZN12KWQKHTMLPart12canCachePageEv
single module:+[WebCoreHistory setHistoryProvider:]
single module:+[WebCoreJavaScript shouldPrintExceptions]
single module:-[WebCoreBridge usesInactiveTextBackgroundColor]
single module:-[WebCoreBridge setUsesInactiveTextBackgroundColor:]
single module:-[WebCoreBridge selectionRect]
single module:__ZNK12KWQKHTMLPart4viewEv
single module:-[WebCoreBridge createKHTMLViewWithNSView:marginWidth:marginHeight:]
single module:-[WebCoreBridge removeFromFrame]
single module:__ZN12KWQKHTMLPart7setViewEP9KHTMLViewb
single module:__ZN7QStringaSEPKc
single module:__ZN7QString9setLatin1EPKci
single module:__ZN9KHTMLViewC1EP9KHTMLPartP7QWidgetPKc
single module:__ZN9KHTMLViewC4EP9KHTMLPartP7QWidgetPKc
single module:__ZN11QScrollView17setVScrollBarModeENS_13ScrollBarModeE
single module:__ZN11QScrollView17setHScrollBarModeENS_13ScrollBarModeE
single module:__ZNK11QScrollView8viewportEv
single module:__ZN9KHTMLView4initEv
single module:__ZN7QWidget14setFocusPolicyENS_11FocusPolicyE
single module:__ZN7QWidget13setFocusProxyEPS_
single module:__ZN7QWidget6resizeEii
single module:__ZNK7QWidget3posEv
single module:__ZNK5QRect7topLeftEv
single module:__ZN7QWidget7setViewEP6NSView
single module:-[WebCoreBridge installInFrame:]
single module:-[WebCoreBridge openURL:reload:contentType:refresh:lastModified:pageCache:]
single module:__ZNK9KHTMLPart16browserExtensionEv
single module:__ZN12KWQArrayImplC1ERKS_
single module:__ZN12KWQArrayImplC4ERKS_
single module:__ZN10KWQMapImplC2ERKS_
single module:__ZN10KWQMapImplC4ERKS_
single module:__ZN12KWQArrayImplaSERKS_
single module:__ZN10KWQMapImpl4swapERS_
single module:__ZN10KWQMapImplD2Ev
single module:__ZN10KWQMapImplD4Ev
single module:__ZN4KURLC1EPKc
single module:__ZN4KURLC4EPKc
single module:__ZN7QStringC1EPKci
single module:__ZN9KHTMLPart10didOpenURLERK4KURL
single module:__ZN6QTimer4stopEv
single module:__ZN12KWQKHTMLPart8closeURLEv
single module:__ZN12KWQKHTMLPart17saveDocumentStateEv
single module:-[WebCoreBridge saveDocumentState]
single module:__ZN9KHTMLPart8closeURLEv
single module:__ZNK6QTimer8isActiveEv
single module:__ZN9KHTMLPart13nodeActivatedERKN3DOM4NodeE
single module:__ZN3DOM4NodeD1Ev
single module:__ZN3KIO11TransferJobC1ERK4KURLbb
single module:__ZN3KIO11TransferJobC4ERK4KURLbb
single module:__ZN3KIO11TransferJob11addMetaDataERK4QMapI7QStringS2_E
single module:__ZNK10KWQMapImpl13beginInternalEv
single module:__ZNK10KWQMapImpl11endInternalEv
single module:__ZNK4KURL8protocolEv
single module:__ZNK4KURL4pathEv
single module:__ZN9KHTMLPart7startedEPN3KIO3JobE
single module:__ZNK9KWQSignal4callEPN3KIO3JobE
single module:__ZN20KWQObjectSenderScopeC1EPK7QObject
single module:__ZN20KWQObjectSenderScopeC4EPK7QObject
single module:__ZN16KWQValueListImplC1ERKS_
single module:__ZN16KWQValueListImplC4ERKS_
single module:__ZN16KWQValueListImpl19KWQValueListPrivateC1ERKS0_
single module:__ZN20KWQObjectSenderScopeD1Ev
single module:__ZN20KWQObjectSenderScopeD4Ev
single module:-[WebCoreBridge setEncoding:userChosen:]
single module:__ZN12KWQKHTMLPart11setEncodingERK7QStringb
single module:__ZN9KHTMLPart17receivedFirstDataEv
single module:__ZN9KHTMLPart5beginERK4KURLii
single module:__ZN9KHTMLPart5clearEv
single module:__ZN9KHTMLView5clearEv
single module:__ZN11QScrollView19setStaticBackgroundEb
single module:__ZN7QObject10killTimersEv
single module:__ZN9KHTMLView7clearedEv
single module:__ZN16KWQValueListImpl5clearEv
single module:__ZN5QTime7restartEv
single module:__ZNK12KWQKHTMLPart18requestedURLStringEv
single module:__ZN6KParts15HistoryProvider4selfEv
single module:__ZN6KParts15HistoryProvider6insertERK7QString
single module:__ZeqRK7QStringPKc
single module:__ZN3DOM21DOMImplementationImpl8instanceEv
single module:__ZN3DOM21DOMImplementationImplC1Ev
single module:__ZN3DOM21DOMImplementationImplC4Ev
single module:__ZN3DOM21DOMImplementationImpl18createHTMLDocumentEP9KHTMLView
single module:__ZN3DOM16HTMLDocumentImplC1EPNS_21DOMImplementationImplEP9KHTMLView
single module:__ZN3DOM16HTMLDocumentImplC4EPNS_21DOMImplementationImplEP9KHTMLView
single module:__ZN3DOM12DocumentImplC2EPNS_21DOMImplementationImplEP9KHTMLView
single module:__ZN5khtml9DocLoaderC1EP9KHTMLPartPN3DOM12DocumentImplE
single module:__ZN5khtml9DocLoaderC4EP9KHTMLPartPN3DOM12DocumentImplE
single module:__ZN3DOM12DocumentImpl14setPaintDeviceEP12QPaintDevice
single module:__ZN19QPaintDeviceMetricsC1EPK12QPaintDevice
single module:__ZN19QPaintDeviceMetricsC4EPK12QPaintDevice
single module:__ZN3DOM16DocumentTypeImplC1EPNS_21DOMImplementationImplEPNS_11DocumentPtrERKNS_9DOMStringES7_S7_
single module:__ZN3DOM16DocumentTypeImplC4EPNS_21DOMImplementationImplEPNS_11DocumentPtrERKNS_9DOMStringES7_S7_
single module:__ZN3DOM16AbstractViewImplC1EPNS_12DocumentImplE
single module:__ZN3DOM16AbstractViewImplC4EPNS_12DocumentImplE
single module:__ZN5khtml16CSSStyleSelectorC1EPN3DOM12DocumentImplE7QStringPNS1_18StyleSheetListImplERK4KURLb
single module:__ZN5khtml16CSSStyleSelector4initEv
single module:__ZN5khtml16CSSStyleSelector16loadDefaultStyleEPK13KHTMLSettings
single module:__Z6locatePKcRK7QStringPK9KInstance
single module:__ZN5QFileC1ERK7QString
single module:__ZN5QFileC4ERK7QString
single module:__ZN5QFile4openEi
single module:__ZN5QFile5closeEv
single module:__ZNK5QFile4sizeEv
single module:__ZN8QCStringC1Ei
single module:__ZN8QCStringC4Ei
single module:__ZN5QFile9readBlockEPcj
single module:__ZN3DOM17CSSStyleSheetImplC1EPS0_NS_9DOMStringE
single module:__ZN3DOM17CSSStyleSheetImplC4EPS0_NS_9DOMStringE
single module:__ZN3DOM14StyleSheetImplC2EPS0_NS_9DOMStringE
single module:__ZN3DOM14StyleSheetImplC4EPS0_NS_9DOMStringE
single module:__ZN3DOM17CSSStyleSheetImpl11parseStringERKNS_9DOMStringEb
single module:__ZN3DOM9CSSParser10parseSheetEPNS_17CSSStyleSheetImplERKNS_9DOMStringE
single module:__ZN3DOM16CSSStyleRuleImplC1EPNS_13StyleBaseImplE
single module:__ZN3DOM16CSSStyleRuleImplC4EPNS_13StyleBaseImplE
single module:__ZN3DOM23CSSStyleDeclarationImplC1EPNS_11CSSRuleImplEP8QPtrListINS_11CSSPropertyEE
single module:__ZN3DOM23CSSStyleDeclarationImplC4EPNS_11CSSRuleImplEP8QPtrListINS_11CSSPropertyEE
single module:__ZN3DOM16CSSStyleRuleImpl14setDeclarationEPNS_23CSSStyleDeclarationImplE
single module:__ZNK3DOM9CSSParser8documentEv
single module:__ZN3DOM21CSSPrimitiveValueImplC2EdNS_17CSSPrimitiveValue9UnitTypesE
single module:__ZN3DOM9CSSParser12parseContentEib
single module:__ZN3DOM16CSSValueListImplC1Ev
single module:__ZN3DOM16CSSValueListImplC4Ev
single module:__ZN3DOM21CSSPrimitiveValueImplC1ERKNS_9DOMStringENS_17CSSPrimitiveValue9UnitTypesE
single module:__ZN3DOM21CSSPrimitiveValueImplC4ERKNS_9DOMStringENS_17CSSPrimitiveValue9UnitTypesE
single module:__ZN3DOM16CSSValueListImpl6appendEPNS_12CSSValueImplE
single module:__ZN3DOM13FontValueImplC4Ev
single module:__ZN3DOM9CSSParser9parseFontEb
single module:__ZN3DOM19FontFamilyValueImplC1ERK7QString
single module:__ZN3DOM21CSSPrimitiveValueImplC2ERKNS_9DOMStringENS_17CSSPrimitiveValue9UnitTypesE
single module:__ZN7QRegExpC1EPKc
single module:__ZN7QRegExpC4EPKc
single module:__ZN7QRegExp16KWQRegExpPrivateC1E7QStringbb
single module:__ZN7QRegExp16KWQRegExpPrivateC4E7QStringbb
single module:__ZN7QRegExp16KWQRegExpPrivate7compileEbb
single module:__ZN7QString7replaceERK7QRegExpRKS_
single module:__ZNK7QRegExp5matchERK7QStringiPib
single module:__ZN5khtml20CSSStyleSelectorListC4Ev
single module:__ZN5khtml14CSSOrderedRuleC1EPN3DOM16CSSStyleRuleImplEPNS1_11CSSSelectorEi
single module:__ZN5khtml14CSSOrderedRuleC4EPN3DOM16CSSStyleRuleImplEPNS1_11CSSSelectorEi
single module:__ZNK9KHTMLView9mediaTypeEv
single module:__ZN5khtml16CSSStyleSelector16computeFontSizesEP19QPaintDeviceMetricsi
single module:__ZN5khtml20CSSStyleSelectorListC1Ev
single module:__ZN11KWQListImpl4sortEPFiPvS0_S0_ES0_
single module:__ZN5khtml22CSSOrderedPropertyList12compareItemsEPvS1_
single module:__ZN4KURL8setQueryERK7QStringi
single module:__ZN4KURL6setRefERK7QString
single module:__ZNK7QString7findRevEci
single module:__ZN4KURL7setPathERK7QString
single module:__ZN3DOM12DocumentImpl6attachEv
single module:__ZN11RenderArenaC1Ej
single module:__ZN11RenderArenaC4Ej
single module:__Z13InitArenaPoolP9ArenaPoolPKcjj
single module:__Z11CeilingLog2j
single module:__ZN5khtml12RenderCanvasC1EPN3DOM8NodeImplEP9KHTMLView
single module:__ZN5khtml12RenderCanvasC4EPN3DOM8NodeImplEP9KHTMLView
single module:__ZN5khtml11RenderBlockC2EPN3DOM8NodeImplE
single module:__ZN5khtml11RenderLayernwEmP11RenderArena
single module:__ZN5khtml11RenderLayerC1EPNS_12RenderObjectE
single module:__ZN5khtml11RenderLayerC4EPNS_12RenderObjectE
single module:__ZN5khtml11RenderStyleC1Eb
single module:__ZN5khtml11RenderStyleC4Eb
single module:__ZN5khtml12StyleBoxDataC1Ev
single module:__ZN5khtml12StyleBoxDataC4Ev
single module:__ZN5khtml15StyleVisualDataC1Ev
single module:__ZN5khtml15StyleVisualDataC4Ev
single module:__ZN12QApplication7paletteEPK7QWidget
single module:__ZN5khtml19StyleBackgroundDataC1Ev
single module:__ZN5khtml19StyleBackgroundDataC4Ev
single module:__ZN5khtml17StyleSurroundDataC1Ev
single module:__ZN5khtml17StyleSurroundDataC4Ev
single module:__ZN5khtml18StyleInheritedDataC1Ev
single module:__ZN5khtml18StyleInheritedDataC4Ev
single module:__ZN15KGlobalSettings11generalFontEv
single module:__ZNK5QFont6italicEv
single module:__ZNK5QFont6weightEv
single module:__ZNK5QFont4boldEv
single module:__ZN16KWQValueListImpl6nodeAtEj
single module:__Z13retainQStringPK13__CFAllocatorPKv
single module:__ZN5QFont9setItalicEb
single module:__ZN5QFont9setWeightEi
single module:__ZN5QFont12setPixelSizeEf
single module:__ZN5QFont14setPrinterFontEb
single module:__ZN5khtml12RenderObject21removeFromObjectListsEv
single module:__ZN5khtml9DocLoader17setShowAnimationsEN13KHTMLSettings16KAnimationAdviceE
single module:__ZN12KWQKHTMLPart19updatePolicyBaseURLEv
single module:__ZN9KHTMLPart10parentPartEv
single module:__ZN12KWQKHTMLPart16setPolicyBaseURLERKN3DOM9DOMStringE
single module:__ZNK9KHTMLPart7docImplEv
single module:__ZN9KHTMLPart17setAutoloadImagesEb
single module:__ZN12KWQKHTMLPart20restoreDocumentStateEv
single module:-[WebCoreBridge restoreDocumentState]
single module:__ZN16KWQValueListImplaSERKS_
single module:__ZN3DOM12DocumentImpl4openEv
single module:__ZN3DOM12DocumentImpl5clearEv
single module:__ZN3DOM12NodeBaseImpl14removeChildrenEv
single module:__ZN3DOM16HTMLDocumentImpl15createTokenizerEv
single module:__ZN13HTMLTokenizerC1EPN3DOM11DocumentPtrEP9KHTMLView
single module:__ZN13HTMLTokenizerC4EPN3DOM11DocumentPtrEP9KHTMLView
single module:__ZN9TokenizerC2Ev
single module:__ZN9TokenizerC4Ev
single module:__ZN11KHTMLParserC1EP9KHTMLViewPN3DOM11DocumentPtrE
single module:__ZN11KHTMLParserC4EP9KHTMLViewPN3DOM11DocumentPtrE
single module:__ZN11KHTMLParser5resetEv
single module:__ZN11KHTMLParser9freeBlockEv
single module:__ZN13HTMLTokenizer5resetEv
single module:__ZNK10__cxxabiv121__vmi_class_type_info12__do_dyncastEiNS_17__class_type_info10__sub_kindEPKS1_PKvS4_S6_RNS1_16__dyncast_resultE
single module:__ZNK10__cxxabiv117__class_type_info12__do_dyncastEiNS0_10__sub_kindEPKS0_PKvS3_S5_RNS0_16__dyncast_resultE
single module:__ZN13HTMLTokenizer5beginEv
single module:_kjs_html_init
single module:__ZN12KJSProxyImplC1EP9KHTMLPart
single module:__ZN12KJSProxyImplC4EP9KHTMLPart
single module:__ZN12KJSProxyImpl13setSourceFileE7QStringS0_
single module:__ZN5khtml9DocLoader14setCachePolicyEN3KIO12CacheControlE
single module:__ZNK3KIO11TransferJob13queryMetaDataERK7QString
single module:__ZN5khtml7DecoderC4Ev
single module:__ZN8QCStringC1Ev
single module:__ZN8QCStringC4Ev
single module:__ZN10QTextCodec12codecForNameEPKc
single module:__Z38KWQCFStringEncodingFromIANACharsetNamePKcP16KWQEncodingFlags
single module:__Z24codecForCFStringEncodingm16KWQEncodingFlags
single module:__Z14QTextCodecHashPKv
single module:__ZNK10QTextCodec4hashEv
single module:__ZNK10QTextCodec11makeDecoderEv
single module:__ZN14KWQTextDecoderC1Em16KWQEncodingFlags
single module:__ZN14KWQTextDecoderC4Em16KWQEncodingFlags
single module:__ZN8QCStringaSEPKc
single module:__ZN12KWQArrayImpl9duplicateEPKvm
single module:__ZN9KHTMLPart5writeEPKci
single module:__ZN5khtml7Decoder11setEncodingEPKcNS0_12EncodingTypeE
single module:__ZNK8QCString5lowerEv
single module:__ZNK8QCString7isEmptyEv
single module:__ZNK8QCString6lengthEv
single module:__Z16QTextCodecsEqualPKvS0_
single module:__ZeqRK10QTextCodecS1_
single module:__ZNK10QTextCodec4nameEv
single module:__Z36KWQCFStringEncodingToIANACharsetNamem
single module:__ZN14KWQTextDecoderD0Ev
single module:__ZN14KWQTextDecoderD4Ev
single module:__ZN12QTextDecoderD2Ev
single module:__ZN12QTextDecoderD4Ev
single module:__ZN7QString6appendEPKcj
single module:__ZN7QString6insertEjPKcj
single module:__ZN13KWQStringData17increaseAsciiSizeEj
single module:__ZN8QCStringC1EPKcj
single module:__ZN8QCStringC4EPKcj
single module:__ZN8QCString6resizeEj
single module:__ZNK8QCString4findEPKcib
single module:__ZN12KWQArrayImpl15KWQArrayPrivateD1Ev
single module:__ZN12KWQArrayImpl15KWQArrayPrivateD4Ev
single module:__ZNK8QCString3midEjj
single module:__ZN10QTextCodec24codecForNameEightBitOnlyEPKc
single module:__ZN14KWQTextDecoder9toUnicodeEPKcib
single module:__ZN14KWQTextDecoder7convertEPKcib
single module:__ZN14KWQTextDecoder15convertUsingTECEPKhib
single module:__ZN7QString6appendEPK5QCharj
single module:__ZN7QString6insertEjPK5QCharj
single module:__ZN13KWQStringData19increaseUnicodeSizeEj
single module:__ZN7QString8truncateEj
single module:__ZN3DOM16HTMLDocumentImpl18determineParseModeERK7QString
single module:__Z23parseDocTypeDeclarationRK7QStringPiRS_S3_
single module:__ZN7QStringC1E5QChar
single module:__ZNK7QString4findERKS_ib
single module:__ZNK5khtml11RenderStyle17inheritedNotEqualEPS0_
single module:__ZN5khtml11RenderStyleD1Ev
single module:__ZN5khtml18StyleInheritedDataD1Ev
single module:__ZN5khtml18StyleInheritedDataD4Ev
single module:__ZN12KJSProxyImpl16appendSourceFileE7QStringS0_
single module:__ZN13HTMLTokenizer6setSrcERK7QString
single module:__ZThn64_N3DOM16HTMLDocumentImpl12childAllowedEPNS_8NodeImplE
single module:__ZN3DOM16HTMLDocumentImpl12childAllowedEPNS_8NodeImplE
single module:__ZN3DOM19HTMLHtmlElementImplC1EPNS_11DocumentPtrE
single module:__ZN3DOM19HTMLHtmlElementImplC4EPNS_11DocumentPtrE
single module:__ZNK3DOM19HTMLHtmlElementImpl2idEv
single module:__ZNK3DOM9DOMString5lowerEv
single module:__ZNK3DOM13DOMStringImpl5lowerEv
single module:__ZNK3DOM9DOMStringixEj
single module:__ZN3DOMeqERKNS_9DOMStringEPKc
single module:__ZN5khtml11RenderBlockC1EPN3DOM8NodeImplE
single module:__ZN5khtml11RenderLayer19insertOnlyThisLayerEv
single module:__ZN5khtml12RenderObject13findNextLayerEPNS_11RenderLayerEPS0_b
single module:__ZN5khtml11RenderLayer8addChildEPS0_S1_
single module:__ZN5khtml15RenderContainer28removeLeftoverAnonymousBoxesEv
single module:__ZN3DOM8TextImplD0Ev
single module:__ZN3DOM17CharacterDataImplD2Ev
single module:__ZN3DOM8NodeImplD2Ev
single module:__ZN3DOM8NodeImplD4Ev
single module:__ZNK3DOM11ElementImpl18createAttributeMapEv
single module:__ZN3DOM19HTMLHtmlElementImplD0Ev
single module:__ZN3DOM19HTMLHtmlElementImplD4Ev
single module:__ZN3DOM15HTMLElementImplD2Ev
single module:__ZN3DOM15HTMLElementImplD4Ev
single module:__ZN3DOM11ElementImplD2Ev
single module:__ZN3DOM11ElementImplD4Ev
single module:__ZN3DOM12NodeBaseImplD2Ev
single module:__ZN3DOM12NodeBaseImplD4Ev
single module:__ZN3DOM19HTMLHeadElementImplC1EPNS_11DocumentPtrE
single module:__ZN3DOM19HTMLHeadElementImplC4EPNS_11DocumentPtrE
single module:__ZN3DOM20HTMLTitleElementImplC1EPNS_11DocumentPtrE
single module:__ZN3DOM20HTMLTitleElementImplC4EPNS_11DocumentPtrE
single module:__ZNK3DOM20HTMLTitleElementImpl2idEv
single module:__ZN3DOM20HTMLTitleElementImpl20insertedIntoDocumentEv
single module:__ZN3DOM12DocumentImpl8setTitleENS_9DOMStringE
single module:__ZN12KWQKHTMLPart8setTitleERKN3DOM9DOMStringE
single module:__ZN13HTMLTokenizer12parseSpecialERN5khtml11DOMStringItE
single module:__ZN13HTMLTokenizer19enlargeScriptBufferEi
single module:__ZN3DOM20HTMLTitleElementImpl15childrenChangedEv
single module:__ZNK3DOM17CharacterDataImpl9nodeValueEv
single module:__ZN3DOM9DOMStringpLERKS0_
single module:__ZN3DOM13DOMStringImpl6appendEPS0_
single module:__ZN3DOM19HTMLMetaElementImplC1EPNS_11DocumentPtrE
single module:__ZN3DOM19HTMLMetaElementImplC4EPNS_11DocumentPtrE
single module:__ZN3DOM19HTMLMetaElementImpl14parseAttributeEPNS_13AttributeImplE
single module:__ZN3DOM19HTMLMetaElementImpl7processEv
single module:__ZNK3DOM19HTMLMetaElementImpl2idEv
single module:__ZN3DOM19HTMLMetaElementImpl20insertedIntoDocumentEv
single module:__ZN3DOM12DocumentImpl16processHttpEquivERKNS_9DOMStringES3_
single module:__ZN3DOM19HTMLLinkElementImplC1EPNS_11DocumentPtrE
single module:__ZN3DOM19HTMLLinkElementImplC4EPNS_11DocumentPtrE
single module:__ZThn4_N3DOM19HTMLLinkElementImpl14parseAttributeEPNS_13AttributeImplE
single module:__ZN3DOM19HTMLLinkElementImpl14parseAttributeEPNS_13AttributeImplE
single module:__ZN4KURLC1ERKS_RK7QStringPK10QTextCodec
single module:__ZNK7QString10isAllASCIIEv
single module:__ZN3DOM19HTMLLinkElementImpl7processEv
single module:__ZThn4_NK3DOM19HTMLLinkElementImpl2idEv
single module:__ZNK3DOM19HTMLLinkElementImpl2idEv
single module:__ZThn4_N3DOM19HTMLLinkElementImpl20insertedIntoDocumentEv
single module:__ZN3DOM19HTMLLinkElementImpl20insertedIntoDocumentEv
single module:__ZN9KHTMLPart24slotLoaderRequestStartedEPN5khtml9DocLoaderEPNS0_12CachedObjectE
single module:__ZN5khtml6Loader4loadEPNS_9DocLoaderEPNS_12CachedObjectEb
single module:__ZN11KWQListImpl4takeEj
single module:__ZNK3DOM16HTMLDocumentImpl6domainEv
single module:__ZNK16KWQValueListImpl7isEqualERKS_PFbPK20KWQValueListNodeImplS4_E
single module:__ZNK9KHTMLPart7baseURLEv
single module:-[KWQResourceLoader initWithLoader:job:]
single module:__ZN3KIO11TransferJob9setLoaderEP17KWQResourceLoader
single module:__ZNK3KIO11TransferJob3urlEv
single module:-[WebCoreBridge referrer]
single module:__ZNK9KHTMLPart8referrerEv
single module:-[KWQResourceLoader setHandle:]
single module:__ZN14KWQPtrDictImpl6insertEPvPKv
single module:__ZN5khtml19CachedCSSStyleSheetC4EPNS_9DocLoaderERKN3DOM9DOMStringEN3KIO12CacheControlElRK7QString
single module:__ZN5khtml5Cache17requestStyleSheetEPNS_9DocLoaderERKN3DOM9DOMStringEblRK7QString
single module:__ZN11KWQDictImpl6insertERK7QStringPKv
single module:__ZN5khtml5Cache19moveToHeadOfLRUListEPNS_12CachedObjectE
single module:__ZN5khtml7LRUListC1Ev
single module:__ZN5khtml7LRUListC4Ev
single module:__ZN5khtml12CachedObject13setExpireDateElb
single module:__ZN5khtml9DocLoader17requestStyleSheetERKN3DOM9DOMStringERK7QString
single module:__Z25KWQCheckCacheObjectStatusPN5khtml9DocLoaderEPNS_12CachedObjectE
single module:__ZN5khtml19CachedCSSStyleSheet3refEPNS_18CachedObjectClientE
single module:__ZNK9KHTMLPart8encodingEv
single module:__ZNK5khtml7Decoder8encodingEv
single module:__ZN3DOM21HTMLScriptElementImplC1EPNS_11DocumentPtrE
single module:__ZN3DOM21HTMLScriptElementImplC4EPNS_11DocumentPtrE
single module:__ZN13HTMLTokenizer12parseCommentERN5khtml11DOMStringItE
single module:__ZN13HTMLTokenizer13enlargeBufferEi
single module:__ZN7QString7prependEPK5QCharj
single module:__ZNK9KHTMLPart8documentEv
single module:__ZN3DOM8DocumentC1EPNS_12DocumentImplE
single module:__ZN3DOM8DocumentC4EPNS_12DocumentImplE
single module:__ZN3DOM4NodeC2EPNS_8NodeImplE
single module:__ZN3DOM4NodeC4EPNS_8NodeImplE
single module:__ZN9KHTMLPart13executeScriptE7QStringiRKN3DOM4NodeERKS0_
single module:__ZNK12KJSProxyImpl6pausedEv
single module:__ZN12KJSProxyImpl10initScriptEv
single module:__ZN3KJS6WindowC1EP9KHTMLPart
single module:__ZN3KJS6WindowC4EP9KHTMLPart
single module:__ZN3KJS13WindowQObjectC1EPNS_6WindowE
single module:__ZN3KJS13WindowQObjectC4EPNS_6WindowE
single module:__ZN3KJS17ScriptInterpreterC1ERKNS_6ObjectEP9KHTMLPart
single module:__ZN3KJS17ScriptInterpreterC4ERKNS_6ObjectEP9KHTMLPart
single module:__ZNK12KWQKHTMLPart9userAgentEv
single module:__ZNK3DOM4Node6isNullEv
single module:__ZN3KJS6Window11setListenerEPNS_9ExecStateEiNS_5ValueE
single module:__ZNK9KHTMLPart12htmlDocumentEv
single module:__ZN3DOM12HTMLDocumentC1EPNS_16HTMLDocumentImplE
single module:__ZN3DOM12HTMLDocumentC4EPNS_16HTMLDocumentImplE
single module:__ZN3DOM8DocumentC2EPNS_12DocumentImplE
single module:__ZN3DOM12HTMLDocumentD1Ev
single module:__ZN3DOM12HTMLDocumentD4Ev
single module:__ZN3DOM8DocumentD2Ev
single module:__ZN3KJS15JSEventListenerC1ENS_6ObjectERKS1_b
single module:__ZN3KJS15JSEventListenerC4ENS_6ObjectERKS1_b
single module:__ZN3DOM13EventListenerC2Ev
single module:__ZN3DOM13EventListenerC4Ev
single module:__ZN3DOM12DocumentImpl26setHTMLWindowEventListenerEiPNS_13EventListenerE
single module:__ZN3DOM12DocumentImpl29removeHTMLWindowEventListenerEi
single module:__ZN3DOM12DocumentImpl22addWindowEventListenerEiPNS_13EventListenerEb
single module:__ZN3DOM12DocumentImpl25removeWindowEventListenerEiPNS_13EventListenerEb
single module:__ZN3DOM23RegisteredEventListenerC1ENS_9EventImpl7EventIdEPNS_13EventListenerEb
single module:__ZN3DOM23RegisteredEventListenerC4ENS_9EventImpl7EventIdEPNS_13EventListenerEb
single module:__ZN3DOM23RegisteredEventListenerD1Ev
single module:__ZN3DOM23RegisteredEventListenerD4Ev
single module:__ZN3KJS9NavigatorC1EPNS_9ExecStateEP9KHTMLPart
single module:__ZN3KJS9NavigatorC4EPNS_9ExecStateEP9KHTMLPart
single module:__ZNK3KJS9Navigator3getEPNS_9ExecStateERKNS_10IdentifierE
single module:__ZNK3KJS9Navigator16getValuePropertyEPNS_9ExecStateEi
single module:__ZNK3DOM4Node13ownerDocumentEv
single module:__ZN3DOM8DocumentC1Eb
single module:__ZN3DOM8DocumentC4Eb
single module:__ZN3DOM8DocumentD1Ev
single module:__ZNK3KJS17ScriptInterpreter23getDOMObjectForDocumentEPN3DOM12DocumentImplEPv
single module:__ZNK3DOM4Node8nodeTypeEv
single module:__ZN3DOM8DocumentaSERKNS_4NodeE
single module:__ZN3KJS18getDOMDocumentNodeEPNS_9ExecStateERKN3DOM8DocumentE
single module:__ZNK3DOM8Document14isHTMLDocumentEv
single module:__ZN3DOM8DocumentC2Eb
single module:__ZN3DOM12HTMLDocumentaSERKNS_4NodeE
single module:__ZN3KJS11DOMDocumentC2EPNS_9ExecStateERKN3DOM8DocumentE
single module:__ZN3KJS11DOMDocumentC4EPNS_9ExecStateERKN3DOM8DocumentE
single module:__ZN3KJS7DOMNodeC2ERKNS_6ObjectERKN3DOM4NodeE
single module:__ZN3KJS7DOMNodeC4ERKNS_6ObjectERKN3DOM4NodeE
single module:__ZN3DOM4NodeC1ERKS0_
single module:__ZN3DOM4NodeC4ERKS0_
single module:__ZNK3DOM8Document4viewEv
single module:__ZN3KJS6Window14retrieveWindowEP9KHTMLPart
single module:__ZNK3DOM12HTMLDocument4bodyEv
single module:__ZN3DOM11HTMLElementC1EPNS_15HTMLElementImplE
single module:__ZN3DOM11HTMLElementC4EPNS_15HTMLElementImplE
single module:__ZN3DOM7ElementC2EPNS_11ElementImplE
single module:__ZN3DOM7ElementC4EPNS_11ElementImplE
single module:__ZN3DOM11HTMLElementC2Ev
single module:__ZN3DOM11HTMLElementC4Ev
single module:__ZN3DOM15HTMLBodyElementaSERKNS_4NodeE
single module:__ZN3DOM11HTMLElement11assignOtherERKNS_4NodeEi
single module:__ZN3DOM15HTMLBodyElementD1Ev
single module:__ZN3DOM15HTMLBodyElementD4Ev
single module:__ZN3DOM11HTMLElementD2Ev
single module:__ZNK3KJS7UString6stringEv
single module:__ZN3DOM12HTMLDocument5writeERKNS_9DOMStringE
single module:__ZN3DOM12DocumentImpl5writeERKNS_9DOMStringE
single module:__ZN3DOM12DocumentImpl5writeERK7QString
single module:__ZNK9KHTMLPart19onlyLocalReferencesEv
single module:__Z19KWQCheckIfReloadingPN5khtml9DocLoaderE
single module:__ZN5khtml19CachedCSSStyleSheetC1EPNS_9DocLoaderERKN3DOM9DOMStringEN3KIO12CacheControlElRK7QString
single module:__ZN5khtml7RequestC1EPNS_9DocLoaderEPNS_12CachedObjectEb
single module:__ZN5khtml7RequestC4EPNS_9DocLoaderEPNS_12CachedObjectEb
single module:__ZN5khtml12CachedObject10setRequestEPNS_7RequestE
single module:__ZN5khtml6Loader14requestStartedEPNS_9DocLoaderEPNS_12CachedObjectE
single module:__ZN8QVariantC1Ev
single module:__ZN8QVariant15QVariantPrivateC1ENS_4TypeE
single module:__ZN8QVariant15QVariantPrivateC4ENS_4TypeE
single module:__ZN8QVariantC1ERKS_
single module:__ZN8QVariantC4ERKS_
single module:__ZN8QVariant15QVariantPrivateD1Ev
single module:__ZN8QVariant15QVariantPrivateD4Ev
single module:__ZN5khtml9DocLoader13requestScriptERKN3DOM9DOMStringERK7QString
single module:__ZN5khtml5Cache13requestScriptEPNS_9DocLoaderERKN3DOM9DOMStringEblRK7QString
single module:__ZN5khtml12CachedScriptC1EPNS_9DocLoaderERKN3DOM9DOMStringEN3KIO12CacheControlElRK7QString
single module:__ZN5khtml12CachedScriptC4EPNS_9DocLoaderERKN3DOM9DOMStringEN3KIO12CacheControlElRK7QString
single module:__ZNK9KCharsets12codecForNameERK7QStringRb
single module:__ZNK9KCharsets12codecForNameEPKcRb
single module:__ZN5khtml12CachedScript3refEPNS_18CachedObjectClientE
single module:-[WebCoreBridge forceLayout]
single module:__ZN12KWQKHTMLPart11forceLayoutEv
single module:__ZN5khtml12RenderCanvas15calcMinMaxWidthEv
single module:__ZN5khtml12RenderCanvas9calcWidthEv
single module:__ZN5khtml12RenderCanvas10calcHeightEv
single module:__ZN8QPainterC1Eb
single module:__ZN13KWQVectorImplD1Ev
single module:__ZN13KWQVectorImplD4Ev
single module:__ZN5khtml12RenderCanvas19paintBoxDecorationsEP8QPainteriiiiii
single module:__ZNK7QWidget7paletteEv
single module:__ZNK11QColorGroup5colorENS_9ColorRoleE
single module:__ZN8QPainterD1Ev
single module:__ZN7QRegionD1Ev
single module:__ZN7QRegionD4Ev
single module:-[WebCoreBridge frameBorderStyle]
single module:__ZN6QFrame10frameStyleEv
single module:-[WebCoreBridge addData:]
single module:-[WebCoreBridge shouldCreateRenderers]
single module:__ZN3DOM12DocumentImpl24setShouldCreateRenderersEb
single module:__ZN12KWQKHTMLPart7addDataEPKci
single module:-[KWQResourceLoader receivedResponse:]
single module:__ZN5khtml6Loader16receivedResponseEPN3KIO3JobEPv
single module:__ZN5khtml12CachedObject11setResponseEPv
single module:__Z17KWQRetainResponsePv
single module:__Z18KWQReleaseResponsePv
single module:-[KWQResourceLoader addData:]
single module:__ZN7QBuffer4openEi
single module:-[KWQResourceLoader finish]
single module:-[KWQResourceLoader finishJobAndHandle]
single module:__ZN14KWQPtrDictImpl4takeEPv
single module:__ZN14KWQPtrDictImpl6removeEPvb
single module:__ZNK3KIO11TransferJob5errorEv
single module:__ZNK3KIO11TransferJob11isErrorPageEv
single module:__ZN5khtml19CachedCSSStyleSheet4dataER7QBufferb
single module:__ZN5khtml12CachedObject7setSizeEi
single module:__ZN5khtml5Cache10adjustSizeEPNS_12CachedObjectEi
single module:__Z8FastLog2j
single module:__ZNK10QTextCodec9toUnicodeEPKci
single module:__ZN14KWQTextDecoderD1Ev
single module:__ZN5khtml19CachedCSSStyleSheet11checkNotifyEv
single module:__ZN3DOM19HTMLLinkElementImpl13setStyleSheetERKNS_9DOMStringES3_
single module:__ZN3DOM17CSSStyleSheetImplC1EPNS_8NodeImplENS_9DOMStringEb
single module:__ZN3DOM17CSSStyleSheetImplC4EPNS_8NodeImplENS_9DOMStringEb
single module:__ZN3DOM14StyleSheetImplC2EPNS_8NodeImplENS_9DOMStringE
single module:__ZN3DOM14StyleSheetImplC4EPNS_8NodeImplENS_9DOMStringE
single module:__ZN3DOM12DocumentImpl5tagIdEPNS_13DOMStringImplES2_b
single module:__ZN3DOM13FontValueImplC1Ev
single module:__ZN3DOM9CSSParser10parseColorEv
single module:__Z10parseColorRK7QString
single module:__ZN3DOM21CSSPrimitiveValueImplC1Ej
single module:__ZN3DOM21CSSPrimitiveValueImplC4Ej
single module:__ZN3DOM13MediaListImplC1EPNS_17CSSStyleSheetImplERKNS_9DOMStringE
single module:__ZN3DOM13MediaListImplC4EPNS_17CSSStyleSheetImplERKNS_9DOMStringE
single module:__ZN3DOM13MediaListImpl12setMediaTextERKNS_9DOMStringE
single module:__ZN3DOM14StyleSheetImpl8setMediaEPNS_13MediaListImplE
single module:__ZNK3DOM19HTMLLinkElementImpl9isLoadingEv
single module:__ZN3DOM12DocumentImpl16stylesheetLoadedEv
single module:__ZN3DOM12DocumentImpl19updateStyleSelectorEv
single module:__ZN11KWQListImplC1ERKS_
single module:__ZN11KWQListImplC4ERKS_
single module:__Z8copyListP11KWQListNodeRS0_
single module:__ZN5khtml16CSSStyleSelectorD1Ev
single module:__ZN5khtml16CSSStyleSelectorD4Ev
single module:__ZN5khtml20CSSStyleSelectorListD0Ev
single module:__ZN5khtml20CSSStyleSelectorListD4Ev
single module:__ZNK3DOM13MediaListImpl8containsERKNS_9DOMStringE
single module:__ZN5khtml12CachedScript4dataER7QBufferb
single module:__ZN5khtml12CachedScript11checkNotifyEv
single module:__ZThn80_N13HTMLTokenizer14notifyFinishedEPN5khtml12CachedObjectE
single module:__ZN13HTMLTokenizer14notifyFinishedEPN5khtml12CachedObjectE
single module:__ZNK11KWQListImpl8getFirstEv
single module:__ZN11KWQListImpl11removeFirstEb
single module:__ZN5khtml12CachedScript5derefEPNS_18CachedObjectClientE
single module:__ZN5khtml12CachedObject5derefEPNS_18CachedObjectClientE
single module:__ZN5khtml6Loader11requestDoneEPNS_9DocLoaderEPNS_12CachedObjectE
single module:__ZN9KHTMLPart21slotLoaderRequestDoneEPN5khtml9DocLoaderEPNS0_12CachedObjectE
single module:-[WebCoreBridge mouseMoved:]
single module:__ZN12KWQKHTMLPart10mouseMovedEP7NSEvent
single module:__ZN6QPointC1ERK8_NSPoint
single module:__ZN6QPointC4ERK8_NSPoint
single module:__ZN12KWQKHTMLPart20stateForCurrentEventEv
single module:__ZN12KWQKHTMLPart21buttonForCurrentEventEv
single module:__ZN11QMouseEventC1EN6QEvent4TypeERK6QPointii
single module:__ZN11QMouseEventC4EN6QEvent4TypeERK6QPointii
single module:__ZN9KHTMLView22viewportMouseMoveEventEP11QMouseEvent
single module:__ZN11QScrollView18viewportToContentsEiiRiS0_
single module:__ZN11QMouseEvent10stateAfterEv
single module:__ZN3DOM4NodeC1EPNS_8NodeImplE
single module:__ZN3DOM12DocumentImpl17prepareMouseEventEbiiPNS_8NodeImpl10MouseEventE
single module:__ZN5khtml11RenderLayer32clearOtherLayersHoverActiveStateEv
single module:__ZN3DOM12DocumentImpl15updateRenderingEv
single module:__ZN12KWQKHTMLPart27passSubframeEventToSubframeERN3DOM8NodeImpl10MouseEventE
single module:__ZN9KHTMLView18dispatchMouseEventEiPN3DOM8NodeImplEbiP11QMouseEventbi
single module:__ZNK3DOM12DocumentImpl11defaultViewEv
single module:__ZN3DOM14MouseEventImplC1ENS_9EventImpl7EventIdEbbPNS_16AbstractViewImplElllllbbbbtPNS_8NodeImplE
single module:__ZN3DOM14MouseEventImplC4ENS_9EventImpl7EventIdEbbPNS_16AbstractViewImplElllllbbbbtPNS_8NodeImplE
single module:__ZN3DOM11UIEventImplC2ENS_9EventImpl7EventIdEbbPNS_16AbstractViewImplEl
single module:__ZN3DOM11UIEventImplC4ENS_9EventImpl7EventIdEbbPNS_16AbstractViewImplEl
single module:__ZN3DOM9EventImplC2ENS0_7EventIdEbb
single module:__ZN3DOM9EventImplC4ENS0_7EventIdEbb
single module:__ZN3DOM9EventImpl8idToTypeENS0_7EventIdE
single module:__ZN3DOM14MouseEventImpl15computeLayerPosEv
single module:__ZNK3DOM11UIEventImpl4viewEv
single module:__ZN3DOM8NodeImpl13dispatchEventEPNS_9EventImplERib
single module:__ZN3DOM9EventImpl9setTargetEPNS_8NodeImplE
single module:__ZN3DOM9EventImpl13setEventPhaseEt
single module:__ZNK3DOM9EventImpl7bubblesEv
single module:__ZN3DOM8NodeImpl19defaultEventHandlerEPNS_9EventImplE
single module:__ZThn64_N3DOM12DocumentImpl19defaultEventHandlerEPNS_9EventImplE
single module:__ZN3DOM12DocumentImpl19defaultEventHandlerEPNS_9EventImplE
single module:__ZN3DOM5EventC1EPNS_9EventImplE
single module:__ZN3DOM5EventC4EPNS_9EventImplE
single module:__ZN3DOM5EventD1Ev
single module:__ZN3DOM5EventD4Ev
single module:__ZN19KWQListIteratorImpl7toFirstEv
single module:__ZN12KJSProxyImpl17finishedWithEventERKN3DOM5EventE
single module:__ZNK3DOM5Event6handleEv
single module:__ZN3KJS17ScriptInterpreter15forgetDOMObjectEPv
single module:__ZN3DOM14MouseEventImplD0Ev
single module:__ZN3DOM14MouseEventImplD4Ev
single module:__ZN3DOM11UIEventImplD2Ev
single module:__ZN3DOM11UIEventImplD4Ev
single module:__ZN3DOM9EventImplD2Ev
single module:__ZN3DOM9EventImplD4Ev
single module:__ZN9KHTMLPart22executeScheduledScriptEv
single module:__ZN7QCursorC1Ev
single module:__ZN7QCursorC4Ev
single module:__Z13isSubmitImagePN3DOM8NodeImplE
single module:__ZN7QWidget6cursorEv
single module:__ZN7QCursorC1EP8NSCursor
single module:__ZN7QCursorC4EP8NSCursor
single module:__ZNK7QCursor6handleEv
single module:__ZN7QCursorD1Ev
single module:__ZN7QCursorD4Ev
single module:__ZN7KCursor11arrowCursorEv
single module:__ZN7QWidget11unsetCursorEv
single module:__ZN7QWidget9setCursorERK7QCursor
single module:__ZN5khtml10MouseEventC2EPKcP11QMouseEventiiRKN3DOM9DOMStringES8_RKNS5_4NodeE
single module:__ZN5khtml10MouseEventC4EPKcP11QMouseEventiiRKN3DOM9DOMStringES8_RKNS5_4NodeE
single module:__ZN6KParts5EventC2EPKc
single module:__ZN6KParts5EventC4EPKc
single module:__ZN5khtml9RenderBox16absolutePositionERiS1_b
single module:__ZN5khtml12RenderCanvas16absolutePositionERiS1_b
single module:__ZN9KHTMLPart11customEventEP12QCustomEvent
single module:__ZN6KParts5Event4testEPK6QEventPKc
single module:__ZN6KParts5Event4testEPK6QEvent
single module:__ZN12KWQKHTMLPart19khtmlMouseMoveEventEPN5khtml14MouseMoveEventE
single module:__ZN9KHTMLPart19khtmlMouseMoveEventEPN5khtml14MouseMoveEventE
single module:__ZN5khtml10MouseEventD2Ev
single module:__ZN5khtml10MouseEventD4Ev
single module:__ZN6QEventD2Ev
single module:__ZN6QEventD4Ev
single module:-[WebCoreBridge elementAtPoint:]
single module:saveFP
single module:__ZN9KHTMLPart22isPointInsideSelectionEii
single module:__ZN3DOM4NodeeqERKS0_
single module:__Z7isImagePN3DOM8NodeImplE
single module:restFP
single module:-[KWQObjectTimerTarget timerFired]
single module:__ZN11QTimerEventC1Ei
single module:__ZN11QTimerEventC4Ei
single module:__ZN3DOM19HTMLBodyElementImpl14parseAttributeEPNS_13AttributeImplE
single module:__ZN7QString6setNumEd
single module:__ZN11KWQListImpl9removeRefEPKvb
single module:__ZN3DOM21CSSPrimitiveValueImplD0Ev
single module:__ZN3DOM21CSSPrimitiveValueImpl7cleanupEv
single module:__ZN3DOM12CSSValueImplD2Ev
single module:__ZN3DOM12CSSValueImplD4Ev
single module:__ZN3DOM15HTMLElementImpl12addHTMLColorEiRKNS_9DOMStringE
single module:__ZplPKcRK7QString
single module:__ZN3DOM17CSSStyleSheetImpl14setNonCSSHintsEv
single module:__ZN3DOM16CSSStyleRuleImpl14setNonCSSHintsEv
single module:__ZN3DOM12DocumentImpl23createHTMLEventListenerE7QString
single module:__ZN9KHTMLPart23createHTMLEventListenerE7QString
single module:__ZN3DOM23RegisteredEventListenereqERKS0_
single module:__ZN3DOM19HTMLBodyElementImpl20insertedIntoDocumentEv
single module:__ZN3DOM15HTMLElementImpl14addCSSPropertyEiRKNS_9DOMStringE
single module:__ZN5khtml19StyleBackgroundDataC1ERKS0_
single module:__ZN5khtml19StyleBackgroundDataC4ERKS0_
single module:__ZN3DOM19HTMLBodyElementImpl6attachEv
single module:__ZN3DOM19HTMLBodyElementImpl14createRendererEP11RenderArenaPN5khtml11RenderStyleE
single module:__ZN5khtml10RenderBodyC1EPN3DOM19HTMLBodyElementImplE
single module:__ZN5khtml10RenderBodyC4EPN3DOM19HTMLBodyElementImplE
single module:__ZN5khtml10RenderBody8setStyleEPNS_11RenderStyleE
single module:__ZN3DOM8NodeImpl16previousRendererEv
single module:__ZN3DOM18HTMLDivElementImplC1EPNS_11DocumentPtrE
single module:__ZN3DOM18HTMLDivElementImplC4EPNS_11DocumentPtrE
single module:__ZN3DOM18HTMLDivElementImpl14parseAttributeEPNS_13AttributeImplE
single module:__ZN5khtml12RenderObject22setOverhangingContentsEb
single module:__Z4hashPKcj
single module:__ZN5khtml16CSSStyleSelector27checkForGenericFamilyChangeEPNS_11RenderStyleES2_
single module:__ZN3DOM20HTMLImageElementImpl14createRendererEP11RenderArenaPN5khtml11RenderStyleE
single module:__ZN5khtml11RenderImageC1EPN3DOM15HTMLElementImplE
single module:__ZN5khtml14RenderReplacedC2EPN3DOM8NodeImplE
single module:__ZN5khtml14RenderReplacedC4EPN3DOM8NodeImplE
single module:__ZN5khtml11RenderImage8setStyleEPNS_11RenderStyleE
single module:__ZN5khtml11CachedImageC1EPNS_9DocLoaderERKN3DOM9DOMStringEN3KIO12CacheControlEl
single module:__ZN5khtml11CachedImageC4EPNS_9DocLoaderERKN3DOM9DOMStringEN3KIO12CacheControlEl
single module:__ZN3DOM16HTMLDocumentImpl19addNamedImageOrFormERK7QString
single module:__ZN3DOM18HTMLMapElementImplC4EPNS_11DocumentPtrE
single module:__ZN3DOM18HTMLMapElementImpl14parseAttributeEPNS_13AttributeImplE
single module:__ZN10KWQMapImpl20rebalanceAfterInsertEPP14KWQMapNodeImplPbi
single module:__ZNK3DOM18HTMLMapElementImpl2idEv
single module:__ZN5khtml12RenderInlineC1EPN3DOM8NodeImplE
single module:__ZN3DOM19HTMLAreaElementImplC1EPNS_11DocumentPtrE
single module:__ZN3DOM19HTMLAreaElementImplC4EPNS_11DocumentPtrE
single module:__ZN3DOM21HTMLAnchorElementImplC2EPNS_11DocumentPtrE
single module:__ZN3DOM19HTMLAreaElementImpl14parseAttributeEPNS_13AttributeImplE
single module:__ZNK7QString18simplifyWhiteSpaceEv
single module:__ZNK7QString8containsEc
single module:__ZNK7QString8containsE5QCharb
single module:__ZN3DOM21HTMLAnchorElementImpl14parseAttributeEPNS_13AttributeImplE
single module:__ZN3DOM8NodeImpl20setHTMLEventListenerEiPNS_13EventListenerE
single module:__ZN3DOM8NodeImpl23removeHTMLEventListenerEi
single module:__ZN3DOM8NodeImpl16addEventListenerEiPNS_13EventListenerEb
single module:__ZN3DOM8NodeImpl19removeEventListenerEiPNS_13EventListenerEb
single module:__ZN3DOM20HTMLTableElementImplC1EPNS_11DocumentPtrE
single module:__ZN3DOM20HTMLTableElementImplC4EPNS_11DocumentPtrE
single module:__ZN7QString6numberEi
single module:__ZN7QString6setNumEi
single module:__ZN3DOM20HTMLTableElementImpl6attachEv
single module:__ZN5khtml11RenderTableC1EPN3DOM8NodeImplE
single module:__ZN5khtml15AutoTableLayoutC1EPNS_11RenderTableE
single module:__ZN5khtml15AutoTableLayoutC4EPNS_11RenderTableE
single module:__ZN5khtml12RenderObject12removeLayersEPNS_11RenderLayerE
single module:__ZN5khtml12getInlineRunEPNS_12RenderObjectES1_RS1_S2_
single module:__ZN3DOM8NodeImpl10isAncestorEPS0_
single module:__ZN3DOM27HTMLTableSectionElementImplC1EPNS_11DocumentPtrEtb
single module:__ZN3DOM27HTMLTableSectionElementImplC4EPNS_11DocumentPtrEtb
single module:__ZN5khtml18RenderTableSectionC1EPN3DOM8NodeImplE
single module:__ZN5khtml18RenderTableSectionC4EPN3DOM8NodeImplE
single module:__ZN5khtml18RenderTableSection8setStyleEPNS_11RenderStyleE
single module:__ZN5khtml11RenderTable8addChildEPNS_12RenderObjectES2_
single module:__ZN3DOM8NodeImpl28dispatchSubtreeModifiedEventEv
single module:__ZN3DOM27HTMLTableSectionElementImpl8addChildEPNS_8NodeImplE
single module:__ZN5khtml14RenderTableRowC1EPN3DOM8NodeImplE
single module:__ZN5khtml14RenderTableRowC4EPN3DOM8NodeImplE
single module:__ZN5khtml14RenderTableRow8setStyleEPNS_11RenderStyleE
single module:__ZN3DOM24HTMLTableCellElementImplC1EPNS_11DocumentPtrEi
single module:__ZN5khtml15RenderTableCellC1EPN3DOM8NodeImplE
single module:__ZN5khtml15RenderTableCell17updateFromElementEv
single module:__ZN5khtml7RequestD1Ev
single module:__ZN5khtml7RequestD4Ev
single module:__ZN3KIO11TransferJobD0Ev
single module:-[KWQResourceLoader jobWillBeDeallocated]
single module:__ZN7QObjectD2Ev
single module:__ZN9KWQSignalD1Ev
single module:__ZN9KWQSignalD4Ev
single module:__ZN5khtml10RenderBody6layoutEv
single module:__ZN5khtml11BidiContextC1EhN5QChar9DirectionEPS0_b
single module:__ZN5khtml11BidiContextC4EhN5QChar9DirectionEPS0_b
single module:__ZNK5khtml11BidiContext3refEv
single module:__ZN5khtml11BidiContextD1Ev
single module:__ZN5khtml11BidiContextD4Ev
single module:__ZN5khtml11RenderTable13setCellWidthsEv
single module:__ZN5khtml15RenderTableCell8setWidthEi
single module:__ZN5khtml15RenderContainer6layoutEv
single module:__ZN5khtml15RenderTableCell6layoutEv
single module:__ZN5khtml15RenderTableCell9calcWidthEv
single module:__ZN5khtml13InlineFlowBox29shrinkBoxesWithNoTextChildrenEii
single module:__ZNK5khtml9RenderBox15availableHeightEv
single module:__ZN8QPainter6setPenEj
single module:__ZN4QPen8setStyleEN2Qt8PenStyleE
single module:__ZN4QPen8setColorERK6QColor
single module:__ZN4QPen8setWidthEj
single module:__ZN8QPainter8setBrushEN2Qt10BrushStyleE
single module:__ZN8QPainter8drawRectEiiii
single module:__ZNK4QPen5styleEv
single module:__ZN8QPainter16_setColorFromPenEv
single module:__ZThn64_N5khtml11CachedImage4dataER7QBufferb
single module:__Z19KWQResponseMIMETypePv
single module:__ZN7QPixmapC1EPv
single module:__ZN7QPixmapC4EPv
single module:__ZNK5khtml9RenderBox18calcReplacedHeightEv
single module:__ZN7QPixmap14stopAnimationsEv
single module:__ZN7QPixmapaSERKS_
single module:__ZN7QPixmapD1Ev
single module:__ZN7QPixmapD4Ev
single module:__ZN5khtml11RenderImage14notifyFinishedEPNS_12CachedObjectE
single module:__ZN3DOM12DocumentImpl26dispatchImageLoadEventSoonEPN5khtml11RenderImageE
single module:__ZNK3KJS6Window8locationEv
single module:__ZN3KJS8LocationC1EP9KHTMLPart
single module:__ZN3KJS8LocationC4EP9KHTMLPart
single module:__ZNK3KJS8Location3getEPNS_9ExecStateERKNS_10IdentifierE
single module:__ZNK4KURL7hasPathEv
single module:__ZNK4KURL9prettyURLEv
single module:__ZNK4KURL4portEv
single module:__ZNK4KURL5queryEv
single module:__ZNK3KJS16DOMDocumentProto11hasPropertyEPNS_9ExecStateERKNS_10IdentifierE
single module:__ZNK3KJS12DOMNodeProto11hasPropertyEPNS_9ExecStateERKNS_10IdentifierE
single module:__ZNK3KJS10Identifier7qstringEv
single module:__ZN3DOM16HTMLDocumentImpl20haveNamedImageOrFormERK7QString
single module:__ZN3DOM19HTMLFormElementImplC4EPNS_11DocumentPtrE
single module:__ZN3DOM19HTMLFormElementImpl14parseAttributeEPNS_13AttributeImplE
single module:__ZN3DOM19HTMLFormElementImpl29formWouldHaveSecureSubmissionENS_9DOMStringE
single module:__ZN3DOM19HTMLFormElementImpl6attachEv
single module:__ZN3DOM13StyleBaseImpl7baseURLEv
single module:__ZN3DOM17CSSImageValueImplC1ERKNS_9DOMStringEPNS_13StyleBaseImplE
single module:__ZN3DOM17CSSImageValueImplC4ERKNS_9DOMStringEPNS_13StyleBaseImplE
single module:__ZN3DOM17CSSStyleSheetImpl9docLoaderEv
single module:__ZN3DOM20HTMLImageElementImplC1EPNS_11DocumentPtrE
single module:__ZN5khtml15RenderTableCell5closeEv
single module:__ZN3DOM15HTMLElementImpl14addCSSPropertyEii
single module:__ZN3DOM23CSSStyleDeclarationImpl11setPropertyEiibb
single module:__ZN3DOM13StyleBaseImpl14setParsedValueEiPKNS_12CSSValueImplEbbP8QPtrListINS_11CSSPropertyEE
single module:__ZN3DOM15HTMLElementImpl17removeCSSPropertyEi
single module:__ZN3DOM21HTMLSelectElementImplC1EPNS_11DocumentPtrEPNS_19HTMLFormElementImplE
single module:__ZN3DOM21HTMLSelectElementImplC4EPNS_11DocumentPtrEPNS_19HTMLFormElementImplE
single module:__ZN3DOM26HTMLGenericFormElementImplC2EPNS_11DocumentPtrEPNS_19HTMLFormElementImplE
single module:__ZN3DOM26HTMLGenericFormElementImplC4EPNS_11DocumentPtrEPNS_19HTMLFormElementImplE
single module:__ZN3DOM19HTMLFormElementImpl19registerFormElementEPNS_26HTMLGenericFormElementImplE
single module:__ZN3DOM21HTMLSelectElementImpl14parseAttributeEPNS_13AttributeImplE
single module:__ZN3DOM26HTMLGenericFormElementImpl14parseAttributeEPNS_13AttributeImplE
single module:__ZNK3DOM21HTMLSelectElementImpl2idEv
single module:__ZN3DOM21HTMLSelectElementImpl6attachEv
single module:__ZN6QColor13setNamedColorERK7QString
single module:__Z9findColorPKcj
single module:__Z4hashPKcj
single module:__Z15getPropertyNamet
single module:__ZN3DOM21HTMLSelectElementImpl14createRendererEP11RenderArenaPN5khtml11RenderStyleE
single module:__ZN5khtml12RenderSelectC1EPN3DOM21HTMLSelectElementImplE
single module:__ZN5khtml12RenderSelectC4EPN3DOM21HTMLSelectElementImplE
single module:__ZN5khtml17RenderFormElementC2EPN3DOM26HTMLGenericFormElementImplE
single module:__ZN5khtml17RenderFormElementC4EPN3DOM26HTMLGenericFormElementImplE
single module:__ZN5khtml12RenderWidgetC2EPN3DOM8NodeImplE
single module:__ZN5khtml12RenderWidgetC4EPN3DOM8NodeImplE
single module:__ZN5khtml12RenderSelect14createComboBoxEv
single module:__ZN5khtml14ComboBoxWidgetC1EP7QWidget
single module:__ZN5khtml14ComboBoxWidgetC4EP7QWidget
single module:__ZN9QComboBoxC2Ev
single module:__ZN9QComboBoxC4Ev
single module:-[KWQComboBoxAdapter initWithQComboBox:]
single module:-[KWQPopUpButtonCell initWithWidget:]
single module:__ZNK9QComboBox17updateCurrentItemEv
single module:__ZN5khtml12RenderWidget10setQWidgetEP7QWidget
single module:__ZNK7QWidget5widthEv
single module:__ZNK9QComboBox13frameGeometryEv
single module:__ZNK7QWidget6heightEv
single module:__ZN9QComboBox16setFrameGeometryERK5QRect
single module:__ZThn64_N5khtml17RenderFormElement8setStyleEPNS_11RenderStyleE
single module:__ZN5khtml17RenderFormElement8setStyleEPNS_11RenderStyleE
single module:__ZN5khtml17RenderFormElement28addIntrinsicMarginsIfAllowedEPNS_11RenderStyleE
single module:__ZN5khtml12RenderWidget8setStyleEPNS_11RenderStyleE
single module:__ZN7QWidget7setFontERK5QFont
single module:__ZN3DOM26HTMLGenericFormElementImpl6attachEv
single module:__ZThn64_N5khtml12RenderSelect17updateFromElementEv
single module:__ZN5khtml12RenderSelect17updateFromElementEv
single module:__ZN9QComboBox5clearEv
single module:__ZN5khtml12RenderSelect15updateSelectionEv
single module:__ZN7QWidget10setEnabledEb
single module:__ZN15KGlobalSettings8contrastEv
single module:__ZN8QPalette8setColorENS_10ColorGroupEN11QColorGroup9ColorRoleERK6QColor
single module:__ZN11QColorGroup8setColorENS_9ColorRoleERK6QColor
single module:__ZNK6QColor3hsvEPiS0_S0_
single module:__ZNK6QColor5lightEi
single module:__ZN6QColor6setHsvEiii
single module:__ZN7QWidget10setPaletteERK8QPalette
single module:__ZN3DOM21HTMLOptionElementImplC1EPNS_11DocumentPtrEPNS_19HTMLFormElementImplE
single module:__ZN3DOM21HTMLOptionElementImplC4EPNS_11DocumentPtrEPNS_19HTMLFormElementImplE
single module:__ZN3DOM21HTMLOptionElementImpl14parseAttributeEPNS_13AttributeImplE
single module:__ZNK3DOM21HTMLOptionElementImpl2idEv
single module:__ZN3DOM21HTMLSelectElementImpl8addChildEPNS_8NodeImplE
single module:__ZN3DOM21HTMLSelectElementImpl18setRecalcListItemsEv
single module:__ZN5khtml12RenderSelect17setOptionsChangedEb
single module:__ZN3DOM21HTMLSelectElementImpl15childrenChangedEv
single module:__ZN3DOM20HTMLInputElementImplC4EPNS_11DocumentPtrEPNS_19HTMLFormElementImplE
single module:__ZN3DOM20HTMLInputElementImpl14parseAttributeEPNS_13AttributeImplE
single module:__ZN3DOM20HTMLInputElementImpl7setTypeERKNS_9DOMStringE
single module:__ZN3DOM20HTMLInputElementImpl36removeCheckedRadioButtonFromDocumentEv
single module:__ZNK3DOM20HTMLInputElementImpl31isCheckedRadioButtonForDocumentEv
single module:__ZN3DOM20HTMLInputElementImpl31addCheckedRadioButtonToDocumentEv
single module:__ZN3DOM20HTMLInputElementImpl16rendererIsNeededEPN5khtml11RenderStyleE
single module:__ZNK16KWQValueListImpl7isEmptyEv
single module:__ZN3DOM20HTMLInputElementImplC1EPNS_11DocumentPtrEPNS_19HTMLFormElementImplE
single module:__ZN5khtml14RenderLineEditC4EPN3DOM20HTMLInputElementImplE
single module:__ZN5khtml14LineEditWidgetC1EP7QWidget
single module:__ZN5khtml14LineEditWidgetC4EP7QWidget
single module:__ZN9QLineEditC2Ev
single module:__ZN9QLineEditC4Ev
single module:+[KWQTextField initialize]
single module:-[KWQTextField initWithQLineEdit:]
single module:-[KWQTextField initWithFrame:]
single module:-[KWQTextField setEditable:]
single module:-[KWQTextFieldFormatter init]
single module:-[KWQTextField setUpTextField:]
single module:-[KWQTextFieldFormatter stringForObjectValue:]
single module:-[KWQTextField setSelectable:]
single module:__ZNK3DOM26HTMLGenericFormElementImpl4nameEv
single module:__ZNK9KHTMLView19formCompletionItemsERK7QString
single module:-[KWQTextField setFrameSize:]
single module:-[KWQTextField updateSecureFieldFrame]
single module:__ZN3DOM20HTMLInputElementImpl14createRendererEP11RenderArenaPN5khtml11RenderStyleE
single module:__ZN9QLineEdit7setFontERK5QFont
single module:-[KWQTextField setFont:]
single module:__ZThn64_N5khtml14RenderLineEdit17updateFromElementEv
single module:__ZN5khtml14RenderLineEdit17updateFromElementEv
single module:__ZNK9QLineEdit9maxLengthEv
single module:-[KWQTextField maximumLength]
single module:-[KWQTextFieldFormatter maximumLength]
single module:__ZN9QLineEdit12setMaxLengthEi
single module:-[KWQTextField setMaximumLength:]
single module:-[KWQTextField stringValue]
single module:-[KWQTextFieldFormatter setMaximumLength:]
single module:__ZNK3DOM20HTMLInputElementImpl5valueEv
single module:__ZN9QLineEdit4textEv
single module:__ZN9QLineEdit11setReadOnlyEb
single module:__ZN9QLineEdit12setAlignmentEN2Qt14AlignmentFlagsE
single module:-[KWQTextField setAlignment:]
single module:__ZNK5khtml12CachedObject9isExpiredEv
single module:__ZNK3DOM20HTMLInputElementImpl7altTextEv
single module:__ZN5khtml11RenderTable5closeEv
single module:__ZNK5khtml19StyleBackgroundDataeqERKS0_
single module:__ZNK5khtml18StyleInheritedDataeqERKS0_
single module:__ZN9QComboBox14setCurrentItemEi
single module:__ZN5khtml18CachedObjectClient9setPixmapERK7QPixmapRK5QRectPNS_11CachedImageE
single module:__ZN5khtml9RenderBox9setPixmapERK7QPixmapRK5QRectPNS_11CachedImageE
single module:__ZN5khtml10RenderFlow7repaintEb
single module:__ZN5khtml9RenderBox7repaintEb
single module:__ZN5khtml15RenderTableCell16repaintRectangleEiiiibb
single module:__ZN5khtml12RenderObject16repaintRectangleEiiiibb
single module:__ZN5khtml18CachedObjectClient14notifyFinishedEPNS_12CachedObjectE
single module:__ZThn64_N5khtml12RenderSelect15calcMinMaxWidthEv
single module:__ZN5khtml12RenderSelect15calcMinMaxWidthEv
single module:__ZThn64_N5khtml12RenderSelect6layoutEv
single module:__ZN5khtml12RenderSelect6layoutEv
single module:__ZNK9QComboBox8sizeHintEv
single module:__ZN5khtml17RenderFormElement6layoutEv
single module:__ZN5khtml12RenderWidget12resizeWidgetEP7QWidgetii
single module:__ZN5khtml12RenderWidget5derefEP11RenderArena
single module:__ZThn64_N5khtml14RenderLineEdit15calcMinMaxWidthEv
single module:__ZN5khtml14RenderLineEdit15calcMinMaxWidthEv
single module:__ZNK9QLineEdit21sizeForCharacterWidthEi
single module:-[KWQTextField setStringValue:]
single module:-[KWQTextFieldFormatter getObjectValue:forString:errorDescription:]
single module:__ZNK9KWQSignal4callERK7QString
single module:__ZNK7KWQSlot4callERK7QString
single module:__ZN5khtml14RenderLineEdit15slotTextChangedERK7QString
single module:-[KWQTextFieldFormatter attributedStringForObjectValue:withDefaultAttributes:]
single module:__ZN5QSizeC1ERK7_NSSize
single module:__ZN5QSizeC4ERK7_NSSize
single module:__ZN5khtml12RenderObject15createInlineBoxEb
single module:__ZNK5khtml14RenderReplaced10lineHeightEb
single module:__ZNK5khtml14RenderReplaced16baselinePositionEb
single module:__ZN5khtml9RenderBox8positionEPNS_9InlineBoxEiib
single module:__ZThn64_N5khtml17RenderFormElement6layoutEv
single module:__ZThn64_NK5khtml12RenderSelect16baselinePositionEb
single module:__ZNK5khtml12RenderSelect16baselinePositionEb
single module:__ZNK5khtml17RenderFormElement16baselinePositionEb
single module:__ZNK9QComboBox16baselinePositionEv
single module:__ZThn64_NK5khtml17RenderFormElement16baselinePositionEb
single module:__ZNK9QLineEdit16baselinePositionEv
single module:__ZN5khtml11CachedImage12tiled_pixmapERK6QColor
single module:__ZNK5khtml11CachedImage6pixmapEv
single module:__ZN5QSizeC1Ev
single module:__ZN5QSizeC4Ev
single module:__ZNK7QPixmap5xFormERK8QWMatrix
single module:__ZN7QPixmapC1ERKS_
single module:__ZN7QPixmapC4ERKS_
single module:__ZneRK5QSizeS1_
single module:__ZN7QPixmap6resizeERK5QSize
single module:__ZN7QPixmap6resizeEii
single module:__ZThn64_N5khtml12RenderWidget11paintObjectEP8QPainteriiiiii11PaintAction
single module:__ZN5khtml12RenderWidget11paintObjectEP8QPainteriiiiii11PaintAction
single module:__ZNK8QPainter16paintingDisabledEv
single module:-[KWQPopUpButtonCell drawInteriorWithFrame:inView:]
single module:__ZNK3KJS16DOMDocumentProto3getEPNS_9ExecStateERKNS_10IdentifierE
single module:__ZNK3KJS7DOMNode6tryGetEPNS_9ExecStateERKNS_10IdentifierE
single module:__ZNK3KJS11DOMDocument6tryGetEPNS_9ExecStateERKNS_10IdentifierE
single module:__ZN8QVariantC1ERK7QString
single module:__ZN8QVariantC4ERK7QString
single module:__ZN8QVariantaSERKS_
single module:__ZN3DOM17HTMLBRElementImplC1EPNS_11DocumentPtrE
single module:__ZN3DOM17HTMLBRElementImplC4EPNS_11DocumentPtrE
single module:__ZN3DOM17HTMLBRElementImpl6attachEv
single module:__ZN3DOM17HTMLBRElementImpl14createRendererEP11RenderArenaPN5khtml11RenderStyleE
single module:__ZN5khtml8RenderBRC1EPN3DOM8NodeImplE
single module:__ZN5khtml8RenderBRC4EPN3DOM8NodeImplE
single module:__ZN5khtml10RenderTextC2EPN3DOM8NodeImplEPNS1_13DOMStringImplE
single module:__ZNK5QRect6isNullEv
single module:__ZN3DOM21HTMLAnchorElementImplC1EPNS_11DocumentPtrE
single module:__ZN7QString6removeEjj
single module:__ZNK4KURL12canonicalURLEv
single module:+[WebCoreHistory historyProvider]
single module:__ZNK3DOM16CSSValueListImpl12cssValueTypeEv
single module:__ZN5khtml15StyleVisualDataC1ERKS0_
single module:__ZN5khtml15StyleVisualDataC4ERKS0_
single module:__ZN3DOM22HTMLGenericElementImplC1EPNS_11DocumentPtrEt
single module:__ZN3DOM22HTMLGenericElementImplC4EPNS_11DocumentPtrEt
single module:__ZN3DOM16NamedAttrMapImplD0Ev
single module:__ZN3DOM16NamedAttrMapImplD4Ev
single module:__ZN3DOM16NamedAttrMapImpl15clearAttributesEv
single module:__ZN3DOM16NamedNodeMapImplD2Ev
single module:__ZN3DOM16NamedNodeMapImplD4Ev
single module:__ZN3DOM19HTMLFontElementImplC1EPNS_11DocumentPtrE
single module:__ZN3DOM19HTMLFontElementImplC4EPNS_11DocumentPtrE
single module:__ZN3DOM19HTMLFontElementImpl14parseAttributeEPNS_13AttributeImplE
single module:__ZN3DOM23CSSStyleDeclarationImpl11setPropertyERKNS_9DOMStringE
single module:__ZN3DOM9CSSParser16parseDeclarationEPNS_23CSSStyleDeclarationImplERKNS_9DOMStringEb
single module:__ZN3DOM11ElementImpl9cloneNodeEb
single module:__ZNK3DOM11ElementImpl7tagNameEv
single module:__ZNK3DOM12DocumentImpl7tagNameEj
single module:__Z10getTagNamet
single module:__ZN3DOM16HTMLDocumentImpl13createElementERKNS_9DOMStringE
single module:__ZN3DOM12DocumentImpl17createHTMLElementERKNS_9DOMStringE
single module:__ZN3DOM17HTMLBRElementImpl14parseAttributeEPNS_13AttributeImplE
single module:__ZN3DOM17HTMLHRElementImplC1EPNS_11DocumentPtrE
single module:__ZN3DOM17HTMLHRElementImplC4EPNS_11DocumentPtrE
single module:__ZNK3DOM17HTMLHRElementImpl2idEv
single module:__ZN3DOM17HTMLHRElementImpl6attachEv
single module:__Z19parseFontSizeNumberRKN3DOM9DOMStringERi
single module:__ZNK5QChar8isNumberEv
single module:__ZNK5QChar16isLetterOrNumberEv
single module:__ZNK5QChar8isLetterEv
single module:__ZN3DOM19HTMLFormElementImplC1EPNS_11DocumentPtrE
single module:__ZN5khtml12RenderInline9splitFlowEPNS_12RenderObjectEPNS_11RenderBlockES2_PNS_10RenderFlowE
single module:__ZN5khtml12RenderInline12splitInlinesEPNS_11RenderBlockES2_S2_PNS_12RenderObjectEPNS_10RenderFlowE
single module:__Z11cloneInlinePN5khtml10RenderFlowE
single module:__ZN5khtml17RenderImageButtonC1EPN3DOM20HTMLInputElementImplE
single module:__ZN5khtml17RenderImageButtonC4EPN3DOM20HTMLInputElementImplE
single module:__ZN5khtml11RenderImageC2EPN3DOM15HTMLElementImplE
single module:__Z19inputElementAltTextv
single module:__ZNK12QFontMetrics7xHeightEv
single module:__ZN5khtml17RenderRadioButtonC1EPN3DOM20HTMLInputElementImplE
single module:__ZN5khtml17RenderRadioButtonC4EPN3DOM20HTMLInputElementImplE
single module:__ZN5khtml12RenderButtonC2EPN3DOM26HTMLGenericFormElementImplE
single module:__ZN5khtml12RenderButtonC4EPN3DOM26HTMLGenericFormElementImplE
single module:__ZN12QRadioButtonC1EP7QWidget
single module:__ZN12QRadioButtonC4EP7QWidget
single module:__ZN7QButtonC2Ev
single module:__ZN7QButtonC4Ev
single module:-[KWQButton initWithQButton:]
single module:__ZNK12QRadioButton13frameGeometryEv
single module:__ZN12QRadioButton16setFrameGeometryERK5QRect
single module:__ZThn64_N5khtml17RenderRadioButton17updateFromElementEv
single module:__ZN5khtml17RenderRadioButton17updateFromElementEv
single module:__ZN12QRadioButton10setCheckedEb
single module:__ZNK8QPalette5colorENS_10ColorGroupEN11QColorGroup9ColorRoleE
single module:__ZN3KJS10DOMElementC4EPNS_9ExecStateERKN3DOM7ElementE
single module:__ZN3KJS17ScriptInterpreter23putDOMObjectForDocumentEPN3DOM12DocumentImplEPvPNS_9DOMObjectE
single module:__ZN3KJS10PluginBaseC2EPNS_9ExecStateE
single module:__ZN7KConfigC1ERK7QStringbb
single module:__ZN7KConfigC4ERK7QStringbb
single module:__ZNK7KConfig12readNumEntryEPKci
single module:__ZN7QString6numberEj
single module:__ZN7QString6setNumEj
single module:__ZN7KConfig8setGroupERK7QString
single module:__ZNK7QString6toUIntEPbi
single module:__ZNK7QString7toULongEPbi
single module:__ZN24KWQValueListIteratorImplC1Ev
single module:__ZN24KWQValueListIteratorImplC4Ev
single module:__ZN24KWQValueListIteratorImpleqERKS_
single module:__ZNK3KJS7Plugins3getEPNS_9ExecStateERKNS_10IdentifierE
single module:__ZNK3KJS6Plugin3getEPNS_9ExecStateERKNS_10IdentifierE
single module:__ZN3KJS10PluginBaseD2Ev
single module:__ZN3KJS10PluginBaseD4Ev
single module:__ZN5khtml16RenderPartObjectC4EPN3DOM15HTMLElementImplE
single module:__ZN5khtml10RenderPartC2EPN3DOM15HTMLElementImplE
single module:__ZN5khtml10RenderPartC4EPN3DOM15HTMLElementImplE
single module:__ZN3DOM21HTMLIFrameElementImpl14createRendererEP11RenderArenaPN5khtml11RenderStyleE
single module:__ZThn64_N5khtml12RenderWidget8setStyleEPNS_11RenderStyleE
single module:__ZN3DOM21HTMLIFrameElementImpl6attachEv
single module:__ZN9KHTMLPart19incrementFrameCountEv
single module:__ZN9KHTMLPart11frameExistsERK7QString
single module:__ZN9FrameList4findERK7QString
single module:__ZN5khtml16RenderPartObject12updateWidgetEv
single module:__ZNK3DOM21HTMLIFrameElementImpl2idEv
single module:__ZN9KHTMLPart12requestFrameEPN5khtml10RenderPartERK7QStringS5_RK11QStringListb
single module:__ZN9KHTMLPart11completeURLERK7QString
single module:__ZN9KHTMLPart13requestObjectEPN5khtml10ChildFrameERK4KURLRKN6KParts7URLArgsE
single module:__ZN10KWQMapImpl13KWQMapPrivateD1Ev
single module:__ZN10KWQMapImpl13KWQMapPrivateD4Ev
single module:__ZNK10KWQMapImpl8copyTreeEPK14KWQMapNodeImplPS0_S3_
single module:__ZN9KHTMLPart20processObjectRequestEPN5khtml10ChildFrameERK4KURLRK7QString
single module:__ZN12KWQKHTMLPart10createPartERKN5khtml10ChildFrameERK4KURLRK7QString
single module:+[WebCoreCookieAdapter sharedAdapter]
single module:__ZN12KWQKHTMLPartC1Ev
single module:__ZeqRK7KWQSlotS1_
single module:-[WebCoreBridge setParent:]
single module:-[WebCoreBridge part]
single module:-[WebCoreBridge setRenderPart:]
single module:-[WebCoreBridge URL]
single module:__ZN5khtml10RenderPart9setWidgetEP7QWidget
single module:__ZNK7QObject8inheritsEPKc
single module:__ZN5khtml16RenderPartObject15slotViewClearedEv
single module:__ZN9KHTMLPart18checkEmitLoadEventEv
single module:__ZThn64_N5khtml16RenderPartObject5closeEv
single module:__ZN5khtml16RenderPartObject5closeEv
single module:__ZN3DOM17HTMLHRElementImpl14parseAttributeEPNS_13AttributeImplE
single module:__ZN5khtml5Cache16removeCacheEntryEPNS_12CachedObjectE
single module:__ZN11KWQDictImpl6removeERK7QStringb
single module:__ZNK5khtml9DocLoader18removeCachedObjectEPNS_12CachedObjectE
single module:__ZN9KHTMLView14setMarginWidthEi
single module:__ZN9KHTMLView15setMarginHeightEi
single module:__ZNK12KWQKHTMLPart13selectionRectEv
single module:__ZN6QFrame13setFrameStyleEi
single module:__ZN9KHTMLView17setVScrollBarModeEN11QScrollView13ScrollBarModeE
single module:__ZN9KHTMLView17setHScrollBarModeEN11QScrollView13ScrollBarModeE
single module:__ZN9KHTMLView20setIgnoreWheelEventsEb
single module:__ZNK7KWQSlot4callEPN3KIO3JobE
single module:__ZN9KHTMLPart16slotChildStartedEPN3KIO3JobE
single module:__ZN9KHTMLPart5frameEPK7QObject
single module:__ZN3DOM19HTMLBodyElementImplC1EPNS_11DocumentPtrE
single module:__ZN3DOM19HTMLBodyElementImplC4EPNS_11DocumentPtrE
single module:__ZN11KHTMLParser9startBodyEv
single module:__ZN7QStringpLEc
single module:__ZN4KURL13encode_stringERK7QString
single module:__ZNK7QString4utf8Ev
single module:__ZNK5khtml11RenderBlock18nearestFloatBottomEi
single module:__ZN3DOM12DocumentImpl10timerEventEP11QTimerEvent
single module:__ZN3DOM12DocumentImpl26dispatchImageLoadEventsNowEv
single module:__ZN11KWQListImpl6assignERKS_b
single module:__ZN11KWQListImpl4swapERS_
single module:__ZN5khtml11RenderImage17dispatchLoadEventEv
single module:__ZN3DOM8NodeImpl17dispatchHTMLEventEibb
single module:__ZN3DOM9EventImplC1ENS0_7EventIdEbb
single module:__ZN3DOM9EventImplD0Ev
single module:__ZN5khtml15AutoTableLayout14insertSpanCellEPNS_15RenderTableCellE
single module:__ZThn64_N5khtml17RenderRadioButton15calcMinMaxWidthEv
single module:__ZN5khtml17RenderRadioButton15calcMinMaxWidthEv
single module:__ZNK12QRadioButton8sizeHintEv
single module:__ZN5khtml11addMidpointERKNS_12BidiIteratorE
single module:__ZN5khtml13InlineFlowBox10onEndChainEPNS_12RenderObjectE
single module:__ZN5khtml12RenderWidget6layoutEv
single module:__ZN5khtml16RenderPartObject6layoutEv
single module:__ZN5khtml9RenderBox19getOverflowClipRectEii
single module:__ZN8QPainter10drawPixmapERK6QPointRK7QPixmap
single module:__ZNK8QPainter5xFormERK5QRect
single module:__ZN8QPainter4saveEv
single module:__ZN7QRegionC1ERKS_
single module:__ZN7QRegionC4ERKS_
single module:__ZN8QPainter7addClipERK5QRect
single module:__ZN8QPainter7restoreEv
single module:__ZN7QRegionaSERKS_
single module:-[WebCoreBridge end]
single module:__ZN9KHTMLPart3endEv
single module:__ZNK5khtml7Decoder5flushEv
single module:__ZN9KHTMLPart5writeERK7QString
single module:__ZN3DOM12DocumentImpl13finishParsingEv
single module:__ZN13HTMLTokenizer6finishEv
single module:__ZN13HTMLTokenizer3endEv
single module:__ZN11KHTMLParser8finishedEv
single module:__ZN9Tokenizer15finishedParsingEv
single module:__ZNK7KWQSlot4callEv
single module:__ZN9KHTMLPart19slotFinishedParsingEv
single module:__ZN3DOM16HTMLDocumentImpl5closeEv
single module:__ZN13HTMLTokenizerD0Ev
single module:__ZN13HTMLTokenizerD4Ev
single module:__ZN11KHTMLParserD0Ev
single module:__ZN11KHTMLParserD4Ev
single module:__ZN3DOM8NodeImpl19dispatchWindowEventEibb
single module:__ZN3DOM12DocumentImpl13closeInternalEb
single module:__ZN5khtml12RenderCanvas5closeEv
single module:__ZN5khtml12RenderCanvas7repaintEb
single module:__ZNK5QRect5uniteERKS_
single module:__ZN7QObject10disconnectEPKS_PKcS1_S3_
single module:__ZN9KWQSignal10disconnectERK7KWQSlot
single module:__ZN16KWQValueListImpl16removeEqualNodesEP20KWQValueListNodeImplPFbPKS0_S3_E
single module:__ZN9KHTMLView16restoreScrollBarEv
single module:__ZNK4KURL14encodedHtmlRefEv
single module:__ZNK4KURL3refEv
single module:__ZNK5khtml6Loader11numRequestsEPNS_9DocLoaderE
single module:__ZN22KWQPtrDictIteratorImplC1ERK14KWQPtrDictImpl
single module:__ZN22KWQPtrDictIteratorImplC4ERK14KWQPtrDictImpl
single module:__ZN25KWQPtrDictIteratorPrivateC1EP17KWQPtrDictPrivate
single module:__ZN25KWQPtrDictIteratorPrivateC4EP17KWQPtrDictPrivate
single module:__ZNK22KWQPtrDictIteratorImpl7currentEv
single module:__ZN22KWQPtrDictIteratorImplD1Ev
single module:__ZN22KWQPtrDictIteratorImplD4Ev
single module:__ZN25KWQPtrDictIteratorPrivateD1Ev
single module:__ZN25KWQPtrDictIteratorPrivateD4Ev
single module:__ZN11QScrollView14setContentsPosEii
single module:__ZN9KHTMLView8completeEv
single module:__ZN9KHTMLPart9completedEv
single module:__ZN9KHTMLPart18slotChildCompletedEv
single module:__ZN9KHTMLPart18slotChildCompletedEb
single module:__ZN5QTime7elapsedEv
single module:-[WebCoreBridge isFrameSet]
single module:__ZNK12KWQKHTMLPart10isFrameSetEv
single module:__ZN3DOM16HTMLDocumentImpl9setDomainERKNS_9DOMStringEb
single module:__ZN3KJS15JSEventListener11handleEventERN3DOM5EventEb
single module:__ZN3DOM5EventC1ERKS0_
single module:__ZN3DOM5EventC4ERKS0_
single module:__ZN3KJS11getDOMEventEPNS_9ExecStateEN3DOM5EventE
single module:__ZNK3DOM5Event6isNullEv
single module:__ZN3DOM5Event15eventModuleNameEv
single module:__ZN3KJS8DOMEventC1EPNS_9ExecStateEN3DOM5EventE
single module:__ZN3KJS8DOMEventC4EPNS_9ExecStateEN3DOM5EventE
single module:__ZN3KJS6Window15setCurrentEventEPN3DOM5EventE
single module:__ZNK3DOM8Document14getElementByIdERKNS_9DOMStringE
single module:__ZNK3KJS7DOMNode16getValuePropertyEPNS_9ExecStateEi
single module:__ZNK3DOM4Node10firstChildEv
single module:__ZNK3DOM7Element13isHTMLElementEv
single module:__ZN3DOM7ElementD1Ev
single module:__ZN3KJS10DOMElementC2EPNS_9ExecStateERKN3DOM7ElementE
single module:__ZN3DOM7ElementC1EPNS_11ElementImplE
single module:__ZN3KJS11HTMLElement6tryPutEPNS_9ExecStateERKNS_10IdentifierERKNS_5ValueEi
single module:__ZN3KJS11HTMLElement8putValueEPNS_9ExecStateEiRKNS_5ValueEi
single module:__ZN3KJS6toNodeERKNS_5ValueE
single module:__ZN3KJS7DOMNodeC1EPNS_9ExecStateERKN3DOM4NodeE
single module:__ZN3KJS7DOMNodeC4EPNS_9ExecStateERKN3DOM4NodeE
single module:__ZN3DOM11HTMLElement12setInnerHTMLERKNS_9DOMStringE
single module:__ZN3DOM15HTMLElementImpl12setInnerHTMLERKNS_9DOMStringE
single module:__ZN3DOM15HTMLElementImpl24createContextualFragmentERKNS_9DOMStringE
single module:__ZN3DOM20DocumentFragmentImplC1EPNS_11DocumentPtrE
single module:__ZN3DOM20DocumentFragmentImplC4EPNS_11DocumentPtrE
single module:__ZN13HTMLTokenizerC1EPN3DOM11DocumentPtrEPNS0_20DocumentFragmentImplE
single module:__ZN13HTMLTokenizerC4EPN3DOM11DocumentPtrEPNS0_20DocumentFragmentImplE
single module:__ZN11KHTMLParserC1EPN3DOM20DocumentFragmentImplEPNS0_11DocumentPtrE
single module:__ZN11KHTMLParserC4EPN3DOM20DocumentFragmentImplEPNS0_11DocumentPtrE
single module:__ZN3DOM8NodeImpl12childAllowedEPS0_
single module:__ZN3DOM20DocumentFragmentImpl16childTypeAllowedEt
single module:__ZN13HTMLTokenizerD1Ev
single module:__ZN3DOM8NodeImpl6detachEv
single module:__ZN5khtml10RenderText6detachEP11RenderArena
single module:__ZN5khtml12RenderObject6detachEP11RenderArena
single module:__ZN5khtml15RenderContainer11removeChildEPNS_12RenderObjectE
single module:__ZN5khtml12RenderObject11arenaDeleteEP11RenderArenaPv
single module:__ZN5khtml10RenderTextD0Ev
single module:__ZN5khtml10RenderTextD4Ev
single module:__ZN5khtml12RenderObjectD2Ev
single module:__ZN5khtml12RenderObjectD4Ev
single module:__ZN5khtml12RenderObjectdlEPvm
single module:__ZNK3DOM20DocumentFragmentImpl8nodeTypeEv
single module:__ZN3DOM12NodeBaseImpl11removeChildEPNS_8NodeImplERi
single module:__ZN3DOM12DocumentImpl23notifyBeforeNodeRemovalEPNS_8NodeImplE
single module:__ZN3DOM12NodeBaseImpl26dispatchChildRemovalEventsEPNS_8NodeImplERi
single module:__ZNK3DOM4Node11nextSiblingEv
single module:__ZNK3KJS7DOMNode9toBooleanEPNS_9ExecStateE
single module:__ZNK5khtml12RenderInline5widthEv
single module:__ZN3DOM19CSSStyleDeclarationC4EPNS_23CSSStyleDeclarationImplE
single module:__ZN3DOM7Element5styleEv
single module:__ZN3DOM19CSSStyleDeclarationC1ERKS0_
single module:__ZN3DOM19CSSStyleDeclarationC4ERKS0_
single module:__ZNK3DOM19CSSStyleDeclaration6isNullEv
single module:__ZNK3DOM19CSSStyleDeclaration6handleEv
single module:__ZN3KJS22DOMCSSStyleDeclarationC1EPNS_9ExecStateEN3DOM19CSSStyleDeclarationE
single module:__ZN3KJS22DOMCSSStyleDeclarationC4EPNS_9ExecStateEN3DOM19CSSStyleDeclarationE
single module:__ZN3DOM19CSSStyleDeclarationD1Ev
single module:__ZN3DOM19CSSStyleDeclarationD4Ev
single module:__ZNK5khtml12RenderInline6heightEv
single module:__ZN3DOM19CSSStyleDeclarationC1EPNS_23CSSStyleDeclarationImplE
single module:__ZN3KJS6ScreenC1EPNS_9ExecStateE
single module:__ZN3KJS6ScreenC4EPNS_9ExecStateE
single module:__ZNK3KJS6Screen3getEPNS_9ExecStateERKNS_10IdentifierE
single module:__ZNK3KJS6Screen16getValuePropertyEPNS_9ExecStateEi
single module:__ZN3KJS6Window14retrieveActiveEPNS_9ExecStateE
single module:__ZN14QDesktopWidget12screenNumberEP7QWidget
single module:__ZN14QDesktopWidget14screenGeometryEi
single module:__ZNK10KWinModule8workAreaEv
single module:__ZN3KJS6Window14installTimeoutERKNS_7UStringEib
single module:__ZN3KJS15ScheduledActionC1ERK7QStringb
single module:__ZNK8QVariant4typeEv
single module:__ZN5khtml15StyleVisualDataD1Ev
single module:__ZN5khtml15StyleVisualDataD4Ev
single module:__ZN9KHTMLPart19slotParentCompletedEv
single module:__ZN5khtml10RenderText11nodeAtPointERNS_12RenderObject8NodeInfoEiiiib
single module:__ZN5khtml12RenderInline11nodeAtPointERNS_12RenderObject8NodeInfoEiiiib
single module:__ZN5khtml11RenderImage11nodeAtPointERNS_12RenderObject8NodeInfoEiiiib
single module:__ZN5khtml11RenderLayer24clearHoverAndActiveStateEPNS_12RenderObjectE
single module:__ZN10KWQMapImpl20rebalanceAfterRemoveEP14KWQMapNodeImplPS1_Pbi
single module:__ZN3KJS6Window12clearTimeoutEi
single module:__ZN3KJS15ScheduledActionD1Ev
