Certificate:
    Data:
        Version: 3 (0x2)
        Serial Number: 65279 (0xfeff)
        Signature Algorithm: sha256WithRSAEncryption
        Issuer: CN=web-platform-tests
        Validity
            Not Before: Mar 22 16:49:45 2017 GMT
            Not After : Apr 21 16:49:45 2017 GMT
        Subject: CN=localhost
        Subject Public Key Info:
            Public Key Algorithm: rsaEncryption
            RSA Public Key: (2048 bit)
                Modulus (2048 bit):
                    00:c7:08:1a:00:15:56:e8:fb:58:98:bb:89:fd:17:
                    b0:8b:8d:07:ce:a8:76:56:cb:48:86:40:d1:6d:8e:
                    c3:de:f2:a3:58:66:39:01:c4:96:5a:57:b4:b1:36:
                    37:58:8b:46:13:77:c5:46:1e:ed:37:35:6c:7c:2e:
                    5a:11:68:3e:2b:ab:2f:56:1d:e5:fe:61:09:14:8d:
                    ba:89:0f:c5:39:8d:dc:2e:28:1e:19:d9:68:37:ba:
                    79:67:e4:9a:f8:44:96:aa:f6:1d:7e:30:7b:ed:81:
                    69:70:f6:fd:d8:67:5f:15:ab:b1:0a:80:92:7c:ed:
                    a2:a7:e3:cb:0b:57:10:d3:2d:a1:4f:d0:7d:89:bc:
                    a9:6d:48:49:68:97:56:62:5f:99:13:a4:e9:cd:e9:
                    cf:41:4e:2d:db:3a:da:a8:6c:68:41:60:dc:a3:11:
                    ac:7f:64:58:2e:33:9c:a0:a5:84:84:32:9f:25:51:
                    0b:f8:bf:1c:19:e0:bb:88:85:a4:78:fa:d8:7b:1a:
                    a0:1f:8b:d0:cc:15:fb:15:1d:eb:10:2c:14:dd:0e:
                    81:2f:7c:8d:00:ce:ab:8c:d9:cd:50:1f:51:7f:97:
                    c1:ea:1e:a9:e5:99:ec:98:95:e8:5e:ea:90:0f:93:
                    f5:21:6f:01:5f:31:d2:38:a0:02:18:31:01:8c:7e:
                    13:1b
                Exponent: 65537 (0x10001)
        X509v3 extensions:
            X509v3 Basic Constraints: 
                CA:FALSE
            X509v3 Subject Key Identifier: 
                BB:82:42:CC:70:38:D8:68:C0:1F:02:38:C1:95:07:54:4C:13:C8:37
            X509v3 Authority Key Identifier: 
                keyid:10:16:98:57:52:0C:20:38:0B:A4:5F:76:6B:E0:09:07:44:01:00:C0

            X509v3 Key Usage: 
                Digital Signature, Non Repudiation, Key Encipherment
            X509v3 Extended Key Usage: 
                TLS Web Server Authentication
            X509v3 Subject Alternative Name: 
                DNS:localhost, DNS:www.localhost, DNS:xn--n8j6ds53lwwkrqhv28a.localhost, DNS:xn--lve-6lad.localhost, DNS:www2.localhost, DNS:www1.localhost
    Signature Algorithm: sha256WithRSAEncryption
        7e:7c:47:8b:6f:c3:a2:bc:a0:95:27:23:2d:eb:d4:cf:b9:16:
        00:7a:29:08:0b:65:77:53:61:ec:c1:02:42:61:0a:23:2c:98:
        3f:32:68:d9:ec:a9:3c:e1:12:f5:92:8a:3b:14:2c:4f:0b:4f:
        27:2b:35:b0:cc:08:74:d7:8b:dd:d2:a3:c8:88:31:35:b0:ab:
        eb:69:c3:a6:57:5f:40:ca:06:65:6f:39:d3:11:e2:ec:58:de:
        e5:fa:1b:60:df:c8:10:2b:6d:48:1a:43:38:7e:96:6f:fc:c1:
        7f:3e:7b:62:33:ec:5c:ae:ab:bc:c1:67:9c:8d:89:5d:4c:90:
        1c:a3:92:bd:ea:a4:71:4e:0f:53:c3:da:04:70:8c:44:65:77:
        03:ef:47:5e:47:3d:e2:a4:6e:2a:2a:8a:76:af:d3:b0:92:6a:
        ca:b4:25:48:7c:07:28:40:f9:79:7f:18:e1:f4:4a:52:de:78:
        e6:61:5c:1d:56:ad:3f:4b:17:8b:4d:b1:d9:90:38:24:81:05:
        fb:77:d1:b6:64:ff:2b:40:67:f2:98:c1:8d:bd:9b:b7:af:c6:
        50:fe:fa:02:ef:d3:3d:a1:7a:0b:41:3c:08:ea:5f:71:c4:22:
        a4:cc:f0:c8:8a:ff:58:9c:4d:40:fd:3b:51:ab:95:39:50:93:
        c5:c4:4e:15
-----BEGIN CERTIFICATE-----
MIIDnzCCAoegAwIBAgIDAP7/MA0GCSqGSIb3DQEBCwUAMB0xGzAZBgNVBAMMEndl
Yi1wbGF0Zm9ybS10ZXN0czAeFw0xNzAzMjIxNjQ5NDVaFw0xNzA0MjExNjQ5NDVa
MBQxEjAQBgNVBAMMCWxvY2FsaG9zdDCCASIwDQYJKoZIhvcNAQEBBQADggEPADCC
AQoCggEBAMcIGgAVVuj7WJi7if0XsIuNB86odlbLSIZA0W2Ow97yo1hmOQHEllpX
tLE2N1iLRhN3xUYe7Tc1bHwuWhFoPiurL1Yd5f5hCRSNuokPxTmN3C4oHhnZaDe6
eWfkmvhElqr2HX4we+2BaXD2/dhnXxWrsQqAknztoqfjywtXENMtoU/QfYm8qW1I
SWiXVmJfmROk6c3pz0FOLds62qhsaEFg3KMRrH9kWC4znKClhIQynyVRC/i/HBng
u4iFpHj62HsaoB+L0MwV+xUd6xAsFN0OgS98jQDOq4zZzVAfUX+XweoeqeWZ7JiV
6F7qkA+T9SFvAV8x0jigAhgxAYx+ExsCAwEAAaOB8DCB7TAJBgNVHRMEAjAAMB0G
A1UdDgQWBBS7gkLMcDjYaMAfAjjBlQdUTBPINzAfBgNVHSMEGDAWgBQQFphXUgwg
OAukX3Zr4AkHRAEAwDALBgNVHQ8EBAMCBeAwEwYDVR0lBAwwCgYIKwYBBQUHAwEw
fgYDVR0RBHcwdYIJbG9jYWxob3N0gg13d3cubG9jYWxob3N0giF4bi0tbjhqNmRz
NTNsd3drcnFodjI4YS5sb2NhbGhvc3SCFnhuLS1sdmUtNmxhZC5sb2NhbGhvc3SC
Dnd3dzIubG9jYWxob3N0gg53d3cxLmxvY2FsaG9zdDANBgkqhkiG9w0BAQsFAAOC
AQEAfnxHi2/DoryglScjLevUz7kWAHopCAtld1Nh7MECQmEKIyyYPzJo2eypPOES
9ZKKOxQsTwtPJys1sMwIdNeL3dKjyIgxNbCr62nDpldfQMoGZW850xHi7Fje5fob
YN/IECttSBpDOH6Wb/zBfz57YjPsXK6rvMFnnI2JXUyQHKOSveqkcU4PU8PaBHCM
RGV3A+9HXkc94qRuKiqKdq/TsJJqyrQlSHwHKED5eX8Y4fRKUt545mFcHVatP0sX
i02x2ZA4JIEF+3fRtmT/K0Bn8pjBjb2bt6/GUP76Au/TPaF6C0E8COpfccQipMzw
yIr/WJxNQP07UauVOVCTxcROFQ==
-----END CERTIFICATE-----
