EXPORTS

    ??0CString@WTF@@QAE@PBD@Z
    ??0CString@WTF@@QAE@PBDI@Z
    ??0Collator@WTF@@QAE@PBD@Z
    ??0DateInstance@JSC@@IAE@PAVExecState@1@PAVStructure@1@@Z
    ??0DefaultGCActivityCallback@JSC@@QAE@PAVHeap@1@@Z
    ??0DropAllLocks@JSLock@JSC@@QAE@W4JSLockBehavior@2@@Z
    ??0DynamicGlobalObjectScope@JSC@@QAE@AAVJSGlobalData@1@PAVJSGlobalObject@1@@Z 
    ??0InternalFunction@JSC@@IAE@PAVJSGlobalObject@1@PAVStructure@1@@Z
    ??0JSArray@JSC@@IAE@AAVJSGlobalData@1@PAVStructure@1@@Z
    ??0JSByteArray@JSC@@AAE@PAVExecState@1@PAVStructure@1@PAVByteArray@WTF@@@Z
    ??0JSLock@JSC@@QAE@PAVExecState@1@@Z
    ??0MD5@WTF@@QAE@XZ
    ??0Mutex@WTF@@QAE@XZ
    ??0RefCountedLeakCounter@WTF@@QAE@PBD@Z
    ??0RegExpObject@JSC@@IAE@PAVJSGlobalObject@1@PAVStructure@1@PAVRegExp@1@@Z
    ??0SHA1@WTF@@QAE@XZ
    ??0StringObject@JSC@@IAE@AAVJSGlobalData@1@PAVStructure@1@@Z
    ??0Structure@JSC@@AAE@AAVJSGlobalData@1@PAVJSGlobalObject@1@VJSValue@1@ABVTypeInfo@1@PBUClassInfo@1@@Z
    ??0ThreadCondition@WTF@@QAE@XZ
    ??0UString@JSC@@QAE@PBD@Z
    ??0UString@JSC@@QAE@PBDI@Z
    ??0UString@JSC@@QAE@PB_W@Z
    ??0UString@JSC@@QAE@PB_WI@Z
    ??0WTFThreadData@WTF@@QAE@XZ
    ??0YarrPattern@Yarr@JSC@@QAE@ABVUString@2@_N1PAPBD@Z
    ??1ClientData@JSGlobalData@JSC@@UAE@XZ
    ??1Collator@WTF@@QAE@XZ
    ??1Debugger@JSC@@UAE@XZ
    ??1DropAllLocks@JSLock@JSC@@QAE@XZ
    ??1JSGlobalData@JSC@@QAE@XZ
    ??1JSGlobalObject@JSC@@UAE@XZ
    ??1JSVariableObject@JSC@@UAE@XZ
    ??1Mutex@WTF@@QAE@XZ
    ??1RefCountedLeakCounter@WTF@@QAE@XZ
    ??1ScopeChainNode@JSC@@EAE@XZ
    ??1SourceProviderCache@JSC@@QAE@XZ
    ??1ThreadCondition@WTF@@QAE@XZ
    ??1WTFThreadData@WTF@@QAE@XZ
    ??1WeakHandleOwner@JSC@@UAE@XZ
    ??8JSC@@YA_NABVUString@0@0@Z
    ??8WTF@@YA_NABVCString@0@0@Z
    ?EcmaScriptConverter@DoubleToStringConverter@double_conversion@WTF@@SAABV123@XZ
    ?ToExponential@DoubleToStringConverter@double_conversion@WTF@@QBE_NNHPAVStringBuilder@23@@Z
    ?ToFixed@DoubleToStringConverter@double_conversion@WTF@@QBE_NNHPAVStringBuilder@23@@Z
    ?ToPrecision@DoubleToStringConverter@double_conversion@WTF@@QBE_NNHPAVStringBuilder@23@@Z
    ?ToShortest@DoubleToStringConverter@double_conversion@WTF@@QBE_NNPAVStringBuilder@23@@Z
    ?absoluteTimeToWaitTimeoutInterval@WTF@@YAKN@Z
    ?activityCallback@Heap@JSC@@QAEPAVGCActivityCallback@2@XZ
    ?add@AtomicString@WTF@@CA?AV?$PassRefPtr@VStringImpl@WTF@@@2@PBD@Z
    ?add@Identifier@JSC@@SA?AV?$PassRefPtr@VStringImpl@WTF@@@WTF@@PAVExecState@2@PBD@Z
    ?add@PropertyNameArray@JSC@@QAEXPAVStringImpl@WTF@@@Z
    ?addBytes@MD5@WTF@@QAEXPBEI@Z
    ?addBytes@SHA1@WTF@@QAEXPBEI@Z
    ?addCurrentThread@MachineThreads@JSC@@QAEXXZ
    ?addFinalizer@Heap@JSC@@QAEXPAVJSCell@2@P6AX0@Z@Z
    ?addPropertyTransition@Structure@JSC@@SAPAV12@AAVJSGlobalData@2@PAV12@ABVIdentifier@2@IPAVJSCell@2@AAI@Z
    ?addPropertyTransitionToExistingStructure@Structure@JSC@@SAPAV12@PAV12@ABVIdentifier@2@IPAVJSCell@2@AAI@Z
    ?addPropertyWithoutTransition@Structure@JSC@@QAEIAAVJSGlobalData@2@ABVIdentifier@2@IPAVJSCell@2@@Z
    ?addSlowCase@Identifier@JSC@@CA?AV?$PassRefPtr@VStringImpl@WTF@@@WTF@@PAVExecState@2@PAVStringImpl@4@@Z
    ?addStaticGlobals@JSGlobalObject@JSC@@IAEXPAUGlobalPropertyInfo@12@H@Z
    ?allocatePropertyStorage@JSObject@JSC@@QAEXAAVJSGlobalData@2@II@Z
    ?allocateSlowCase@AllocationSpace@JSC@@AAEPAXAAUSizeClass@MarkedSpace@2@@Z
    ?append@StringBuilder@WTF@@QAEXPBEI@Z
    ?append@StringBuilder@WTF@@QAEXPB_WI@Z
    ?ascii@UString@JSC@@QBE?AVCString@WTF@@XZ
    ?attach@Debugger@JSC@@QAEXPAVJSGlobalObject@2@@Z
    ?broadcast@ThreadCondition@WTF@@QAEXXZ
    ?bufferLengthForStringDecimal@DecimalNumber@WTF@@QBEIXZ
    ?bufferLengthForStringExponential@DecimalNumber@WTF@@QBEIXZ
    ?byteCompile@Yarr@JSC@@YA?AV?$PassOwnPtr@UBytecodePattern@Yarr@JSC@@@WTF@@AAUYarrPattern@12@PAVBumpPointerAllocator@4@@Z
    ?byteSize@SourceProviderCache@JSC@@QBEIXZ
    ?calculateDSTOffset@WTF@@YANNN@Z
    ?calculateStringHashAndLengthFromUTF8@Unicode@WTF@@YAIPBD0AAI1@Z
    ?calculateUTCOffset@WTF@@YAHXZ
    ?calculatedFunctionName@DebuggerCallFrame@JSC@@QBE?AVUString@2@XZ
    ?call@JSC@@YA?AVJSValue@1@PAVExecState@1@V21@W4CallType@1@ABTCallData@1@1ABVArgList@1@@Z
    ?callHostFunctionAsConstructor@JSC@@YI_JPAVExecState@1@@Z
    ?callOnMainThread@WTF@@YAXP6AXPAX@Z0@Z
    ?callOnMainThreadAndWait@WTF@@YAXP6AXPAX@Z0@Z
    ?cancelCallOnMainThread@WTF@@YAXP6AXPAX@Z0@Z
    ?capacity@Heap@JSC@@QAEIXZ
    ?changePrototypeTransition@Structure@JSC@@SAPAV12@AAVJSGlobalData@2@PAV12@VJSValue@2@@Z
    ?checkCurrentIdentifierTable@Identifier@JSC@@CAXPAVExecState@2@@Z
    ?checkCurrentIdentifierTable@Identifier@JSC@@CAXPAVJSGlobalData@2@@Z
    ?checkSyntax@JSC@@YA_NPAVExecState@1@ABVSourceCode@1@PAVJSValue@1@@Z
    ?checksum@MD5@WTF@@QAEXAAV?$Vector@E$0BA@@2@@Z
    ?className@JSObject@JSC@@SA?AVUString@2@PBV12@@Z
    ?clear@SourceProviderCache@JSC@@QAEXXZ
    ?clearBuiltinStructures@JSGlobalData@JSC@@QAEXXZ
    ?clearRareData@JSGlobalObject@JSC@@CAXPAVJSCell@2@@Z
    ?collate@Collator@WTF@@QBE?AW4Result@12@PB_WI0I@Z
    ?collectAllGarbage@Heap@JSC@@QAEXXZ
    ?computeHash@SHA1@WTF@@QAEXAAV?$Vector@E$0BE@@2@@Z
    ?configurable@PropertyDescriptor@JSC@@QBE_NXZ
    ?construct@JSC@@YAPAVJSObject@1@PAVExecState@1@VJSValue@1@W4ConstructType@1@ABTConstructData@1@ABVArgList@1@@Z
    ?constructArray@JSC@@YAPAVJSArray@1@PAVExecState@1@ABVArgList@1@@Z
    ?constructEmptyArray@JSC@@YAPAVJSArray@1@PAVExecState@1@@Z
    ?constructEmptyObject@JSC@@YAPAVJSObject@1@PAVExecState@1@@Z
    ?constructFunctionSkippingEvalEnabledCheck@JSC@@YAPAVJSObject@1@PAVExecState@1@PAVJSGlobalObject@1@ABVArgList@1@ABVIdentifier@1@ABVUString@1@ABVTextPosition@WTF@@@Z
    ?convertUTF16ToUTF8@Unicode@WTF@@YA?AW4ConversionResult@12@PAPB_WPB_WPAPADPAD_N@Z
    ?convertUTF8ToUTF16@Unicode@WTF@@YA?AW4ConversionResult@12@PAPBDPBDPAPA_WPA_W_N@Z
    ?create@ByteArray@WTF@@SA?AV?$PassRefPtr@VByteArray@WTF@@@2@I@Z
    ?create@JSArray@JSC@@SAPAV12@AAVJSGlobalData@2@PAVStructure@2@@Z
    ?create@JSArray@JSC@@SAPAV12@AAVJSGlobalData@2@PAVStructure@2@ABVArgList@2@@Z
    ?create@JSFunction@JSC@@SAPAV12@PAVExecState@2@PAVJSGlobalObject@2@HABVIdentifier@2@P6I_J0@Z3@Z
    ?create@JSGlobalData@JSC@@SA?AV?$PassRefPtr@VJSGlobalData@JSC@@@WTF@@W4ThreadStackType@2@W4HeapSize@2@@Z
    ?create@OpaqueJSString@@SA?AV?$PassRefPtr@UOpaqueJSString@@@WTF@@ABVUString@JSC@@@Z
    ?create@RegExp@JSC@@SAPAV12@AAVJSGlobalData@2@ABVUString@2@W4RegExpFlags@2@@Z
    ?createEmptyString@SmallStrings@JSC@@AAEXPAVJSGlobalData@2@@Z
    ?createError@JSC@@YAPAVJSObject@1@PAVExecState@1@ABVUString@1@@Z
    ?createInterruptedExecutionException@JSC@@YAPAVJSObject@1@PAVJSGlobalData@1@@Z
    ?createLeaked@JSGlobalData@JSC@@SA?AV?$PassRefPtr@VJSGlobalData@JSC@@@WTF@@W4ThreadStackType@2@W4HeapSize@2@@Z
    ?createRangeError@JSC@@YAPAVJSObject@1@PAVExecState@1@ABVUString@1@@Z
    ?createReferenceError@JSC@@YAPAVJSObject@1@PAVExecState@1@ABVUString@1@@Z
    ?createSingleCharacterString@SmallStrings@JSC@@AAEXPAVJSGlobalData@2@E@Z
    ?createStackOverflowError@JSC@@YAPAVJSObject@1@PAVExecState@1@@Z
    ?createStructure@JSByteArray@JSC@@SAPAVStructure@2@AAVJSGlobalData@2@PAVJSGlobalObject@2@VJSValue@2@PBUClassInfo@2@@Z
    ?createSyntaxError@JSC@@YAPAVJSObject@1@PAVExecState@1@ABVUString@1@@Z
    ?createTable@HashTable@JSC@@ABEXPAVJSGlobalData@2@@Z
    ?createThread@WTF@@YAIP6APAXPAX@Z0@Z
    ?createThread@WTF@@YAIP6APAXPAX@Z0PBD@Z
    ?createTypeError@JSC@@YAPAVJSObject@1@PAVExecState@1@ABVUString@1@@Z
    ?cryptographicallyRandomNumber@WTF@@YAIXZ
    ?cryptographicallyRandomValues@WTF@@YAXPAXI@Z
    ?currentThread@WTF@@YAIXZ
    ?currentThreadIsHoldingLock@JSLock@JSC@@SA_NXZ
    ?currentTime@WTF@@YANXZ
    ?data@CString@WTF@@QBEPBDXZ
    ?dateToDaysFrom1970@WTF@@YANHHH@Z
    ?dayInMonthFromDayInYear@WTF@@YAHH_N@Z
    ?dayInYear@WTF@@YAHNH@Z
    ?decrement@RefCountedLeakCounter@WTF@@QAEXXZ
    ?defaultAttributes@PropertyDescriptor@JSC@@0IA
    ?defaultValue@JSObject@JSC@@SA?AVJSValue@2@PBV12@PAVExecState@2@W4PreferredPrimitiveType@2@@Z
    ?defineGetter@JSGlobalObject@JSC@@SAXPAVJSObject@2@PAVExecState@2@ABVIdentifier@2@0I@Z
    ?defineGetter@JSObject@JSC@@SAXPAV12@PAVExecState@2@ABVIdentifier@2@0I@Z
    ?defineOwnProperty@JSObject@JSC@@SA_NPAV12@PAVExecState@2@ABVIdentifier@2@AAVPropertyDescriptor@2@_N@Z
    ?defineSetter@JSGlobalObject@JSC@@SAXPAVJSObject@2@PAVExecState@2@ABVIdentifier@2@0I@Z
    ?defineSetter@JSObject@JSC@@SAXPAV12@PAVExecState@2@ABVIdentifier@2@0I@Z
    ?deleteOwnedPtr@WTF@@YAXPAUHBITMAP__@@@Z
    ?deleteOwnedPtr@WTF@@YAXPAUHBRUSH__@@@Z
    ?deleteOwnedPtr@WTF@@YAXPAUHDC__@@@Z
    ?deleteOwnedPtr@WTF@@YAXPAUHFONT__@@@Z
    ?deleteOwnedPtr@WTF@@YAXPAUHRGN__@@@Z
    ?deleteProperty@JSObject@JSC@@SA_NPAVJSCell@2@PAVExecState@2@ABVIdentifier@2@@Z
    ?deleteProperty@JSVariableObject@JSC@@SA_NPAVJSCell@2@PAVExecState@2@ABVIdentifier@2@@Z
    ?deletePropertyByIndex@JSObject@JSC@@SA_NPAVJSCell@2@PAVExecState@2@I@Z
    ?deleteTable@HashTable@JSC@@QBEXXZ
    ?despecifyDictionaryFunction@Structure@JSC@@QAEXAAVJSGlobalData@2@ABVIdentifier@2@@Z
    ?despecifyFunctionTransition@Structure@JSC@@SAPAV12@AAVJSGlobalData@2@PAV12@ABVIdentifier@2@@Z
    ?destroy@Heap@JSC@@QAEXXZ
    ?detach@Debugger@JSC@@UAEXPAVJSGlobalObject@2@@Z
    ?detachThread@WTF@@YAXI@Z
    ?didTimeOut@TimeoutChecker@JSC@@QAE_NPAVExecState@2@@Z
    ?dtoa@WTF@@YAXQADNAA_NAAHAAI@Z
    ?dumpSampleData@JSGlobalData@JSC@@QAEXPAVExecState@2@@Z
    ?empty@StringImpl@WTF@@SAPAV12@XZ
    ?enumerable@PropertyDescriptor@JSC@@QBE_NXZ
    ?equalUTF16WithUTF8@Unicode@WTF@@YA_NPB_W0PBD1@Z
    ?evaluate@DebuggerCallFrame@JSC@@QBE?AVJSValue@2@ABVUString@2@AAV32@@Z
    ?evaluate@JSC@@YA?AVJSValue@1@PAVExecState@1@PAVScopeChainNode@1@ABVSourceCode@1@V21@PAV21@@Z
    ?exclude@Profile@JSC@@QAEXPBVProfileNode@2@@Z
    ?expand@MarkStackArray@JSC@@AAEXXZ
    ?fastCalloc@WTF@@YAPAXII@Z
    ?fastFree@WTF@@YAXPAX@Z
    ?fastMalloc@WTF@@YAPAXI@Z
    ?fastMallocMatchFailed@Internal@WTF@@YAXPAX@Z
    ?fastMallocSize@WTF@@YAIPBX@Z
    ?fastMallocStatistics@WTF@@YA?AUFastMallocStatistics@1@XZ
    ?fastRealloc@WTF@@YAPAXPAXI@Z
    ?fastStrDup@WTF@@YAPADPBD@Z
    ?fastZeroedMalloc@WTF@@YAPAXI@Z
    ?fillGetterPropertySlot@JSObject@JSC@@QAEXAAVPropertySlot@2@PAV?$WriteBarrierBase@W4Unknown@JSC@@@2@@Z
    ?finalize@WeakHandleOwner@JSC@@UAEXV?$Handle@W4Unknown@JSC@@@2@PAX@Z
    ?finishCreation@DateInstance@JSC@@IAEXAAVJSGlobalData@2@N@Z
    ?finishCreation@InternalFunction@JSC@@IAEXAAVJSGlobalData@2@ABVIdentifier@2@@Z
    ?finishCreation@JSArray@JSC@@IAEXAAVJSGlobalData@2@@Z
    ?finishCreation@JSArray@JSC@@IAEXAAVJSGlobalData@2@ABVArgList@2@@Z
    ?finishCreation@RegExpObject@JSC@@IAEXPAVJSGlobalObject@2@@Z
    ?finishCreation@StringObject@JSC@@IAEXAAVJSGlobalData@2@PAVJSString@2@@Z
    ?focus@Profile@JSC@@QAEXPBVProfileNode@2@@Z
    ?from@Identifier@JSC@@SA?AV12@PAVExecState@2@H@Z
    ?from@Identifier@JSC@@SA?AV12@PAVExecState@2@I@Z
    ?functionGetter@PropertySlot@JSC@@ABE?AVJSValue@2@PAVExecState@2@@Z
    ?functionName@DebuggerCallFrame@JSC@@QBEPBVUString@2@XZ
    ?get@Structure@JSC@@QAEIAAVJSGlobalData@2@ABVIdentifier@2@AAIAAPAVJSCell@2@@Z
    ?get@Structure@JSC@@QAEIAAVJSGlobalData@2@PAVStringImpl@WTF@@AAIAAPAVJSCell@2@@Z
    ?getCallData@JSCell@JSC@@SA?AW4CallType@2@PAV12@AATCallData@2@@Z
    ?getConstructData@JSCell@JSC@@SA?AW4ConstructType@2@PAV12@AATConstructData@2@@Z
    ?getObject@JSCell@JSC@@QAEPAVJSObject@2@XZ
    ?getOwnPropertyDescriptor@JSByteArray@JSC@@SA_NPAVJSObject@2@PAVExecState@2@ABVIdentifier@2@AAVPropertyDescriptor@2@@Z
    ?getOwnPropertyDescriptor@JSGlobalObject@JSC@@SA_NPAVJSObject@2@PAVExecState@2@ABVIdentifier@2@AAVPropertyDescriptor@2@@Z
    ?getOwnPropertyDescriptor@JSObject@JSC@@SA_NPAV12@PAVExecState@2@ABVIdentifier@2@AAVPropertyDescriptor@2@@Z
    ?getOwnPropertyNames@JSByteArray@JSC@@SAXPAVJSObject@2@PAVExecState@2@AAVPropertyNameArray@2@W4EnumerationMode@2@@Z
    ?getOwnPropertyNames@JSObject@JSC@@SAXPAV12@PAVExecState@2@AAVPropertyNameArray@2@W4EnumerationMode@2@@Z
    ?getOwnPropertyNames@JSVariableObject@JSC@@SAXPAVJSObject@2@PAVExecState@2@AAVPropertyNameArray@2@W4EnumerationMode@2@@Z
    ?getOwnPropertySlot@JSByteArray@JSC@@SA_NPAVJSCell@2@PAVExecState@2@ABVIdentifier@2@AAVPropertySlot@2@@Z
    ?getOwnPropertySlot@JSGlobalObject@JSC@@SA_NPAVJSCell@2@PAVExecState@2@ABVIdentifier@2@AAVPropertySlot@2@@Z
    ?getOwnPropertySlotByIndex@JSArray@JSC@@SA_NPAVJSCell@2@PAVExecState@2@IAAVPropertySlot@2@@Z
    ?getOwnPropertySlotByIndex@JSByteArray@JSC@@SA_NPAVJSCell@2@PAVExecState@2@IAAVPropertySlot@2@@Z
    ?getOwnPropertySlotByIndex@JSObject@JSC@@SA_NPAVJSCell@2@PAVExecState@2@IAAVPropertySlot@2@@Z
    ?getPropertyDescriptor@JSObject@JSC@@QAE_NPAVExecState@2@ABVIdentifier@2@AAVPropertyDescriptor@2@@Z
    ?getPropertyNames@JSObject@JSC@@SAXPAV12@PAVExecState@2@AAVPropertyNameArray@2@W4EnumerationMode@2@@Z
    ?getSlice@ArgList@JSC@@QBEXHAAV12@@Z
    ?getString@JSCell@JSC@@QBE?AVUString@2@PAVExecState@2@@Z
    ?getString@JSCell@JSC@@QBE_NPAVExecState@2@AAVUString@2@@Z
    ?getter@PropertyDescriptor@JSC@@QBE?AVJSValue@2@XZ
    ?globalExec@JSGlobalObject@JSC@@QAEPAVExecState@2@XZ
    ?globalObjectCount@Heap@JSC@@QAEIXZ
    ?grow@HandleHeap@JSC@@AAEXXZ
    ?hasInstance@JSObject@JSC@@SA_NPAV12@PAVExecState@2@VJSValue@2@2@Z
    ?hasProperty@JSObject@JSC@@QBE_NPAVExecState@2@ABVIdentifier@2@@Z
    ?hasProperty@JSObject@JSC@@QBE_NPAVExecState@2@I@Z
    ?heap@Heap@JSC@@SAPAV12@VJSValue@2@@Z
    ?increment@RefCountedLeakCounter@WTF@@QAEXXZ
    ?init@AtomicString@WTF@@SAXXZ
    ?init@JSGlobalObject@JSC@@AAEXPAVJSObject@2@@Z
    ?initialize@double_conversion@WTF@@YAXXZ
    ?initializeMainThread@WTF@@YAXXZ
    ?initializeThreading@JSC@@YAXXZ
    ?initializeThreading@WTF@@YAXXZ
    ?interpret@Yarr@JSC@@YAHPAUBytecodePattern@12@ABVUString@2@IIPAH@Z
    ?isAccessorDescriptor@PropertyDescriptor@JSC@@QBE_NXZ
    ?isBusy@Heap@JSC@@QAE_NXZ
    ?isDataDescriptor@PropertyDescriptor@JSC@@QBE_NXZ
    ?isHostFunctionNonInline@JSFunction@JSC@@ABE_NXZ
    ?isMainThread@WTF@@YA_NXZ
    ?isReachableFromOpaqueRoots@WeakHandleOwner@JSC@@UAE_NV?$Handle@W4Unknown@JSC@@@2@PAXAAVSlotVisitor@2@@Z
    ?isTerminatedExecutionException@JSC@@YA_NVJSValue@1@@Z
    ?isValidAllocation@Heap@JSC@@AAE_NI@Z
    ?isValidCallee@JSValue@JSC@@QAE_NXZ
    ?jsOwnedString@JSC@@YAPAVJSString@1@PAVJSGlobalData@1@ABVUString@1@@Z
    ?jsString@JSC@@YAPAVJSString@1@PAVJSGlobalData@1@ABVUString@1@@Z
    ?length@CString@WTF@@QBEIXZ
    ?lock@JSLock@JSC@@SAXW4JSLockBehavior@2@@Z
    ?lock@Mutex@WTF@@QAEXXZ
    ?lockAtomicallyInitializedStaticMutex@WTF@@YAXXZ
    ?lockCount@JSLock@JSC@@SAHXZ
    ?match@RegExp@JSC@@QAEHAAVJSGlobalData@2@ABVUString@2@HPAV?$Vector@H$0CA@@WTF@@@Z
    ?materializePropertyMap@Structure@JSC@@AAEXAAVJSGlobalData@2@@Z
    ?monotonicallyIncreasingTime@WTF@@YANXZ
    ?monthFromDayInYear@WTF@@YAHH_N@Z
    ?msToYear@WTF@@YAHN@Z
    ?name@InternalFunction@JSC@@QAEABVUString@2@PAVExecState@2@@Z
    ?name@JSFunction@JSC@@QAEABVUString@2@PAVExecState@2@@Z
    ?newUninitialized@CString@WTF@@SA?AV12@IAAPAD@Z
    ?nullptr@@3Vnullptr_t@std@@A
    ?number@UString@JSC@@SA?AV12@H@Z
    ?number@UString@JSC@@SA?AV12@I@Z
    ?number@UString@JSC@@SA?AV12@N@Z
    ?numberToString@WTF@@YAPBDNQAD@Z
    ?objectCount@Heap@JSC@@QAEIXZ
    ?objectProtoFuncToString@JSC@@YI_JPAVExecState@1@@Z
    ?objectTypeCounts@Heap@JSC@@QAE?AV?$PassOwnPtr@V?$HashCountedSet@PBDU?$PtrHash@PBD@WTF@@U?$HashTraits@PBD@2@@WTF@@@WTF@@XZ
    ?parseDateFromNullTerminatedCharacters@WTF@@YANPBD@Z
    ?profiler@Profiler@JSC@@SAPAV12@XZ
    ?protect@Heap@JSC@@QAEXVJSValue@2@@Z
    ?protectedGlobalObjectCount@Heap@JSC@@QAEIXZ
    ?protectedObjectCount@Heap@JSC@@QAEIXZ
    ?protectedObjectTypeCounts@Heap@JSC@@QAE?AV?$PassOwnPtr@V?$HashCountedSet@PBDU?$PtrHash@PBD@WTF@@U?$HashTraits@PBD@2@@WTF@@@WTF@@XZ
    ?put@JSByteArray@JSC@@SAXPAVJSCell@2@PAVExecState@2@ABVIdentifier@2@VJSValue@2@AAVPutPropertySlot@2@@Z
    ?put@JSGlobalObject@JSC@@SAXPAVJSCell@2@PAVExecState@2@ABVIdentifier@2@VJSValue@2@AAVPutPropertySlot@2@@Z
    ?put@JSObject@JSC@@SAXPAVJSCell@2@PAVExecState@2@ABVIdentifier@2@VJSValue@2@AAVPutPropertySlot@2@@Z
    ?putByIndex@JSByteArray@JSC@@SAXPAVJSCell@2@PAVExecState@2@IVJSValue@2@@Z
    ?putByIndex@JSObject@JSC@@SAXPAVJSCell@2@PAVExecState@2@IVJSValue@2@@Z
    ?putDirectInternal@JSObject@JSC@@AAE_NAAVJSGlobalData@2@ABVIdentifier@2@VJSValue@2@I_NAAVPutPropertySlot@2@PAVJSCell@2@@Z
    ?putWithAttributes@JSGlobalObject@JSC@@SAXPAVJSObject@2@PAVExecState@2@ABVIdentifier@2@VJSValue@2@I@Z
    ?putWithAttributes@JSObject@JSC@@SAXPAV12@PAVExecState@2@ABVIdentifier@2@VJSValue@2@I@Z
    ?randomNumber@WTF@@YANXZ
    ?recompileAllJSFunctions@Debugger@JSC@@QAEXPAVJSGlobalData@2@@Z
    ?regExpFlags@JSC@@YA?AW4RegExpFlags@1@ABVUString@1@@Z
    ?reifyString@StringBuilder@WTF@@AAEXXZ
    ?releaseDecommitted@OSAllocator@WTF@@SAXPAXI@Z
    ?releaseExecutableMemory@JSGlobalData@JSC@@QAEXXZ
    ?reportExtraMemoryCostSlowCase@Heap@JSC@@AAEXI@Z
    ?reserveAndCommit@OSAllocator@WTF@@SAPAXIW4Usage@12@_N11@Z
    ?reserveCapacity@StringBuilder@WTF@@QAEXI@Z
    ?reset@ParserArena@JSC@@QAEXXZ
    ?reset@TimeoutChecker@JSC@@QAEXXZ
    ?resetDateCache@JSGlobalData@JSC@@QAEXXZ
    ?resize@StringBuilder@WTF@@QAEXI@Z
    ?resolveRope@JSString@JSC@@ABEXPAVExecState@2@@Z
    ?restoreAll@Profile@JSC@@QAEXXZ
    ?retrieveCaller@Interpreter@JSC@@QBE?AVJSValue@2@PAVExecState@2@PAVJSFunction@2@@Z
    ?retrieveLastCaller@Interpreter@JSC@@QBEXPAVExecState@2@AAH1AAVUString@2@AAVJSValue@2@@Z
    ?s_globalObjectMethodTable@JSGlobalObject@JSC@@1UGlobalObjectMethodTable@2@B
    ?setAccessorDescriptor@PropertyDescriptor@JSC@@QAEXVJSValue@2@0I@Z
    ?setConfigurable@PropertyDescriptor@JSC@@QAEX_N@Z
    ?setDescriptor@PropertyDescriptor@JSC@@QAEXVJSValue@2@I@Z
    ?setDumpsGeneratedCode@BytecodeGenerator@JSC@@SAX_N@Z
    ?setEnumerable@PropertyDescriptor@JSC@@QAEX_N@Z
    ?setGetter@PropertyDescriptor@JSC@@QAEXVJSValue@2@@Z
    ?setLength@JSArray@JSC@@QAEXI@Z
    ?setLoc@StatementNode@JSC@@QAEXHH@Z
    ?setMainThreadCallbacksPaused@WTF@@YAX_N@Z
    ?setOrderLowerFirst@Collator@WTF@@QAEX_N@Z
    ?setPrototype@JSObject@JSC@@QAEXAAVJSGlobalData@2@VJSValue@2@@Z
    ?setSetter@PropertyDescriptor@JSC@@QAEXVJSValue@2@@Z
    ?setUndefined@PropertyDescriptor@JSC@@QAEXXZ
    ?setUpStaticFunctionSlot@JSC@@YA_NPAVExecState@1@PBVHashEntry@1@PAVJSObject@1@ABVIdentifier@1@AAVPropertySlot@1@@Z
    ?setWritable@PropertyDescriptor@JSC@@QAEX_N@Z
    ?setter@PropertyDescriptor@JSC@@QBE?AVJSValue@2@XZ
    ?shrinkToFit@StringBuilder@WTF@@QAEXXZ
    ?signal@ThreadCondition@WTF@@QAEXXZ
    ?size@Heap@JSC@@QAEIXZ
    ?slowAppend@MarkedArgumentBuffer@JSC@@AAEXVJSValue@2@@Z
    ?slowValidateCell@JSC@@YAXPAVJSCell@1@@Z
    ?slowValidateCell@JSC@@YAXPAVJSGlobalObject@1@@Z
    ?startProfiling@Profiler@JSC@@QAEXPAVExecState@2@ABVUString@2@@Z
    ?startSampling@JSGlobalData@JSC@@QAEXXZ
    ?stopProfiling@Profiler@JSC@@QAE?AV?$PassRefPtr@VProfile@JSC@@@WTF@@PAVExecState@2@ABVUString@2@@Z
    ?stopSampling@JSGlobalData@JSC@@QAEXXZ
    ?strtod@WTF@@YANPBDPAPAD@Z
    ?substringSharingImpl@UString@JSC@@QBE?AV12@II@Z
    ?symbolTableGet@JSVariableObject@JSC@@IAE_NABVIdentifier@2@AAVPropertyDescriptor@2@@Z
    ?synthesizePrototype@JSValue@JSC@@ABEPAVJSObject@2@PAVExecState@2@@Z
    ?thisObject@DebuggerCallFrame@JSC@@QBEPAVJSObject@2@XZ
    ?throwError@JSC@@YA?AVJSValue@1@PAVExecState@1@V21@@Z
    ?throwError@JSC@@YAPAVJSObject@1@PAVExecState@1@PAV21@@Z
    ?throwSyntaxError@JSC@@YAPAVJSObject@1@PAVExecState@1@@Z
    ?throwTypeError@JSC@@YAPAVJSObject@1@PAVExecState@1@@Z
    ?timedWait@ThreadCondition@WTF@@QAE_NAAVMutex@2@N@Z
    ?tlsKeyCount@WTF@@YAAAJXZ
    ?tlsKeys@WTF@@YAPAKXZ
    ?toInt32@JSC@@YAHN@Z
    ?toInteger@JSValue@JSC@@QBENPAVExecState@2@@Z
    ?toNumberSlowCase@JSValue@JSC@@ABENPAVExecState@2@@Z
    ?toObject@JSCell@JSC@@QBEPAVJSObject@2@PAVExecState@2@PAVJSGlobalObject@2@@Z
    ?toObjectSlowCase@JSValue@JSC@@ABEPAVJSObject@2@PAVExecState@2@PAVJSGlobalObject@2@@Z
    ?toString@JSCell@JSC@@QBE?AVUString@2@PAVExecState@2@@Z
    ?toString@JSObject@JSC@@QBE?AVUString@2@PAVExecState@2@@Z
    ?toStringDecimal@DecimalNumber@WTF@@QBEIPA_WI@Z
    ?toStringExponential@DecimalNumber@WTF@@QBEIPA_WI@Z
    ?toThisObject@JSObject@JSC@@SAPAV12@PAVJSCell@2@PAVExecState@2@@Z
    ?toThisObjectSlowCase@JSValue@JSC@@ABEPAVJSObject@2@PAVExecState@2@@Z
    ?toUInt32@Identifier@JSC@@SAIABVUString@2@AA_N@Z
    ?tryFastCalloc@WTF@@YA?AUTryMallocReturnValue@1@II@Z
    ?tryFastMalloc@WTF@@YA?AUTryMallocReturnValue@1@I@Z
    ?tryFastRealloc@WTF@@YA?AUTryMallocReturnValue@1@PAXI@Z
    ?tryLock@Mutex@WTF@@QAE_NXZ
    ?type@DebuggerCallFrame@JSC@@QBE?AW4Type@12@XZ
    ?unlock@JSLock@JSC@@SAXW4JSLockBehavior@2@@Z
    ?unlock@Mutex@WTF@@QAEXXZ
    ?unlockAtomicallyInitializedStaticMutex@WTF@@YAXXZ
    ?unprotect@Heap@JSC@@QAE_NVJSValue@2@@Z
    ?utf8@UString@JSC@@QBE?AVCString@WTF@@_N@Z
    ?validate@MarkStack@JSC@@KAXPAVJSCell@2@@Z
    ?visitChildren@JSGlobalObject@JSC@@SAXPAVJSCell@2@AAVSlotVisitor@2@@Z
    ?visitChildren@JSGlobalThis@JSC@@KAXPAVJSCell@2@AAVSlotVisitor@2@@Z
    ?visitChildren@JSObject@JSC@@SAXPAVJSCell@2@AAVSlotVisitor@2@@Z
    ?vtableAnchor@InternalFunction@JSC@@EAEXXZ
    ?vtableAnchor@JSObject@JSC@@UAEXXZ
    ?wait@ThreadCondition@WTF@@QAEXAAVMutex@2@@Z
    ?waitForThreadCompletion@WTF@@YAHIPAPAX@Z
    ?writable@PropertyDescriptor@JSC@@QBE_NXZ
    ?writeBarrier@HandleHeap@JSC@@QAEXPAVJSValue@2@ABV32@@Z
    ?yield@WTF@@YAXXZ
    WTFGetBacktrace
    WTFLog
    WTFLogVerbose
    WTFReportArgumentAssertionFailure
    WTFReportAssertionFailure
    WTFReportAssertionFailureWithMessage
    WTFReportBacktrace
    WTFReportError
