Certificate:
    Data:
        Version: 3 (0x2)
        Serial Number:
            3f:1d:2b:1d:12:7e:34:b6:2b:61:b2:78:f2:74:66:9a:dc:66:ad:cc
    Signature Algorithm: sha256WithRSAEncryption
        Issuer: CN=Intermediate
        Validity
            Not Before: Oct  5 12:00:00 2021 GMT
            Not After : Oct  5 12:00:00 2022 GMT
        Subject: CN=Target
        Subject Public Key Info:
            Public Key Algorithm: rsaEncryption
                Public-Key: (2048 bit)
                Modulus:
                    00:c3:82:13:64:0e:35:33:0c:ac:44:be:6d:92:f5:
                    e4:97:d8:9a:bd:64:f1:b5:67:62:01:7b:0c:98:57:
                    4a:63:64:b0:9d:6a:7b:84:a2:91:fe:73:0b:4c:81:
                    ce:89:f9:8d:8d:8a:41:18:c8:d8:64:27:36:32:e6:
                    36:26:44:16:13:2e:a1:ad:38:06:0b:1b:39:62:6a:
                    94:ac:a0:59:be:52:cb:47:d7:4b:00:09:91:8e:14:
                    69:a9:62:df:49:d8:b6:79:73:de:60:d4:b8:76:89:
                    a4:53:8a:1d:4b:80:88:31:e8:05:46:81:1b:7b:5d:
                    52:d0:6b:3b:53:0d:25:3c:95:9b:2d:99:83:3c:03:
                    8c:b5:73:fb:43:6c:82:b3:48:57:38:3c:ff:b7:79:
                    d8:13:74:06:d0:17:78:a9:38:09:76:ca:f9:b7:5a:
                    a5:8a:6e:85:7f:27:34:79:82:ef:a2:01:93:ae:fa:
                    0b:18:47:d4:14:ff:67:78:2b:53:92:f6:ac:27:42:
                    c7:7f:8e:fd:06:4a:36:b9:7a:98:5e:0d:94:ef:1a:
                    fa:08:ad:8d:64:28:c7:c1:03:76:63:b9:33:5a:9f:
                    16:be:d3:e0:5c:e9:43:7b:9b:83:b3:90:31:e7:59:
                    2b:1c:d2:8c:73:15:a2:3a:94:35:03:80:97:f8:5d:
                    a3:13
                Exponent: 65537 (0x10001)
        X509v3 extensions:
            X509v3 Subject Key Identifier: 
                5A:16:9C:06:85:B6:F4:77:AD:72:58:A2:4F:A1:FE:29:CF:97:8A:2B
            X509v3 Authority Key Identifier: 
                keyid:24:B9:91:41:39:F1:30:5E:F8:C5:3B:C0:51:CC:11:58:A6:13:73:B3

            Authority Information Access: 
                CA Issuers - URI:http://url-for-aia/Intermediate.cer

            X509v3 CRL Distribution Points: 

                Full Name:
                  URI:http://url-for-crl/Intermediate.crl

            X509v3 Key Usage: critical
                Digital Signature, Key Encipherment
            X509v3 Extended Key Usage: 
                TLS Web Client Authentication, TLS Web Server Authentication, Code Signing, OCSP Signing, Time Stamping
    Signature Algorithm: sha256WithRSAEncryption
         4a:f1:10:7d:eb:77:f7:e9:8a:1a:e4:1a:2d:84:9c:1d:91:67:
         f8:c2:d9:a7:f4:e9:97:5e:74:fe:d8:a3:8f:21:3d:51:bc:af:
         eb:2a:e5:dd:76:61:de:31:4c:1b:ca:91:1c:79:5e:2c:5d:7b:
         41:b8:04:47:e0:92:ac:cd:39:c2:86:b3:e0:24:5b:62:c7:ef:
         79:8d:f5:09:60:29:74:16:80:94:ed:8c:93:15:32:ee:66:bb:
         31:db:6a:eb:00:b4:60:6e:ed:61:f6:1e:f9:e7:fd:de:2f:a2:
         4f:f1:3d:50:7e:86:04:8b:e0:a9:94:ee:83:fc:23:16:a5:3c:
         07:87:1b:b8:71:f2:22:2e:5b:cf:8d:86:be:ae:45:5d:81:8a:
         33:6e:36:32:8a:28:04:cb:39:f2:78:b0:e4:cf:21:fd:72:06:
         76:c1:83:06:6e:36:0c:69:5a:4c:90:42:60:64:56:db:b6:c8:
         29:56:d8:48:77:6b:2b:5b:2a:33:37:fd:6a:78:ae:a2:0a:29:
         8c:2b:5e:10:d7:04:ef:b7:19:6f:e5:82:1e:03:d1:8e:73:b0:
         1b:dd:4c:8a:ce:40:de:a5:02:29:8a:e3:ff:5a:bb:a9:8c:34:
         87:b0:6b:44:6b:ee:c3:dc:d0:51:d3:af:e8:ee:37:4f:b7:c1:
         0f:7e:5a:2c
-----BEGIN CERTIFICATE-----
MIIDwDCCAqigAwIBAgIUPx0rHRJ+NLYrYbJ48nRmmtxmrcwwDQYJKoZIhvcNAQEL
BQAwFzEVMBMGA1UEAwwMSW50ZXJtZWRpYXRlMB4XDTIxMTAwNTEyMDAwMFoXDTIy
MTAwNTEyMDAwMFowETEPMA0GA1UEAwwGVGFyZ2V0MIIBIjANBgkqhkiG9w0BAQEF
AAOCAQ8AMIIBCgKCAQEAw4ITZA41MwysRL5tkvXkl9iavWTxtWdiAXsMmFdKY2Sw
nWp7hKKR/nMLTIHOifmNjYpBGMjYZCc2MuY2JkQWEy6hrTgGCxs5YmqUrKBZvlLL
R9dLAAmRjhRpqWLfSdi2eXPeYNS4domkU4odS4CIMegFRoEbe11S0Gs7Uw0lPJWb
LZmDPAOMtXP7Q2yCs0hXODz/t3nYE3QG0Bd4qTgJdsr5t1qlim6Ffyc0eYLvogGT
rvoLGEfUFP9neCtTkvasJ0LHf479Bko2uXqYXg2U7xr6CK2NZCjHwQN2Y7kzWp8W
vtPgXOlDe5uDs5Ax51krHNKMcxWiOpQ1A4CX+F2jEwIDAQABo4IBCDCCAQQwHQYD
VR0OBBYEFFoWnAaFtvR3rXJYok+h/inPl4orMB8GA1UdIwQYMBaAFCS5kUE58TBe
+MU7wFHMEVimE3OzMD8GCCsGAQUFBwEBBDMwMTAvBggrBgEFBQcwAoYjaHR0cDov
L3VybC1mb3ItYWlhL0ludGVybWVkaWF0ZS5jZXIwNAYDVR0fBC0wKzApoCegJYYj
aHR0cDovL3VybC1mb3ItY3JsL0ludGVybWVkaWF0ZS5jcmwwDgYDVR0PAQH/BAQD
AgWgMDsGA1UdJQQ0MDIGCCsGAQUFBwMCBggrBgEFBQcDAQYIKwYBBQUHAwMGCCsG
AQUFBwMJBggrBgEFBQcDCDANBgkqhkiG9w0BAQsFAAOCAQEASvEQfet39+mKGuQa
LYScHZFn+MLZp/Tpl150/tijjyE9Ubyv6yrl3XZh3jFMG8qRHHleLF17QbgER+CS
rM05woaz4CRbYsfveY31CWApdBaAlO2MkxUy7ma7Mdtq6wC0YG7tYfYe+ef93i+i
T/E9UH6GBIvgqZTug/wjFqU8B4cbuHHyIi5bz42Gvq5FXYGKM242MoooBMs58niw
5M8h/XIGdsGDBm42DGlaTJBCYGRW27bIKVbYSHdrK1sqMzf9aniuogopjCteENcE
77cZb+WCHgPRjnOwG91Mis5A3qUCKYrj/1q7qYw0h7BrRGvuw9zQUdOv6O43T7fB
D35aLA==
-----END CERTIFICATE-----
