Certificate:
    Data:
        Version: 3 (0x2)
        Serial Number:
            71:f4:9e:e7:b5:f7:36:30:c9:84:5e:a5:b8:39:8b:58:f3:23:7b:18
    Signature Algorithm: sha256WithRSAEncryption
        Issuer: CN=Root
        Validity
            Not Before: Oct  5 12:00:00 2021 GMT
            Not After : Oct  5 12:00:00 2022 GMT
        Subject: CN=Root
        Subject Public Key Info:
            Public Key Algorithm: rsaEncryption
                Public-Key: (2048 bit)
                Modulus:
                    00:e8:17:31:b6:0e:84:10:a4:9b:bf:9e:ae:9e:29:
                    b7:6f:81:ae:d7:df:45:89:d1:29:51:0e:1e:39:7a:
                    96:6b:7f:c0:78:df:88:cf:db:b3:ab:8d:49:0f:fb:
                    70:55:85:4f:93:9f:12:a1:a6:55:5c:a9:ae:8d:79:
                    4d:a6:3a:32:03:9c:bf:ad:95:c4:8b:49:1f:02:b5:
                    23:a0:9f:da:d3:45:c6:8c:fc:ec:97:46:57:dd:77:
                    56:c6:a2:46:78:da:a2:59:bb:22:ea:de:63:94:50:
                    19:91:1c:10:cd:67:e0:57:10:bd:e0:de:69:67:80:
                    6d:31:a8:43:bc:49:2c:8a:d6:4a:23:0f:a6:78:f4:
                    74:c7:4f:37:52:3a:af:9c:03:b2:b3:6c:26:ab:62:
                    61:12:6d:22:15:66:da:ec:d6:b8:1f:9b:14:b9:04:
                    9c:9b:5e:b5:cb:8b:62:95:67:6a:a1:57:44:02:77:
                    a2:81:3e:c7:20:52:a2:16:2e:ba:c2:29:a1:54:ed:
                    33:67:f2:2a:26:a3:b6:da:08:8d:63:6c:ca:4f:c6:
                    84:88:b9:60:08:cf:50:8e:5a:3e:75:d7:ec:d7:63:
                    c1:fe:18:3f:4e:fb:08:de:39:45:d2:81:34:8e:89:
                    5a:48:ce:49:bf:ca:84:cb:26:ac:c2:f7:1f:6b:3f:
                    0d:49
                Exponent: 65537 (0x10001)
        X509v3 extensions:
            X509v3 Subject Key Identifier: 
                CD:6F:4C:FE:AA:7A:3A:63:5D:12:79:6D:F4:4C:B0:2A:8A:7F:FB:6C
            X509v3 Authority Key Identifier: 
                keyid:CD:6F:4C:FE:AA:7A:3A:63:5D:12:79:6D:F4:4C:B0:2A:8A:7F:FB:6C

            Authority Information Access: 
                CA Issuers - URI:http://url-for-aia/Root.cer

            X509v3 CRL Distribution Points: 

                Full Name:
                  URI:http://url-for-crl/Root.crl

            X509v3 Key Usage: critical
                Certificate Sign, CRL Sign
            X509v3 Basic Constraints: critical
                CA:TRUE
    Signature Algorithm: sha256WithRSAEncryption
         2e:3a:98:e7:b2:5c:e7:8d:50:e4:04:4d:82:34:86:f0:13:6b:
         02:e6:cd:c9:ae:cc:6c:0b:79:da:1f:9a:5e:9d:59:12:f2:c8:
         aa:56:32:28:2a:ea:64:68:15:a1:9f:27:e6:26:b7:66:15:9c:
         65:3c:37:af:f9:27:78:63:42:cc:bb:d4:ea:49:e2:7d:31:6b:
         94:7e:d0:41:24:bc:f9:e1:b3:34:a7:60:35:d7:4a:05:ef:53:
         5f:9f:a7:9a:e8:25:40:35:94:3e:c0:2e:3a:3a:5e:00:f9:ec:
         45:16:e3:11:2c:29:8e:86:70:ae:8f:0e:f6:7a:3d:c3:01:ef:
         b2:35:e7:00:3d:1a:4a:0c:8e:a8:fe:bb:11:b9:05:71:60:d4:
         a6:94:4c:ee:1b:a1:88:68:13:87:e0:1d:25:ba:e3:71:fd:7a:
         ee:3e:c1:8c:4e:a5:c9:c2:26:a4:c6:dc:de:73:7c:14:e9:a1:
         2d:a6:0a:82:09:8a:1a:bb:08:54:01:50:3b:fa:e9:1e:ca:96:
         fd:93:6f:a6:9e:4c:02:18:0f:71:86:0b:14:92:a8:43:09:39:
         19:96:d1:5f:96:12:08:18:bd:46:53:28:df:19:37:1d:17:48:
         97:4d:57:4d:90:7b:d2:1e:be:32:cd:e6:4c:98:bd:15:c8:26:
         cc:7f:8a:ff
-----BEGIN CERTIFICATE-----
MIIDeDCCAmCgAwIBAgIUcfSe57X3NjDJhF6luDmLWPMjexgwDQYJKoZIhvcNAQEL
BQAwDzENMAsGA1UEAwwEUm9vdDAeFw0yMTEwMDUxMjAwMDBaFw0yMjEwMDUxMjAw
MDBaMA8xDTALBgNVBAMMBFJvb3QwggEiMA0GCSqGSIb3DQEBAQUAA4IBDwAwggEK
AoIBAQDoFzG2DoQQpJu/nq6eKbdvga7X30WJ0SlRDh45epZrf8B434jP27OrjUkP
+3BVhU+TnxKhplVcqa6NeU2mOjIDnL+tlcSLSR8CtSOgn9rTRcaM/OyXRlfdd1bG
okZ42qJZuyLq3mOUUBmRHBDNZ+BXEL3g3mlngG0xqEO8SSyK1kojD6Z49HTHTzdS
Oq+cA7KzbCarYmESbSIVZtrs1rgfmxS5BJybXrXLi2KVZ2qhV0QCd6KBPscgUqIW
LrrCKaFU7TNn8iomo7baCI1jbMpPxoSIuWAIz1COWj511+zXY8H+GD9O+wjeOUXS
gTSOiVpIzkm/yoTLJqzC9x9rPw1JAgMBAAGjgcswgcgwHQYDVR0OBBYEFM1vTP6q
ejpjXRJ5bfRMsCqKf/tsMB8GA1UdIwQYMBaAFM1vTP6qejpjXRJ5bfRMsCqKf/ts
MDcGCCsGAQUFBwEBBCswKTAnBggrBgEFBQcwAoYbaHR0cDovL3VybC1mb3ItYWlh
L1Jvb3QuY2VyMCwGA1UdHwQlMCMwIaAfoB2GG2h0dHA6Ly91cmwtZm9yLWNybC9S
b290LmNybDAOBgNVHQ8BAf8EBAMCAQYwDwYDVR0TAQH/BAUwAwEB/zANBgkqhkiG
9w0BAQsFAAOCAQEALjqY57Jc541Q5ARNgjSG8BNrAubNya7MbAt52h+aXp1ZEvLI
qlYyKCrqZGgVoZ8n5ia3ZhWcZTw3r/kneGNCzLvU6knifTFrlH7QQSS8+eGzNKdg
NddKBe9TX5+nmuglQDWUPsAuOjpeAPnsRRbjESwpjoZwro8O9no9wwHvsjXnAD0a
SgyOqP67EbkFcWDUppRM7huhiGgTh+AdJbrjcf167j7BjE6lycImpMbc3nN8FOmh
LaYKggmKGrsIVAFQO/rpHsqW/ZNvpp5MAhgPcYYLFJKoQwk5GZbRX5YSCBi9RlMo
3xk3HRdIl01XTZB70h6+Ms3mTJi9FcgmzH+K/w==
-----END CERTIFICATE-----
