Certificate:
    Data:
        Version: 3 (0x2)
        Serial Number:
            71:f4:9e:e7:b5:f7:36:30:c9:84:5e:a5:b8:39:8b:58:f3:23:7b:19
    Signature Algorithm: sha256WithRSAEncryption
        Issuer: CN=Root
        Validity
            Not Before: Oct  5 12:00:00 2021 GMT
            Not After : Oct  5 12:00:00 2022 GMT
        Subject: CN=Intermediate
        Subject Public Key Info:
            Public Key Algorithm: rsaEncryption
                Public-Key: (2048 bit)
                Modulus:
                    00:ed:3b:bb:f2:8b:20:81:de:42:41:c6:24:63:1c:
                    4b:e5:63:b0:93:07:fd:22:64:50:7d:ef:8f:ed:65:
                    aa:ba:f4:d9:ad:0c:68:dd:50:b0:ea:0a:5e:18:9e:
                    df:48:88:ec:1f:fa:6b:4a:3e:db:ea:24:6e:b1:a3:
                    bb:0b:12:de:1d:49:d3:32:78:24:f9:e8:4f:aa:85:
                    90:21:a2:2c:8f:58:95:8c:70:80:8d:cd:99:68:03:
                    67:0f:48:eb:96:17:63:93:2b:8f:72:77:23:5f:97:
                    4f:86:bd:17:d2:70:5b:5c:18:f8:01:d6:11:d8:c0:
                    dc:32:b2:f4:bf:dd:da:65:fb:86:23:c0:a4:bd:ff:
                    c2:a4:b6:87:9e:10:98:d4:f4:09:cb:26:50:1d:56:
                    83:72:09:c6:c1:b7:cc:52:9c:61:09:04:bb:aa:2a:
                    63:66:a5:b1:02:60:85:bc:30:91:62:bb:6f:b0:24:
                    33:e8:b5:9a:13:1f:3a:73:95:d5:fb:bc:a9:48:dd:
                    14:a2:a4:62:e1:97:19:57:b1:1a:da:c1:79:93:fd:
                    74:cb:e1:ff:0c:49:c2:78:57:8e:ef:dc:df:60:96:
                    8e:e6:a2:97:60:b9:53:6b:17:8e:ae:f9:3d:be:31:
                    dd:46:18:bd:af:b6:a6:02:fa:48:2f:d8:c6:f0:1f:
                    bc:43
                Exponent: 65537 (0x10001)
        X509v3 extensions:
            X509v3 Subject Key Identifier: 
                24:B9:91:41:39:F1:30:5E:F8:C5:3B:C0:51:CC:11:58:A6:13:73:B3
            X509v3 Authority Key Identifier: 
                keyid:CD:6F:4C:FE:AA:7A:3A:63:5D:12:79:6D:F4:4C:B0:2A:8A:7F:FB:6C

            Authority Information Access: 
                CA Issuers - URI:http://url-for-aia/Root.cer

            X509v3 CRL Distribution Points: 

                Full Name:
                  URI:http://url-for-crl/Root.crl

            X509v3 Key Usage: critical
                Certificate Sign, CRL Sign
            X509v3 Basic Constraints: critical
                CA:TRUE
    Signature Algorithm: sha256WithRSAEncryption
         b5:72:33:3e:f7:8f:e4:b8:bb:1c:6d:25:34:ec:3f:2b:03:19:
         c8:50:bd:f0:17:e8:5a:eb:43:6d:57:b0:e5:5e:90:18:c9:5d:
         96:e4:27:d3:09:35:ba:22:c7:5f:c3:b2:b0:2f:be:dc:50:57:
         b3:1a:7b:60:fa:ba:99:85:d9:8b:cb:08:67:c5:4b:28:a7:f2:
         21:91:44:ac:aa:c2:d0:4e:15:59:1f:c0:91:06:fa:f8:09:b5:
         39:3f:6d:be:80:7b:10:72:fd:2c:fe:27:69:3a:36:63:e3:14:
         30:11:a0:77:83:f3:14:d2:fa:76:0c:c3:88:1a:3c:fa:f0:50:
         ba:d4:69:4b:80:93:6d:01:38:2e:3e:81:e4:e5:f7:02:1c:bf:
         ad:e7:be:6e:dd:a3:1d:3c:7c:df:58:7b:ea:06:56:2c:8e:e1:
         00:14:79:c3:a9:aa:b5:25:8d:fb:62:e2:18:75:27:d3:f4:09:
         3b:fa:49:f7:9e:fd:28:22:57:e4:fe:f4:b6:3e:17:91:46:2c:
         6d:b0:5a:36:b4:f1:47:fb:dd:28:2a:b4:c3:43:7e:dd:05:a5:
         35:05:60:8c:fc:1e:76:8d:28:a7:42:f0:6b:b3:4b:5c:77:ae:
         ec:be:c3:9e:a6:50:be:5b:46:f4:b3:2d:e4:a5:f5:a1:4e:94:
         0a:09:e4:2e
-----BEGIN CERTIFICATE-----
MIIDgDCCAmigAwIBAgIUcfSe57X3NjDJhF6luDmLWPMjexkwDQYJKoZIhvcNAQEL
BQAwDzENMAsGA1UEAwwEUm9vdDAeFw0yMTEwMDUxMjAwMDBaFw0yMjEwMDUxMjAw
MDBaMBcxFTATBgNVBAMMDEludGVybWVkaWF0ZTCCASIwDQYJKoZIhvcNAQEBBQAD
ggEPADCCAQoCggEBAO07u/KLIIHeQkHGJGMcS+VjsJMH/SJkUH3vj+1lqrr02a0M
aN1QsOoKXhie30iI7B/6a0o+2+okbrGjuwsS3h1J0zJ4JPnoT6qFkCGiLI9YlYxw
gI3NmWgDZw9I65YXY5Mrj3J3I1+XT4a9F9JwW1wY+AHWEdjA3DKy9L/d2mX7hiPA
pL3/wqS2h54QmNT0CcsmUB1Wg3IJxsG3zFKcYQkEu6oqY2alsQJghbwwkWK7b7Ak
M+i1mhMfOnOV1fu8qUjdFKKkYuGXGVexGtrBeZP9dMvh/wxJwnhXju/c32CWjuai
l2C5U2sXjq75Pb4x3UYYva+2pgL6SC/YxvAfvEMCAwEAAaOByzCByDAdBgNVHQ4E
FgQUJLmRQTnxMF74xTvAUcwRWKYTc7MwHwYDVR0jBBgwFoAUzW9M/qp6OmNdEnlt
9EywKop/+2wwNwYIKwYBBQUHAQEEKzApMCcGCCsGAQUFBzAChhtodHRwOi8vdXJs
LWZvci1haWEvUm9vdC5jZXIwLAYDVR0fBCUwIzAhoB+gHYYbaHR0cDovL3VybC1m
b3ItY3JsL1Jvb3QuY3JsMA4GA1UdDwEB/wQEAwIBBjAPBgNVHRMBAf8EBTADAQH/
MA0GCSqGSIb3DQEBCwUAA4IBAQC1cjM+94/kuLscbSU07D8rAxnIUL3wF+ha60Nt
V7DlXpAYyV2W5CfTCTW6Isdfw7KwL77cUFezGntg+rqZhdmLywhnxUsop/IhkUSs
qsLQThVZH8CRBvr4CbU5P22+gHsQcv0s/idpOjZj4xQwEaB3g/MU0vp2DMOIGjz6
8FC61GlLgJNtATguPoHk5fcCHL+t575u3aMdPHzfWHvqBlYsjuEAFHnDqaq1JY37
YuIYdSfT9Ak7+kn3nv0oIlfk/vS2PheRRixtsFo2tPFH+90oKrTDQ37dBaU1BWCM
/B52jSinQvBrs0tcd67svsOeplC+W0b0sy3kpfWhTpQKCeQu
-----END CERTIFICATE-----
