EXPORTS
	??0MimeType@QWebPluginFactory@@QAE@ABU01@@Z @ 1 NONAME ; QWebPluginFactory::MimeType::MimeType(struct QWebPluginFactory::MimeType const &)
	??0QGraphicsWebView@@QAE@PAVQGraphicsItem@@@Z @ 2 NONAME ; QGraphicsWebView::QGraphicsWebView(class QGraphicsItem *)
	??0QWebDatabase@@AAE@PAVQWebDatabasePrivate@@@Z @ 3 NONAME ; QWebDatabase::QWebDatabase(class QWebDatabasePrivate *)
	??0QWebDatabase@@QAE@ABV0@@Z @ 4 NONAME ; QWebDatabase::QWebDatabase(class QWebDatabase const &)
	??0QWebElement@@AAE@PAVElement@WebCore@@@Z @ 5 NONAME ; QWebElement::QWebElement(class WebCore::Element *)
	??0QWebElement@@AAE@PAVNode@WebCore@@@Z @ 6 NONAME ; QWebElement::QWebElement(class WebCore::Node *)
	??0QWebElement@@QAE@ABV0@@Z @ 7 NONAME ; QWebElement::QWebElement(class QWebElement const &)
	??0QWebElement@@QAE@XZ @ 8 NONAME ; QWebElement::QWebElement(void)
	??0QWebElementCollection@@QAE@ABV0@@Z @ 9 NONAME ; QWebElementCollection::QWebElementCollection(class QWebElementCollection const &)
	??0QWebElementCollection@@QAE@ABVQWebElement@@ABVQString@@@Z @ 10 NONAME ; QWebElementCollection::QWebElementCollection(class QWebElement const &, class QString const &)
	??0QWebElementCollection@@QAE@XZ @ 11 NONAME ; QWebElementCollection::QWebElementCollection(void)
	??0QWebFrame@@AAE@PAV0@PAVQWebFrameData@@@Z @ 12 NONAME ; QWebFrame::QWebFrame(class QWebFrame *, class QWebFrameData *)
	??0QWebFrame@@AAE@PAVQWebPage@@PAVQWebFrameData@@@Z @ 13 NONAME ; QWebFrame::QWebFrame(class QWebPage *, class QWebFrameData *)
	??0QWebHistory@@AAE@XZ @ 14 NONAME ; QWebHistory::QWebHistory(void)
	??0QWebHistoryInterface@@QAE@PAVQObject@@@Z @ 15 NONAME ; QWebHistoryInterface::QWebHistoryInterface(class QObject *)
	??0QWebHistoryItem@@AAE@PAVQWebHistoryItemPrivate@@@Z @ 16 NONAME ; QWebHistoryItem::QWebHistoryItem(class QWebHistoryItemPrivate *)
	??0QWebHistoryItem@@QAE@ABV0@@Z @ 17 NONAME ; QWebHistoryItem::QWebHistoryItem(class QWebHistoryItem const &)
	??0QWebHitTestResult@@AAE@PAVQWebHitTestResultPrivate@@@Z @ 18 NONAME ; QWebHitTestResult::QWebHitTestResult(class QWebHitTestResultPrivate *)
	??0QWebHitTestResult@@QAE@ABV0@@Z @ 19 NONAME ; QWebHitTestResult::QWebHitTestResult(class QWebHitTestResult const &)
	??0QWebHitTestResult@@QAE@XZ @ 20 NONAME ; QWebHitTestResult::QWebHitTestResult(void)
	??0QWebInspector@@QAE@PAVQWidget@@@Z @ 21 NONAME ; QWebInspector::QWebInspector(class QWidget *)
	??0QWebPage@@QAE@PAVQObject@@@Z @ 22 NONAME ; QWebPage::QWebPage(class QObject *)
	??0QWebPluginDatabase@@AAE@PAVQObject@@@Z @ 23 NONAME ; QWebPluginDatabase::QWebPluginDatabase(class QObject *)
	??0QWebPluginFactory@@QAE@PAVQObject@@@Z @ 24 NONAME ; QWebPluginFactory::QWebPluginFactory(class QObject *)
	??0QWebPluginInfo@@AAE@PAVPluginPackage@WebCore@@@Z @ 25 NONAME ; QWebPluginInfo::QWebPluginInfo(class WebCore::PluginPackage *)
	??0QWebPluginInfo@@QAE@ABV0@@Z @ 26 NONAME ; QWebPluginInfo::QWebPluginInfo(class QWebPluginInfo const &)
	??0QWebPluginInfo@@QAE@XZ @ 27 NONAME ; QWebPluginInfo::QWebPluginInfo(void)
	??0QWebSecurityOrigin@@AAE@PAVQWebSecurityOriginPrivate@@@Z @ 28 NONAME ; QWebSecurityOrigin::QWebSecurityOrigin(class QWebSecurityOriginPrivate *)
	??0QWebSecurityOrigin@@QAE@ABV0@@Z @ 29 NONAME ; QWebSecurityOrigin::QWebSecurityOrigin(class QWebSecurityOrigin const &)
	??0QWebSettings@@AAE@PAVSettings@WebCore@@@Z @ 30 NONAME ; QWebSettings::QWebSettings(class WebCore::Settings *)
	??0QWebSettings@@AAE@XZ @ 31 NONAME ; QWebSettings::QWebSettings(void)
	??0QWebView@@QAE@PAVQWidget@@@Z @ 32 NONAME ; QWebView::QWebView(class QWidget *)
	??1MimeType@QWebPluginFactory@@QAE@XZ @ 33 NONAME ; QWebPluginFactory::MimeType::~MimeType(void)
	??1QGraphicsWebView@@UAE@XZ @ 34 NONAME ; QGraphicsWebView::~QGraphicsWebView(void)
	??1QWebDatabase@@QAE@XZ @ 35 NONAME ; QWebDatabase::~QWebDatabase(void)
	??1QWebElement@@QAE@XZ @ 36 NONAME ; QWebElement::~QWebElement(void)
	??1QWebElementCollection@@QAE@XZ @ 37 NONAME ; QWebElementCollection::~QWebElementCollection(void)
	??1QWebFrame@@EAE@XZ @ 38 NONAME ; QWebFrame::~QWebFrame(void)
	??1QWebHistory@@AAE@XZ @ 39 NONAME ; QWebHistory::~QWebHistory(void)
	??1QWebHistoryInterface@@UAE@XZ @ 40 NONAME ; QWebHistoryInterface::~QWebHistoryInterface(void)
	??1QWebHistoryItem@@QAE@XZ @ 41 NONAME ; QWebHistoryItem::~QWebHistoryItem(void)
	??1QWebHitTestResult@@QAE@XZ @ 42 NONAME ; QWebHitTestResult::~QWebHitTestResult(void)
	??1QWebInspector@@UAE@XZ @ 43 NONAME ; QWebInspector::~QWebInspector(void)
	??1QWebPage@@UAE@XZ @ 44 NONAME ; QWebPage::~QWebPage(void)
	??1QWebPluginDatabase@@EAE@XZ @ 45 NONAME ; QWebPluginDatabase::~QWebPluginDatabase(void)
	??1QWebPluginFactory@@UAE@XZ @ 46 NONAME ; QWebPluginFactory::~QWebPluginFactory(void)
	??1QWebPluginInfo@@QAE@XZ @ 47 NONAME ; QWebPluginInfo::~QWebPluginInfo(void)
	??1QWebSecurityOrigin@@QAE@XZ @ 48 NONAME ; QWebSecurityOrigin::~QWebSecurityOrigin(void)
	??1QWebSettings@@AAE@XZ @ 49 NONAME ; QWebSettings::~QWebSettings(void)
	??1QWebView@@UAE@XZ @ 50 NONAME ; QWebView::~QWebView(void)
	??4QWebDatabase@@QAEAAV0@ABV0@@Z @ 51 NONAME ; class QWebDatabase & QWebDatabase::operator=(class QWebDatabase const &)
	??4QWebElement@@QAEAAV0@ABV0@@Z @ 52 NONAME ; class QWebElement & QWebElement::operator=(class QWebElement const &)
	??4QWebElementCollection@@QAEAAV0@ABV0@@Z @ 53 NONAME ; class QWebElementCollection & QWebElementCollection::operator=(class QWebElementCollection const &)
	??4QWebHistoryItem@@QAEAAV0@ABV0@@Z @ 54 NONAME ; class QWebHistoryItem & QWebHistoryItem::operator=(class QWebHistoryItem const &)
	??4QWebHitTestResult@@QAEAAV0@ABV0@@Z @ 55 NONAME ; class QWebHitTestResult & QWebHitTestResult::operator=(class QWebHitTestResult const &)
	??4QWebPluginInfo@@QAEAAV0@ABV0@@Z @ 56 NONAME ; class QWebPluginInfo & QWebPluginInfo::operator=(class QWebPluginInfo const &)
	??4QWebSecurityOrigin@@QAEAAV0@ABV0@@Z @ 57 NONAME ; class QWebSecurityOrigin & QWebSecurityOrigin::operator=(class QWebSecurityOrigin const &)
	??5@YAAAVQDataStream@@AAV0@AAVQWebHistory@@@Z @ 58 NONAME ; class QDataStream & operator>>(class QDataStream &, class QWebHistory &)
	??6@YAAAVQDataStream@@AAV0@ABVQWebHistory@@@Z @ 59 NONAME ; class QDataStream & operator<<(class QDataStream &, class QWebHistory const &)
	??8MimeType@QWebPluginFactory@@QBE_NABU01@@Z @ 60 NONAME ; bool QWebPluginFactory::MimeType::operator==(struct QWebPluginFactory::MimeType const &) const
	??8QWebElement@@QBE_NABV0@@Z @ 61 NONAME ; bool QWebElement::operator==(class QWebElement const &) const
	??8QWebPluginInfo@@QBE_NABV0@@Z @ 62 NONAME ; bool QWebPluginInfo::operator==(class QWebPluginInfo const &) const
	??9MimeType@QWebPluginFactory@@QBE_NABU01@@Z @ 63 NONAME ; bool QWebPluginFactory::MimeType::operator!=(struct QWebPluginFactory::MimeType const &) const
	??9QWebElement@@QBE_NABV0@@Z @ 64 NONAME ; bool QWebElement::operator!=(class QWebElement const &) const
	??9QWebPluginInfo@@QBE_NABV0@@Z @ 65 NONAME ; bool QWebPluginInfo::operator!=(class QWebPluginInfo const &) const
	??AQWebElementCollection@@QBE?AVQWebElement@@H@Z @ 66 NONAME ; class QWebElement QWebElementCollection::operator[](int) const
	??HQWebElementCollection@@QBE?AV0@ABV0@@Z @ 67 NONAME ; class QWebElementCollection QWebElementCollection::operator+(class QWebElementCollection const &) const
	??YQWebElementCollection@@QAEAAV0@ABV0@@Z @ 68 NONAME ; class QWebElementCollection & QWebElementCollection::operator+=(class QWebElementCollection const &)
	??_EMimeType@QWebPluginFactory@@QAE@I@Z @ 69 NONAME ; QWebPluginFactory::MimeType::~MimeType(unsigned int)
	??_EQGraphicsWebView@@UAE@I@Z @ 70 NONAME ; QGraphicsWebView::~QGraphicsWebView(unsigned int)
	??_EQWebFrame@@UAE@I@Z @ 71 NONAME ; QWebFrame::~QWebFrame(unsigned int)
	??_EQWebHistoryInterface@@UAE@I@Z @ 72 NONAME ; QWebHistoryInterface::~QWebHistoryInterface(unsigned int)
	??_EQWebInspector@@UAE@I@Z @ 73 NONAME ; QWebInspector::~QWebInspector(unsigned int)
	??_EQWebPage@@UAE@I@Z @ 74 NONAME ; QWebPage::~QWebPage(unsigned int)
	??_EQWebPluginDatabase@@UAE@I@Z @ 75 NONAME ; QWebPluginDatabase::~QWebPluginDatabase(unsigned int)
	??_EQWebPluginFactory@@UAE@I@Z @ 76 NONAME ; QWebPluginFactory::~QWebPluginFactory(unsigned int)
	??_EQWebView@@UAE@I@Z @ 77 NONAME ; QWebView::~QWebView(unsigned int)
	?acceptNavigationRequest@QWebPage@@MAE_NPAVQWebFrame@@ABVQNetworkRequest@@W4NavigationType@1@@Z @ 78 NONAME ; bool QWebPage::acceptNavigationRequest(class QWebFrame *, class QNetworkRequest const &, enum QWebPage::NavigationType)
	?action@QWebPage@@QBEPAVQAction@@W4WebAction@1@@Z @ 79 NONAME ; class QAction * QWebPage::action(enum QWebPage::WebAction) const
	?addClass@QWebElement@@QAEXABVQString@@@Z @ 80 NONAME ; void QWebElement::addClass(class QString const &)
	?addLocalScheme@QWebSecurityOrigin@@SAXABVQString@@@Z @ 81 NONAME ; void QWebSecurityOrigin::addLocalScheme(class QString const &)
	?addSearchPath@QWebPluginDatabase@@QAEXABVQString@@@Z @ 82 NONAME ; void QWebPluginDatabase::addSearchPath(class QString const &)
	?addToJavaScriptWindowObject@QWebFrame@@QAEXABVQString@@PAVQObject@@@Z @ 83 NONAME ; void QWebFrame::addToJavaScriptWindowObject(class QString const &, class QObject *)
	?addToJavaScriptWindowObject@QWebFrame@@QAEXABVQString@@PAVQObject@@W4ValueOwnership@QScriptEngine@@@Z @ 84 NONAME ; void QWebFrame::addToJavaScriptWindowObject(class QString const &, class QObject *, enum QScriptEngine::ValueOwnership)
	?allOrigins@QWebSecurityOrigin@@SA?AV?$QList@VQWebSecurityOrigin@@@@XZ @ 85 NONAME ; class QList<class QWebSecurityOrigin> QWebSecurityOrigin::allOrigins(void)
	?alternateText@QWebHitTestResult@@QBE?AVQString@@XZ @ 86 NONAME ; class QString QWebHitTestResult::alternateText(void) const
	?append@QWebElementCollection@@QAEXABV1@@Z @ 87 NONAME ; void QWebElementCollection::append(class QWebElementCollection const &)
	?appendInside@QWebElement@@QAEXABV1@@Z @ 88 NONAME ; void QWebElement::appendInside(class QWebElement const &)
	?appendInside@QWebElement@@QAEXABVQString@@@Z @ 89 NONAME ; void QWebElement::appendInside(class QString const &)
	?appendOutside@QWebElement@@QAEXABV1@@Z @ 90 NONAME ; void QWebElement::appendOutside(class QWebElement const &)
	?appendOutside@QWebElement@@QAEXABVQString@@@Z @ 91 NONAME ; void QWebElement::appendOutside(class QString const &)
	?at@QWebElementCollection@@QBE?AVQWebElement@@H@Z @ 92 NONAME ; class QWebElement QWebElementCollection::at(int) const
	?attribute@QWebElement@@QBE?AVQString@@ABV2@0@Z @ 93 NONAME ; class QString QWebElement::attribute(class QString const &, class QString const &) const
	?attributeNS@QWebElement@@QBE?AVQString@@ABV2@00@Z @ 94 NONAME ; class QString QWebElement::attributeNS(class QString const &, class QString const &, class QString const &) const
	?back@QGraphicsWebView@@QAEXXZ @ 95 NONAME ; void QGraphicsWebView::back(void)
	?back@QWebHistory@@QAEXXZ @ 96 NONAME ; void QWebHistory::back(void)
	?back@QWebView@@QAEXXZ @ 97 NONAME ; void QWebView::back(void)
	?backItem@QWebHistory@@QBE?AVQWebHistoryItem@@XZ @ 98 NONAME ; class QWebHistoryItem QWebHistory::backItem(void) const
	?backItems@QWebHistory@@QBE?AV?$QList@VQWebHistoryItem@@@@H@Z @ 99 NONAME ; class QList<class QWebHistoryItem> QWebHistory::backItems(int) const
	?baseUrl@QWebFrame@@QBE?AVQUrl@@XZ @ 100 NONAME ; class QUrl QWebFrame::baseUrl(void) const
	?begin@QWebElementCollection@@QAE?AViterator@1@XZ @ 101 NONAME ; class QWebElementCollection::iterator QWebElementCollection::begin(void)
	?begin@QWebElementCollection@@QBE?AVconst_iterator@1@XZ @ 102 NONAME ; class QWebElementCollection::const_iterator QWebElementCollection::begin(void) const
	?boundingRect@QWebHitTestResult@@QBE?AVQRect@@XZ @ 103 NONAME ; class QRect QWebHitTestResult::boundingRect(void) const
	?bytesReceived@QWebPage@@QBE_KXZ @ 104 NONAME ; unsigned long long QWebPage::bytesReceived(void) const
	?canGoBack@QWebHistory@@QBE_NXZ @ 105 NONAME ; bool QWebHistory::canGoBack(void) const
	?canGoForward@QWebHistory@@QBE_NXZ @ 106 NONAME ; bool QWebHistory::canGoForward(void) const
	?changeEvent@QWebView@@MAEXPAVQEvent@@@Z @ 107 NONAME ; void QWebView::changeEvent(class QEvent *)
	?childFrames@QWebFrame@@QBE?AV?$QList@PAVQWebFrame@@@@XZ @ 108 NONAME ; class QList<class QWebFrame *> QWebFrame::childFrames(void) const
	?chooseFile@QWebPage@@MAE?AVQString@@PAVQWebFrame@@ABV2@@Z @ 109 NONAME ; class QString QWebPage::chooseFile(class QWebFrame *, class QString const &)
	?classes@QWebElement@@QBE?AVQStringList@@XZ @ 110 NONAME ; class QStringList QWebElement::classes(void) const
	?clear@QWebHistory@@QAEXXZ @ 111 NONAME ; void QWebHistory::clear(void)
	?clearIconDatabase@QWebSettings@@SAXXZ @ 112 NONAME ; void QWebSettings::clearIconDatabase(void)
	?clearMemoryCaches@QWebSettings@@SAXXZ @ 113 NONAME ; void QWebSettings::clearMemoryCaches(void)
	?clone@QWebElement@@QBE?AV1@XZ @ 114 NONAME ; class QWebElement QWebElement::clone(void) const
	?constBegin@QWebElementCollection@@QBE?AVconst_iterator@1@XZ @ 115 NONAME ; class QWebElementCollection::const_iterator QWebElementCollection::constBegin(void) const
	?constEnd@QWebElementCollection@@QBE?AVconst_iterator@1@XZ @ 116 NONAME ; class QWebElementCollection::const_iterator QWebElementCollection::constEnd(void) const
	?contentsChanged@QWebPage@@IAEXXZ @ 117 NONAME ; void QWebPage::contentsChanged(void)
	?contentsSize@QWebFrame@@QBE?AVQSize@@XZ @ 118 NONAME ; class QSize QWebFrame::contentsSize(void) const
	?contentsSizeChanged@QWebFrame@@IAEXABVQSize@@@Z @ 119 NONAME ; void QWebFrame::contentsSizeChanged(class QSize const &)
	?contextMenuEvent@QGraphicsWebView@@MAEXPAVQGraphicsSceneContextMenuEvent@@@Z @ 120 NONAME ; void QGraphicsWebView::contextMenuEvent(class QGraphicsSceneContextMenuEvent *)
	?contextMenuEvent@QWebView@@MAEXPAVQContextMenuEvent@@@Z @ 121 NONAME ; void QWebView::contextMenuEvent(class QContextMenuEvent *)
	?count@QWebElementCollection@@QBEHXZ @ 122 NONAME ; int QWebElementCollection::count(void) const
	?count@QWebHistory@@QBEHXZ @ 123 NONAME ; int QWebHistory::count(void) const
	?createPlugin@QWebPage@@MAEPAVQObject@@ABVQString@@ABVQUrl@@ABVQStringList@@2@Z @ 124 NONAME ; class QObject * QWebPage::createPlugin(class QString const &, class QUrl const &, class QStringList const &, class QStringList const &)
	?createStandardContextMenu@QWebPage@@QAEPAVQMenu@@XZ @ 125 NONAME ; class QMenu * QWebPage::createStandardContextMenu(void)
	?createWindow@QWebPage@@MAEPAV1@W4WebWindowType@1@@Z @ 126 NONAME ; class QWebPage * QWebPage::createWindow(enum QWebPage::WebWindowType)
	?createWindow@QWebView@@MAEPAV1@W4WebWindowType@QWebPage@@@Z @ 127 NONAME ; class QWebView * QWebView::createWindow(enum QWebPage::WebWindowType)
	?currentFrame@QWebPage@@QBEPAVQWebFrame@@XZ @ 128 NONAME ; class QWebFrame * QWebPage::currentFrame(void) const
	?currentItem@QWebHistory@@QBE?AVQWebHistoryItem@@XZ @ 129 NONAME ; class QWebHistoryItem QWebHistory::currentItem(void) const
	?currentItemIndex@QWebHistory@@QBEHXZ @ 130 NONAME ; int QWebHistory::currentItemIndex(void) const
	?databaseQuota@QWebSecurityOrigin@@QBE_JXZ @ 131 NONAME ; long long QWebSecurityOrigin::databaseQuota(void) const
	?databaseQuotaExceeded@QWebPage@@IAEXPAVQWebFrame@@VQString@@@Z @ 132 NONAME ; void QWebPage::databaseQuotaExceeded(class QWebFrame *, class QString)
	?databaseUsage@QWebSecurityOrigin@@QBE_JXZ @ 133 NONAME ; long long QWebSecurityOrigin::databaseUsage(void) const
	?databases@QWebSecurityOrigin@@QBE?AV?$QList@VQWebDatabase@@@@XZ @ 134 NONAME ; class QList<class QWebDatabase> QWebSecurityOrigin::databases(void) const
	?defaultInterface@QWebHistoryInterface@@SAPAV1@XZ @ 135 NONAME ; class QWebHistoryInterface * QWebHistoryInterface::defaultInterface(void)
	?defaultSearchPaths@QWebPluginDatabase@@SA?AVQStringList@@XZ @ 136 NONAME ; class QStringList QWebPluginDatabase::defaultSearchPaths(void)
	?defaultTextEncoding@QWebSettings@@QBE?AVQString@@XZ @ 137 NONAME ; class QString QWebSettings::defaultTextEncoding(void) const
	?description@QWebPluginInfo@@QBE?AVQString@@XZ @ 138 NONAME ; class QString QWebPluginInfo::description(void) const
	?displayName@QWebDatabase@@QBE?AVQString@@XZ @ 139 NONAME ; class QString QWebDatabase::displayName(void) const
	?document@QWebElement@@QBE?AV1@XZ @ 140 NONAME ; class QWebElement QWebElement::document(void) const
	?documentElement@QWebFrame@@QBE?AVQWebElement@@XZ @ 141 NONAME ; class QWebElement QWebFrame::documentElement(void) const
	?downloadRequested@QWebPage@@IAEXABVQNetworkRequest@@@Z @ 142 NONAME ; void QWebPage::downloadRequested(class QNetworkRequest const &)
	?dragEnterEvent@QGraphicsWebView@@MAEXPAVQGraphicsSceneDragDropEvent@@@Z @ 143 NONAME ; void QGraphicsWebView::dragEnterEvent(class QGraphicsSceneDragDropEvent *)
	?dragEnterEvent@QWebView@@MAEXPAVQDragEnterEvent@@@Z @ 144 NONAME ; void QWebView::dragEnterEvent(class QDragEnterEvent *)
	?dragLeaveEvent@QGraphicsWebView@@MAEXPAVQGraphicsSceneDragDropEvent@@@Z @ 145 NONAME ; void QGraphicsWebView::dragLeaveEvent(class QGraphicsSceneDragDropEvent *)
	?dragLeaveEvent@QWebView@@MAEXPAVQDragLeaveEvent@@@Z @ 146 NONAME ; void QWebView::dragLeaveEvent(class QDragLeaveEvent *)
	?dragMoveEvent@QGraphicsWebView@@MAEXPAVQGraphicsSceneDragDropEvent@@@Z @ 147 NONAME ; void QGraphicsWebView::dragMoveEvent(class QGraphicsSceneDragDropEvent *)
	?dragMoveEvent@QWebView@@MAEXPAVQDragMoveEvent@@@Z @ 148 NONAME ; void QWebView::dragMoveEvent(class QDragMoveEvent *)
	?dropEvent@QGraphicsWebView@@MAEXPAVQGraphicsSceneDragDropEvent@@@Z @ 149 NONAME ; void QGraphicsWebView::dropEvent(class QGraphicsSceneDragDropEvent *)
	?dropEvent@QWebView@@MAEXPAVQDropEvent@@@Z @ 150 NONAME ; void QWebView::dropEvent(class QDropEvent *)
	?element@QWebHitTestResult@@QBE?AVQWebElement@@XZ @ 151 NONAME ; class QWebElement QWebHitTestResult::element(void) const
	?enablePersistentStorage@QWebSettings@@SAXABVQString@@@Z @ 152 NONAME ; void QWebSettings::enablePersistentStorage(class QString const &)
	?encloseContentsWith@QWebElement@@QAEXABV1@@Z @ 153 NONAME ; void QWebElement::encloseContentsWith(class QWebElement const &)
	?encloseContentsWith@QWebElement@@QAEXABVQString@@@Z @ 154 NONAME ; void QWebElement::encloseContentsWith(class QString const &)
	?encloseWith@QWebElement@@QAEXABV1@@Z @ 155 NONAME ; void QWebElement::encloseWith(class QWebElement const &)
	?encloseWith@QWebElement@@QAEXABVQString@@@Z @ 156 NONAME ; void QWebElement::encloseWith(class QString const &)
	?enclosingBlockElement@QWebHitTestResult@@QBE?AVQWebElement@@XZ @ 157 NONAME ; class QWebElement QWebHitTestResult::enclosingBlockElement(void) const
	?enclosingElement@QWebElement@@CA?AV1@PAVNode@WebCore@@@Z @ 158 NONAME ; class QWebElement QWebElement::enclosingElement(class WebCore::Node *)
	?end@QWebElementCollection@@QAE?AViterator@1@XZ @ 159 NONAME ; class QWebElementCollection::iterator QWebElementCollection::end(void)
	?end@QWebElementCollection@@QBE?AVconst_iterator@1@XZ @ 160 NONAME ; class QWebElementCollection::const_iterator QWebElementCollection::end(void) const
	?evaluateJavaScript@QWebElement@@QAE?AVQVariant@@ABVQString@@@Z @ 161 NONAME ; class QVariant QWebElement::evaluateJavaScript(class QString const &)
	?evaluateJavaScript@QWebFrame@@QAE?AVQVariant@@ABVQString@@@Z @ 162 NONAME ; class QVariant QWebFrame::evaluateJavaScript(class QString const &)
	?event@QGraphicsWebView@@UAE_NPAVQEvent@@@Z @ 163 NONAME ; bool QGraphicsWebView::event(class QEvent *)
	?event@QWebFrame@@UAE_NPAVQEvent@@@Z @ 164 NONAME ; bool QWebFrame::event(class QEvent *)
	?event@QWebInspector@@UAE_NPAVQEvent@@@Z @ 165 NONAME ; bool QWebInspector::event(class QEvent *)
	?event@QWebPage@@UAE_NPAVQEvent@@@Z @ 166 NONAME ; bool QWebPage::event(class QEvent *)
	?event@QWebView@@UAE_NPAVQEvent@@@Z @ 167 NONAME ; bool QWebView::event(class QEvent *)
	?expectedSize@QWebDatabase@@QBE_JXZ @ 168 NONAME ; long long QWebDatabase::expectedSize(void) const
	?extension@QWebPage@@UAE_NW4Extension@1@PBVExtensionOption@1@PAVExtensionReturn@1@@Z @ 169 NONAME ; bool QWebPage::extension(enum QWebPage::Extension, class QWebPage::ExtensionOption const *, class QWebPage::ExtensionReturn *)
	?extension@QWebPluginFactory@@UAE_NW4Extension@1@PBVExtensionOption@1@PAVExtensionReturn@1@@Z @ 170 NONAME ; bool QWebPluginFactory::extension(enum QWebPluginFactory::Extension, class QWebPluginFactory::ExtensionOption const *, class QWebPluginFactory::ExtensionReturn *)
	?fileName@QWebDatabase@@QBE?AVQString@@XZ @ 171 NONAME ; class QString QWebDatabase::fileName(void) const
	?findAll@QWebElement@@QBE?AVQWebElementCollection@@ABVQString@@@Z @ 172 NONAME ; class QWebElementCollection QWebElement::findAll(class QString const &) const
	?findAllElements@QWebFrame@@QBE?AVQWebElementCollection@@ABVQString@@@Z @ 173 NONAME ; class QWebElementCollection QWebFrame::findAllElements(class QString const &) const
	?findFirst@QWebElement@@QBE?AV1@ABVQString@@@Z @ 174 NONAME ; class QWebElement QWebElement::findFirst(class QString const &) const
	?findFirstElement@QWebFrame@@QBE?AVQWebElement@@ABVQString@@@Z @ 175 NONAME ; class QWebElement QWebFrame::findFirstElement(class QString const &) const
	?findText@QGraphicsWebView@@QAE_NABVQString@@V?$QFlags@W4FindFlag@QWebPage@@@@@Z @ 176 NONAME ; bool QGraphicsWebView::findText(class QString const &, class QFlags<enum QWebPage::FindFlag>)
	?findText@QWebPage@@QAE_NABVQString@@V?$QFlags@W4FindFlag@QWebPage@@@@@Z @ 177 NONAME ; bool QWebPage::findText(class QString const &, class QFlags<enum QWebPage::FindFlag>)
	?findText@QWebView@@QAE_NABVQString@@V?$QFlags@W4FindFlag@QWebPage@@@@@Z @ 178 NONAME ; bool QWebView::findText(class QString const &, class QFlags<enum QWebPage::FindFlag>)
	?first@QWebElementCollection@@QBE?AVQWebElement@@XZ @ 179 NONAME ; class QWebElement QWebElementCollection::first(void) const
	?firstChild@QWebElement@@QBE?AV1@XZ @ 180 NONAME ; class QWebElement QWebElement::firstChild(void) const
	?focusInEvent@QGraphicsWebView@@MAEXPAVQFocusEvent@@@Z @ 181 NONAME ; void QGraphicsWebView::focusInEvent(class QFocusEvent *)
	?focusInEvent@QWebView@@MAEXPAVQFocusEvent@@@Z @ 182 NONAME ; void QWebView::focusInEvent(class QFocusEvent *)
	?focusNextPrevChild@QGraphicsWebView@@MAE_N_N@Z @ 183 NONAME ; bool QGraphicsWebView::focusNextPrevChild(bool)
	?focusNextPrevChild@QWebPage@@QAE_N_N@Z @ 184 NONAME ; bool QWebPage::focusNextPrevChild(bool)
	?focusNextPrevChild@QWebView@@MAE_N_N@Z @ 185 NONAME ; bool QWebView::focusNextPrevChild(bool)
	?focusOutEvent@QGraphicsWebView@@MAEXPAVQFocusEvent@@@Z @ 186 NONAME ; void QGraphicsWebView::focusOutEvent(class QFocusEvent *)
	?focusOutEvent@QWebView@@MAEXPAVQFocusEvent@@@Z @ 187 NONAME ; void QWebView::focusOutEvent(class QFocusEvent *)
	?fontFamily@QWebSettings@@QBE?AVQString@@W4FontFamily@1@@Z @ 188 NONAME ; class QString QWebSettings::fontFamily(enum QWebSettings::FontFamily) const
	?fontSize@QWebSettings@@QBEHW4FontSize@1@@Z @ 189 NONAME ; int QWebSettings::fontSize(enum QWebSettings::FontSize) const
	?forward@QGraphicsWebView@@QAEXXZ @ 190 NONAME ; void QGraphicsWebView::forward(void)
	?forward@QWebHistory@@QAEXXZ @ 191 NONAME ; void QWebHistory::forward(void)
	?forward@QWebView@@QAEXXZ @ 192 NONAME ; void QWebView::forward(void)
	?forwardItem@QWebHistory@@QBE?AVQWebHistoryItem@@XZ @ 193 NONAME ; class QWebHistoryItem QWebHistory::forwardItem(void) const
	?forwardItems@QWebHistory@@QBE?AV?$QList@VQWebHistoryItem@@@@H@Z @ 194 NONAME ; class QList<class QWebHistoryItem> QWebHistory::forwardItems(int) const
	?forwardUnsupportedContent@QWebPage@@QBE_NXZ @ 195 NONAME ; bool QWebPage::forwardUnsupportedContent(void) const
	?frame@QWebHitTestResult@@QBEPAVQWebFrame@@XZ @ 196 NONAME ; class QWebFrame * QWebHitTestResult::frame(void) const
	?frameAt@QWebPage@@QBEPAVQWebFrame@@ABVQPoint@@@Z @ 197 NONAME ; class QWebFrame * QWebPage::frameAt(class QPoint const &) const
	?frameCreated@QWebPage@@IAEXPAVQWebFrame@@@Z @ 198 NONAME ; void QWebPage::frameCreated(class QWebFrame *)
	?frameName@QWebFrame@@QBE?AVQString@@XZ @ 199 NONAME ; class QString QWebFrame::frameName(void) const
	?geometry@QWebElement@@QBE?AVQRect@@XZ @ 200 NONAME ; class QRect QWebElement::geometry(void) const
	?geometry@QWebFrame@@QBE?AVQRect@@XZ @ 201 NONAME ; class QRect QWebFrame::geometry(void) const
	?geometryChangeRequested@QWebPage@@IAEXABVQRect@@@Z @ 202 NONAME ; void QWebPage::geometryChangeRequested(class QRect const &)
	?getStaticMetaObject@QGraphicsWebView@@SAABUQMetaObject@@XZ @ 203 NONAME ; struct QMetaObject const & QGraphicsWebView::getStaticMetaObject(void)
	?getStaticMetaObject@QWebFrame@@SAABUQMetaObject@@XZ @ 204 NONAME ; struct QMetaObject const & QWebFrame::getStaticMetaObject(void)
	?getStaticMetaObject@QWebHistoryInterface@@SAABUQMetaObject@@XZ @ 205 NONAME ; struct QMetaObject const & QWebHistoryInterface::getStaticMetaObject(void)
	?getStaticMetaObject@QWebInspector@@SAABUQMetaObject@@XZ @ 206 NONAME ; struct QMetaObject const & QWebInspector::getStaticMetaObject(void)
	?getStaticMetaObject@QWebPage@@SAABUQMetaObject@@XZ @ 207 NONAME ; struct QMetaObject const & QWebPage::getStaticMetaObject(void)
	?getStaticMetaObject@QWebPluginDatabase@@SAABUQMetaObject@@XZ @ 208 NONAME ; struct QMetaObject const & QWebPluginDatabase::getStaticMetaObject(void)
	?getStaticMetaObject@QWebPluginFactory@@SAABUQMetaObject@@XZ @ 209 NONAME ; struct QMetaObject const & QWebPluginFactory::getStaticMetaObject(void)
	?getStaticMetaObject@QWebView@@SAABUQMetaObject@@XZ @ 210 NONAME ; struct QMetaObject const & QWebView::getStaticMetaObject(void)
	?globalSettings@QWebSettings@@SAPAV1@XZ @ 211 NONAME ; class QWebSettings * QWebSettings::globalSettings(void)
	?goToItem@QWebHistory@@QAEXABVQWebHistoryItem@@@Z @ 212 NONAME ; void QWebHistory::goToItem(class QWebHistoryItem const &)
	?handle@QWebPage@@QBEPAVQWebPagePrivate@@XZ @ 213 NONAME ; class QWebPagePrivate * QWebPage::handle(void) const
	?handle@QWebSettings@@QBEPAVQWebSettingsPrivate@@XZ @ 214 NONAME ; class QWebSettingsPrivate * QWebSettings::handle(void) const
	?hasAttribute@QWebElement@@QBE_NABVQString@@@Z @ 215 NONAME ; bool QWebElement::hasAttribute(class QString const &) const
	?hasAttributeNS@QWebElement@@QBE_NABVQString@@0@Z @ 216 NONAME ; bool QWebElement::hasAttributeNS(class QString const &, class QString const &) const
	?hasAttributes@QWebElement@@QBE_NXZ @ 217 NONAME ; bool QWebElement::hasAttributes(void) const
	?hasClass@QWebElement@@QBE_NABVQString@@@Z @ 218 NONAME ; bool QWebElement::hasClass(class QString const &) const
	?hasFocus@QWebElement@@QBE_NXZ @ 219 NONAME ; bool QWebElement::hasFocus(void) const
	?hasFocus@QWebFrame@@QBE_NXZ @ 220 NONAME ; bool QWebFrame::hasFocus(void) const
	?hideEvent@QWebInspector@@MAEXPAVQHideEvent@@@Z @ 221 NONAME ; void QWebInspector::hideEvent(class QHideEvent *)
	?history@QGraphicsWebView@@QBEPAVQWebHistory@@XZ @ 222 NONAME ; class QWebHistory * QGraphicsWebView::history(void) const
	?history@QWebPage@@QBEPAVQWebHistory@@XZ @ 223 NONAME ; class QWebHistory * QWebPage::history(void) const
	?history@QWebView@@QBEPAVQWebHistory@@XZ @ 224 NONAME ; class QWebHistory * QWebView::history(void) const
	?hitTestContent@QWebFrame@@QBE?AVQWebHitTestResult@@ABVQPoint@@@Z @ 225 NONAME ; class QWebHitTestResult QWebFrame::hitTestContent(class QPoint const &) const
	?host@QWebSecurityOrigin@@QBE?AVQString@@XZ @ 226 NONAME ; class QString QWebSecurityOrigin::host(void) const
	?hoverLeaveEvent@QGraphicsWebView@@MAEXPAVQGraphicsSceneHoverEvent@@@Z @ 227 NONAME ; void QGraphicsWebView::hoverLeaveEvent(class QGraphicsSceneHoverEvent *)
	?hoverMoveEvent@QGraphicsWebView@@MAEXPAVQGraphicsSceneHoverEvent@@@Z @ 228 NONAME ; void QGraphicsWebView::hoverMoveEvent(class QGraphicsSceneHoverEvent *)
	?icon@QGraphicsWebView@@QBE?AVQIcon@@XZ @ 229 NONAME ; class QIcon QGraphicsWebView::icon(void) const
	?icon@QWebFrame@@QBE?AVQIcon@@XZ @ 230 NONAME ; class QIcon QWebFrame::icon(void) const
	?icon@QWebHistoryItem@@QBE?AVQIcon@@XZ @ 231 NONAME ; class QIcon QWebHistoryItem::icon(void) const
	?icon@QWebView@@QBE?AVQIcon@@XZ @ 232 NONAME ; class QIcon QWebView::icon(void) const
	?iconChanged@QGraphicsWebView@@IAEXXZ @ 233 NONAME ; void QGraphicsWebView::iconChanged(void)
	?iconChanged@QWebFrame@@IAEXXZ @ 234 NONAME ; void QWebFrame::iconChanged(void)
	?iconChanged@QWebView@@IAEXXZ @ 235 NONAME ; void QWebView::iconChanged(void)
	?iconDatabasePath@QWebSettings@@SA?AVQString@@XZ @ 236 NONAME ; class QString QWebSettings::iconDatabasePath(void)
	?iconForUrl@QWebSettings@@SA?AVQIcon@@ABVQUrl@@@Z @ 237 NONAME ; class QIcon QWebSettings::iconForUrl(class QUrl const &)
	?imageUrl@QWebHitTestResult@@QBE?AVQUrl@@XZ @ 238 NONAME ; class QUrl QWebHitTestResult::imageUrl(void) const
	?initialLayoutCompleted@QWebFrame@@IAEXXZ @ 239 NONAME ; void QWebFrame::initialLayoutCompleted(void)
	?inputMethodEvent@QGraphicsWebView@@MAEXPAVQInputMethodEvent@@@Z @ 240 NONAME ; void QGraphicsWebView::inputMethodEvent(class QInputMethodEvent *)
	?inputMethodEvent@QWebView@@MAEXPAVQInputMethodEvent@@@Z @ 241 NONAME ; void QWebView::inputMethodEvent(class QInputMethodEvent *)
	?inputMethodQuery@QGraphicsWebView@@UBE?AVQVariant@@W4InputMethodQuery@Qt@@@Z @ 242 NONAME ; class QVariant QGraphicsWebView::inputMethodQuery(enum Qt::InputMethodQuery) const
	?inputMethodQuery@QWebPage@@QBE?AVQVariant@@W4InputMethodQuery@Qt@@@Z @ 243 NONAME ; class QVariant QWebPage::inputMethodQuery(enum Qt::InputMethodQuery) const
	?inputMethodQuery@QWebView@@UBE?AVQVariant@@W4InputMethodQuery@Qt@@@Z @ 244 NONAME ; class QVariant QWebView::inputMethodQuery(enum Qt::InputMethodQuery) const
	?isContentEditable@QWebHitTestResult@@QBE_NXZ @ 245 NONAME ; bool QWebHitTestResult::isContentEditable(void) const
	?isContentEditable@QWebPage@@QBE_NXZ @ 246 NONAME ; bool QWebPage::isContentEditable(void) const
	?isContentSelected@QWebHitTestResult@@QBE_NXZ @ 247 NONAME ; bool QWebHitTestResult::isContentSelected(void) const
	?isEnabled@QWebPluginInfo@@QBE_NXZ @ 248 NONAME ; bool QWebPluginInfo::isEnabled(void) const
	?isModified@QGraphicsWebView@@QBE_NXZ @ 249 NONAME ; bool QGraphicsWebView::isModified(void) const
	?isModified@QWebPage@@QBE_NXZ @ 250 NONAME ; bool QWebPage::isModified(void) const
	?isModified@QWebView@@QBE_NXZ @ 251 NONAME ; bool QWebView::isModified(void) const
	?isNull@QWebElement@@QBE_NXZ @ 252 NONAME ; bool QWebElement::isNull(void) const
	?isNull@QWebHitTestResult@@QBE_NXZ @ 253 NONAME ; bool QWebHitTestResult::isNull(void) const
	?isNull@QWebPluginInfo@@QBE_NXZ @ 254 NONAME ; bool QWebPluginInfo::isNull(void) const
	?isValid@QWebHistoryItem@@QBE_NXZ @ 255 NONAME ; bool QWebHistoryItem::isValid(void) const
	?itemAt@QWebHistory@@QBE?AVQWebHistoryItem@@H@Z @ 256 NONAME ; class QWebHistoryItem QWebHistory::itemAt(int) const
	?itemChange@QGraphicsWebView@@UAE?AVQVariant@@W4GraphicsItemChange@QGraphicsItem@@ABV2@@Z @ 257 NONAME ; class QVariant QGraphicsWebView::itemChange(enum QGraphicsItem::GraphicsItemChange, class QVariant const &)
	?items@QWebHistory@@QBE?AV?$QList@VQWebHistoryItem@@@@XZ @ 258 NONAME ; class QList<class QWebHistoryItem> QWebHistory::items(void) const
	?javaScriptAlert@QWebPage@@MAEXPAVQWebFrame@@ABVQString@@@Z @ 259 NONAME ; void QWebPage::javaScriptAlert(class QWebFrame *, class QString const &)
	?javaScriptConfirm@QWebPage@@MAE_NPAVQWebFrame@@ABVQString@@@Z @ 260 NONAME ; bool QWebPage::javaScriptConfirm(class QWebFrame *, class QString const &)
	?javaScriptConsoleMessage@QWebPage@@MAEXABVQString@@H0@Z @ 261 NONAME ; void QWebPage::javaScriptConsoleMessage(class QString const &, int, class QString const &)
	?javaScriptPrompt@QWebPage@@MAE_NPAVQWebFrame@@ABVQString@@1PAV3@@Z @ 262 NONAME ; bool QWebPage::javaScriptPrompt(class QWebFrame *, class QString const &, class QString const &, class QString *)
	?javaScriptWindowObjectCleared@QWebFrame@@IAEXXZ @ 263 NONAME ; void QWebFrame::javaScriptWindowObjectCleared(void)
	?keyPressEvent@QGraphicsWebView@@MAEXPAVQKeyEvent@@@Z @ 264 NONAME ; void QGraphicsWebView::keyPressEvent(class QKeyEvent *)
	?keyPressEvent@QWebView@@MAEXPAVQKeyEvent@@@Z @ 265 NONAME ; void QWebView::keyPressEvent(class QKeyEvent *)
	?keyReleaseEvent@QGraphicsWebView@@MAEXPAVQKeyEvent@@@Z @ 266 NONAME ; void QGraphicsWebView::keyReleaseEvent(class QKeyEvent *)
	?keyReleaseEvent@QWebView@@MAEXPAVQKeyEvent@@@Z @ 267 NONAME ; void QWebView::keyReleaseEvent(class QKeyEvent *)
	?last@QWebElementCollection@@QBE?AVQWebElement@@XZ @ 268 NONAME ; class QWebElement QWebElementCollection::last(void) const
	?lastChild@QWebElement@@QBE?AV1@XZ @ 269 NONAME ; class QWebElement QWebElement::lastChild(void) const
	?lastVisited@QWebHistoryItem@@QBE?AVQDateTime@@XZ @ 270 NONAME ; class QDateTime QWebHistoryItem::lastVisited(void) const
	?linkClicked@QGraphicsWebView@@IAEXABVQUrl@@@Z @ 271 NONAME ; void QGraphicsWebView::linkClicked(class QUrl const &)
	?linkClicked@QWebPage@@IAEXABVQUrl@@@Z @ 272 NONAME ; void QWebPage::linkClicked(class QUrl const &)
	?linkClicked@QWebView@@IAEXABVQUrl@@@Z @ 273 NONAME ; void QWebView::linkClicked(class QUrl const &)
	?linkDelegationPolicy@QWebPage@@QBE?AW4LinkDelegationPolicy@1@XZ @ 274 NONAME ; enum QWebPage::LinkDelegationPolicy QWebPage::linkDelegationPolicy(void) const
	?linkElement@QWebHitTestResult@@QBE?AVQWebElement@@XZ @ 275 NONAME ; class QWebElement QWebHitTestResult::linkElement(void) const
	?linkHovered@QWebPage@@IAEXABVQString@@00@Z @ 276 NONAME ; void QWebPage::linkHovered(class QString const &, class QString const &, class QString const &)
	?linkTargetFrame@QWebHitTestResult@@QBEPAVQWebFrame@@XZ @ 277 NONAME ; class QWebFrame * QWebHitTestResult::linkTargetFrame(void) const
	?linkText@QWebHitTestResult@@QBE?AVQString@@XZ @ 278 NONAME ; class QString QWebHitTestResult::linkText(void) const
	?linkTitle@QWebHitTestResult@@QBE?AVQUrl@@XZ @ 279 NONAME ; class QUrl QWebHitTestResult::linkTitle(void) const
	?linkUrl@QWebHitTestResult@@QBE?AVQUrl@@XZ @ 280 NONAME ; class QUrl QWebHitTestResult::linkUrl(void) const
	?load@QGraphicsWebView@@QAEXABVQNetworkRequest@@W4Operation@QNetworkAccessManager@@ABVQByteArray@@@Z @ 281 NONAME ; void QGraphicsWebView::load(class QNetworkRequest const &, enum QNetworkAccessManager::Operation, class QByteArray const &)
	?load@QGraphicsWebView@@QAEXABVQUrl@@@Z @ 282 NONAME ; void QGraphicsWebView::load(class QUrl const &)
	?load@QWebFrame@@QAEXABVQNetworkRequest@@W4Operation@QNetworkAccessManager@@ABVQByteArray@@@Z @ 283 NONAME ; void QWebFrame::load(class QNetworkRequest const &, enum QNetworkAccessManager::Operation, class QByteArray const &)
	?load@QWebFrame@@QAEXABVQUrl@@@Z @ 284 NONAME ; void QWebFrame::load(class QUrl const &)
	?load@QWebView@@QAEXABVQNetworkRequest@@W4Operation@QNetworkAccessManager@@ABVQByteArray@@@Z @ 285 NONAME ; void QWebView::load(class QNetworkRequest const &, enum QNetworkAccessManager::Operation, class QByteArray const &)
	?load@QWebView@@QAEXABVQUrl@@@Z @ 286 NONAME ; void QWebView::load(class QUrl const &)
	?loadFinished@QGraphicsWebView@@IAEX_N@Z @ 287 NONAME ; void QGraphicsWebView::loadFinished(bool)
	?loadFinished@QWebFrame@@IAEX_N@Z @ 288 NONAME ; void QWebFrame::loadFinished(bool)
	?loadFinished@QWebPage@@IAEX_N@Z @ 289 NONAME ; void QWebPage::loadFinished(bool)
	?loadFinished@QWebView@@IAEX_N@Z @ 290 NONAME ; void QWebView::loadFinished(bool)
	?loadProgress@QGraphicsWebView@@IAEXH@Z @ 291 NONAME ; void QGraphicsWebView::loadProgress(int)
	?loadProgress@QWebPage@@IAEXH@Z @ 292 NONAME ; void QWebPage::loadProgress(int)
	?loadProgress@QWebView@@IAEXH@Z @ 293 NONAME ; void QWebView::loadProgress(int)
	?loadStarted@QGraphicsWebView@@IAEXXZ @ 294 NONAME ; void QGraphicsWebView::loadStarted(void)
	?loadStarted@QWebFrame@@IAEXXZ @ 295 NONAME ; void QWebFrame::loadStarted(void)
	?loadStarted@QWebPage@@IAEXXZ @ 296 NONAME ; void QWebPage::loadStarted(void)
	?loadStarted@QWebView@@IAEXXZ @ 297 NONAME ; void QWebView::loadStarted(void)
	?localName@QWebElement@@QBE?AVQString@@XZ @ 298 NONAME ; class QString QWebElement::localName(void) const
	?localSchemes@QWebSecurityOrigin@@SA?AVQStringList@@XZ @ 299 NONAME ; class QStringList QWebSecurityOrigin::localSchemes(void)
	?localStoragePath@QWebSettings@@QBE?AVQString@@XZ @ 300 NONAME ; class QString QWebSettings::localStoragePath(void) const
	?mainFrame@QWebPage@@QBEPAVQWebFrame@@XZ @ 301 NONAME ; class QWebFrame * QWebPage::mainFrame(void) const
	?maximumItemCount@QWebHistory@@QBEHXZ @ 302 NONAME ; int QWebHistory::maximumItemCount(void) const
	?maximumPagesInCache@QWebSettings@@SAHXZ @ 303 NONAME ; int QWebSettings::maximumPagesInCache(void)
	?menuBarVisibilityChangeRequested@QWebPage@@IAEX_N@Z @ 304 NONAME ; void QWebPage::menuBarVisibilityChangeRequested(bool)
	?metaData@QWebFrame@@QBE?AV?$QMultiMap@VQString@@V1@@@XZ @ 305 NONAME ; class QMultiMap<class QString, class QString> QWebFrame::metaData(void) const
	?metaObject@QGraphicsWebView@@UBEPBUQMetaObject@@XZ @ 306 NONAME ; struct QMetaObject const * QGraphicsWebView::metaObject(void) const
	?metaObject@QWebFrame@@UBEPBUQMetaObject@@XZ @ 307 NONAME ; struct QMetaObject const * QWebFrame::metaObject(void) const
	?metaObject@QWebHistoryInterface@@UBEPBUQMetaObject@@XZ @ 308 NONAME ; struct QMetaObject const * QWebHistoryInterface::metaObject(void) const
	?metaObject@QWebInspector@@UBEPBUQMetaObject@@XZ @ 309 NONAME ; struct QMetaObject const * QWebInspector::metaObject(void) const
	?metaObject@QWebPage@@UBEPBUQMetaObject@@XZ @ 310 NONAME ; struct QMetaObject const * QWebPage::metaObject(void) const
	?metaObject@QWebPluginDatabase@@UBEPBUQMetaObject@@XZ @ 311 NONAME ; struct QMetaObject const * QWebPluginDatabase::metaObject(void) const
	?metaObject@QWebPluginFactory@@UBEPBUQMetaObject@@XZ @ 312 NONAME ; struct QMetaObject const * QWebPluginFactory::metaObject(void) const
	?metaObject@QWebView@@UBEPBUQMetaObject@@XZ @ 313 NONAME ; struct QMetaObject const * QWebView::metaObject(void) const
	?microFocusChanged@QWebPage@@IAEXXZ @ 314 NONAME ; void QWebPage::microFocusChanged(void)
	?mimeTypes@QWebPluginInfo@@QBE?AV?$QList@UMimeType@QWebPluginFactory@@@@XZ @ 315 NONAME ; class QList<struct QWebPluginFactory::MimeType> QWebPluginInfo::mimeTypes(void) const
	?mouseDoubleClickEvent@QGraphicsWebView@@MAEXPAVQGraphicsSceneMouseEvent@@@Z @ 316 NONAME ; void QGraphicsWebView::mouseDoubleClickEvent(class QGraphicsSceneMouseEvent *)
	?mouseDoubleClickEvent@QWebView@@MAEXPAVQMouseEvent@@@Z @ 317 NONAME ; void QWebView::mouseDoubleClickEvent(class QMouseEvent *)
	?mouseMoveEvent@QGraphicsWebView@@MAEXPAVQGraphicsSceneMouseEvent@@@Z @ 318 NONAME ; void QGraphicsWebView::mouseMoveEvent(class QGraphicsSceneMouseEvent *)
	?mouseMoveEvent@QWebView@@MAEXPAVQMouseEvent@@@Z @ 319 NONAME ; void QWebView::mouseMoveEvent(class QMouseEvent *)
	?mousePressEvent@QGraphicsWebView@@MAEXPAVQGraphicsSceneMouseEvent@@@Z @ 320 NONAME ; void QGraphicsWebView::mousePressEvent(class QGraphicsSceneMouseEvent *)
	?mousePressEvent@QWebView@@MAEXPAVQMouseEvent@@@Z @ 321 NONAME ; void QWebView::mousePressEvent(class QMouseEvent *)
	?mouseReleaseEvent@QGraphicsWebView@@MAEXPAVQGraphicsSceneMouseEvent@@@Z @ 322 NONAME ; void QGraphicsWebView::mouseReleaseEvent(class QGraphicsSceneMouseEvent *)
	?mouseReleaseEvent@QWebView@@MAEXPAVQMouseEvent@@@Z @ 323 NONAME ; void QWebView::mouseReleaseEvent(class QMouseEvent *)
	?name@QWebDatabase@@QBE?AVQString@@XZ @ 324 NONAME ; class QString QWebDatabase::name(void) const
	?name@QWebPluginInfo@@QBE?AVQString@@XZ @ 325 NONAME ; class QString QWebPluginInfo::name(void) const
	?namespaceUri@QWebElement@@QBE?AVQString@@XZ @ 326 NONAME ; class QString QWebElement::namespaceUri(void) const
	?networkAccessManager@QWebPage@@QBEPAVQNetworkAccessManager@@XZ @ 327 NONAME ; class QNetworkAccessManager * QWebPage::networkAccessManager(void) const
	?nextSibling@QWebElement@@QBE?AV1@XZ @ 328 NONAME ; class QWebElement QWebElement::nextSibling(void) const
	?offlineStorageDefaultQuota@QWebSettings@@SA_JXZ @ 329 NONAME ; long long QWebSettings::offlineStorageDefaultQuota(void)
	?offlineStoragePath@QWebSettings@@SA?AVQString@@XZ @ 330 NONAME ; class QString QWebSettings::offlineStoragePath(void)
	?offlineWebApplicationCachePath@QWebSettings@@SA?AVQString@@XZ @ 331 NONAME ; class QString QWebSettings::offlineWebApplicationCachePath(void)
	?offlineWebApplicationCacheQuota@QWebSettings@@SA_JXZ @ 332 NONAME ; long long QWebSettings::offlineWebApplicationCacheQuota(void)
	?origin@QWebDatabase@@QBE?AVQWebSecurityOrigin@@XZ @ 333 NONAME ; class QWebSecurityOrigin QWebDatabase::origin(void) const
	?originalUrl@QWebHistoryItem@@QBE?AVQUrl@@XZ @ 334 NONAME ; class QUrl QWebHistoryItem::originalUrl(void) const
	?page@QGraphicsWebView@@QBEPAVQWebPage@@XZ @ 335 NONAME ; class QWebPage * QGraphicsWebView::page(void) const
	?page@QWebFrame@@QBEPAVQWebPage@@XZ @ 336 NONAME ; class QWebPage * QWebFrame::page(void) const
	?page@QWebInspector@@QBEPAVQWebPage@@XZ @ 337 NONAME ; class QWebPage * QWebInspector::page(void) const
	?page@QWebView@@QBEPAVQWebPage@@XZ @ 338 NONAME ; class QWebPage * QWebView::page(void) const
	?pageAction@QGraphicsWebView@@QBEPAVQAction@@W4WebAction@QWebPage@@@Z @ 339 NONAME ; class QAction * QGraphicsWebView::pageAction(enum QWebPage::WebAction) const
	?pageAction@QWebView@@QBEPAVQAction@@W4WebAction@QWebPage@@@Z @ 340 NONAME ; class QAction * QWebView::pageAction(enum QWebPage::WebAction) const
	?paint@QGraphicsWebView@@UAEXPAVQPainter@@PBVQStyleOptionGraphicsItem@@PAVQWidget@@@Z @ 341 NONAME ; void QGraphicsWebView::paint(class QPainter *, class QStyleOptionGraphicsItem const *, class QWidget *)
	?paintEvent@QWebView@@MAEXPAVQPaintEvent@@@Z @ 342 NONAME ; void QWebView::paintEvent(class QPaintEvent *)
	?palette@QWebPage@@QBE?AVQPalette@@XZ @ 343 NONAME ; class QPalette QWebPage::palette(void) const
	?parent@QWebElement@@QBE?AV1@XZ @ 344 NONAME ; class QWebElement QWebElement::parent(void) const
	?parentFrame@QWebFrame@@QBEPAV1@XZ @ 345 NONAME ; class QWebFrame * QWebFrame::parentFrame(void) const
	?path@QWebPluginInfo@@QBE?AVQString@@XZ @ 346 NONAME ; class QString QWebPluginInfo::path(void) const
	?pixmap@QWebHitTestResult@@QBE?AVQPixmap@@XZ @ 347 NONAME ; class QPixmap QWebHitTestResult::pixmap(void) const
	?pluginFactory@QWebPage@@QBEPAVQWebPluginFactory@@XZ @ 348 NONAME ; class QWebPluginFactory * QWebPage::pluginFactory(void) const
	?pluginForMimeType@QWebPluginDatabase@@QAE?AVQWebPluginInfo@@ABVQString@@@Z @ 349 NONAME ; class QWebPluginInfo QWebPluginDatabase::pluginForMimeType(class QString const &)
	?plugins@QWebPluginDatabase@@QBE?AV?$QList@VQWebPluginInfo@@@@XZ @ 350 NONAME ; class QList<class QWebPluginInfo> QWebPluginDatabase::plugins(void) const
	?port@QWebSecurityOrigin@@QBEHXZ @ 351 NONAME ; int QWebSecurityOrigin::port(void) const
	?pos@QWebFrame@@QBE?AVQPoint@@XZ @ 352 NONAME ; class QPoint QWebFrame::pos(void) const
	?pos@QWebHitTestResult@@QBE?AVQPoint@@XZ @ 353 NONAME ; class QPoint QWebHitTestResult::pos(void) const
	?preferredContentsSize@QWebPage@@QBE?AVQSize@@XZ @ 354 NONAME ; class QSize QWebPage::preferredContentsSize(void) const
	?prefix@QWebElement@@QBE?AVQString@@XZ @ 355 NONAME ; class QString QWebElement::prefix(void) const
	?prependInside@QWebElement@@QAEXABV1@@Z @ 356 NONAME ; void QWebElement::prependInside(class QWebElement const &)
	?prependInside@QWebElement@@QAEXABVQString@@@Z @ 357 NONAME ; void QWebElement::prependInside(class QString const &)
	?prependOutside@QWebElement@@QAEXABV1@@Z @ 358 NONAME ; void QWebElement::prependOutside(class QWebElement const &)
	?prependOutside@QWebElement@@QAEXABVQString@@@Z @ 359 NONAME ; void QWebElement::prependOutside(class QString const &)
	?previousSibling@QWebElement@@QBE?AV1@XZ @ 360 NONAME ; class QWebElement QWebElement::previousSibling(void) const
	?print@QWebView@@QBEXPAVQPrinter@@@Z @ 361 NONAME ; void QWebView::print(class QPrinter *) const
	?printRequested@QWebPage@@IAEXPAVQWebFrame@@@Z @ 362 NONAME ; void QWebPage::printRequested(class QWebFrame *)
	?printingMaximumShrinkFactor@QWebSettings@@QBEMXZ @ 363 NONAME ABSENT ; float QWebSettings::printingMaximumShrinkFactor(void) const
	?printingMinimumShrinkFactor@QWebSettings@@QBEMXZ @ 364 NONAME ABSENT ; float QWebSettings::printingMinimumShrinkFactor(void) const
	?provisionalLoad@QWebFrame@@IAEXXZ @ 365 NONAME ; void QWebFrame::provisionalLoad(void)
	?qWebKitMajorVersion@@YAHXZ @ 366 NONAME ; int qWebKitMajorVersion(void)
	?qWebKitMinorVersion@@YAHXZ @ 367 NONAME ; int qWebKitMinorVersion(void)
	?qWebKitVersion@@YA?AVQString@@XZ @ 368 NONAME ; class QString qWebKitVersion(void)
	?qt_drt_clearFrameName@@YAXPAVQWebFrame@@@Z @ 369 NONAME ; void qt_drt_clearFrameName(class QWebFrame *)
	?qt_drt_counterValueForElementById@@YA?AVQString@@PAVQWebFrame@@ABV1@@Z @ 370 NONAME ; class QString qt_drt_counterValueForElementById(class QWebFrame *, class QString const &)
	?qt_drt_garbageCollector_collect@@YAXXZ @ 371 NONAME ; void qt_drt_garbageCollector_collect(void)
	?qt_drt_garbageCollector_collectOnAlternateThread@@YAX_N@Z @ 372 NONAME ; void qt_drt_garbageCollector_collectOnAlternateThread(bool)
	?qt_drt_javaScriptObjectsCount@@YAHXZ @ 373 NONAME ; int qt_drt_javaScriptObjectsCount(void)
	?qt_drt_numberOfActiveAnimations@@YAHPAVQWebFrame@@@Z @ 374 NONAME ; int qt_drt_numberOfActiveAnimations(class QWebFrame *)
	?qt_drt_overwritePluginDirectories@@YAXXZ @ 375 NONAME ; void qt_drt_overwritePluginDirectories(void)
	?qt_drt_pauseAnimation@@YA_NPAVQWebFrame@@ABVQString@@N1@Z @ 376 NONAME ; bool qt_drt_pauseAnimation(class QWebFrame *, class QString const &, double, class QString const &)
	?qt_drt_pauseTransitionOfProperty@@YA_NPAVQWebFrame@@ABVQString@@N1@Z @ 377 NONAME ; bool qt_drt_pauseTransitionOfProperty(class QWebFrame *, class QString const &, double, class QString const &)
	?qt_drt_resetOriginAccessWhiteLists@@YAXXZ @ 378 NONAME ; void qt_drt_resetOriginAccessWhiteLists(void)
	?qt_drt_run@@YAX_N@Z @ 379 NONAME ; void qt_drt_run(bool)
	?qt_drt_setJavaScriptProfilingEnabled@@YAXPAVQWebFrame@@_N@Z @ 380 NONAME ; void qt_drt_setJavaScriptProfilingEnabled(class QWebFrame *, bool)
	?qt_drt_whiteListAccessFromOrigin@@YAXABVQString@@00_N@Z @ 381 NONAME ; void qt_drt_whiteListAccessFromOrigin(class QString const &, class QString const &, class QString const &, bool)
	?qt_dump_editing_callbacks@@YAX_N@Z @ 382 NONAME ; void qt_dump_editing_callbacks(bool)
	?qt_dump_frame_loader@@YAX_N@Z @ 383 NONAME ; void qt_dump_frame_loader(bool)
	?qt_dump_resource_load_callbacks@@YAX_N@Z @ 384 NONAME ; void qt_dump_resource_load_callbacks(bool)
	?qt_dump_set_accepts_editing@@YAX_N@Z @ 385 NONAME ; void qt_dump_set_accepts_editing(bool)
	?qt_metacall@QGraphicsWebView@@UAEHW4Call@QMetaObject@@HPAPAX@Z @ 386 NONAME ; int QGraphicsWebView::qt_metacall(enum QMetaObject::Call, int, void * *)
	?qt_metacall@QWebFrame@@UAEHW4Call@QMetaObject@@HPAPAX@Z @ 387 NONAME ; int QWebFrame::qt_metacall(enum QMetaObject::Call, int, void * *)
	?qt_metacall@QWebHistoryInterface@@UAEHW4Call@QMetaObject@@HPAPAX@Z @ 388 NONAME ; int QWebHistoryInterface::qt_metacall(enum QMetaObject::Call, int, void * *)
	?qt_metacall@QWebInspector@@UAEHW4Call@QMetaObject@@HPAPAX@Z @ 389 NONAME ; int QWebInspector::qt_metacall(enum QMetaObject::Call, int, void * *)
	?qt_metacall@QWebPage@@UAEHW4Call@QMetaObject@@HPAPAX@Z @ 390 NONAME ; int QWebPage::qt_metacall(enum QMetaObject::Call, int, void * *)
	?qt_metacall@QWebPluginDatabase@@UAEHW4Call@QMetaObject@@HPAPAX@Z @ 391 NONAME ; int QWebPluginDatabase::qt_metacall(enum QMetaObject::Call, int, void * *)
	?qt_metacall@QWebPluginFactory@@UAEHW4Call@QMetaObject@@HPAPAX@Z @ 392 NONAME ; int QWebPluginFactory::qt_metacall(enum QMetaObject::Call, int, void * *)
	?qt_metacall@QWebView@@UAEHW4Call@QMetaObject@@HPAPAX@Z @ 393 NONAME ; int QWebView::qt_metacall(enum QMetaObject::Call, int, void * *)
	?qt_metacast@QGraphicsWebView@@UAEPAXPBD@Z @ 394 NONAME ; void * QGraphicsWebView::qt_metacast(char const *)
	?qt_metacast@QWebFrame@@UAEPAXPBD@Z @ 395 NONAME ; void * QWebFrame::qt_metacast(char const *)
	?qt_metacast@QWebHistoryInterface@@UAEPAXPBD@Z @ 396 NONAME ; void * QWebHistoryInterface::qt_metacast(char const *)
	?qt_metacast@QWebInspector@@UAEPAXPBD@Z @ 397 NONAME ; void * QWebInspector::qt_metacast(char const *)
	?qt_metacast@QWebPage@@UAEPAXPBD@Z @ 398 NONAME ; void * QWebPage::qt_metacast(char const *)
	?qt_metacast@QWebPluginDatabase@@UAEPAXPBD@Z @ 399 NONAME ; void * QWebPluginDatabase::qt_metacast(char const *)
	?qt_metacast@QWebPluginFactory@@UAEPAXPBD@Z @ 400 NONAME ; void * QWebPluginFactory::qt_metacast(char const *)
	?qt_metacast@QWebView@@UAEPAXPBD@Z @ 401 NONAME ; void * QWebView::qt_metacast(char const *)
	?qt_webpage_groupName@@YA?AVQString@@PAVQWebPage@@@Z @ 402 NONAME ; class QString qt_webpage_groupName(class QWebPage *)
	?qt_webpage_setGroupName@@YAXPAVQWebPage@@ABVQString@@@Z @ 403 NONAME ; void qt_webpage_setGroupName(class QWebPage *, class QString const &)
	?refresh@QWebPluginDatabase@@QAEXXZ @ 404 NONAME ; void QWebPluginDatabase::refresh(void)
	?refreshPlugins@QWebPluginFactory@@UAEXXZ @ 405 NONAME ; void QWebPluginFactory::refreshPlugins(void)
	?reload@QGraphicsWebView@@QAEXXZ @ 406 NONAME ; void QGraphicsWebView::reload(void)
	?reload@QWebView@@QAEXXZ @ 407 NONAME ; void QWebView::reload(void)
	?removeAllChildren@QWebElement@@QAEXXZ @ 408 NONAME ; void QWebElement::removeAllChildren(void)
	?removeAllDatabases@QWebDatabase@@SAXXZ @ 409 NONAME ; void QWebDatabase::removeAllDatabases(void)
	?removeAttribute@QWebElement@@QAEXABVQString@@@Z @ 410 NONAME ; void QWebElement::removeAttribute(class QString const &)
	?removeAttributeNS@QWebElement@@QAEXABVQString@@0@Z @ 411 NONAME ; void QWebElement::removeAttributeNS(class QString const &, class QString const &)
	?removeClass@QWebElement@@QAEXABVQString@@@Z @ 412 NONAME ; void QWebElement::removeClass(class QString const &)
	?removeDatabase@QWebDatabase@@SAXABV1@@Z @ 413 NONAME ; void QWebDatabase::removeDatabase(class QWebDatabase const &)
	?removeFromDocument@QWebElement@@QAEXXZ @ 414 NONAME ; void QWebElement::removeFromDocument(void)
	?removeLocalScheme@QWebSecurityOrigin@@SAXABVQString@@@Z @ 415 NONAME ; void QWebSecurityOrigin::removeLocalScheme(class QString const &)
	?render@QWebElement@@QAEXPAVQPainter@@@Z @ 416 NONAME ; void QWebElement::render(class QPainter *)
	?render@QWebFrame@@QAEXPAVQPainter@@@Z @ 417 NONAME ; void QWebFrame::render(class QPainter *)
	?render@QWebFrame@@QAEXPAVQPainter@@ABVQRegion@@@Z @ 418 NONAME ; void QWebFrame::render(class QPainter *, class QRegion const &)
	?render@QWebFrame@@QAEXPAVQPainter@@W4RenderLayer@1@ABVQRegion@@@Z @ 419 NONAME ; void QWebFrame::render(class QPainter *, enum QWebFrame::RenderLayer, class QRegion const &)
	?renderHints@QWebView@@QBE?AV?$QFlags@W4RenderHint@QPainter@@@@XZ @ 420 NONAME ; class QFlags<enum QPainter::RenderHint> QWebView::renderHints(void) const
	?renderTreeDump@QWebFrame@@QBE?AVQString@@XZ @ 421 NONAME ; class QString QWebFrame::renderTreeDump(void) const
	?repaintRequested@QWebPage@@IAEXABVQRect@@@Z @ 422 NONAME ; void QWebPage::repaintRequested(class QRect const &)
	?replace@QWebElement@@QAEXABV1@@Z @ 423 NONAME ; void QWebElement::replace(class QWebElement const &)
	?replace@QWebElement@@QAEXABVQString@@@Z @ 424 NONAME ; void QWebElement::replace(class QString const &)
	?requestedUrl@QWebFrame@@QBE?AVQUrl@@XZ @ 425 NONAME ; class QUrl QWebFrame::requestedUrl(void) const
	?resetAttribute@QWebSettings@@QAEXW4WebAttribute@1@@Z @ 426 NONAME ; void QWebSettings::resetAttribute(enum QWebSettings::WebAttribute)
	?resetFontFamily@QWebSettings@@QAEXW4FontFamily@1@@Z @ 427 NONAME ; void QWebSettings::resetFontFamily(enum QWebSettings::FontFamily)
	?resetFontSize@QWebSettings@@QAEXW4FontSize@1@@Z @ 428 NONAME ; void QWebSettings::resetFontSize(enum QWebSettings::FontSize)
	?resizeEvent@QWebInspector@@MAEXPAVQResizeEvent@@@Z @ 429 NONAME ; void QWebInspector::resizeEvent(class QResizeEvent *)
	?resizeEvent@QWebView@@MAEXPAVQResizeEvent@@@Z @ 430 NONAME ; void QWebView::resizeEvent(class QResizeEvent *)
	?restoreFrameStateRequested@QWebPage@@IAEXPAVQWebFrame@@@Z @ 431 NONAME ; void QWebPage::restoreFrameStateRequested(class QWebFrame *)
	?saveFrameStateRequested@QWebPage@@IAEXPAVQWebFrame@@PAVQWebHistoryItem@@@Z @ 432 NONAME ; void QWebPage::saveFrameStateRequested(class QWebFrame *, class QWebHistoryItem *)
	?sceneEvent@QGraphicsWebView@@MAE_NPAVQEvent@@@Z @ 433 NONAME ; bool QGraphicsWebView::sceneEvent(class QEvent *)
	?scheme@QWebSecurityOrigin@@QBE?AVQString@@XZ @ 434 NONAME ; class QString QWebSecurityOrigin::scheme(void) const
	?scroll@QWebFrame@@QAEXHH@Z @ 435 NONAME ; void QWebFrame::scroll(int, int)
	?scrollBarGeometry@QWebFrame@@QBE?AVQRect@@W4Orientation@Qt@@@Z @ 436 NONAME ; class QRect QWebFrame::scrollBarGeometry(enum Qt::Orientation) const
	?scrollBarMaximum@QWebFrame@@QBEHW4Orientation@Qt@@@Z @ 437 NONAME ; int QWebFrame::scrollBarMaximum(enum Qt::Orientation) const
	?scrollBarMinimum@QWebFrame@@QBEHW4Orientation@Qt@@@Z @ 438 NONAME ; int QWebFrame::scrollBarMinimum(enum Qt::Orientation) const
	?scrollBarPolicy@QWebFrame@@QBE?AW4ScrollBarPolicy@Qt@@W4Orientation@3@@Z @ 439 NONAME ; enum Qt::ScrollBarPolicy QWebFrame::scrollBarPolicy(enum Qt::Orientation) const
	?scrollBarValue@QWebFrame@@QBEHW4Orientation@Qt@@@Z @ 440 NONAME ; int QWebFrame::scrollBarValue(enum Qt::Orientation) const
	?scrollPosition@QWebFrame@@QBE?AVQPoint@@XZ @ 441 NONAME ; class QPoint QWebFrame::scrollPosition(void) const
	?scrollRequested@QWebPage@@IAEXHHABVQRect@@@Z @ 442 NONAME ; void QWebPage::scrollRequested(int, int, class QRect const &)
	?searchPaths@QWebPluginDatabase@@QBE?AVQStringList@@XZ @ 443 NONAME ; class QStringList QWebPluginDatabase::searchPaths(void) const
	?securityOrigin@QWebFrame@@QBE?AVQWebSecurityOrigin@@XZ @ 444 NONAME ; class QWebSecurityOrigin QWebFrame::securityOrigin(void) const
	?selectedText@QWebPage@@QBE?AVQString@@XZ @ 445 NONAME ; class QString QWebPage::selectedText(void) const
	?selectedText@QWebView@@QBE?AVQString@@XZ @ 446 NONAME ; class QString QWebView::selectedText(void) const
	?selectionChanged@QWebPage@@IAEXXZ @ 447 NONAME ; void QWebPage::selectionChanged(void)
	?selectionChanged@QWebView@@IAEXXZ @ 448 NONAME ; void QWebView::selectionChanged(void)
	?setAttribute@QWebElement@@QAEXABVQString@@0@Z @ 449 NONAME ; void QWebElement::setAttribute(class QString const &, class QString const &)
	?setAttribute@QWebSettings@@QAEXW4WebAttribute@1@_N@Z @ 450 NONAME ; void QWebSettings::setAttribute(enum QWebSettings::WebAttribute, bool)
	?setAttributeNS@QWebElement@@QAEXABVQString@@00@Z @ 451 NONAME ; void QWebElement::setAttributeNS(class QString const &, class QString const &, class QString const &)
	?setContent@QGraphicsWebView@@QAEXABVQByteArray@@ABVQString@@ABVQUrl@@@Z @ 452 NONAME ; void QGraphicsWebView::setContent(class QByteArray const &, class QString const &, class QUrl const &)
	?setContent@QWebFrame@@QAEXABVQByteArray@@ABVQString@@ABVQUrl@@@Z @ 453 NONAME ; void QWebFrame::setContent(class QByteArray const &, class QString const &, class QUrl const &)
	?setContent@QWebView@@QAEXABVQByteArray@@ABVQString@@ABVQUrl@@@Z @ 454 NONAME ; void QWebView::setContent(class QByteArray const &, class QString const &, class QUrl const &)
	?setContentEditable@QWebPage@@QAEX_N@Z @ 455 NONAME ; void QWebPage::setContentEditable(bool)
	?setDatabaseQuota@QWebSecurityOrigin@@QAEX_J@Z @ 456 NONAME ; void QWebSecurityOrigin::setDatabaseQuota(long long)
	?setDefaultInterface@QWebHistoryInterface@@SAXPAV1@@Z @ 457 NONAME ; void QWebHistoryInterface::setDefaultInterface(class QWebHistoryInterface *)
	?setDefaultTextEncoding@QWebSettings@@QAEXABVQString@@@Z @ 458 NONAME ; void QWebSettings::setDefaultTextEncoding(class QString const &)
	?setEnabled@QWebPluginInfo@@QAEX_N@Z @ 459 NONAME ; void QWebPluginInfo::setEnabled(bool)
	?setFocus@QWebElement@@QAEXXZ @ 460 NONAME ; void QWebElement::setFocus(void)
	?setFocus@QWebFrame@@QAEXXZ @ 461 NONAME ; void QWebFrame::setFocus(void)
	?setFontFamily@QWebSettings@@QAEXW4FontFamily@1@ABVQString@@@Z @ 462 NONAME ; void QWebSettings::setFontFamily(enum QWebSettings::FontFamily, class QString const &)
	?setFontSize@QWebSettings@@QAEXW4FontSize@1@H@Z @ 463 NONAME ; void QWebSettings::setFontSize(enum QWebSettings::FontSize, int)
	?setForwardUnsupportedContent@QWebPage@@QAEX_N@Z @ 464 NONAME ; void QWebPage::setForwardUnsupportedContent(bool)
	?setGeometry@QGraphicsWebView@@UAEXABVQRectF@@@Z @ 465 NONAME ; void QGraphicsWebView::setGeometry(class QRectF const &)
	?setHtml@QGraphicsWebView@@QAEXABVQString@@ABVQUrl@@@Z @ 466 NONAME ; void QGraphicsWebView::setHtml(class QString const &, class QUrl const &)
	?setHtml@QWebFrame@@QAEXABVQString@@ABVQUrl@@@Z @ 467 NONAME ; void QWebFrame::setHtml(class QString const &, class QUrl const &)
	?setHtml@QWebView@@QAEXABVQString@@ABVQUrl@@@Z @ 468 NONAME ; void QWebView::setHtml(class QString const &, class QUrl const &)
	?setIconDatabasePath@QWebSettings@@SAXABVQString@@@Z @ 469 NONAME ; void QWebSettings::setIconDatabasePath(class QString const &)
	?setInnerXml@QWebElement@@QAEXABVQString@@@Z @ 470 NONAME ; void QWebElement::setInnerXml(class QString const &)
	?setLinkDelegationPolicy@QWebPage@@QAEXW4LinkDelegationPolicy@1@@Z @ 471 NONAME ; void QWebPage::setLinkDelegationPolicy(enum QWebPage::LinkDelegationPolicy)
	?setLocalStoragePath@QWebSettings@@QAEXABVQString@@@Z @ 472 NONAME ; void QWebSettings::setLocalStoragePath(class QString const &)
	?setMaximumItemCount@QWebHistory@@QAEXH@Z @ 473 NONAME ; void QWebHistory::setMaximumItemCount(int)
	?setMaximumPagesInCache@QWebSettings@@SAXH@Z @ 474 NONAME ; void QWebSettings::setMaximumPagesInCache(int)
	?setNetworkAccessManager@QWebPage@@QAEXPAVQNetworkAccessManager@@@Z @ 475 NONAME ; void QWebPage::setNetworkAccessManager(class QNetworkAccessManager *)
	?setObjectCacheCapacities@QWebSettings@@SAXHHH@Z @ 476 NONAME ; void QWebSettings::setObjectCacheCapacities(int, int, int)
	?setOfflineStorageDefaultQuota@QWebSettings@@SAX_J@Z @ 477 NONAME ; void QWebSettings::setOfflineStorageDefaultQuota(long long)
	?setOfflineStoragePath@QWebSettings@@SAXABVQString@@@Z @ 478 NONAME ; void QWebSettings::setOfflineStoragePath(class QString const &)
	?setOfflineWebApplicationCachePath@QWebSettings@@SAXABVQString@@@Z @ 479 NONAME ; void QWebSettings::setOfflineWebApplicationCachePath(class QString const &)
	?setOfflineWebApplicationCacheQuota@QWebSettings@@SAX_J@Z @ 480 NONAME ; void QWebSettings::setOfflineWebApplicationCacheQuota(long long)
	?setOuterXml@QWebElement@@QAEXABVQString@@@Z @ 481 NONAME ; void QWebElement::setOuterXml(class QString const &)
	?setPage@QGraphicsWebView@@QAEXPAVQWebPage@@@Z @ 482 NONAME ; void QGraphicsWebView::setPage(class QWebPage *)
	?setPage@QWebInspector@@QAEXPAVQWebPage@@@Z @ 483 NONAME ; void QWebInspector::setPage(class QWebPage *)
	?setPage@QWebView@@QAEXPAVQWebPage@@@Z @ 484 NONAME ; void QWebView::setPage(class QWebPage *)
	?setPalette@QWebPage@@QAEXABVQPalette@@@Z @ 485 NONAME ; void QWebPage::setPalette(class QPalette const &)
	?setPlainText@QWebElement@@QAEXABVQString@@@Z @ 486 NONAME ; void QWebElement::setPlainText(class QString const &)
	?setPluginFactory@QWebPage@@QAEXPAVQWebPluginFactory@@@Z @ 487 NONAME ; void QWebPage::setPluginFactory(class QWebPluginFactory *)
	?setPreferredContentsSize@QWebPage@@QBEXABVQSize@@@Z @ 488 NONAME ; void QWebPage::setPreferredContentsSize(class QSize const &) const
	?setPreferredPluginForMimeType@QWebPluginDatabase@@QAEXABVQString@@ABVQWebPluginInfo@@@Z @ 489 NONAME ; void QWebPluginDatabase::setPreferredPluginForMimeType(class QString const &, class QWebPluginInfo const &)
	?setPrintingMaximumShrinkFactor@QWebSettings@@QAEXM@Z @ 490 NONAME ABSENT ; void QWebSettings::setPrintingMaximumShrinkFactor(float)
	?setPrintingMinimumShrinkFactor@QWebSettings@@QAEXM@Z @ 491 NONAME ABSENT ; void QWebSettings::setPrintingMinimumShrinkFactor(float)
	?setRenderHint@QWebView@@QAEXW4RenderHint@QPainter@@_N@Z @ 492 NONAME ; void QWebView::setRenderHint(enum QPainter::RenderHint, bool)
	?setRenderHints@QWebView@@QAEXV?$QFlags@W4RenderHint@QPainter@@@@@Z @ 493 NONAME ; void QWebView::setRenderHints(class QFlags<enum QPainter::RenderHint>)
	?setScrollBarPolicy@QWebFrame@@QAEXW4Orientation@Qt@@W4ScrollBarPolicy@3@@Z @ 494 NONAME ; void QWebFrame::setScrollBarPolicy(enum Qt::Orientation, enum Qt::ScrollBarPolicy)
	?setScrollBarValue@QWebFrame@@QAEXW4Orientation@Qt@@H@Z @ 495 NONAME ; void QWebFrame::setScrollBarValue(enum Qt::Orientation, int)
	?setScrollPosition@QWebFrame@@QAEXABVQPoint@@@Z @ 496 NONAME ; void QWebFrame::setScrollPosition(class QPoint const &)
	?setSearchPaths@QWebPluginDatabase@@QAEXABVQStringList@@@Z @ 497 NONAME ; void QWebPluginDatabase::setSearchPaths(class QStringList const &)
	?setStyleProperty@QWebElement@@QAEXABVQString@@0@Z @ 498 NONAME ; void QWebElement::setStyleProperty(class QString const &, class QString const &)
	?setTextSizeMultiplier@QWebFrame@@QAEXM@Z @ 499 NONAME ; void QWebFrame::setTextSizeMultiplier(float)
	?setTextSizeMultiplier@QWebView@@QAEXM@Z @ 500 NONAME ; void QWebView::setTextSizeMultiplier(float)
	?setUrl@QGraphicsWebView@@QAEXABVQUrl@@@Z @ 501 NONAME ; void QGraphicsWebView::setUrl(class QUrl const &)
	?setUrl@QWebFrame@@QAEXABVQUrl@@@Z @ 502 NONAME ; void QWebFrame::setUrl(class QUrl const &)
	?setUrl@QWebView@@QAEXABVQUrl@@@Z @ 503 NONAME ; void QWebView::setUrl(class QUrl const &)
	?setUserData@QWebHistoryItem@@QAEXABVQVariant@@@Z @ 504 NONAME ; void QWebHistoryItem::setUserData(class QVariant const &)
	?setUserStyleSheetUrl@QWebSettings@@QAEXABVQUrl@@@Z @ 505 NONAME ; void QWebSettings::setUserStyleSheetUrl(class QUrl const &)
	?setView@QWebPage@@QAEXPAVQWidget@@@Z @ 506 NONAME ; void QWebPage::setView(class QWidget *)
	?setViewportSize@QWebPage@@QBEXABVQSize@@@Z @ 507 NONAME ; void QWebPage::setViewportSize(class QSize const &) const
	?setWebGraphic@QWebSettings@@SAXW4WebGraphic@1@ABVQPixmap@@@Z @ 508 NONAME ; void QWebSettings::setWebGraphic(enum QWebSettings::WebGraphic, class QPixmap const &)
	?setZoomFactor@QGraphicsWebView@@QAEXM@Z @ 509 NONAME ; void QGraphicsWebView::setZoomFactor(float)
	?setZoomFactor@QWebFrame@@QAEXM@Z @ 510 NONAME ; void QWebFrame::setZoomFactor(float)
	?setZoomFactor@QWebView@@QAEXM@Z @ 511 NONAME ; void QWebView::setZoomFactor(float)
	?settings@QGraphicsWebView@@QBEPAVQWebSettings@@XZ @ 512 NONAME ; class QWebSettings * QGraphicsWebView::settings(void) const
	?settings@QWebPage@@QBEPAVQWebSettings@@XZ @ 513 NONAME ; class QWebSettings * QWebPage::settings(void) const
	?settings@QWebView@@QBEPAVQWebSettings@@XZ @ 514 NONAME ; class QWebSettings * QWebView::settings(void) const
	?shouldInterruptJavaScript@QWebPage@@QAE_NXZ @ 515 NONAME ; bool QWebPage::shouldInterruptJavaScript(void)
	?showEvent@QWebInspector@@MAEXPAVQShowEvent@@@Z @ 516 NONAME ; void QWebInspector::showEvent(class QShowEvent *)
	?size@QWebDatabase@@QBE_JXZ @ 517 NONAME ; long long QWebDatabase::size(void) const
	?sizeHint@QGraphicsWebView@@UBE?AVQSizeF@@W4SizeHint@Qt@@ABV2@@Z @ 518 NONAME ; class QSizeF QGraphicsWebView::sizeHint(enum Qt::SizeHint, class QSizeF const &) const
	?sizeHint@QWebInspector@@UBE?AVQSize@@XZ @ 519 NONAME ; class QSize QWebInspector::sizeHint(void) const
	?sizeHint@QWebView@@UBE?AVQSize@@XZ @ 520 NONAME ; class QSize QWebView::sizeHint(void) const
	?statusBarMessage@QGraphicsWebView@@IAEXABVQString@@@Z @ 521 NONAME ; void QGraphicsWebView::statusBarMessage(class QString const &)
	?statusBarMessage@QWebPage@@IAEXABVQString@@@Z @ 522 NONAME ; void QWebPage::statusBarMessage(class QString const &)
	?statusBarMessage@QWebView@@IAEXABVQString@@@Z @ 523 NONAME ; void QWebView::statusBarMessage(class QString const &)
	?statusBarVisibilityChangeRequested@QWebPage@@IAEX_N@Z @ 524 NONAME ; void QWebPage::statusBarVisibilityChangeRequested(bool)
	?stop@QGraphicsWebView@@QAEXXZ @ 525 NONAME ; void QGraphicsWebView::stop(void)
	?stop@QWebView@@QAEXXZ @ 526 NONAME ; void QWebView::stop(void)
	?styleProperty@QWebElement@@QBE?AVQString@@ABV2@W4StyleResolveStrategy@1@@Z @ 527 NONAME ; class QString QWebElement::styleProperty(class QString const &, enum QWebElement::StyleResolveStrategy) const
	?supportsExtension@QWebPage@@UBE_NW4Extension@1@@Z @ 528 NONAME ; bool QWebPage::supportsExtension(enum QWebPage::Extension) const
	?supportsExtension@QWebPluginFactory@@UBE_NW4Extension@1@@Z @ 529 NONAME ; bool QWebPluginFactory::supportsExtension(enum QWebPluginFactory::Extension) const
	?supportsMimeType@QWebPluginInfo@@QBE_NABVQString@@@Z @ 530 NONAME ; bool QWebPluginInfo::supportsMimeType(class QString const &) const
	?swallowContextMenuEvent@QWebPage@@QAE_NPAVQContextMenuEvent@@@Z @ 531 NONAME ; bool QWebPage::swallowContextMenuEvent(class QContextMenuEvent *)
	?tagName@QWebElement@@QBE?AVQString@@XZ @ 532 NONAME ; class QString QWebElement::tagName(void) const
	?takeFromDocument@QWebElement@@QAEAAV1@XZ @ 533 NONAME ; class QWebElement & QWebElement::takeFromDocument(void)
	?testAttribute@QWebSettings@@QBE_NW4WebAttribute@1@@Z @ 534 NONAME ; bool QWebSettings::testAttribute(enum QWebSettings::WebAttribute) const
	?textSizeMultiplier@QWebFrame@@QBEMXZ @ 535 NONAME ; float QWebFrame::textSizeMultiplier(void) const
	?textSizeMultiplier@QWebView@@QBEMXZ @ 536 NONAME ; float QWebView::textSizeMultiplier(void) const
	?title@QGraphicsWebView@@QBE?AVQString@@XZ @ 537 NONAME ; class QString QGraphicsWebView::title(void) const
	?title@QWebFrame@@QBE?AVQString@@XZ @ 538 NONAME ; class QString QWebFrame::title(void) const
	?title@QWebHistoryItem@@QBE?AVQString@@XZ @ 539 NONAME ; class QString QWebHistoryItem::title(void) const
	?title@QWebHitTestResult@@QBE?AVQString@@XZ @ 540 NONAME ; class QString QWebHitTestResult::title(void) const
	?title@QWebView@@QBE?AVQString@@XZ @ 541 NONAME ; class QString QWebView::title(void) const
	?titleChanged@QGraphicsWebView@@IAEXABVQString@@@Z @ 542 NONAME ; void QGraphicsWebView::titleChanged(class QString const &)
	?titleChanged@QWebFrame@@IAEXABVQString@@@Z @ 543 NONAME ; void QWebFrame::titleChanged(class QString const &)
	?titleChanged@QWebView@@IAEXABVQString@@@Z @ 544 NONAME ; void QWebView::titleChanged(class QString const &)
	?toHtml@QWebFrame@@QBE?AVQString@@XZ @ 545 NONAME ; class QString QWebFrame::toHtml(void) const
	?toInnerXml@QWebElement@@QBE?AVQString@@XZ @ 546 NONAME ; class QString QWebElement::toInnerXml(void) const
	?toList@QWebElementCollection@@QBE?AV?$QList@VQWebElement@@@@XZ @ 547 NONAME ; class QList<class QWebElement> QWebElementCollection::toList(void) const
	?toOuterXml@QWebElement@@QBE?AVQString@@XZ @ 548 NONAME ; class QString QWebElement::toOuterXml(void) const
	?toPlainText@QWebElement@@QBE?AVQString@@XZ @ 549 NONAME ; class QString QWebElement::toPlainText(void) const
	?toPlainText@QWebFrame@@QBE?AVQString@@XZ @ 550 NONAME ; class QString QWebFrame::toPlainText(void) const
	?toggleClass@QWebElement@@QAEXABVQString@@@Z @ 551 NONAME ; void QWebElement::toggleClass(class QString const &)
	?toolBarVisibilityChangeRequested@QWebPage@@IAEX_N@Z @ 552 NONAME ; void QWebPage::toolBarVisibilityChangeRequested(bool)
	?totalBytes@QWebPage@@QBE_KXZ @ 553 NONAME ; unsigned long long QWebPage::totalBytes(void) const
	?tr@QGraphicsWebView@@SA?AVQString@@PBD0@Z @ 554 NONAME ; class QString QGraphicsWebView::tr(char const *, char const *)
	?tr@QGraphicsWebView@@SA?AVQString@@PBD0H@Z @ 555 NONAME ; class QString QGraphicsWebView::tr(char const *, char const *, int)
	?tr@QWebFrame@@SA?AVQString@@PBD0@Z @ 556 NONAME ; class QString QWebFrame::tr(char const *, char const *)
	?tr@QWebFrame@@SA?AVQString@@PBD0H@Z @ 557 NONAME ; class QString QWebFrame::tr(char const *, char const *, int)
	?tr@QWebHistoryInterface@@SA?AVQString@@PBD0@Z @ 558 NONAME ; class QString QWebHistoryInterface::tr(char const *, char const *)
	?tr@QWebHistoryInterface@@SA?AVQString@@PBD0H@Z @ 559 NONAME ; class QString QWebHistoryInterface::tr(char const *, char const *, int)
	?tr@QWebInspector@@SA?AVQString@@PBD0@Z @ 560 NONAME ; class QString QWebInspector::tr(char const *, char const *)
	?tr@QWebInspector@@SA?AVQString@@PBD0H@Z @ 561 NONAME ; class QString QWebInspector::tr(char const *, char const *, int)
	?tr@QWebPage@@SA?AVQString@@PBD0@Z @ 562 NONAME ; class QString QWebPage::tr(char const *, char const *)
	?tr@QWebPage@@SA?AVQString@@PBD0H@Z @ 563 NONAME ; class QString QWebPage::tr(char const *, char const *, int)
	?tr@QWebPluginDatabase@@SA?AVQString@@PBD0@Z @ 564 NONAME ; class QString QWebPluginDatabase::tr(char const *, char const *)
	?tr@QWebPluginDatabase@@SA?AVQString@@PBD0H@Z @ 565 NONAME ; class QString QWebPluginDatabase::tr(char const *, char const *, int)
	?tr@QWebPluginFactory@@SA?AVQString@@PBD0@Z @ 566 NONAME ; class QString QWebPluginFactory::tr(char const *, char const *)
	?tr@QWebPluginFactory@@SA?AVQString@@PBD0H@Z @ 567 NONAME ; class QString QWebPluginFactory::tr(char const *, char const *, int)
	?tr@QWebView@@SA?AVQString@@PBD0@Z @ 568 NONAME ; class QString QWebView::tr(char const *, char const *)
	?tr@QWebView@@SA?AVQString@@PBD0H@Z @ 569 NONAME ; class QString QWebView::tr(char const *, char const *, int)
	?trUtf8@QGraphicsWebView@@SA?AVQString@@PBD0@Z @ 570 NONAME ; class QString QGraphicsWebView::trUtf8(char const *, char const *)
	?trUtf8@QGraphicsWebView@@SA?AVQString@@PBD0H@Z @ 571 NONAME ; class QString QGraphicsWebView::trUtf8(char const *, char const *, int)
	?trUtf8@QWebFrame@@SA?AVQString@@PBD0@Z @ 572 NONAME ; class QString QWebFrame::trUtf8(char const *, char const *)
	?trUtf8@QWebFrame@@SA?AVQString@@PBD0H@Z @ 573 NONAME ; class QString QWebFrame::trUtf8(char const *, char const *, int)
	?trUtf8@QWebHistoryInterface@@SA?AVQString@@PBD0@Z @ 574 NONAME ; class QString QWebHistoryInterface::trUtf8(char const *, char const *)
	?trUtf8@QWebHistoryInterface@@SA?AVQString@@PBD0H@Z @ 575 NONAME ; class QString QWebHistoryInterface::trUtf8(char const *, char const *, int)
	?trUtf8@QWebInspector@@SA?AVQString@@PBD0@Z @ 576 NONAME ; class QString QWebInspector::trUtf8(char const *, char const *)
	?trUtf8@QWebInspector@@SA?AVQString@@PBD0H@Z @ 577 NONAME ; class QString QWebInspector::trUtf8(char const *, char const *, int)
	?trUtf8@QWebPage@@SA?AVQString@@PBD0@Z @ 578 NONAME ; class QString QWebPage::trUtf8(char const *, char const *)
	?trUtf8@QWebPage@@SA?AVQString@@PBD0H@Z @ 579 NONAME ; class QString QWebPage::trUtf8(char const *, char const *, int)
	?trUtf8@QWebPluginDatabase@@SA?AVQString@@PBD0@Z @ 580 NONAME ; class QString QWebPluginDatabase::trUtf8(char const *, char const *)
	?trUtf8@QWebPluginDatabase@@SA?AVQString@@PBD0H@Z @ 581 NONAME ; class QString QWebPluginDatabase::trUtf8(char const *, char const *, int)
	?trUtf8@QWebPluginFactory@@SA?AVQString@@PBD0@Z @ 582 NONAME ; class QString QWebPluginFactory::trUtf8(char const *, char const *)
	?trUtf8@QWebPluginFactory@@SA?AVQString@@PBD0H@Z @ 583 NONAME ; class QString QWebPluginFactory::trUtf8(char const *, char const *, int)
	?trUtf8@QWebView@@SA?AVQString@@PBD0@Z @ 584 NONAME ; class QString QWebView::trUtf8(char const *, char const *)
	?trUtf8@QWebView@@SA?AVQString@@PBD0H@Z @ 585 NONAME ; class QString QWebView::trUtf8(char const *, char const *, int)
	?triggerAction@QWebPage@@UAEXW4WebAction@1@_N@Z @ 586 NONAME ; void QWebPage::triggerAction(enum QWebPage::WebAction, bool)
	?triggerPageAction@QGraphicsWebView@@QAEXW4WebAction@QWebPage@@_N@Z @ 587 NONAME ; void QGraphicsWebView::triggerPageAction(enum QWebPage::WebAction, bool)
	?triggerPageAction@QWebView@@QAEXW4WebAction@QWebPage@@_N@Z @ 588 NONAME ; void QWebView::triggerPageAction(enum QWebPage::WebAction, bool)
	?undoStack@QWebPage@@QBEPAVQUndoStack@@XZ @ 589 NONAME ; class QUndoStack * QWebPage::undoStack(void) const
	?unsupportedContent@QWebPage@@IAEXPAVQNetworkReply@@@Z @ 590 NONAME ; void QWebPage::unsupportedContent(class QNetworkReply *)
	?updateGeometry@QGraphicsWebView@@UAEXXZ @ 591 NONAME ; void QGraphicsWebView::updateGeometry(void)
	?updatePositionDependentActions@QWebPage@@QAEXABVQPoint@@@Z @ 592 NONAME ; void QWebPage::updatePositionDependentActions(class QPoint const &)
	?url@QGraphicsWebView@@QBE?AVQUrl@@XZ @ 593 NONAME ; class QUrl QGraphicsWebView::url(void) const
	?url@QWebFrame@@QBE?AVQUrl@@XZ @ 594 NONAME ; class QUrl QWebFrame::url(void) const
	?url@QWebHistoryItem@@QBE?AVQUrl@@XZ @ 595 NONAME ; class QUrl QWebHistoryItem::url(void) const
	?url@QWebView@@QBE?AVQUrl@@XZ @ 596 NONAME ; class QUrl QWebView::url(void) const
	?urlChanged@QGraphicsWebView@@IAEXABVQUrl@@@Z @ 597 NONAME ; void QGraphicsWebView::urlChanged(class QUrl const &)
	?urlChanged@QWebFrame@@IAEXABVQUrl@@@Z @ 598 NONAME ; void QWebFrame::urlChanged(class QUrl const &)
	?urlChanged@QWebView@@IAEXABVQUrl@@@Z @ 599 NONAME ; void QWebView::urlChanged(class QUrl const &)
	?userAgentForUrl@QWebPage@@MBE?AVQString@@ABVQUrl@@@Z @ 600 NONAME ; class QString QWebPage::userAgentForUrl(class QUrl const &) const
	?userData@QWebHistoryItem@@QBE?AVQVariant@@XZ @ 601 NONAME ; class QVariant QWebHistoryItem::userData(void) const
	?userStyleSheetUrl@QWebSettings@@QBE?AVQUrl@@XZ @ 602 NONAME ; class QUrl QWebSettings::userStyleSheetUrl(void) const
	?view@QWebPage@@QBEPAVQWidget@@XZ @ 603 NONAME ; class QWidget * QWebPage::view(void) const
	?viewportSize@QWebPage@@QBE?AVQSize@@XZ @ 604 NONAME ; class QSize QWebPage::viewportSize(void) const
	?webFrame@QWebElement@@QBEPAVQWebFrame@@XZ @ 605 NONAME ; class QWebFrame * QWebElement::webFrame(void) const
	?webGraphic@QWebSettings@@SA?AVQPixmap@@W4WebGraphic@1@@Z @ 606 NONAME ; class QPixmap QWebSettings::webGraphic(enum QWebSettings::WebGraphic)
	?wheelEvent@QGraphicsWebView@@MAEXPAVQGraphicsSceneWheelEvent@@@Z @ 607 NONAME ; void QGraphicsWebView::wheelEvent(class QGraphicsSceneWheelEvent *)
	?wheelEvent@QWebView@@MAEXPAVQWheelEvent@@@Z @ 608 NONAME ; void QWebView::wheelEvent(class QWheelEvent *)
	?windowCloseRequested@QWebPage@@IAEXXZ @ 609 NONAME ; void QWebPage::windowCloseRequested(void)
	?zoomFactor@QGraphicsWebView@@QBEMXZ @ 610 NONAME ; float QGraphicsWebView::zoomFactor(void) const
	?zoomFactor@QWebFrame@@QBEMXZ @ 611 NONAME ; float QWebFrame::zoomFactor(void) const
	?zoomFactor@QWebView@@QBEMXZ @ 612 NONAME ; float QWebView::zoomFactor(void) const
	?staticMetaObject@QWebPluginDatabase@@2UQMetaObject@@B @ 613 NONAME ; struct QMetaObject const QWebPluginDatabase::staticMetaObject
	?staticMetaObject@QWebFrame@@2UQMetaObject@@B @ 614 NONAME ; struct QMetaObject const QWebFrame::staticMetaObject
	?staticMetaObject@QWebHistoryInterface@@2UQMetaObject@@B @ 615 NONAME ; struct QMetaObject const QWebHistoryInterface::staticMetaObject
	?staticMetaObject@QWebInspector@@2UQMetaObject@@B @ 616 NONAME ; struct QMetaObject const QWebInspector::staticMetaObject
	?staticMetaObject@QWebPluginFactory@@2UQMetaObject@@B @ 617 NONAME ; struct QMetaObject const QWebPluginFactory::staticMetaObject
	?staticMetaObject@QGraphicsWebView@@2UQMetaObject@@B @ 618 NONAME ; struct QMetaObject const QGraphicsWebView::staticMetaObject
	?staticMetaObject@QWebPage@@2UQMetaObject@@B @ 619 NONAME ; struct QMetaObject const QWebPage::staticMetaObject
	?staticMetaObject@QWebView@@2UQMetaObject@@B @ 620 NONAME ; struct QMetaObject const QWebView::staticMetaObject
	?attributeNames@QWebElement@@QBE?AVQStringList@@ABVQString@@@Z @ 621 NONAME ; class QStringList QWebElement::attributeNames(class QString const &) const
	?qt_networkAccessAllowed@@YAX_N@Z @ 622 NONAME ; void qt_networkAccessAllowed(bool)
	?qt_resumeActiveDOMObjects@@YAXPAVQWebFrame@@@Z @ 623 NONAME ; void qt_resumeActiveDOMObjects(class QWebFrame *)
	?qt_suspendActiveDOMObjects@@YAXPAVQWebFrame@@@Z @ 624 NONAME ; void qt_suspendActiveDOMObjects(class QWebFrame *)
	?qtwebkit_webframe_scrollRecursively@@YA_NPAVQWebFrame@@HH@Z @ 625 NONAME ABSENT ; bool qtwebkit_webframe_scrollRecursively(class QWebFrame *, int, int)
	?closeEvent@QWebInspector@@MAEXPAVQCloseEvent@@@Z @ 626 NONAME ; void QWebInspector::closeEvent(class QCloseEvent *)
	?inspectorUrl@QWebSettings@@QBE?AVQUrl@@XZ @ 627 NONAME ABSENT ; class QUrl QWebSettings::inspectorUrl(void) const
	?isTiledBackingStoreFrozen@QGraphicsWebView@@QBE_NXZ @ 628 NONAME ; bool QGraphicsWebView::isTiledBackingStoreFrozen(void) const
	?pageChanged@QWebFrame@@IAEXXZ @ 629 NONAME ; void QWebFrame::pageChanged(void)
	?qt_drt_enableCaretBrowsing@@YAXPAVQWebPage@@_N@Z @ 630 NONAME ; void qt_drt_enableCaretBrowsing(class QWebPage *, bool)
	?qt_drt_evaluateScriptInIsolatedWorld@@YAXPAVQWebFrame@@HABVQString@@@Z @ 631 NONAME ; void qt_drt_evaluateScriptInIsolatedWorld(class QWebFrame *, int, class QString const &)
	?qt_drt_hasDocumentElement@@YA_NPAVQWebFrame@@@Z @ 632 NONAME ; bool qt_drt_hasDocumentElement(class QWebFrame *)
	?qt_drt_numberOfPages@@YAHPAVQWebFrame@@MM@Z @ 633 NONAME ; int qt_drt_numberOfPages(class QWebFrame *, float, float)
	?qt_drt_pageNumberForElementById@@YAHPAVQWebFrame@@ABVQString@@MM@Z @ 634 NONAME ; int qt_drt_pageNumberForElementById(class QWebFrame *, class QString const &, float, float)
	?qt_drt_pauseSVGAnimation@@YA_NPAVQWebFrame@@ABVQString@@N1@Z @ 635 NONAME ; bool qt_drt_pauseSVGAnimation(class QWebFrame *, class QString const &, double, class QString const &)
	?qt_drt_setDomainRelaxationForbiddenForURLScheme@@YAX_NABVQString@@@Z @ 636 NONAME ; void qt_drt_setDomainRelaxationForbiddenForURLScheme(bool, class QString const &)
	?qt_drt_setFrameFlatteningEnabled@@YAXPAVQWebPage@@_N@Z @ 637 NONAME ; void qt_drt_setFrameFlatteningEnabled(class QWebPage *, bool)
	?qt_drt_setMediaType@@YAXPAVQWebFrame@@ABVQString@@@Z @ 638 NONAME ; void qt_drt_setMediaType(class QWebFrame *, class QString const &)
	?qt_drt_setTimelineProfilingEnabled@@YAXPAVQWebPage@@_N@Z @ 639 NONAME ; void qt_drt_setTimelineProfilingEnabled(class QWebPage *, bool)
	?qt_drt_webinspector_close@@YAXPAVQWebPage@@@Z @ 640 NONAME ; void qt_drt_webinspector_close(class QWebPage *)
	?qt_drt_webinspector_executeScript@@YAXPAVQWebPage@@JABVQString@@@Z @ 641 NONAME ; void qt_drt_webinspector_executeScript(class QWebPage *, long, class QString const &)
	?qt_drt_webinspector_show@@YAXPAVQWebPage@@@Z @ 642 NONAME ; void qt_drt_webinspector_show(class QWebPage *)
	?qt_drt_workerThreadCount@@YAHXZ @ 643 NONAME ; int qt_drt_workerThreadCount(void)
	?qt_wrt_setViewMode@@YAXPAVQWebPage@@ABVQString@@@Z @ 644 NONAME ; void qt_wrt_setViewMode(class QWebPage *, class QString const &)
	?qtwebkit_webframe_scrollRecursively@@YAXPAVQWebFrame@@HHABVQPoint@@@Z @ 645 NONAME ; void qtwebkit_webframe_scrollRecursively(class QWebFrame *, int, int, class QPoint const &)
	?resizesToContents@QGraphicsWebView@@QBE_NXZ @ 646 NONAME ; bool QGraphicsWebView::resizesToContents(void) const
	?scrollToAnchor@QWebFrame@@QAEXABVQString@@@Z @ 647 NONAME ; void QWebFrame::scrollToAnchor(class QString const &)
	?setInspectorUrl@QWebSettings@@QAEXABVQUrl@@@Z @ 648 NONAME ABSENT ; void QWebSettings::setInspectorUrl(class QUrl const &)
	?setResizesToContents@QGraphicsWebView@@QAEX_N@Z @ 649 NONAME ; void QGraphicsWebView::setResizesToContents(bool)
	?setTiledBackingStoreFrozen@QGraphicsWebView@@QAEX_N@Z @ 650 NONAME ; void QGraphicsWebView::setTiledBackingStoreFrozen(bool)

