LIBRARY    "JavaScriptCore_debug"

EXPORTS
    ??0Collator@WTF@@QAE@PBD@Z
    ??0DateInstance@JSC@@QAE@PAVExecState@1@N@Z
    ??0DropAllLocks@JSLock@JSC@@QAE@W4JSLockBehavior@2@@Z
    ??0InternalFunction@JSC@@IAE@PAVJSGlobalData@1@V?$NonNullPassRefPtr@VStructure@JSC@@@WTF@@ABVIdentifier@1@@Z
    ??0JSArray@JSC@@QAE@V?$NonNullPassRefPtr@VStructure@JSC@@@WTF@@@Z
    ??0JSArray@JSC@@QAE@V?$NonNullPassRefPtr@VStructure@JSC@@@WTF@@ABVArgList@1@@Z
    ??0JSByteArray@JSC@@QAE@PAVExecState@1@V?$NonNullPassRefPtr@VStructure@JSC@@@WTF@@PAVByteArray@4@PBUClassInfo@1@@Z
    ??0JSFunction@JSC@@QAE@PAVExecState@1@V?$NonNullPassRefPtr@VStructure@JSC@@@WTF@@HABVIdentifier@1@P6I?AVJSValue@1@0PAVJSObject@1@V61@ABVArgList@1@@Z@Z
    ??0Mutex@WTF@@QAE@XZ
    ??0PrototypeFunction@JSC@@QAE@PAVExecState@1@HABVIdentifier@1@P6I?AVJSValue@1@0PAVJSObject@1@V41@ABVArgList@1@@Z@Z
    ??0PrototypeFunction@JSC@@QAE@PAVExecState@1@V?$NonNullPassRefPtr@VStructure@JSC@@@WTF@@HABVIdentifier@1@P6I?AVJSValue@1@0PAVJSObject@1@V61@ABVArgList@1@@Z@Z
    ??0RefCountedLeakCounter@WTF@@QAE@PBD@Z
    ??0StringObject@JSC@@QAE@PAVExecState@1@V?$NonNullPassRefPtr@VStructure@JSC@@@WTF@@ABVUString@1@@Z
    ??0Structure@JSC@@AAE@VJSValue@1@ABVTypeInfo@1@@Z
    ??0ThreadCondition@WTF@@QAE@XZ
    ??0UString@JSC@@QAE@PBD@Z
    ??0UString@JSC@@QAE@PB_WH@Z
    ??1CString@JSC@@QAE@XZ
    ??1ClientData@JSGlobalData@JSC@@UAE@XZ
    ??1Collator@WTF@@QAE@XZ
    ??1Debugger@JSC@@UAE@XZ
    ??1DropAllLocks@JSLock@JSC@@QAE@XZ
    ??1JSGlobalData@JSC@@QAE@XZ
    ??1JSGlobalObject@JSC@@UAE@XZ
    ??1Mutex@WTF@@QAE@XZ
    ??1RefCountedLeakCounter@WTF@@QAE@XZ
    ??1Structure@JSC@@QAE@XZ
    ??1ThreadCondition@WTF@@QAE@XZ
    ??2JSCell@JSC@@SAPAXIPAVExecState@1@@Z
    ??2JSGlobalObject@JSC@@SAPAXIPAVJSGlobalData@1@@Z
    ??4UString@JSC@@QAEAAV01@PBD@Z
    ??8JSC@@YA_NABVUString@0@0@Z
    ?UTF8String@UString@JSC@@QBE?AVCString@2@_N@Z
    ?add@Identifier@JSC@@SA?AV?$PassRefPtr@URep@UString@JSC@@@WTF@@PAVExecState@2@PBD@Z
    ?add@PropertyNameArray@JSC@@QAEXPAURep@UString@2@@Z
    ?addPropertyTransition@Structure@JSC@@SA?AV?$PassRefPtr@VStructure@JSC@@@WTF@@PAV12@ABVIdentifier@2@IPAVJSCell@2@AAI@Z
    ?addPropertyTransitionToExistingStructure@Structure@JSC@@SA?AV?$PassRefPtr@VStructure@JSC@@@WTF@@PAV12@ABVIdentifier@2@IPAVJSCell@2@AAI@Z
    ?addPropertyWithoutTransition@Structure@JSC@@QAEIABVIdentifier@2@IPAVJSCell@2@@Z
    ?addSlowCase@Identifier@JSC@@CA?AV?$PassRefPtr@URep@UString@JSC@@@WTF@@PAVExecState@2@PAURep@UString@2@@Z
    ?addSlowCase@Identifier@JSC@@CA?AV?$PassRefPtr@URep@UString@JSC@@@WTF@@PAVJSGlobalData@2@PAURep@UString@2@@Z
    ?allocate@Heap@JSC@@QAEPAXI@Z
    ?allocatePropertyStorage@JSObject@JSC@@QAEXII@Z
    ?allocateStack@MarkStack@JSC@@CAPAXI@Z
    ?append@UString@JSC@@QAEAAV12@ABV12@@Z
    ?append@UString@JSC@@QAEAAV12@PBD@Z
    ?ascii@UString@JSC@@QBEPADXZ
    ?attach@Debugger@JSC@@QAEXPAVJSGlobalObject@2@@Z
    ?broadcast@ThreadCondition@WTF@@QAEXXZ
    ?calculatedFunctionName@DebuggerCallFrame@JSC@@QBE?AVUString@2@XZ
    ?call@JSC@@YA?AVJSValue@1@PAVExecState@1@V21@W4CallType@1@ABTCallData@1@1ABVArgList@1@@Z
    ?callOnMainThread@WTF@@YAXP6AXPAX@Z0@Z
    ?changePrototypeTransition@Structure@JSC@@SA?AV?$PassRefPtr@VStructure@JSC@@@WTF@@PAV12@VJSValue@2@@Z
    ?checkSameIdentifierTable@Identifier@JSC@@CAXPAVExecState@2@PAURep@UString@2@@Z
    ?checkSameIdentifierTable@Identifier@JSC@@CAXPAVJSGlobalData@2@PAURep@UString@2@@Z
    ?checkSyntax@JSC@@YA?AVCompletion@1@PAVExecState@1@ABVSourceCode@1@@Z
    ?classInfo@InternalFunction@JSC@@UBEPBUClassInfo@2@XZ
    ?classInfo@JSCell@JSC@@UBEPBUClassInfo@2@XZ
    ?className@JSObject@JSC@@UBE?AVUString@2@XZ
    ?collate@Collator@WTF@@QBE?AW4Result@12@PB_WI0I@Z
    ?collect@Heap@JSC@@QAE_NXZ
    ?computeHash@Rep@UString@JSC@@SAIPBDH@Z
    ?computeHash@Rep@UString@JSC@@SAIPB_WH@Z
    ?configurable@PropertyDescriptor@JSC@@QBE_NXZ
    ?construct@JSC@@YAPAVJSObject@1@PAVExecState@1@VJSValue@1@W4ConstructType@1@ABTConstructData@1@ABVArgList@1@@Z
    ?constructArray@JSC@@YAPAVJSArray@1@PAVExecState@1@ABVArgList@1@@Z
    ?constructEmptyArray@JSC@@YAPAVJSArray@1@PAVExecState@1@@Z
    ?constructEmptyObject@JSC@@YAPAVJSObject@1@PAVExecState@1@@Z
    ?constructFunction@JSC@@YAPAVJSObject@1@PAVExecState@1@ABVArgList@1@ABVIdentifier@1@ABVUString@1@H@Z
    ?convertUTF16ToUTF8@Unicode@WTF@@YA?AW4ConversionResult@12@PAPB_WPB_WPAPADPAD_N@Z
    ?create@ByteArray@WTF@@SA?AV?$PassRefPtr@VByteArray@WTF@@@2@I@Z
    ?create@JSGlobalData@JSC@@SA?AV?$PassRefPtr@VJSGlobalData@JSC@@@WTF@@_N@Z
    ?create@OpaqueJSString@@SA?AV?$PassRefPtr@UOpaqueJSString@@@WTF@@ABVUString@JSC@@@Z
    ?create@Rep@UString@JSC@@SA?AV?$PassRefPtr@URep@UString@JSC@@@WTF@@PA_WHV?$PassRefPtr@V?$CrossThreadRefCounted@V?$OwnFastMallocPtr@_W@WTF@@@WTF@@@5@@Z
    ?createEmptyString@SmallStrings@JSC@@AAEXPAVJSGlobalData@2@@Z
    ?createInheritorID@JSObject@JSC@@AAEPAVStructure@2@XZ
    ?createInterruptedExecutionException@JSC@@YA?AVJSValue@1@PAVJSGlobalData@1@@Z
    ?createLeaked@JSGlobalData@JSC@@SA?AV?$PassRefPtr@VJSGlobalData@JSC@@@WTF@@XZ
    ?createSingleCharacterString@SmallStrings@JSC@@AAEXPAVJSGlobalData@2@E@Z
    ?createStackOverflowError@JSC@@YA?AVJSValue@1@PAVExecState@1@@Z
    ?createStructure@JSByteArray@JSC@@SA?AV?$PassRefPtr@VStructure@JSC@@@WTF@@VJSValue@2@@Z
    ?createTable@HashTable@JSC@@ABEXPAVJSGlobalData@2@@Z
    ?createThread@WTF@@YAIP6APAXPAX@Z0@Z
    ?createThread@WTF@@YAIP6APAXPAX@Z0PBD@Z
    ?createTypeError@JSC@@YA?AVJSValue@1@PAVExecState@1@PBD@Z
    ?currentThread@WTF@@YAIXZ
    ?currentTime@WTF@@YANXZ
    ?decrement@RefCountedLeakCounter@WTF@@QAEXXZ
    ?defaultAttributes@PropertyDescriptor@JSC@@0IA
    ?defaultValue@JSObject@JSC@@UBE?AVJSValue@2@PAVExecState@2@W4PreferredPrimitiveType@2@@Z
    ?defineGetter@JSGlobalObject@JSC@@UAEXPAVExecState@2@ABVIdentifier@2@PAVJSObject@2@I@Z
    ?defineGetter@JSObject@JSC@@UAEXPAVExecState@2@ABVIdentifier@2@PAV12@I@Z
    ?defineOwnProperty@JSObject@JSC@@UAE_NPAVExecState@2@ABVIdentifier@2@AAVPropertyDescriptor@2@_N@Z
    ?defineSetter@JSGlobalObject@JSC@@UAEXPAVExecState@2@ABVIdentifier@2@PAVJSObject@2@I@Z
    ?defineSetter@JSObject@JSC@@UAEXPAVExecState@2@ABVIdentifier@2@PAV12@I@Z
    ?deleteOwnedPtr@WTF@@YAXPAUHBITMAP__@@@Z
    ?deleteOwnedPtr@WTF@@YAXPAUHRGN__@@@Z
    ?deleteProperty@JSCell@JSC@@UAE_NPAVExecState@2@ABVIdentifier@2@@Z
    ?deleteProperty@JSCell@JSC@@UAE_NPAVExecState@2@I@Z
    ?deleteProperty@JSObject@JSC@@UAE_NPAVExecState@2@ABVIdentifier@2@@Z
    ?deleteProperty@JSObject@JSC@@UAE_NPAVExecState@2@I@Z
    ?deleteProperty@JSVariableObject@JSC@@UAE_NPAVExecState@2@ABVIdentifier@2@@Z
    ?deleteProperty@StringObject@JSC@@UAE_NPAVExecState@2@ABVIdentifier@2@@Z
    ?deleteTable@HashTable@JSC@@QBEXXZ
    ?despecifyDictionaryFunction@Structure@JSC@@QAEXABVIdentifier@2@@Z
    ?despecifyFunctionTransition@Structure@JSC@@SA?AV?$PassRefPtr@VStructure@JSC@@@WTF@@PAV12@ABVIdentifier@2@@Z
    ?destroy@Heap@JSC@@QAEXXZ
    ?destroy@Rep@UString@JSC@@QAEXXZ
    ?destroyJSGlobalObjectData@JSGlobalObject@JSC@@CAXPAX@Z
    ?detach@Debugger@JSC@@UAEXPAVJSGlobalObject@2@@Z
    ?detachThread@WTF@@YAXI@Z
    ?didTimeOut@TimeoutChecker@JSC@@QAE_NPAVExecState@2@@Z
    ?dumpSampleData@JSGlobalData@JSC@@QAEXPAVExecState@2@@Z
    ?enumerable@PropertyDescriptor@JSC@@QBE_NXZ
    ?equal@Identifier@JSC@@SA_NPBURep@UString@2@PBD@Z
    ?equal@JSC@@YA_NPBURep@UString@1@0@Z
    ?evaluate@DebuggerCallFrame@JSC@@QBE?AVJSValue@2@ABVUString@2@AAV32@@Z
    ?evaluate@JSC@@YA?AVCompletion@1@PAVExecState@1@AAVScopeChain@1@ABVSourceCode@1@VJSValue@1@@Z
    ?exclude@Profile@JSC@@QAEXPBVProfileNode@2@@Z
    ?fastCalloc@WTF@@YAPAXII@Z
    ?fastFree@WTF@@YAXPAX@Z
    ?fastMalloc@WTF@@YAPAXI@Z
    ?fastRealloc@WTF@@YAPAXPAXI@Z
    ?fastZeroedMalloc@WTF@@YAPAXI@Z
    ?fillGetterPropertySlot@JSObject@JSC@@QAEXAAVPropertySlot@2@PAVJSValue@2@@Z
    ?focus@Profile@JSC@@QAEXPBVProfileNode@2@@Z
    ?from@UString@JSC@@SA?AV12@H@Z
    ?from@UString@JSC@@SA?AV12@I@Z
    ?from@UString@JSC@@SA?AV12@N@Z
    ?functionName@DebuggerCallFrame@JSC@@QBEPBVUString@2@XZ
    ?get@Structure@JSC@@QAEIPBURep@UString@2@AAIAAPAVJSCell@2@@Z
    ?getCallData@JSCell@JSC@@UAE?AW4CallType@2@AATCallData@2@@Z
    ?getConstructData@JSCell@JSC@@UAE?AW4ConstructType@2@AATConstructData@2@@Z
    ?getJSNumber@JSCell@JSC@@UAE?AVJSValue@2@XZ
    ?getObject@JSCell@JSC@@QAEPAVJSObject@2@XZ
    ?getOwnPropertyDescriptor@JSObject@JSC@@UAE_NPAVExecState@2@ABVIdentifier@2@AAVPropertyDescriptor@2@@Z
    ?getOwnPropertyDescriptor@JSString@JSC@@EAE_NPAVExecState@2@ABVIdentifier@2@AAVPropertyDescriptor@2@@Z
    ?getOwnPropertyDescriptor@StringObject@JSC@@UAE_NPAVExecState@2@ABVIdentifier@2@AAVPropertyDescriptor@2@@Z
    ?getOwnPropertyNames@JSObject@JSC@@UAEXPAVExecState@2@AAVPropertyNameArray@2@@Z
    ?getOwnPropertyNames@JSVariableObject@JSC@@UAEXPAVExecState@2@AAVPropertyNameArray@2@@Z
    ?getOwnPropertyNames@StringObject@JSC@@UAEXPAVExecState@2@AAVPropertyNameArray@2@@Z
    ?getOwnPropertySlot@JSCell@JSC@@EAE_NPAVExecState@2@ABVIdentifier@2@AAVPropertySlot@2@@Z
    ?getOwnPropertySlot@JSCell@JSC@@EAE_NPAVExecState@2@IAAVPropertySlot@2@@Z
    ?getOwnPropertySlot@JSObject@JSC@@UAE_NPAVExecState@2@IAAVPropertySlot@2@@Z
    ?getOwnPropertySlot@JSString@JSC@@EAE_NPAVExecState@2@ABVIdentifier@2@AAVPropertySlot@2@@Z
    ?getOwnPropertySlot@JSString@JSC@@EAE_NPAVExecState@2@IAAVPropertySlot@2@@Z
    ?getOwnPropertySlot@StringObject@JSC@@UAE_NPAVExecState@2@ABVIdentifier@2@AAVPropertySlot@2@@Z
    ?getOwnPropertySlot@StringObject@JSC@@UAE_NPAVExecState@2@IAAVPropertySlot@2@@Z
    ?getPrimitiveNumber@JSCell@JSC@@UAE_NPAVExecState@2@AANAAVJSValue@2@@Z
    ?getPrimitiveNumber@JSObject@JSC@@UAE_NPAVExecState@2@AANAAVJSValue@2@@Z
    ?getPrimitiveNumber@JSString@JSC@@EAE_NPAVExecState@2@AANAAVJSValue@2@@Z
    ?getPropertyAttributes@JSObject@JSC@@UBE_NPAVExecState@2@ABVIdentifier@2@AAI@Z
    ?getPropertyAttributes@JSVariableObject@JSC@@UBE_NPAVExecState@2@ABVIdentifier@2@AAI@Z
    ?getPropertyDescriptor@JSObject@JSC@@QAE_NPAVExecState@2@ABVIdentifier@2@AAVPropertyDescriptor@2@@Z
    ?getPropertyNames@JSObject@JSC@@UAEXPAVExecState@2@AAVPropertyNameArray@2@@Z
    ?getSlice@ArgList@JSC@@QBEXHAAV12@@Z
    ?getString@JSCell@JSC@@QBE?AVUString@2@XZ
    ?getString@JSCell@JSC@@QBE_NAAVUString@2@@Z
    ?getUInt32@JSCell@JSC@@UBE_NAAI@Z
    ?getter@PropertyDescriptor@JSC@@QBE?AVJSValue@2@XZ
    ?globalExec@JSGlobalObject@JSC@@UAEPAVExecState@2@XZ
    ?globalObjectCount@Heap@JSC@@QAEIXZ
    ?hasInstance@JSObject@JSC@@UAE_NPAVExecState@2@VJSValue@2@1@Z
    ?hasProperty@JSObject@JSC@@QBE_NPAVExecState@2@ABVIdentifier@2@@Z
    ?hasProperty@JSObject@JSC@@QBE_NPAVExecState@2@I@Z
    ?hasTransition@Structure@JSC@@QAE_NPAURep@UString@2@I@Z
    ?heap@Heap@JSC@@SAPAV12@VJSValue@2@@Z
    ?increment@RefCountedLeakCounter@WTF@@QAEXXZ
    ?init@JSGlobalObject@JSC@@AAEXPAVJSObject@2@@Z
    ?initializeMainThread@WTF@@YAXXZ
    ?initializeThreading@JSC@@YAXXZ
    ?initializeThreading@WTF@@YAXXZ
    ?is8Bit@UString@JSC@@QBE_NXZ
    ?isAccessorDescriptor@PropertyDescriptor@JSC@@QBE_NXZ
    ?isBusy@Heap@JSC@@QAE_NXZ
    ?isDataDescriptor@PropertyDescriptor@JSC@@QBE_NXZ
    ?isDynamicScope@JSGlobalObject@JSC@@UBE_NXZ
    ?isGetterSetter@JSCell@JSC@@UBE_NXZ
    ?isHostFunctionNonInline@JSFunction@JSC@@ABE_NXZ
    ?isMainThread@WTF@@YA_NXZ
    ?isVariableObject@JSVariableObject@JSC@@UBE_NXZ
    ?jsNumberCell@JSC@@YA?AVJSValue@1@PAVExecState@1@N@Z
    ?jsOwnedString@JSC@@YAPAVJSString@1@PAVJSGlobalData@1@ABVUString@1@@Z
    ?jsRegExpCompile@@YAPAUJSRegExp@@PB_WHW4JSRegExpIgnoreCaseOption@@W4JSRegExpMultilineOption@@PAIPAPBD@Z
    ?jsRegExpExecute@@YAHPBUJSRegExp@@PB_WHHPAHH@Z
    ?jsRegExpFree@@YAXPAUJSRegExp@@@Z
    ?jsString@JSC@@YAPAVJSString@1@PAVJSGlobalData@1@ABVUString@1@@Z
    ?lock@JSLock@JSC@@SAXW4JSLockBehavior@2@@Z
    ?lock@Mutex@WTF@@QAEXXZ
    ?lockAtomicallyInitializedStaticMutex@WTF@@YAXXZ
    ?lookupGetter@JSObject@JSC@@UAE?AVJSValue@2@PAVExecState@2@ABVIdentifier@2@@Z
    ?lookupSetter@JSObject@JSC@@UAE?AVJSValue@2@PAVExecState@2@ABVIdentifier@2@@Z
    ?markChildren@JSGlobalObject@JSC@@UAEXAAVMarkStack@2@@Z
    ?markChildren@JSObject@JSC@@UAEXAAVMarkStack@2@@Z
    ?markChildren@JSWrapperObject@JSC@@EAEXAAVMarkStack@2@@Z
    ?materializePropertyMap@Structure@JSC@@AAEXXZ
    ?name@InternalFunction@JSC@@QAEABVUString@2@PAVJSGlobalData@2@@Z
    ?nonInlineNaN@JSC@@YANXZ
    ?objectCount@Heap@JSC@@QAEIXZ
    ?objectProtoFuncToString@JSC@@YI?AVJSValue@1@PAVExecState@1@PAVJSObject@1@V21@ABVArgList@1@@Z
    ?parse@Parser@JSC@@AAEXPAVJSGlobalData@2@PAHPAVUString@2@@Z
    ?parseDateFromNullTerminatedCharacters@WTF@@YANPBD@Z
    ?primaryHeapBegin@Heap@JSC@@QAE?AV?$CollectorHeapIterator@$0A@@2@XZ
    ?primaryHeapEnd@Heap@JSC@@QAE?AV?$CollectorHeapIterator@$0A@@2@XZ
    ?profiler@Profiler@JSC@@SAPAV12@XZ
    ?protect@Heap@JSC@@QAEXVJSValue@2@@Z
    ?protectedGlobalObjectCount@Heap@JSC@@QAEIXZ
    ?protectedObjectCount@Heap@JSC@@QAEIXZ
    ?protectedObjectTypeCounts@Heap@JSC@@QAEPAV?$HashCountedSet@PBDU?$PtrHash@PBD@WTF@@U?$HashTraits@PBD@2@@WTF@@XZ
    ?put@JSCell@JSC@@UAEXPAVExecState@2@ABVIdentifier@2@VJSValue@2@AAVPutPropertySlot@2@@Z
    ?put@JSCell@JSC@@UAEXPAVExecState@2@IVJSValue@2@@Z
    ?put@JSGlobalObject@JSC@@UAEXPAVExecState@2@ABVIdentifier@2@VJSValue@2@AAVPutPropertySlot@2@@Z
    ?put@JSObject@JSC@@UAEXPAVExecState@2@ABVIdentifier@2@VJSValue@2@AAVPutPropertySlot@2@@Z
    ?put@JSObject@JSC@@UAEXPAVExecState@2@IVJSValue@2@@Z
    ?put@StringObject@JSC@@UAEXPAVExecState@2@ABVIdentifier@2@VJSValue@2@AAVPutPropertySlot@2@@Z
    ?putDirectFunction@JSObject@JSC@@QAEXPAVExecState@2@PAVInternalFunction@2@I@Z
    ?putWithAttributes@JSGlobalObject@JSC@@UAEXPAVExecState@2@ABVIdentifier@2@VJSValue@2@I@Z
    ?putWithAttributes@JSObject@JSC@@UAEXPAVExecState@2@ABVIdentifier@2@VJSValue@2@I@Z
    ?putWithAttributes@JSObject@JSC@@UAEXPAVExecState@2@ABVIdentifier@2@VJSValue@2@I_NAAVPutPropertySlot@2@@Z
    ?putWithAttributes@JSObject@JSC@@UAEXPAVExecState@2@IVJSValue@2@I@Z
    ?randomNumber@WTF@@YANXZ
    ?recompileAllJSFunctions@Debugger@JSC@@QAEXPAVJSGlobalData@2@@Z
    ?recordExtraCost@Heap@JSC@@AAEXI@Z
    ?releaseStack@MarkStack@JSC@@CAXPAXI@Z
    ?reset@ParserArena@JSC@@QAEXXZ
    ?reset@TimeoutChecker@JSC@@QAEXXZ
    ?restoreAll@Profile@JSC@@QAEXXZ
    ?retrieveCaller@Interpreter@JSC@@QBE?AVJSValue@2@PAVExecState@2@PAVInternalFunction@2@@Z
    ?retrieveLastCaller@Interpreter@JSC@@QBEXPAVExecState@2@AAH1AAVUString@2@AAVJSValue@2@@Z
    ?setAccessorDescriptor@PropertyDescriptor@JSC@@QAEXVJSValue@2@0I@Z
    ?setConfigurable@PropertyDescriptor@JSC@@QAEX_N@Z
    ?setDescriptor@PropertyDescriptor@JSC@@QAEXVJSValue@2@I@Z
    ?setDumpsGeneratedCode@BytecodeGenerator@JSC@@SAX_N@Z
    ?setEnumerable@PropertyDescriptor@JSC@@QAEX_N@Z
    ?setGetter@PropertyDescriptor@JSC@@QAEXVJSValue@2@@Z
    ?setLength@JSArray@JSC@@QAEXI@Z
    ?setLoc@StatementNode@JSC@@QAEXHH@Z
    ?setMainThreadCallbacksPaused@WTF@@YAX_N@Z
    ?setOrderLowerFirst@Collator@WTF@@QAEX_N@Z
    ?setSetter@PropertyDescriptor@JSC@@QAEXVJSValue@2@@Z
    ?setUndefined@PropertyDescriptor@JSC@@QAEXXZ
    ?setUpStaticFunctionSlot@JSC@@YAXPAVExecState@1@PBVHashEntry@1@PAVJSObject@1@ABVIdentifier@1@AAVPropertySlot@1@@Z
    ?setWritable@PropertyDescriptor@JSC@@QAEX_N@Z
    ?setter@PropertyDescriptor@JSC@@QBE?AVJSValue@2@XZ
    ?sharedBuffer@Rep@UString@JSC@@QAEPAV?$CrossThreadRefCounted@V?$OwnFastMallocPtr@_W@WTF@@@WTF@@XZ
    ?signal@ThreadCondition@WTF@@QAEXXZ
    ?slowAppend@MarkedArgumentBuffer@JSC@@AAEXVJSValue@2@@Z
    ?startIgnoringLeaks@Structure@JSC@@SAXXZ
    ?startProfiling@Profiler@JSC@@QAEXPAVExecState@2@ABVUString@2@@Z
    ?startSampling@JSGlobalData@JSC@@QAEXXZ
    ?stopIgnoringLeaks@Structure@JSC@@SAXXZ
    ?stopProfiling@Profiler@JSC@@QAE?AV?$PassRefPtr@VProfile@JSC@@@WTF@@PAVExecState@2@ABVUString@2@@Z
    ?stopSampling@JSGlobalData@JSC@@QAEXXZ
    ?strtod@WTF@@YANPBDPAPAD@Z
    ?substr@UString@JSC@@QBE?AV12@HH@Z
    ?symbolTableGet@JSVariableObject@JSC@@IAE_NABVIdentifier@2@AAVPropertyDescriptor@2@@Z
    ?synthesizePrototype@JSValue@JSC@@ABEPAVJSObject@2@PAVExecState@2@@Z
    ?thisObject@DebuggerCallFrame@JSC@@QBEPAVJSObject@2@XZ
    ?throwError@JSC@@YAPAVJSObject@1@PAVExecState@1@W4ErrorType@1@@Z
    ?throwError@JSC@@YAPAVJSObject@1@PAVExecState@1@W4ErrorType@1@ABVUString@1@@Z
    ?throwError@JSC@@YAPAVJSObject@1@PAVExecState@1@W4ErrorType@1@PBD@Z
    ?timedWait@ThreadCondition@WTF@@QAE_NAAVMutex@2@N@Z
    ?tlsKeyCount@WTF@@YAAAJXZ
    ?tlsKeys@WTF@@YAPAKXZ
    ?toBoolean@JSCell@JSC@@UBE_NPAVExecState@2@@Z
    ?toBoolean@JSObject@JSC@@UBE_NPAVExecState@2@@Z
    ?toBoolean@JSString@JSC@@EBE_NPAVExecState@2@@Z
    ?toInt32SlowCase@JSC@@YAHNAA_N@Z
    ?toNumber@JSCell@JSC@@UBENPAVExecState@2@@Z
    ?toNumber@JSObject@JSC@@UBENPAVExecState@2@@Z
    ?toNumber@JSString@JSC@@EBENPAVExecState@2@@Z
    ?toObject@JSCell@JSC@@UBEPAVJSObject@2@PAVExecState@2@@Z
    ?toObject@JSObject@JSC@@UBEPAV12@PAVExecState@2@@Z
    ?toObject@JSString@JSC@@EBEPAVJSObject@2@PAVExecState@2@@Z
    ?toObjectSlowCase@JSValue@JSC@@ABEPAVJSObject@2@PAVExecState@2@@Z
    ?toPrimitive@JSCell@JSC@@UBE?AVJSValue@2@PAVExecState@2@W4PreferredPrimitiveType@2@@Z
    ?toPrimitive@JSString@JSC@@EBE?AVJSValue@2@PAVExecState@2@W4PreferredPrimitiveType@2@@Z
    ?toStrictUInt32@UString@JSC@@QBEIPA_N@Z
    ?toString@JSCell@JSC@@UBE?AVUString@2@PAVExecState@2@@Z
    ?toString@JSObject@JSC@@UBE?AVUString@2@PAVExecState@2@@Z
    ?toString@JSString@JSC@@EBE?AVUString@2@PAVExecState@2@@Z
    ?toThisJSString@JSCell@JSC@@UAEPAVJSString@2@PAVExecState@2@@Z
    ?toThisJSString@JSString@JSC@@EAEPAV12@PAVExecState@2@@Z
    ?toThisObject@JSCell@JSC@@UBEPAVJSObject@2@PAVExecState@2@@Z
    ?toThisObject@JSObject@JSC@@UBEPAV12@PAVExecState@2@@Z
    ?toThisObject@JSString@JSC@@EBEPAVJSObject@2@PAVExecState@2@@Z
    ?toThisObjectSlowCase@JSValue@JSC@@ABEPAVJSObject@2@PAVExecState@2@@Z
    ?toThisString@JSCell@JSC@@UBE?AVUString@2@PAVExecState@2@@Z
    ?toThisString@JSString@JSC@@EBE?AVUString@2@PAVExecState@2@@Z
    ?toUInt32@UString@JSC@@QBEIPA_N@Z
    ?toUInt32@UString@JSC@@QBEIPA_N_N@Z
    ?toUInt32SlowCase@JSC@@YAINAA_N@Z
    ?tryFastCalloc@WTF@@YA?AUTryMallocReturnValue@1@II@Z
    ?tryFastMalloc@WTF@@YA?AUTryMallocReturnValue@1@I@Z
    ?tryLock@Mutex@WTF@@QAE_NXZ
    ?type@DebuggerCallFrame@JSC@@QBE?AW4Type@12@XZ
    ?unlock@JSLock@JSC@@SAXW4JSLockBehavior@2@@Z
    ?unlock@Mutex@WTF@@QAEXXZ
    ?unlockAtomicallyInitializedStaticMutex@WTF@@YAXXZ
    ?unprotect@Heap@JSC@@QAEXVJSValue@2@@Z
    ?unwrappedObject@JSObject@JSC@@UAEPAV12@XZ
    ?wait@ThreadCondition@WTF@@QAEXAAVMutex@2@@Z
    ?waitForThreadCompletion@WTF@@YAHIPAPAX@Z
    ?writable@PropertyDescriptor@JSC@@QBE_NXZ
    WTFLog
    WTFLogVerbose
    WTFReportArgumentAssertionFailure
    WTFReportAssertionFailure
    WTFReportAssertionFailureWithMessage
    WTFReportError
