Certificate:
    Data:
        Version: 3 (0x2)
        Serial Number: 2 (0x2)
    Signature Algorithm: sha256WithRSAEncryption
        Issuer: CN=768 rsa Test intermediate CA
        Validity
            Not Before: Apr 22 20:28:41 2016 GMT
            Not After : Apr 20 20:28:41 2026 GMT
        Subject: C=US, ST=California, L=Mountain View, O=Test CA, CN=127.0.0.1
        Subject Public Key Info:
            Public Key Algorithm: rsaEncryption
                Public-Key: (1024 bit)
                Modulus:
                    00:df:d6:fb:c9:3c:e5:fd:2a:2a:4c:dd:75:6e:22:
                    c9:12:91:d5:b9:c2:a8:bd:7e:5c:97:90:3f:73:e9:
                    9b:a6:96:91:83:4f:8e:09:5f:b0:ab:13:06:1c:c5:
                    60:f9:1e:fc:c7:e2:69:02:ae:6e:7a:2a:50:3b:26:
                    06:2b:40:91:16:a5:e0:e0:b1:aa:60:54:8c:25:69:
                    58:54:d6:b4:8c:0b:43:41:b0:ca:2f:71:6d:f1:0c:
                    03:8c:84:b0:aa:1c:ac:94:c0:e9:ca:0d:a8:18:9c:
                    e8:fa:84:f1:1a:67:e8:63:ae:d8:7f:06:94:17:11:
                    29:41:62:a2:a5:0c:d0:0c:6d
                Exponent: 65537 (0x10001)
        X509v3 extensions:
            X509v3 Basic Constraints: critical
                CA:FALSE
            X509v3 Subject Key Identifier: 
                02:4E:E8:A0:0B:C1:19:46:8E:1E:C9:9B:D8:AD:92:42:13:62:A3:AF
            X509v3 Authority Key Identifier: 
                keyid:9E:E3:A7:83:B0:59:6F:91:9F:C7:D5:34:61:4A:1A:B3:66:C7:44:A0

            X509v3 Extended Key Usage: 
                TLS Web Server Authentication, TLS Web Client Authentication
            X509v3 Subject Alternative Name: 
                IP Address:127.0.0.1
    Signature Algorithm: sha256WithRSAEncryption
         65:e4:d9:6c:3e:76:68:02:02:8e:88:2c:de:36:11:d3:e0:b6:
         3a:6d:43:a1:d4:97:21:ad:7a:fa:b5:dd:a6:05:39:61:b3:04:
         c2:3c:ea:4a:fb:4e:a2:c5:46:f8:a0:fd:d9:4e:c0:fa:dd:87:
         c3:f8:dc:84:51:a8:72:61:bc:62:35:97:92:84:d1:54:c5:8b:
         9a:e9:5e:72:4c:2c:23:03:ab:c3:32:b4:a2:39:31:d1:4f:67:
         f4:9e:7d:2f:d9:23
-----BEGIN CERTIFICATE-----
MIICXTCCAeegAwIBAgIBAjANBgkqhkiG9w0BAQsFADAnMSUwIwYDVQQDDBw3Njgg
cnNhIFRlc3QgaW50ZXJtZWRpYXRlIENBMB4XDTE2MDQyMjIwMjg0MVoXDTI2MDQy
MDIwMjg0MVowYDELMAkGA1UEBhMCVVMxEzARBgNVBAgMCkNhbGlmb3JuaWExFjAU
BgNVBAcMDU1vdW50YWluIFZpZXcxEDAOBgNVBAoMB1Rlc3QgQ0ExEjAQBgNVBAMM
CTEyNy4wLjAuMTCBnzANBgkqhkiG9w0BAQEFAAOBjQAwgYkCgYEA39b7yTzl/Soq
TN11biLJEpHVucKovX5cl5A/c+mbppaRg0+OCV+wqxMGHMVg+R78x+JpAq5ueipQ
OyYGK0CRFqXg4LGqYFSMJWlYVNa0jAtDQbDKL3Ft8QwDjISwqhyslMDpyg2oGJzo
+oTxGmfoY67YfwaUFxEpQWKipQzQDG0CAwEAAaOBgDB+MAwGA1UdEwEB/wQCMAAw
HQYDVR0OBBYEFAJO6KALwRlGjh7Jm9itkkITYqOvMB8GA1UdIwQYMBaAFJ7jp4Ow
WW+Rn8fVNGFKGrNmx0SgMB0GA1UdJQQWMBQGCCsGAQUFBwMBBggrBgEFBQcDAjAP
BgNVHREECDAGhwR/AAABMA0GCSqGSIb3DQEBCwUAA2EAZeTZbD52aAICjogs3jYR
0+C2Om1DodSXIa16+rXdpgU5YbMEwjzqSvtOosVG+KD92U7A+t2Hw/jchFGocmG8
YjWXkoTRVMWLmuleckwsIwOrwzK0ojkx0U9n9J59L9kj
-----END CERTIFICATE-----
