Certificate:
    Data:
        Version: 3 (0x2)
        Serial Number: 2 (0x2)
    Signature Algorithm: sha256WithRSAEncryption
        Issuer: CN=2048 RSA Test Root CA
        Validity
            Not Before: Apr 22 20:28:41 2016 GMT
            Not After : Apr 20 20:28:41 2026 GMT
        Subject: CN=1024 rsa Test intermediate CA
        Subject Public Key Info:
            Public Key Algorithm: rsaEncryption
                Public-Key: (1024 bit)
                Modulus:
                    00:cf:5f:2c:84:5d:36:f4:64:c4:92:14:fd:35:63:
                    e9:92:ff:93:bd:0d:18:5f:b3:1d:8c:2f:28:8f:f3:
                    2f:8f:a1:4c:f1:1c:e4:15:66:3e:79:e7:aa:39:a0:
                    46:32:4b:69:67:6b:cb:72:aa:90:e3:d0:d1:36:55:
                    c6:b5:49:39:7c:d2:16:97:8b:f2:6c:1b:83:ea:f3:
                    e2:18:6a:06:9f:49:4f:72:fd:4a:b8:42:c5:aa:0a:
                    0d:2c:5c:74:97:d7:ee:4d:fc:3c:bf:1d:3f:ab:16:
                    23:7a:28:32:b8:5d:c8:29:72:55:d5:ea:f1:52:37:
                    f1:9c:a7:6c:f4:6f:3b:79:69
                Exponent: 65537 (0x10001)
        X509v3 extensions:
            X509v3 Basic Constraints: critical
                CA:TRUE
            X509v3 Subject Key Identifier: 
                AB:91:E6:2B:C9:C1:2E:7B:A0:65:F1:D4:8A:CE:03:4D:F4:7A:18:13
            X509v3 Key Usage: critical
                Certificate Sign, CRL Sign
    Signature Algorithm: sha256WithRSAEncryption
         10:3b:22:dc:6a:83:3f:41:ba:27:2c:2a:ba:71:6b:9f:a5:db:
         ad:5b:4f:e9:fc:27:c3:e7:76:8f:8a:39:c6:37:a0:15:c4:d4:
         df:97:d5:af:61:4d:ea:82:59:da:83:a9:5d:7c:91:36:13:c0:
         6c:a8:b0:be:03:35:ef:2b:28:d3:40:fb:03:ba:f5:ff:d2:40:
         64:5d:b6:5d:30:a7:fa:3c:58:60:3f:64:96:bf:8a:b4:a8:06:
         06:e2:3f:86:0e:ea:d7:de:18:64:72:8e:c1:62:1f:a3:d0:fb:
         c5:19:9b:62:0d:ae:61:36:7d:46:15:01:98:00:b2:c7:25:51:
         4d:f5:86:eb:a7:4b:15:4f:16:d2:04:f9:c4:b6:33:7a:9c:1d:
         77:a4:88:72:8d:9b:84:24:e6:9e:d7:e9:56:3e:23:39:74:6d:
         cd:90:2f:d7:83:0d:87:c4:a6:5b:71:bc:bc:a2:55:9d:2d:a9:
         3b:05:ab:ac:82:fb:b9:8c:7d:97:24:97:aa:d9:9f:f9:25:ba:
         4e:90:1f:66:0f:cd:7e:8b:ea:df:73:83:9e:f6:cc:fc:03:47:
         fc:43:cf:d6:a1:51:4e:dd:eb:c4:38:ca:22:b5:b8:75:0f:6d:
         88:9e:03:e3:5e:7f:85:8a:b4:e2:05:43:06:09:10:1e:24:93:
         ae:e6:10:ac
-----BEGIN CERTIFICATE-----
MIICgTCCAWmgAwIBAgIBAjANBgkqhkiG9w0BAQsFADAgMR4wHAYDVQQDDBUyMDQ4
IFJTQSBUZXN0IFJvb3QgQ0EwHhcNMTYwNDIyMjAyODQxWhcNMjYwNDIwMjAyODQx
WjAoMSYwJAYDVQQDDB0xMDI0IHJzYSBUZXN0IGludGVybWVkaWF0ZSBDQTCBnzAN
BgkqhkiG9w0BAQEFAAOBjQAwgYkCgYEAz18shF029GTEkhT9NWPpkv+TvQ0YX7Md
jC8oj/Mvj6FM8RzkFWY+eeeqOaBGMktpZ2vLcqqQ49DRNlXGtUk5fNIWl4vybBuD
6vPiGGoGn0lPcv1KuELFqgoNLFx0l9fuTfw8vx0/qxYjeigyuF3IKXJV1erxUjfx
nKds9G87eWkCAwEAAaNCMEAwDwYDVR0TAQH/BAUwAwEB/zAdBgNVHQ4EFgQUq5Hm
K8nBLnugZfHUis4DTfR6GBMwDgYDVR0PAQH/BAQDAgEGMA0GCSqGSIb3DQEBCwUA
A4IBAQAQOyLcaoM/QbonLCq6cWufpdutW0/p/CfD53aPijnGN6AVxNTfl9WvYU3q
glnag6ldfJE2E8BsqLC+AzXvKyjTQPsDuvX/0kBkXbZdMKf6PFhgP2SWv4q0qAYG
4j+GDurX3hhkco7BYh+j0PvFGZtiDa5hNn1GFQGYALLHJVFN9Ybrp0sVTxbSBPnE
tjN6nB13pIhyjZuEJOae1+lWPiM5dG3NkC/Xgw2HxKZbcby8olWdLak7Bausgvu5
jH2XJJeq2Z/5JbpOkB9mD81+i+rfc4Oe9sz8A0f8Q8/WoVFO3evEOMoitbh1D22I
ngPjXn+FirTiBUMGCRAeJJOu5hCs
-----END CERTIFICATE-----
