Certificate:
    Data:
        Version: 3 (0x2)
        Serial Number: 2 (0x2)
    Signature Algorithm: ecdsa-with-SHA256
        Issuer: CN=prime256v1 ecdsa Test intermediate CA
        Validity
            Not Before: Apr 22 20:28:41 2016 GMT
            Not After : Apr 20 20:28:41 2026 GMT
        Subject: C=US, ST=California, L=Mountain View, O=Test CA, CN=127.0.0.1
        Subject Public Key Info:
            Public Key Algorithm: rsaEncryption
                Public-Key: (1024 bit)
                Modulus:
                    00:d0:22:14:bb:ad:90:dc:97:5c:0a:7e:a0:43:58:
                    30:59:7b:41:33:a9:48:e4:06:c9:dd:5b:0c:3b:4a:
                    2f:75:4a:5d:5b:44:b5:24:e7:ec:36:99:98:e0:56:
                    d2:9d:3f:d4:36:29:2f:87:27:05:3d:73:b9:9d:97:
                    4c:39:79:3e:95:31:bc:e0:12:f3:26:ca:c7:33:86:
                    27:a9:5f:b1:a2:66:25:3c:61:95:0c:8b:c8:03:b0:
                    6a:62:bd:55:f8:07:d0:84:16:75:eb:71:ea:bd:b7:
                    56:b9:14:e0:f2:41:72:92:72:36:4b:7c:23:d4:b5:
                    99:85:cc:34:b8:19:69:1c:69
                Exponent: 65537 (0x10001)
        X509v3 extensions:
            X509v3 Basic Constraints: critical
                CA:FALSE
            X509v3 Subject Key Identifier: 
                44:AD:EF:D9:05:03:83:91:FE:A0:F3:3F:1E:C2:CE:ED:99:FD:78:75
            X509v3 Authority Key Identifier: 
                keyid:0D:6B:B6:D7:DD:7F:CD:4E:AD:06:6B:22:E1:11:08:58:10:AB:16:2A

            X509v3 Extended Key Usage: 
                TLS Web Server Authentication, TLS Web Client Authentication
            X509v3 Subject Alternative Name: 
                IP Address:127.0.0.1
    Signature Algorithm: ecdsa-with-SHA256
         30:44:02:20:56:76:a2:15:cf:3a:d3:54:7c:1b:7d:05:85:ea:
         58:2a:91:02:64:52:63:67:44:c2:ea:b3:74:02:c7:29:1c:ed:
         02:20:77:82:bf:d2:78:24:dc:a3:5a:77:be:5b:05:44:d2:6d:
         f9:d4:78:ac:38:d9:69:8a:90:2c:f2:8f:41:d9:62:ad
-----BEGIN CERTIFICATE-----
MIICRjCCAe2gAwIBAgIBAjAKBggqhkjOPQQDAjAwMS4wLAYDVQQDDCVwcmltZTI1
NnYxIGVjZHNhIFRlc3QgaW50ZXJtZWRpYXRlIENBMB4XDTE2MDQyMjIwMjg0MVoX
DTI2MDQyMDIwMjg0MVowYDELMAkGA1UEBhMCVVMxEzARBgNVBAgMCkNhbGlmb3Ju
aWExFjAUBgNVBAcMDU1vdW50YWluIFZpZXcxEDAOBgNVBAoMB1Rlc3QgQ0ExEjAQ
BgNVBAMMCTEyNy4wLjAuMTCBnzANBgkqhkiG9w0BAQEFAAOBjQAwgYkCgYEA0CIU
u62Q3JdcCn6gQ1gwWXtBM6lI5AbJ3VsMO0ovdUpdW0S1JOfsNpmY4FbSnT/UNikv
hycFPXO5nZdMOXk+lTG84BLzJsrHM4YnqV+xomYlPGGVDIvIA7BqYr1V+AfQhBZ1
63HqvbdWuRTg8kFyknI2S3wj1LWZhcw0uBlpHGkCAwEAAaOBgDB+MAwGA1UdEwEB
/wQCMAAwHQYDVR0OBBYEFESt79kFA4OR/qDzPx7Czu2Z/Xh1MB8GA1UdIwQYMBaA
FA1rttfdf81OrQZrIuERCFgQqxYqMB0GA1UdJQQWMBQGCCsGAQUFBwMBBggrBgEF
BQcDAjAPBgNVHREECDAGhwR/AAABMAoGCCqGSM49BAMCA0cAMEQCIFZ2ohXPOtNU
fBt9BYXqWCqRAmRSY2dEwuqzdALHKRztAiB3gr/SeCTco1p3vlsFRNJt+dR4rDjZ
aYqQLPKPQdlirQ==
-----END CERTIFICATE-----
