Certificate:
    Data:
        Version: 3 (0x2)
        Serial Number: 2 (0x2)
    Signature Algorithm: sha256WithRSAEncryption
        Issuer: CN=1024 rsa Test intermediate CA
        Validity
            Not Before: Apr 22 20:28:41 2016 GMT
            Not After : Apr 20 20:28:41 2026 GMT
        Subject: C=US, ST=California, L=Mountain View, O=Test CA, CN=127.0.0.1
        Subject Public Key Info:
            Public Key Algorithm: rsaEncryption
                Public-Key: (1024 bit)
                Modulus:
                    00:9f:47:a7:c7:70:ba:de:3c:27:a1:38:8c:be:b4:
                    25:fe:9d:68:cd:56:69:96:f3:5c:1b:4a:9e:bd:14:
                    f2:1c:fd:dd:59:ef:1c:9e:52:8a:55:78:ed:63:e1:
                    19:a0:a3:92:bb:30:1a:1e:32:83:06:94:a9:80:e3:
                    54:79:2e:79:4b:05:ba:6e:53:b0:e7:17:20:1f:cb:
                    c3:a4:30:a2:80:e3:9a:ac:8c:80:3f:be:97:24:fd:
                    ad:bd:98:9e:2b:8e:1b:cf:92:2a:02:25:a5:0f:d8:
                    1c:1d:fa:e6:ce:76:75:2c:d1:0c:f1:1c:73:85:1c:
                    9a:bb:cb:73:fa:95:bd:98:e3
                Exponent: 65537 (0x10001)
        X509v3 extensions:
            X509v3 Basic Constraints: critical
                CA:FALSE
            X509v3 Subject Key Identifier: 
                4F:B4:7F:BD:2E:4A:D8:3A:50:56:3A:5B:24:8A:28:DB:E3:BD:59:FF
            X509v3 Authority Key Identifier: 
                keyid:AB:91:E6:2B:C9:C1:2E:7B:A0:65:F1:D4:8A:CE:03:4D:F4:7A:18:13

            X509v3 Extended Key Usage: 
                TLS Web Server Authentication, TLS Web Client Authentication
            X509v3 Subject Alternative Name: 
                IP Address:127.0.0.1
    Signature Algorithm: sha256WithRSAEncryption
         6e:db:0b:81:ea:0e:a3:bc:55:ba:09:f8:ec:b6:1e:b0:97:d6:
         53:b2:6b:44:b5:4e:d0:84:86:d1:37:5e:f6:24:28:8d:bf:f4:
         03:9e:e2:d2:9f:6d:19:17:97:51:c5:fe:f2:b8:95:67:bb:49:
         4d:d6:6e:0e:6e:9c:40:81:68:c1:44:fb:c3:30:13:e6:91:73:
         6e:09:a7:27:c8:7b:33:68:d4:ed:b2:81:33:21:63:a9:4f:25:
         05:2f:d5:20:d5:58:3c:6a:af:27:59:8e:ab:c7:b9:c9:89:d7:
         cb:94:bd:ba:34:0d:e3:0a:68:1c:c2:d0:1d:b4:d0:8b:89:39:
         4b:a4
-----BEGIN CERTIFICATE-----
MIICfzCCAeigAwIBAgIBAjANBgkqhkiG9w0BAQsFADAoMSYwJAYDVQQDDB0xMDI0
IHJzYSBUZXN0IGludGVybWVkaWF0ZSBDQTAeFw0xNjA0MjIyMDI4NDFaFw0yNjA0
MjAyMDI4NDFaMGAxCzAJBgNVBAYTAlVTMRMwEQYDVQQIDApDYWxpZm9ybmlhMRYw
FAYDVQQHDA1Nb3VudGFpbiBWaWV3MRAwDgYDVQQKDAdUZXN0IENBMRIwEAYDVQQD
DAkxMjcuMC4wLjEwgZ8wDQYJKoZIhvcNAQEBBQADgY0AMIGJAoGBAJ9Hp8dwut48
J6E4jL60Jf6daM1WaZbzXBtKnr0U8hz93VnvHJ5SilV47WPhGaCjkrswGh4ygwaU
qYDjVHkueUsFum5TsOcXIB/Lw6QwooDjmqyMgD++lyT9rb2YniuOG8+SKgIlpQ/Y
HB365s52dSzRDPEcc4UcmrvLc/qVvZjjAgMBAAGjgYAwfjAMBgNVHRMBAf8EAjAA
MB0GA1UdDgQWBBRPtH+9LkrYOlBWOlskiijb471Z/zAfBgNVHSMEGDAWgBSrkeYr
ycEue6Bl8dSKzgNN9HoYEzAdBgNVHSUEFjAUBggrBgEFBQcDAQYIKwYBBQUHAwIw
DwYDVR0RBAgwBocEfwAAATANBgkqhkiG9w0BAQsFAAOBgQBu2wuB6g6jvFW6Cfjs
th6wl9ZTsmtEtU7QhIbRN172JCiNv/QDnuLSn20ZF5dRxf7yuJVnu0lN1m4ObpxA
gWjBRPvDMBPmkXNuCacnyHszaNTtsoEzIWOpTyUFL9Ug1Vg8aq8nWY6rx7nJidfL
lL26NA3jCmgcwtAdtNCLiTlLpA==
-----END CERTIFICATE-----
