Certificate:
    Data:
        Version: 3 (0x2)
        Serial Number: 2 (0x2)
    Signature Algorithm: sha256WithRSAEncryption
        Issuer: CN=2048 rsa Test intermediate CA
        Validity
            Not Before: Apr 22 20:28:41 2016 GMT
            Not After : Apr 20 20:28:41 2026 GMT
        Subject: C=US, ST=California, L=Mountain View, O=Test CA, CN=127.0.0.1
        Subject Public Key Info:
            Public Key Algorithm: rsaEncryption
                Public-Key: (1024 bit)
                Modulus:
                    00:e3:7f:ce:bc:d2:a2:33:36:a5:0b:f1:a3:08:f9:
                    7d:82:62:0d:ad:f3:63:a7:49:50:ea:7b:eb:24:b6:
                    9e:0e:8f:9a:63:87:fd:81:cb:17:65:30:f8:8a:27:
                    59:dd:7b:f2:55:dc:1d:f1:ad:c6:33:ae:eb:d7:4e:
                    57:47:0c:91:fb:3a:fe:85:13:14:d7:fb:b6:9e:68:
                    15:d6:38:0e:3b:9e:51:ed:b9:7c:4d:4a:56:24:46:
                    5a:13:f4:df:3a:16:91:b0:70:c4:dc:86:22:a7:f7:
                    91:b6:93:35:f4:33:21:7c:eb:f4:90:e4:56:9c:20:
                    c6:02:6a:93:5d:a2:30:b0:77
                Exponent: 65537 (0x10001)
        X509v3 extensions:
            X509v3 Basic Constraints: critical
                CA:FALSE
            X509v3 Subject Key Identifier: 
                F1:0B:57:46:80:DA:DF:AE:5F:99:7C:8E:C3:FA:3E:DC:4D:3D:75:6D
            X509v3 Authority Key Identifier: 
                keyid:5C:C2:71:76:C1:26:B1:0C:31:73:C8:92:D3:1E:01:12:4B:CC:5A:14

            X509v3 Extended Key Usage: 
                TLS Web Server Authentication, TLS Web Client Authentication
            X509v3 Subject Alternative Name: 
                IP Address:127.0.0.1
    Signature Algorithm: sha256WithRSAEncryption
         6e:bf:10:0e:c0:2e:0c:7d:b6:4c:ed:e7:72:a4:2c:0d:07:e6:
         d1:00:79:17:a0:5e:00:5e:94:54:10:2b:ba:94:b9:8e:f9:a5:
         fa:6a:37:86:bd:b4:5b:47:b1:e7:8b:7a:86:2f:68:ad:af:db:
         71:bb:60:21:e4:69:19:72:26:90:61:48:d4:62:bf:e1:c0:45:
         96:29:f8:1c:c7:11:7d:d4:15:90:fb:7e:5f:56:5c:c4:6c:eb:
         3a:0f:82:fd:d4:d1:cc:42:b1:e9:fc:63:d4:ea:fb:52:0e:3d:
         54:a1:34:9a:73:66:f9:e7:3b:ca:6e:16:89:31:2a:ec:84:21:
         ca:e8:4b:02:e8:90:d6:e0:1f:d1:4c:3e:1e:e1:d7:0a:1f:dd:
         f3:32:b5:7e:c1:97:5c:ce:d7:8b:e1:1e:90:65:76:44:dd:59:
         8c:2b:67:6f:f0:2e:ee:79:f2:69:6a:75:81:03:85:24:de:d7:
         9f:12:28:e7:77:f4:49:cb:3a:9f:ec:3c:12:ac:d3:6c:71:31:
         e7:32:4e:1f:94:1e:cc:0f:7a:02:5e:ce:94:c5:a9:e0:96:94:
         50:05:ac:df:3b:57:c5:0d:96:5a:b5:14:43:be:31:60:ef:b6:
         ad:ec:a6:75:20:80:8b:8f:14:d9:6c:96:73:ca:05:10:3f:d5:
         be:30:ae:37
-----BEGIN CERTIFICATE-----
MIIDADCCAeigAwIBAgIBAjANBgkqhkiG9w0BAQsFADAoMSYwJAYDVQQDDB0yMDQ4
IHJzYSBUZXN0IGludGVybWVkaWF0ZSBDQTAeFw0xNjA0MjIyMDI4NDFaFw0yNjA0
MjAyMDI4NDFaMGAxCzAJBgNVBAYTAlVTMRMwEQYDVQQIDApDYWxpZm9ybmlhMRYw
FAYDVQQHDA1Nb3VudGFpbiBWaWV3MRAwDgYDVQQKDAdUZXN0IENBMRIwEAYDVQQD
DAkxMjcuMC4wLjEwgZ8wDQYJKoZIhvcNAQEBBQADgY0AMIGJAoGBAON/zrzSojM2
pQvxowj5fYJiDa3zY6dJUOp76yS2ng6PmmOH/YHLF2Uw+IonWd178lXcHfGtxjOu
69dOV0cMkfs6/oUTFNf7tp5oFdY4DjueUe25fE1KViRGWhP03zoWkbBwxNyGIqf3
kbaTNfQzIXzr9JDkVpwgxgJqk12iMLB3AgMBAAGjgYAwfjAMBgNVHRMBAf8EAjAA
MB0GA1UdDgQWBBTxC1dGgNrfrl+ZfI7D+j7cTT11bTAfBgNVHSMEGDAWgBRcwnF2
wSaxDDFzyJLTHgESS8xaFDAdBgNVHSUEFjAUBggrBgEFBQcDAQYIKwYBBQUHAwIw
DwYDVR0RBAgwBocEfwAAATANBgkqhkiG9w0BAQsFAAOCAQEAbr8QDsAuDH22TO3n
cqQsDQfm0QB5F6BeAF6UVBArupS5jvml+mo3hr20W0ex54t6hi9ora/bcbtgIeRp
GXImkGFI1GK/4cBFlin4HMcRfdQVkPt+X1ZcxGzrOg+C/dTRzEKx6fxj1Or7Ug49
VKE0mnNm+ec7ym4WiTEq7IQhyuhLAuiQ1uAf0Uw+HuHXCh/d8zK1fsGXXM7Xi+Ee
kGV2RN1ZjCtnb/Au7nnyaWp1gQOFJN7XnxIo53f0Scs6n+w8EqzTbHEx5zJOH5Qe
zA96Al7OlMWp4JaUUAWs3ztXxQ2WWrUUQ74xYO+2reymdSCAi48U2WyWc8oFED/V
vjCuNw==
-----END CERTIFICATE-----
