Certificate:
    Data:
        Version: 3 (0x2)
        Serial Number: 3 (0x3)
    Signature Algorithm: sha256WithRSAEncryption
        Issuer: CN=768 rsa Test intermediate CA
        Validity
            Not Before: Apr 22 20:28:41 2016 GMT
            Not After : Apr 20 20:28:41 2026 GMT
        Subject: C=US, ST=California, L=Mountain View, O=Test CA, CN=127.0.0.1
        Subject Public Key Info:
            Public Key Algorithm: rsaEncryption
                Public-Key: (2048 bit)
                Modulus:
                    00:ba:3a:68:2e:28:8c:de:30:76:83:38:b6:db:fc:
                    25:57:b3:f7:7d:49:63:3d:5a:0f:e4:d7:0a:d7:73:
                    62:2c:a7:1e:4b:a3:f6:82:d7:68:b0:77:83:f7:77:
                    1d:21:16:cf:86:8a:d3:ee:05:e8:85:0b:63:49:f5:
                    72:aa:80:00:43:36:12:6c:c2:31:07:e5:b8:d8:83:
                    4b:a7:ff:8a:06:58:c2:00:06:6b:b1:1e:b6:05:ae:
                    02:8a:0b:71:5a:37:70:70:10:7a:3a:fe:20:e6:6a:
                    24:fc:a5:93:78:fd:1d:26:bc:68:25:4a:19:41:9d:
                    33:bb:65:c1:71:aa:b5:0a:cf:44:7a:88:66:2b:98:
                    d4:30:bd:dc:13:81:fe:c1:6e:04:38:d5:6c:cf:68:
                    68:fc:d9:16:0d:7a:4d:4b:df:60:2b:af:87:33:48:
                    6a:8a:11:f9:d8:a2:75:a8:d7:96:19:a2:68:3e:70:
                    2b:4b:b8:32:a0:f1:6d:91:11:ea:1c:de:43:bb:b6:
                    7b:ad:c5:bb:c2:76:9e:c2:39:60:fe:0b:c2:45:51:
                    5e:8f:15:10:9f:31:d6:41:18:37:3f:55:99:81:7c:
                    2b:49:f9:bd:b2:28:b5:fd:f2:88:11:2f:ba:83:2f:
                    44:55:14:94:f7:15:36:4c:c4:57:9f:8e:b9:52:d1:
                    28:8f
                Exponent: 65537 (0x10001)
        X509v3 extensions:
            X509v3 Basic Constraints: critical
                CA:FALSE
            X509v3 Subject Key Identifier: 
                2D:03:2A:82:88:41:B4:78:09:AD:65:4D:E4:95:80:A0:48:F7:06:45
            X509v3 Authority Key Identifier: 
                keyid:9E:E3:A7:83:B0:59:6F:91:9F:C7:D5:34:61:4A:1A:B3:66:C7:44:A0

            X509v3 Extended Key Usage: 
                TLS Web Server Authentication, TLS Web Client Authentication
            X509v3 Subject Alternative Name: 
                IP Address:127.0.0.1
    Signature Algorithm: sha256WithRSAEncryption
         89:8c:20:d3:4b:32:9a:6b:de:02:e8:73:5d:90:5c:1f:63:80:
         65:7e:08:9e:af:05:b0:41:d3:d9:44:5c:10:c4:4c:c9:93:d0:
         ce:55:da:1a:06:30:0a:d3:ff:42:87:2d:83:98:e4:64:68:5b:
         5b:b5:df:2e:4f:1c:b8:7a:85:a9:3e:38:a8:b0:9a:fc:87:ec:
         97:27:43:ff:35:0f:13:9f:84:22:a0:27:a7:d4:9a:df:f6:b5:
         b2:76:d3:71:02:f0
-----BEGIN CERTIFICATE-----
MIIC4TCCAmugAwIBAgIBAzANBgkqhkiG9w0BAQsFADAnMSUwIwYDVQQDDBw3Njgg
cnNhIFRlc3QgaW50ZXJtZWRpYXRlIENBMB4XDTE2MDQyMjIwMjg0MVoXDTI2MDQy
MDIwMjg0MVowYDELMAkGA1UEBhMCVVMxEzARBgNVBAgMCkNhbGlmb3JuaWExFjAU
BgNVBAcMDU1vdW50YWluIFZpZXcxEDAOBgNVBAoMB1Rlc3QgQ0ExEjAQBgNVBAMM
CTEyNy4wLjAuMTCCASIwDQYJKoZIhvcNAQEBBQADggEPADCCAQoCggEBALo6aC4o
jN4wdoM4ttv8JVez931JYz1aD+TXCtdzYiynHkuj9oLXaLB3g/d3HSEWz4aK0+4F
6IULY0n1cqqAAEM2EmzCMQfluNiDS6f/igZYwgAGa7EetgWuAooLcVo3cHAQejr+
IOZqJPylk3j9HSa8aCVKGUGdM7tlwXGqtQrPRHqIZiuY1DC93BOB/sFuBDjVbM9o
aPzZFg16TUvfYCuvhzNIaooR+diidajXlhmiaD5wK0u4MqDxbZER6hzeQ7u2e63F
u8J2nsI5YP4LwkVRXo8VEJ8x1kEYNz9VmYF8K0n5vbIotf3yiBEvuoMvRFUUlPcV
NkzEV5+OuVLRKI8CAwEAAaOBgDB+MAwGA1UdEwEB/wQCMAAwHQYDVR0OBBYEFC0D
KoKIQbR4Ca1lTeSVgKBI9wZFMB8GA1UdIwQYMBaAFJ7jp4OwWW+Rn8fVNGFKGrNm
x0SgMB0GA1UdJQQWMBQGCCsGAQUFBwMBBggrBgEFBQcDAjAPBgNVHREECDAGhwR/
AAABMA0GCSqGSIb3DQEBCwUAA2EAiYwg00symmveAuhzXZBcH2OAZX4Inq8FsEHT
2URcEMRMyZPQzlXaGgYwCtP/Qoctg5jkZGhbW7XfLk8cuHqFqT44qLCa/IfslydD
/zUPE5+EIqAnp9Sa3/a1snbTcQLw
-----END CERTIFICATE-----
