Certificate:
    Data:
        Version: 3 (0x2)
        Serial Number: 3 (0x3)
    Signature Algorithm: sha256WithRSAEncryption
        Issuer: CN=2048 rsa Test intermediate CA
        Validity
            Not Before: Apr 22 20:28:41 2016 GMT
            Not After : Apr 20 20:28:41 2026 GMT
        Subject: C=US, ST=California, L=Mountain View, O=Test CA, CN=127.0.0.1
        Subject Public Key Info:
            Public Key Algorithm: rsaEncryption
                Public-Key: (2048 bit)
                Modulus:
                    00:b4:72:22:05:11:c8:e7:3b:0d:1a:c2:7d:ce:14:
                    07:8f:89:df:ea:29:77:b5:55:dc:eb:69:23:46:81:
                    fc:9f:8f:8b:ad:a1:f8:3b:a2:55:1e:d8:8d:ef:81:
                    fd:5d:ae:2e:9c:bb:69:e4:78:80:4a:9b:52:83:e7:
                    4c:d0:32:f2:13:c8:ca:bc:71:4b:46:75:a7:b1:a1:
                    aa:f3:0e:1c:06:3a:27:0e:2e:3c:43:7d:38:e7:4f:
                    03:bf:2b:a1:e3:60:31:bc:ff:31:88:d7:dc:83:8d:
                    e7:3d:18:5e:b1:10:7f:fe:43:b6:83:c6:c4:3a:56:
                    d0:f4:26:86:17:47:99:a0:4f:85:05:4e:5c:a5:66:
                    42:4c:14:28:57:ff:d3:04:d9:2b:88:aa:5a:05:99:
                    90:e7:50:af:4f:92:00:36:34:47:85:d0:82:63:80:
                    2e:1a:bf:c4:9f:6b:23:3b:b4:2b:23:7f:bf:09:31:
                    da:23:06:0c:ab:73:e1:8d:38:a7:64:0d:1c:ef:18:
                    ed:33:3b:8c:48:e7:ef:67:3d:08:cc:66:27:80:1c:
                    67:12:a2:a0:ec:fa:3f:84:d7:9b:60:73:fe:cb:6d:
                    73:c6:fc:f7:4c:75:50:3e:d9:9a:c4:9a:41:c5:af:
                    c9:1c:d3:a1:b6:02:1f:61:cf:59:21:de:bb:92:3b:
                    dc:ab
                Exponent: 65537 (0x10001)
        X509v3 extensions:
            X509v3 Basic Constraints: critical
                CA:FALSE
            X509v3 Subject Key Identifier: 
                22:2C:2F:EC:CC:84:35:E7:25:3D:64:7C:7D:31:75:BD:B5:B1:B3:2A
            X509v3 Authority Key Identifier: 
                keyid:5C:C2:71:76:C1:26:B1:0C:31:73:C8:92:D3:1E:01:12:4B:CC:5A:14

            X509v3 Extended Key Usage: 
                TLS Web Server Authentication, TLS Web Client Authentication
            X509v3 Subject Alternative Name: 
                IP Address:127.0.0.1
    Signature Algorithm: sha256WithRSAEncryption
         b3:02:f9:ad:d2:ce:96:da:ae:ab:a5:f7:08:0f:c1:53:78:6a:
         da:c1:2c:5b:97:df:ce:59:cb:98:a6:5a:a9:24:02:58:b8:c1:
         a5:72:a6:e5:8e:25:2b:9b:09:c6:97:f8:2b:ed:1f:70:e5:e2:
         7b:f7:8d:42:0b:cb:8d:1b:d7:85:7c:ec:14:ac:27:6a:69:7c:
         d7:e0:4c:af:8f:1a:47:0b:e1:fb:34:8c:dc:09:30:a6:ff:01:
         92:43:51:71:e2:a7:3b:55:ff:55:a3:a7:df:28:ef:d7:86:36:
         e1:8d:c9:5e:69:e7:54:85:9c:09:cc:c6:66:64:b4:41:e9:1d:
         2d:7c:f2:91:dc:16:1b:f8:e6:b5:8d:14:1c:be:89:6f:da:85:
         b0:fd:15:d5:a1:d4:21:1d:0f:b5:7e:91:84:68:ab:4d:ff:90:
         b1:f0:ca:dc:6c:41:a7:f6:7d:3e:f5:e8:1f:24:78:ad:79:ce:
         03:69:bd:81:e3:d9:c8:8e:48:93:6a:24:7d:57:46:f4:6d:54:
         69:45:5a:86:8e:91:20:1f:e5:64:0d:f6:f4:b2:d2:df:c8:6d:
         1c:cb:f0:e5:65:b0:3d:cd:56:66:66:ce:d6:0d:5b:09:99:5e:
         34:58:6e:81:c7:fd:55:c8:c1:19:e8:cd:bd:df:74:1d:2a:96:
         5a:d9:27:4d
-----BEGIN CERTIFICATE-----
MIIDhDCCAmygAwIBAgIBAzANBgkqhkiG9w0BAQsFADAoMSYwJAYDVQQDDB0yMDQ4
IHJzYSBUZXN0IGludGVybWVkaWF0ZSBDQTAeFw0xNjA0MjIyMDI4NDFaFw0yNjA0
MjAyMDI4NDFaMGAxCzAJBgNVBAYTAlVTMRMwEQYDVQQIDApDYWxpZm9ybmlhMRYw
FAYDVQQHDA1Nb3VudGFpbiBWaWV3MRAwDgYDVQQKDAdUZXN0IENBMRIwEAYDVQQD
DAkxMjcuMC4wLjEwggEiMA0GCSqGSIb3DQEBAQUAA4IBDwAwggEKAoIBAQC0ciIF
EcjnOw0awn3OFAePid/qKXe1VdzraSNGgfyfj4utofg7olUe2I3vgf1dri6cu2nk
eIBKm1KD50zQMvITyMq8cUtGdaexoarzDhwGOicOLjxDfTjnTwO/K6HjYDG8/zGI
19yDjec9GF6xEH/+Q7aDxsQ6VtD0JoYXR5mgT4UFTlylZkJMFChX/9ME2SuIqloF
mZDnUK9PkgA2NEeF0IJjgC4av8SfayM7tCsjf78JMdojBgyrc+GNOKdkDRzvGO0z
O4xI5+9nPQjMZieAHGcSoqDs+j+E15tgc/7LbXPG/PdMdVA+2ZrEmkHFr8kc06G2
Ah9hz1kh3ruSO9yrAgMBAAGjgYAwfjAMBgNVHRMBAf8EAjAAMB0GA1UdDgQWBBQi
LC/szIQ15yU9ZHx9MXW9tbGzKjAfBgNVHSMEGDAWgBRcwnF2wSaxDDFzyJLTHgES
S8xaFDAdBgNVHSUEFjAUBggrBgEFBQcDAQYIKwYBBQUHAwIwDwYDVR0RBAgwBocE
fwAAATANBgkqhkiG9w0BAQsFAAOCAQEAswL5rdLOltquq6X3CA/BU3hq2sEsW5ff
zlnLmKZaqSQCWLjBpXKm5Y4lK5sJxpf4K+0fcOXie/eNQgvLjRvXhXzsFKwnaml8
1+BMr48aRwvh+zSM3Akwpv8BkkNRceKnO1X/VaOn3yjv14Y24Y3JXmnnVIWcCczG
ZmS0QekdLXzykdwWG/jmtY0UHL6Jb9qFsP0V1aHUIR0PtX6RhGirTf+QsfDK3GxB
p/Z9PvXoHyR4rXnOA2m9gePZyI5Ik2okfVdG9G1UaUVaho6RIB/lZA329LLS38ht
HMvw5WWwPc1WZmbO1g1bCZleNFhugcf9VcjBGejNvd90HSqWWtknTQ==
-----END CERTIFICATE-----
