Certificate:
    Data:
        Version: 3 (0x2)
        Serial Number: 3 (0x3)
    Signature Algorithm: sha256WithRSAEncryption
        Issuer: CN=1024 rsa Test intermediate CA
        Validity
            Not Before: Apr 22 20:28:41 2016 GMT
            Not After : Apr 20 20:28:41 2026 GMT
        Subject: C=US, ST=California, L=Mountain View, O=Test CA, CN=127.0.0.1
        Subject Public Key Info:
            Public Key Algorithm: rsaEncryption
                Public-Key: (2048 bit)
                Modulus:
                    00:d6:a4:94:54:db:41:d7:ce:11:35:61:ec:32:eb:
                    6b:d7:17:92:f3:30:4c:43:67:f6:d1:7a:06:6c:7c:
                    15:79:35:78:38:ac:5e:4d:87:b7:34:cb:99:f8:4f:
                    15:f9:68:38:48:de:2e:dc:1e:67:82:f9:b6:f2:82:
                    bc:13:68:8f:14:fa:11:45:db:f6:fb:43:14:59:c3:
                    16:e2:df:02:8a:a0:d3:9c:52:05:ff:1c:d1:2a:ab:
                    e2:bd:a3:f6:6b:1c:cd:e1:2c:97:7b:7c:d1:21:7e:
                    f1:0b:1c:39:4d:2f:63:fc:ae:f3:4a:8a:a1:04:67:
                    9b:3c:bd:2d:4d:05:41:d9:16:6f:54:21:56:4c:d3:
                    57:70:8b:4f:ad:68:96:f2:cb:84:81:c5:b1:e9:91:
                    5d:22:64:d7:1c:37:b9:f7:ee:52:66:3a:51:5f:80:
                    e1:22:74:04:3f:6a:8b:c4:e5:be:f0:4e:26:96:44:
                    e9:e8:62:3a:86:4b:60:b7:31:a6:85:11:b8:6d:e6:
                    14:3f:1e:ac:6c:7a:2a:64:12:e0:39:64:e3:c8:73:
                    4b:9b:3d:a3:11:71:8b:c0:9d:2e:43:f2:6b:1f:4c:
                    51:fb:8d:e7:25:a3:7b:9b:cb:4d:25:9b:d6:b3:44:
                    36:1c:85:9a:d0:7b:82:73:a5:12:03:1c:0a:0c:72:
                    5e:e3
                Exponent: 65537 (0x10001)
        X509v3 extensions:
            X509v3 Basic Constraints: critical
                CA:FALSE
            X509v3 Subject Key Identifier: 
                36:3E:3F:89:C5:E9:92:06:AE:84:D9:26:55:01:41:CC:51:2F:AF:D2
            X509v3 Authority Key Identifier: 
                keyid:AB:91:E6:2B:C9:C1:2E:7B:A0:65:F1:D4:8A:CE:03:4D:F4:7A:18:13

            X509v3 Extended Key Usage: 
                TLS Web Server Authentication, TLS Web Client Authentication
            X509v3 Subject Alternative Name: 
                IP Address:127.0.0.1
    Signature Algorithm: sha256WithRSAEncryption
         1f:19:60:43:08:f6:5f:a8:4a:b3:22:3f:5a:b7:d9:50:e9:18:
         3e:3e:f4:a4:84:43:63:61:92:8d:47:c4:6b:6b:a8:2e:c7:72:
         e8:9b:35:5f:28:88:02:23:ff:e3:69:3e:c7:e4:b5:f8:e2:fd:
         8e:c4:2c:79:c3:d2:51:d6:83:75:d0:85:29:5a:68:0f:32:3d:
         be:bb:06:9b:8b:ab:2a:61:44:f3:da:65:4c:ba:0d:c7:fa:52:
         7d:5b:70:44:b6:e4:84:78:bd:9f:ae:25:d3:b9:1f:4f:86:4d:
         74:2d:cf:1d:80:dc:7b:c1:a1:91:d7:1e:1a:a5:01:59:e3:2a:
         35:8a
-----BEGIN CERTIFICATE-----
MIIDAzCCAmygAwIBAgIBAzANBgkqhkiG9w0BAQsFADAoMSYwJAYDVQQDDB0xMDI0
IHJzYSBUZXN0IGludGVybWVkaWF0ZSBDQTAeFw0xNjA0MjIyMDI4NDFaFw0yNjA0
MjAyMDI4NDFaMGAxCzAJBgNVBAYTAlVTMRMwEQYDVQQIDApDYWxpZm9ybmlhMRYw
FAYDVQQHDA1Nb3VudGFpbiBWaWV3MRAwDgYDVQQKDAdUZXN0IENBMRIwEAYDVQQD
DAkxMjcuMC4wLjEwggEiMA0GCSqGSIb3DQEBAQUAA4IBDwAwggEKAoIBAQDWpJRU
20HXzhE1Yewy62vXF5LzMExDZ/bRegZsfBV5NXg4rF5Nh7c0y5n4TxX5aDhI3i7c
HmeC+bbygrwTaI8U+hFF2/b7QxRZwxbi3wKKoNOcUgX/HNEqq+K9o/ZrHM3hLJd7
fNEhfvELHDlNL2P8rvNKiqEEZ5s8vS1NBUHZFm9UIVZM01dwi0+taJbyy4SBxbHp
kV0iZNccN7n37lJmOlFfgOEidAQ/aovE5b7wTiaWROnoYjqGS2C3MaaFEbht5hQ/
HqxseipkEuA5ZOPIc0ubPaMRcYvAnS5D8msfTFH7jeclo3uby00lm9azRDYchZrQ
e4JzpRIDHAoMcl7jAgMBAAGjgYAwfjAMBgNVHRMBAf8EAjAAMB0GA1UdDgQWBBQ2
Pj+JxemSBq6E2SZVAUHMUS+v0jAfBgNVHSMEGDAWgBSrkeYrycEue6Bl8dSKzgNN
9HoYEzAdBgNVHSUEFjAUBggrBgEFBQcDAQYIKwYBBQUHAwIwDwYDVR0RBAgwBocE
fwAAATANBgkqhkiG9w0BAQsFAAOBgQAfGWBDCPZfqEqzIj9at9lQ6Rg+PvSkhENj
YZKNR8Rra6gux3LomzVfKIgCI//jaT7H5LX44v2OxCx5w9JR1oN10IUpWmgPMj2+
uwabi6sqYUTz2mVMug3H+lJ9W3BEtuSEeL2friXTuR9Phk10Lc8dgNx7waGR1x4a
pQFZ4yo1ig==
-----END CERTIFICATE-----
