Certificate:
    Data:
        Version: 3 (0x2)
        Serial Number: 3 (0x3)
    Signature Algorithm: sha256WithRSAEncryption
        Issuer: CN=2048 RSA Test Root CA
        Validity
            Not Before: Apr 22 20:28:41 2016 GMT
            Not After : Apr 20 20:28:41 2026 GMT
        Subject: CN=2048 rsa Test intermediate CA
        Subject Public Key Info:
            Public Key Algorithm: rsaEncryption
                Public-Key: (2048 bit)
                Modulus:
                    00:c2:7e:77:f6:cb:2f:92:95:d0:ee:f8:6e:01:9c:
                    60:80:9c:49:fc:44:ff:d4:86:11:9a:18:4c:ce:d4:
                    43:93:80:6a:f5:f3:a7:d6:88:a4:31:19:56:e1:17:
                    06:dc:ed:6f:7b:12:cf:2e:77:f1:fc:44:a7:46:86:
                    58:76:2c:86:e5:1f:8f:3c:60:cf:04:14:b5:58:04:
                    64:81:9e:9c:36:97:0e:a1:ad:fd:a0:58:80:c0:b7:
                    8e:49:16:d3:2e:9c:51:01:5a:13:0a:88:c5:35:b1:
                    2d:1f:11:fd:b2:b4:ce:b6:b3:90:c8:8e:5d:2e:45:
                    ed:71:09:80:2e:99:76:f7:92:91:a8:ca:82:96:97:
                    85:8a:ea:d6:9b:ac:36:a9:6a:52:9d:f3:28:b4:3c:
                    ff:22:75:fc:ad:3b:fc:6b:ee:9b:25:52:ec:63:6f:
                    ce:eb:64:6d:3f:39:ab:76:bf:76:b1:df:80:eb:28:
                    c5:b4:c8:cf:9a:2c:2a:76:c9:15:75:24:6a:fb:bf:
                    4d:43:38:d8:ca:0d:12:64:7c:84:99:82:4c:ff:15:
                    3b:e9:ef:d6:47:b4:99:93:c5:cb:47:45:df:a7:d5:
                    f9:c5:b9:d1:ec:e4:4e:bd:13:89:3b:2f:36:32:ff:
                    0d:ed:a7:b3:88:ca:63:5b:57:58:9e:88:d6:97:6f:
                    1b:13
                Exponent: 65537 (0x10001)
        X509v3 extensions:
            X509v3 Basic Constraints: critical
                CA:TRUE
            X509v3 Subject Key Identifier: 
                5C:C2:71:76:C1:26:B1:0C:31:73:C8:92:D3:1E:01:12:4B:CC:5A:14
            X509v3 Key Usage: critical
                Certificate Sign, CRL Sign
    Signature Algorithm: sha256WithRSAEncryption
         6c:e3:16:4f:09:81:d2:61:e3:c1:39:35:9d:f3:1e:2c:4f:77:
         40:26:e7:24:83:55:89:60:3d:6c:65:d4:9e:47:99:5f:09:ea:
         1a:1a:16:59:8d:82:85:c8:e5:52:cc:e2:89:b1:3f:d7:e2:51:
         43:5f:d1:ab:bc:5c:0d:22:c7:85:7f:95:db:a1:55:ee:7d:98:
         c9:41:ee:8b:69:c0:e6:8c:29:3d:fb:d1:66:1f:5a:79:2d:6a:
         0e:6f:9d:84:60:56:3e:1f:7e:0a:b2:40:af:97:1d:a8:dd:92:
         d8:b9:57:ee:62:98:f9:f1:0f:32:3c:a0:bd:30:6d:cf:b7:7b:
         17:83:fe:e8:09:7d:ca:a7:13:61:de:47:55:a5:d0:0d:0c:73:
         75:8a:34:e3:91:19:1f:e7:09:07:2b:8d:67:5c:1a:bf:83:9f:
         d3:ca:dd:c5:28:3f:1e:0a:6b:7d:eb:da:60:bb:9a:6c:a2:30:
         8d:f7:3a:01:56:ba:9e:e1:5b:7a:bb:8d:ba:ff:3c:67:a7:b0:
         8c:09:42:52:03:ea:33:ff:e9:c4:c0:4f:7b:ad:48:26:f0:f1:
         11:a8:ba:1d:30:6e:9b:6e:31:b7:70:8a:5d:e7:37:21:c4:f3:
         38:96:8e:60:fb:19:d3:92:63:b8:8f:14:41:25:fb:62:29:34:
         11:c5:a0:a2
-----BEGIN CERTIFICATE-----
MIIDBTCCAe2gAwIBAgIBAzANBgkqhkiG9w0BAQsFADAgMR4wHAYDVQQDDBUyMDQ4
IFJTQSBUZXN0IFJvb3QgQ0EwHhcNMTYwNDIyMjAyODQxWhcNMjYwNDIwMjAyODQx
WjAoMSYwJAYDVQQDDB0yMDQ4IHJzYSBUZXN0IGludGVybWVkaWF0ZSBDQTCCASIw
DQYJKoZIhvcNAQEBBQADggEPADCCAQoCggEBAMJ+d/bLL5KV0O74bgGcYICcSfxE
/9SGEZoYTM7UQ5OAavXzp9aIpDEZVuEXBtztb3sSzy538fxEp0aGWHYshuUfjzxg
zwQUtVgEZIGenDaXDqGt/aBYgMC3jkkW0y6cUQFaEwqIxTWxLR8R/bK0zrazkMiO
XS5F7XEJgC6ZdveSkajKgpaXhYrq1pusNqlqUp3zKLQ8/yJ1/K07/GvumyVS7GNv
zutkbT85q3a/drHfgOsoxbTIz5osKnbJFXUkavu/TUM42MoNEmR8hJmCTP8VO+nv
1ke0mZPFy0dF36fV+cW50ezkTr0TiTsvNjL/De2ns4jKY1tXWJ6I1pdvGxMCAwEA
AaNCMEAwDwYDVR0TAQH/BAUwAwEB/zAdBgNVHQ4EFgQUXMJxdsEmsQwxc8iS0x4B
EkvMWhQwDgYDVR0PAQH/BAQDAgEGMA0GCSqGSIb3DQEBCwUAA4IBAQBs4xZPCYHS
YePBOTWd8x4sT3dAJuckg1WJYD1sZdSeR5lfCeoaGhZZjYKFyOVSzOKJsT/X4lFD
X9GrvFwNIseFf5XboVXufZjJQe6LacDmjCk9+9FmH1p5LWoOb52EYFY+H34KskCv
lx2o3ZLYuVfuYpj58Q8yPKC9MG3Pt3sXg/7oCX3KpxNh3kdVpdANDHN1ijTjkRkf
5wkHK41nXBq/g5/Tyt3FKD8eCmt969pgu5psojCN9zoBVrqe4Vt6u426/zxnp7CM
CUJSA+oz/+nEwE97rUgm8PERqLodMG6bbjG3cIpd5zchxPM4lo5g+xnTkmO4jxRB
JftiKTQRxaCi
-----END CERTIFICATE-----
