Certificate:
    Data:
        Version: 3 (0x2)
        Serial Number: 14510385134211580431 (0xc95f3e6676ca420f)
    Signature Algorithm: sha256WithRSAEncryption
        Issuer: CN=2048 RSA Test Root CA
        Validity
            Not Before: Apr 22 20:28:40 2016 GMT
            Not After : Apr 20 20:28:40 2026 GMT
        Subject: CN=2048 RSA Test Root CA
        Subject Public Key Info:
            Public Key Algorithm: rsaEncryption
                Public-Key: (2048 bit)
                Modulus:
                    00:a0:0b:c9:40:3e:46:2d:4d:a1:38:35:9d:68:a5:
                    9d:3e:8f:59:39:ba:8f:a5:42:74:7d:e8:17:3b:da:
                    75:13:98:6b:73:f1:4b:a9:6d:5e:70:67:5c:7a:08:
                    92:58:b2:64:a1:05:2d:53:41:bd:ab:a8:31:73:d4:
                    56:07:ab:68:b9:39:39:52:65:6a:d7:1e:16:38:16:
                    c5:12:3c:f0:2a:50:59:43:31:4a:d0:fa:51:13:17:
                    2a:89:84:42:91:1b:50:19:e8:ce:33:d8:a9:0a:ea:
                    c1:9a:00:9e:c1:14:58:40:51:a4:20:50:1b:a1:93:
                    b2:20:82:fe:80:b5:52:35:e7:e6:0b:72:b6:f5:a9:
                    39:67:67:45:4b:be:c6:c0:2a:cd:b7:ef:77:2d:14:
                    c8:98:a5:8d:24:32:ed:db:1e:e4:6c:95:ee:a5:f0:
                    ca:39:c2:df:dd:1c:8e:9f:cb:9c:c1:00:9c:ef:48:
                    09:97:a6:5a:d8:a8:3d:b9:15:95:35:6a:10:bf:40:
                    58:0e:4a:f4:d8:9a:8a:4f:3e:ee:48:4a:fe:5f:f6:
                    68:e2:75:3e:5a:32:73:c7:97:e7:0c:25:6f:a3:7d:
                    db:08:3d:b4:d3:5d:2f:49:e7:59:1f:5a:b9:7e:dc:
                    cb:e4:97:44:60:a1:d1:6b:2d:3c:79:1c:9f:b8:7b:
                    6a:1b
                Exponent: 65537 (0x10001)
        X509v3 extensions:
            X509v3 Basic Constraints: critical
                CA:TRUE
            X509v3 Subject Key Identifier: 
                FD:5B:72:5F:28:F3:AB:A1:0F:21:EF:C3:F9:99:17:60:DC:BD:1F:BD
            X509v3 Key Usage: critical
                Certificate Sign, CRL Sign
    Signature Algorithm: sha256WithRSAEncryption
         54:78:5d:70:a0:c3:44:48:93:2b:af:9e:41:26:b0:3e:7d:c7:
         f0:ae:b1:37:d0:93:33:33:30:a6:d0:8c:20:cd:fe:fd:8b:1b:
         bf:1d:72:25:fd:56:11:56:63:c0:3c:b3:6b:db:db:65:28:4f:
         6a:19:0b:2d:7c:1d:f1:46:50:14:9d:33:2e:75:dd:a7:45:15:
         44:54:61:6e:96:8f:a2:c4:60:8d:4e:49:08:07:32:d2:a9:c3:
         c8:68:96:b2:50:85:3b:c2:4a:f9:e4:16:87:16:ea:47:4e:00:
         50:43:4d:78:99:c7:aa:ea:23:2a:b8:b8:7a:97:de:ba:97:8d:
         e7:4b:74:e4:ed:53:5e:d1:5b:ed:5a:e2:95:a3:94:ad:d8:c4:
         b1:62:25:29:93:8b:77:27:8f:71:51:64:b7:56:d5:33:82:5e:
         6f:39:56:cf:14:fd:1f:e2:46:9d:dd:2f:74:53:f1:27:87:f7:
         fe:b0:6c:47:db:ff:fa:7b:17:97:a8:b9:ba:07:1e:dc:b5:47:
         de:84:38:57:a4:47:6c:39:16:7f:1f:dd:63:99:1b:e1:28:90:
         aa:42:07:2c:b2:e7:be:ef:8c:ca:a5:1e:33:5c:e5:73:cf:ba:
         b3:33:d1:06:fb:c4:fa:f2:bc:f1:5c:92:69:fb:71:15:05:e3:
         99:a6:ba:cb
-----BEGIN CERTIFICATE-----
MIIDBTCCAe2gAwIBAgIJAMlfPmZ2ykIPMA0GCSqGSIb3DQEBCwUAMCAxHjAcBgNV
BAMMFTIwNDggUlNBIFRlc3QgUm9vdCBDQTAeFw0xNjA0MjIyMDI4NDBaFw0yNjA0
MjAyMDI4NDBaMCAxHjAcBgNVBAMMFTIwNDggUlNBIFRlc3QgUm9vdCBDQTCCASIw
DQYJKoZIhvcNAQEBBQADggEPADCCAQoCggEBAKALyUA+Ri1NoTg1nWilnT6PWTm6
j6VCdH3oFzvadROYa3PxS6ltXnBnXHoIkliyZKEFLVNBvauoMXPUVgeraLk5OVJl
atceFjgWxRI88CpQWUMxStD6URMXKomEQpEbUBnozjPYqQrqwZoAnsEUWEBRpCBQ
G6GTsiCC/oC1UjXn5gtytvWpOWdnRUu+xsAqzbfvdy0UyJiljSQy7dse5GyV7qXw
yjnC390cjp/LnMEAnO9ICZemWtioPbkVlTVqEL9AWA5K9Niaik8+7khK/l/2aOJ1
Ployc8eX5wwlb6N92wg9tNNdL0nnWR9auX7cy+SXRGCh0WstPHkcn7h7ahsCAwEA
AaNCMEAwDwYDVR0TAQH/BAUwAwEB/zAdBgNVHQ4EFgQU/VtyXyjzq6EPIe/D+ZkX
YNy9H70wDgYDVR0PAQH/BAQDAgEGMA0GCSqGSIb3DQEBCwUAA4IBAQBUeF1woMNE
SJMrr55BJrA+fcfwrrE30JMzMzCm0Iwgzf79ixu/HXIl/VYRVmPAPLNr29tlKE9q
GQstfB3xRlAUnTMudd2nRRVEVGFulo+ixGCNTkkIBzLSqcPIaJayUIU7wkr55BaH
FupHTgBQQ014mceq6iMquLh6l966l43nS3Tk7VNe0VvtWuKVo5St2MSxYiUpk4t3
J49xUWS3VtUzgl5vOVbPFP0f4kad3S90U/Enh/f+sGxH2//6exeXqLm6Bx7ctUfe
hDhXpEdsORZ/H91jmRvhKJCqQgcssue+74zKpR4zXOVzz7qzM9EG+8T68rzxXJJp
+3EVBeOZprrL
-----END CERTIFICATE-----
