Certificate:
    Data:
        Version: 3 (0x2)
        Serial Number: 1 (0x1)
    Signature Algorithm: sha256WithRSAEncryption
        Issuer: CN=768 rsa Test intermediate CA
        Validity
            Not Before: Apr 22 20:28:41 2016 GMT
            Not After : Apr 20 20:28:41 2026 GMT
        Subject: C=US, ST=California, L=Mountain View, O=Test CA, CN=127.0.0.1
        Subject Public Key Info:
            Public Key Algorithm: rsaEncryption
                Public-Key: (768 bit)
                Modulus:
                    00:b8:74:88:ef:f9:04:6b:00:fc:af:a5:c7:f2:10:
                    0d:be:09:a7:f7:07:4a:a9:08:6d:99:84:84:41:c4:
                    cc:85:18:a2:c2:2c:ab:91:79:ed:05:42:e7:d2:8c:
                    b6:2e:19:80:b2:13:4e:fb:eb:8b:96:58:82:0d:02:
                    c5:9a:0f:54:f5:d5:61:04:6f:f2:8c:e3:48:b6:b6:
                    c1:28:43:60:0a:5b:ae:fb:8c:82:ca:ae:8a:51:b4:
                    58:58:44:84:92:ea:63
                Exponent: 65537 (0x10001)
        X509v3 extensions:
            X509v3 Basic Constraints: critical
                CA:FALSE
            X509v3 Subject Key Identifier: 
                D4:57:45:F6:6C:FA:DE:15:8B:2A:A1:D2:B1:2B:3F:5C:D3:8E:FA:3A
            X509v3 Authority Key Identifier: 
                keyid:9E:E3:A7:83:B0:59:6F:91:9F:C7:D5:34:61:4A:1A:B3:66:C7:44:A0

            X509v3 Extended Key Usage: 
                TLS Web Server Authentication, TLS Web Client Authentication
            X509v3 Subject Alternative Name: 
                IP Address:127.0.0.1
    Signature Algorithm: sha256WithRSAEncryption
         c5:bc:64:9f:b6:c6:f5:d6:e8:cf:46:7b:bc:52:ae:6b:54:97:
         ce:05:8d:94:81:a9:cb:4f:8d:9e:45:43:22:0a:54:8a:8f:eb:
         97:10:cf:c1:44:22:b7:e8:e0:a8:d2:ab:1c:be:eb:b8:b2:b1:
         36:10:62:d8:a4:4e:db:3b:1c:d3:0e:b2:03:ae:34:04:54:f0:
         ea:2f:0b:e8:45:1d:14:af:8f:be:53:fd:9c:b4:32:92:2f:4a:
         d3:3e:53:e1:c1:fc
-----BEGIN CERTIFICATE-----
MIICOTCCAcOgAwIBAgIBATANBgkqhkiG9w0BAQsFADAnMSUwIwYDVQQDDBw3Njgg
cnNhIFRlc3QgaW50ZXJtZWRpYXRlIENBMB4XDTE2MDQyMjIwMjg0MVoXDTI2MDQy
MDIwMjg0MVowYDELMAkGA1UEBhMCVVMxEzARBgNVBAgMCkNhbGlmb3JuaWExFjAU
BgNVBAcMDU1vdW50YWluIFZpZXcxEDAOBgNVBAoMB1Rlc3QgQ0ExEjAQBgNVBAMM
CTEyNy4wLjAuMTB8MA0GCSqGSIb3DQEBAQUAA2sAMGgCYQC4dIjv+QRrAPyvpcfy
EA2+Caf3B0qpCG2ZhIRBxMyFGKLCLKuRee0FQufSjLYuGYCyE07764uWWIINAsWa
D1T11WEEb/KM40i2tsEoQ2AKW677jILKropRtFhYRISS6mMCAwEAAaOBgDB+MAwG
A1UdEwEB/wQCMAAwHQYDVR0OBBYEFNRXRfZs+t4Viyqh0rErP1zTjvo6MB8GA1Ud
IwQYMBaAFJ7jp4OwWW+Rn8fVNGFKGrNmx0SgMB0GA1UdJQQWMBQGCCsGAQUFBwMB
BggrBgEFBQcDAjAPBgNVHREECDAGhwR/AAABMA0GCSqGSIb3DQEBCwUAA2EAxbxk
n7bG9dboz0Z7vFKua1SXzgWNlIGpy0+NnkVDIgpUio/rlxDPwUQit+jgqNKrHL7r
uLKxNhBi2KRO2zsc0w6yA640BFTw6i8L6EUdFK+PvlP9nLQyki9K0z5T4cH8
-----END CERTIFICATE-----
