Certificate:
    Data:
        Version: 3 (0x2)
        Serial Number: 1 (0x1)
    Signature Algorithm: ecdsa-with-SHA256
        Issuer: CN=prime256v1 ecdsa Test intermediate CA
        Validity
            Not Before: Apr 22 20:28:41 2016 GMT
            Not After : Apr 20 20:28:41 2026 GMT
        Subject: C=US, ST=California, L=Mountain View, O=Test CA, CN=127.0.0.1
        Subject Public Key Info:
            Public Key Algorithm: rsaEncryption
                Public-Key: (768 bit)
                Modulus:
                    00:c4:7b:c8:e7:66:93:0b:ef:8d:13:38:7a:cb:2b:
                    d3:c5:6a:69:06:c6:66:fd:ed:f3:ae:38:ef:4f:81:
                    84:79:08:93:6d:65:c3:ce:dc:17:23:7c:19:31:ea:
                    97:ef:54:d7:46:2d:9c:f1:da:94:eb:5b:7b:98:eb:
                    ed:51:b8:a9:5e:50:6e:d6:2e:48:25:de:5f:26:6b:
                    dd:a5:a5:99:8c:af:15:a8:db:a7:9e:32:ba:c6:2c:
                    17:52:59:27:29:67:6d
                Exponent: 65537 (0x10001)
        X509v3 extensions:
            X509v3 Basic Constraints: critical
                CA:FALSE
            X509v3 Subject Key Identifier: 
                36:C8:ED:4D:53:9C:76:E1:7D:E1:84:A4:DA:DF:AD:6D:68:D0:B3:86
            X509v3 Authority Key Identifier: 
                keyid:0D:6B:B6:D7:DD:7F:CD:4E:AD:06:6B:22:E1:11:08:58:10:AB:16:2A

            X509v3 Extended Key Usage: 
                TLS Web Server Authentication, TLS Web Client Authentication
            X509v3 Subject Alternative Name: 
                IP Address:127.0.0.1
    Signature Algorithm: ecdsa-with-SHA256
         30:45:02:20:12:3c:ec:48:76:df:9f:27:f2:73:60:05:9d:c0:
         24:0d:16:5e:33:43:bb:69:58:4b:c4:1c:0a:7a:e9:44:91:e8:
         02:21:00:f5:98:73:6a:f3:93:47:a8:89:99:d4:61:41:37:d6:
         09:e8:4f:a9:e3:72:eb:b4:0a:75:d7:c5:35:5b:8f:90:19
-----BEGIN CERTIFICATE-----
MIICIzCCAcmgAwIBAgIBATAKBggqhkjOPQQDAjAwMS4wLAYDVQQDDCVwcmltZTI1
NnYxIGVjZHNhIFRlc3QgaW50ZXJtZWRpYXRlIENBMB4XDTE2MDQyMjIwMjg0MVoX
DTI2MDQyMDIwMjg0MVowYDELMAkGA1UEBhMCVVMxEzARBgNVBAgMCkNhbGlmb3Ju
aWExFjAUBgNVBAcMDU1vdW50YWluIFZpZXcxEDAOBgNVBAoMB1Rlc3QgQ0ExEjAQ
BgNVBAMMCTEyNy4wLjAuMTB8MA0GCSqGSIb3DQEBAQUAA2sAMGgCYQDEe8jnZpML
740TOHrLK9PFamkGxmb97fOuOO9PgYR5CJNtZcPO3BcjfBkx6pfvVNdGLZzx2pTr
W3uY6+1RuKleUG7WLkgl3l8ma92lpZmMrxWo26eeMrrGLBdSWScpZ20CAwEAAaOB
gDB+MAwGA1UdEwEB/wQCMAAwHQYDVR0OBBYEFDbI7U1TnHbhfeGEpNrfrW1o0LOG
MB8GA1UdIwQYMBaAFA1rttfdf81OrQZrIuERCFgQqxYqMB0GA1UdJQQWMBQGCCsG
AQUFBwMBBggrBgEFBQcDAjAPBgNVHREECDAGhwR/AAABMAoGCCqGSM49BAMCA0gA
MEUCIBI87Eh2358n8nNgBZ3AJA0WXjNDu2lYS8QcCnrpRJHoAiEA9ZhzavOTR6iJ
mdRhQTfWCehPqeNy67QKddfFNVuPkBk=
-----END CERTIFICATE-----
