Certificate:
    Data:
        Version: 3 (0x2)
        Serial Number: 1 (0x1)
    Signature Algorithm: sha256WithRSAEncryption
        Issuer: CN=1024 rsa Test intermediate CA
        Validity
            Not Before: Apr 22 20:28:41 2016 GMT
            Not After : Apr 20 20:28:41 2026 GMT
        Subject: C=US, ST=California, L=Mountain View, O=Test CA, CN=127.0.0.1
        Subject Public Key Info:
            Public Key Algorithm: rsaEncryption
                Public-Key: (768 bit)
                Modulus:
                    00:a0:a2:fc:c2:cd:0e:5f:d9:64:7d:c9:6e:26:bc:
                    04:5f:cb:c4:fb:01:66:5d:76:82:4b:60:11:12:0f:
                    44:b4:e8:1e:41:86:df:63:22:34:1c:4f:da:80:40:
                    51:fb:9d:a0:77:1e:af:dd:dd:dc:36:e4:67:d9:2f:
                    45:56:48:38:58:d8:df:59:21:c6:64:01:eb:7a:e3:
                    4f:ce:cc:e3:fe:53:98:12:86:c6:76:d1:c2:fb:06:
                    0e:0c:b0:80:d1:c6:bf
                Exponent: 65537 (0x10001)
        X509v3 extensions:
            X509v3 Basic Constraints: critical
                CA:FALSE
            X509v3 Subject Key Identifier: 
                85:06:8C:BA:66:3C:B8:5C:2D:85:7B:B2:22:A5:73:48:0F:1B:B7:55
            X509v3 Authority Key Identifier: 
                keyid:AB:91:E6:2B:C9:C1:2E:7B:A0:65:F1:D4:8A:CE:03:4D:F4:7A:18:13

            X509v3 Extended Key Usage: 
                TLS Web Server Authentication, TLS Web Client Authentication
            X509v3 Subject Alternative Name: 
                IP Address:127.0.0.1
    Signature Algorithm: sha256WithRSAEncryption
         4b:ce:06:5e:cf:bb:09:25:5f:43:b4:9d:08:f5:0e:85:99:d7:
         b9:d7:c0:51:3e:8e:d2:ad:66:41:6a:a1:c1:cf:f4:0b:de:3c:
         9b:00:58:7a:7f:da:3f:18:8c:68:c3:35:29:42:94:31:2c:03:
         a9:88:33:2b:cf:8b:5a:1e:36:8e:a9:ad:30:1f:14:2e:3a:81:
         eb:c2:48:97:e4:8e:4c:63:8f:51:c2:12:4c:5b:17:bd:b5:18:
         26:d2:92:35:06:bb:3a:40:1b:b2:3a:35:a5:21:77:15:b4:2a:
         a6:89:9f:54:7c:73:21:f0:e0:ab:44:46:e6:c2:0a:ed:c8:22:
         79:ad
-----BEGIN CERTIFICATE-----
MIICWzCCAcSgAwIBAgIBATANBgkqhkiG9w0BAQsFADAoMSYwJAYDVQQDDB0xMDI0
IHJzYSBUZXN0IGludGVybWVkaWF0ZSBDQTAeFw0xNjA0MjIyMDI4NDFaFw0yNjA0
MjAyMDI4NDFaMGAxCzAJBgNVBAYTAlVTMRMwEQYDVQQIDApDYWxpZm9ybmlhMRYw
FAYDVQQHDA1Nb3VudGFpbiBWaWV3MRAwDgYDVQQKDAdUZXN0IENBMRIwEAYDVQQD
DAkxMjcuMC4wLjEwfDANBgkqhkiG9w0BAQEFAANrADBoAmEAoKL8ws0OX9lkfclu
JrwEX8vE+wFmXXaCS2AREg9EtOgeQYbfYyI0HE/agEBR+52gdx6v3d3cNuRn2S9F
Vkg4WNjfWSHGZAHreuNPzszj/lOYEobGdtHC+wYODLCA0ca/AgMBAAGjgYAwfjAM
BgNVHRMBAf8EAjAAMB0GA1UdDgQWBBSFBoy6Zjy4XC2Fe7IipXNIDxu3VTAfBgNV
HSMEGDAWgBSrkeYrycEue6Bl8dSKzgNN9HoYEzAdBgNVHSUEFjAUBggrBgEFBQcD
AQYIKwYBBQUHAwIwDwYDVR0RBAgwBocEfwAAATANBgkqhkiG9w0BAQsFAAOBgQBL
zgZez7sJJV9DtJ0I9Q6Fmde518BRPo7SrWZBaqHBz/QL3jybAFh6f9o/GIxowzUp
QpQxLAOpiDMrz4taHjaOqa0wHxQuOoHrwkiX5I5MY49RwhJMWxe9tRgm0pI1Brs6
QBuyOjWlIXcVtCqmiZ9UfHMh8OCrREbmwgrtyCJ5rQ==
-----END CERTIFICATE-----
