Certificate:
    Data:
        Version: 3 (0x2)
        Serial Number: 1 (0x1)
    Signature Algorithm: sha256WithRSAEncryption
        Issuer: CN=2048 rsa Test intermediate CA
        Validity
            Not Before: Apr 22 20:28:41 2016 GMT
            Not After : Apr 20 20:28:41 2026 GMT
        Subject: C=US, ST=California, L=Mountain View, O=Test CA, CN=127.0.0.1
        Subject Public Key Info:
            Public Key Algorithm: rsaEncryption
                Public-Key: (768 bit)
                Modulus:
                    00:c3:4d:cf:b1:46:75:00:21:75:d4:6b:10:dd:a8:
                    51:9e:90:ea:3a:5f:58:b5:23:a4:d9:30:bc:cb:08:
                    31:bc:2d:88:64:37:56:67:f8:4b:c5:0f:9f:49:11:
                    bd:d7:c1:9e:07:46:cb:3b:fa:70:7a:7d:6f:51:3c:
                    10:81:33:f8:59:98:ed:81:1c:5a:bd:6b:ee:71:97:
                    c8:0f:c7:a7:9a:d5:e0:3c:fb:ee:3a:0c:7f:69:63:
                    61:cf:e2:de:44:b1:d7
                Exponent: 65537 (0x10001)
        X509v3 extensions:
            X509v3 Basic Constraints: critical
                CA:FALSE
            X509v3 Subject Key Identifier: 
                9B:F2:E7:0F:32:A4:54:B7:06:99:EC:CF:8B:5F:E1:BE:E7:09:32:8C
            X509v3 Authority Key Identifier: 
                keyid:5C:C2:71:76:C1:26:B1:0C:31:73:C8:92:D3:1E:01:12:4B:CC:5A:14

            X509v3 Extended Key Usage: 
                TLS Web Server Authentication, TLS Web Client Authentication
            X509v3 Subject Alternative Name: 
                IP Address:127.0.0.1
    Signature Algorithm: sha256WithRSAEncryption
         4f:8d:a9:be:61:eb:90:8f:59:29:fe:15:40:1d:2d:27:0b:74:
         84:c0:0b:d6:c0:2a:23:bb:ed:4f:4d:8e:fa:f9:3e:8c:6d:c0:
         ba:41:0c:b0:77:c8:eb:b5:72:ac:3e:42:07:f2:a5:8e:98:81:
         82:91:d2:80:63:5c:32:fb:4c:45:8f:70:d2:52:07:26:9a:3f:
         28:40:10:4d:71:28:eb:78:03:d1:ed:1e:14:c4:fd:74:49:4a:
         37:ad:59:e6:29:ef:bc:ae:8a:e1:8d:24:7c:34:7b:63:d4:53:
         6f:68:f7:08:b3:fe:d3:a1:05:d6:44:d2:37:fe:98:83:3d:15:
         70:a7:c6:d2:05:ea:72:21:eb:46:3f:3a:d8:6f:0e:7d:7d:75:
         fc:ad:59:7c:28:d3:98:4b:ae:7b:d5:2e:b9:9c:ab:c5:ca:98:
         13:bd:1a:0d:63:9c:74:a6:f1:2e:16:2d:ba:b6:71:3e:22:6f:
         b5:b9:e4:63:c4:c3:98:1d:31:76:ef:18:48:52:16:d1:8a:89:
         5f:a6:25:d6:c0:58:05:0d:57:6d:fa:03:54:87:ae:3f:d5:f0:
         a0:a2:30:e1:67:da:09:5c:8b:43:14:6a:b8:31:43:c9:7f:1f:
         7b:73:3e:52:b2:d5:a7:cf:ce:ea:e8:88:ea:4c:0c:d3:41:7c:
         c2:66:d6:3c
-----BEGIN CERTIFICATE-----
MIIC3DCCAcSgAwIBAgIBATANBgkqhkiG9w0BAQsFADAoMSYwJAYDVQQDDB0yMDQ4
IHJzYSBUZXN0IGludGVybWVkaWF0ZSBDQTAeFw0xNjA0MjIyMDI4NDFaFw0yNjA0
MjAyMDI4NDFaMGAxCzAJBgNVBAYTAlVTMRMwEQYDVQQIDApDYWxpZm9ybmlhMRYw
FAYDVQQHDA1Nb3VudGFpbiBWaWV3MRAwDgYDVQQKDAdUZXN0IENBMRIwEAYDVQQD
DAkxMjcuMC4wLjEwfDANBgkqhkiG9w0BAQEFAANrADBoAmEAw03PsUZ1ACF11GsQ
3ahRnpDqOl9YtSOk2TC8ywgxvC2IZDdWZ/hLxQ+fSRG918GeB0bLO/pwen1vUTwQ
gTP4WZjtgRxavWvucZfID8enmtXgPPvuOgx/aWNhz+LeRLHXAgMBAAGjgYAwfjAM
BgNVHRMBAf8EAjAAMB0GA1UdDgQWBBSb8ucPMqRUtwaZ7M+LX+G+5wkyjDAfBgNV
HSMEGDAWgBRcwnF2wSaxDDFzyJLTHgESS8xaFDAdBgNVHSUEFjAUBggrBgEFBQcD
AQYIKwYBBQUHAwIwDwYDVR0RBAgwBocEfwAAATANBgkqhkiG9w0BAQsFAAOCAQEA
T42pvmHrkI9ZKf4VQB0tJwt0hMAL1sAqI7vtT02O+vk+jG3AukEMsHfI67VyrD5C
B/KljpiBgpHSgGNcMvtMRY9w0lIHJpo/KEAQTXEo63gD0e0eFMT9dElKN61Z5inv
vK6K4Y0kfDR7Y9RTb2j3CLP+06EF1kTSN/6Ygz0VcKfG0gXqciHrRj862G8OfX11
/K1ZfCjTmEuue9UuuZyrxcqYE70aDWOcdKbxLhYturZxPiJvtbnkY8TDmB0xdu8Y
SFIW0YqJX6Yl1sBYBQ1XbfoDVIeuP9XwoKIw4WfaCVyLQxRquDFDyX8fe3M+UrLV
p8/O6uiI6kwM00F8wmbWPA==
-----END CERTIFICATE-----
