Certificate:
    Data:
        Version: 3 (0x2)
        Serial Number: 1 (0x1)
    Signature Algorithm: sha256WithRSAEncryption
        Issuer: CN=2048 RSA Test Root CA
        Validity
            Not Before: Apr 22 20:28:41 2016 GMT
            Not After : Apr 20 20:28:41 2026 GMT
        Subject: CN=768 rsa Test intermediate CA
        Subject Public Key Info:
            Public Key Algorithm: rsaEncryption
                Public-Key: (768 bit)
                Modulus:
                    00:c6:10:85:d9:ce:e4:cf:8a:1c:1e:51:62:dc:5e:
                    f4:0f:7a:25:67:90:e5:45:12:29:55:b0:b7:c0:b0:
                    1b:37:33:02:5d:17:eb:44:bb:43:23:5f:c9:06:86:
                    3f:e6:b1:71:76:0b:e1:42:0f:ac:98:e3:12:2a:b4:
                    15:34:b8:dd:e8:2a:35:3f:62:d0:af:54:b7:e8:e5:
                    3d:70:f9:fd:61:68:60:52:7b:15:b3:c5:17:75:0c:
                    a3:bb:df:b7:ca:8e:09
                Exponent: 65537 (0x10001)
        X509v3 extensions:
            X509v3 Basic Constraints: critical
                CA:TRUE
            X509v3 Subject Key Identifier: 
                9E:E3:A7:83:B0:59:6F:91:9F:C7:D5:34:61:4A:1A:B3:66:C7:44:A0
            X509v3 Key Usage: critical
                Certificate Sign, CRL Sign
    Signature Algorithm: sha256WithRSAEncryption
         29:62:c0:b7:c7:f2:25:3e:62:fe:ca:3d:46:40:25:ad:df:43:
         0d:4f:ee:7f:15:e7:ab:12:45:34:8a:e4:32:a7:4a:33:b8:ab:
         36:06:69:c5:4f:5a:29:05:5f:aa:11:61:16:cd:ba:18:b0:3c:
         e5:0b:b7:75:07:b0:8d:46:01:19:2f:18:e1:91:f6:94:45:05:
         8b:ce:18:b1:b0:5b:19:fa:57:f2:ea:24:f7:6e:75:af:2b:4d:
         7c:c2:d0:2e:46:74:b9:de:fe:4a:b0:dd:29:74:ba:27:c9:45:
         01:55:65:d4:5b:61:b3:ce:95:8d:7c:73:84:21:50:20:b1:ac:
         98:0b:d7:c8:61:82:f1:d7:86:6c:cb:da:b4:ef:92:3e:83:90:
         c4:5e:f3:1a:23:e3:8f:1e:75:d6:58:66:10:05:3c:9b:22:47:
         01:36:8e:4f:62:19:66:f2:ed:9c:50:f0:28:78:f5:21:ea:b1:
         6a:d7:7e:d8:24:4e:5e:be:51:3a:8d:1c:b3:d0:97:d0:a6:0a:
         db:fa:19:0a:b4:ed:bd:22:d0:3f:91:f0:e8:4a:12:82:d1:6d:
         44:1a:26:ed:2e:aa:af:55:64:c9:bf:d3:0a:81:c2:34:54:5d:
         32:05:50:50:ea:fe:d8:52:04:5f:08:17:b2:f1:d6:90:87:15:
         e0:c6:7c:c1
-----BEGIN CERTIFICATE-----
MIICXDCCAUSgAwIBAgIBATANBgkqhkiG9w0BAQsFADAgMR4wHAYDVQQDDBUyMDQ4
IFJTQSBUZXN0IFJvb3QgQ0EwHhcNMTYwNDIyMjAyODQxWhcNMjYwNDIwMjAyODQx
WjAnMSUwIwYDVQQDDBw3NjggcnNhIFRlc3QgaW50ZXJtZWRpYXRlIENBMHwwDQYJ
KoZIhvcNAQEBBQADawAwaAJhAMYQhdnO5M+KHB5RYtxe9A96JWeQ5UUSKVWwt8Cw
GzczAl0X60S7QyNfyQaGP+axcXYL4UIPrJjjEiq0FTS43egqNT9i0K9Ut+jlPXD5
/WFoYFJ7FbPFF3UMo7vft8qOCQIDAQABo0IwQDAPBgNVHRMBAf8EBTADAQH/MB0G
A1UdDgQWBBSe46eDsFlvkZ/H1TRhShqzZsdEoDAOBgNVHQ8BAf8EBAMCAQYwDQYJ
KoZIhvcNAQELBQADggEBACliwLfH8iU+Yv7KPUZAJa3fQw1P7n8V56sSRTSK5DKn
SjO4qzYGacVPWikFX6oRYRbNuhiwPOULt3UHsI1GARkvGOGR9pRFBYvOGLGwWxn6
V/LqJPduda8rTXzC0C5GdLne/kqw3Sl0uifJRQFVZdRbYbPOlY18c4QhUCCxrJgL
18hhgvHXhmzL2rTvkj6DkMRe8xoj448eddZYZhAFPJsiRwE2jk9iGWby7ZxQ8Ch4
9SHqsWrXftgkTl6+UTqNHLPQl9CmCtv6GQq07b0i0D+R8OhKEoLRbUQaJu0uqq9V
ZMm/0wqBwjRUXTIFUFDq/thSBF8IF7Lx1pCHFeDGfME=
-----END CERTIFICATE-----
