Certificate:
    Data:
        Version: 3 (0x2)
        Serial Number: 1 (0x1)
    Signature Algorithm: sha256WithRSAEncryption
        Issuer: CN=Test Dup-Hash Root CA
        Validity
            Not Before: Mar 31 04:22:42 2015 GMT
            Not After : Mar 28 04:22:42 2025 GMT
        Subject: C=US, ST=California, L=Mountain View, O=Test CA, CN=127.0.0.1
        Subject Public Key Info:
            Public Key Algorithm: rsaEncryption
                Public-Key: (2048 bit)
                Modulus:
                    00:b2:98:4c:42:b8:4a:63:4e:e0:2d:ec:eb:57:b1:
                    88:9f:c4:13:f0:7f:41:0f:c8:39:b3:1e:63:6b:67:
                    4c:e7:07:8e:f5:a4:62:b0:4b:dd:75:5d:50:16:54:
                    fe:e5:ae:b1:76:aa:ba:c4:f3:55:79:b3:b4:fc:59:
                    23:b3:09:2e:e8:ac:eb:cd:16:6f:c9:5b:88:c4:d0:
                    94:29:05:0f:1b:68:cf:cd:80:b9:45:c7:37:4b:84:
                    ff:e5:a8:49:8d:5d:2f:59:ae:f6:ee:bb:5a:94:7b:
                    3b:25:62:c4:3f:ab:8b:9e:58:af:31:ca:9e:26:9a:
                    03:20:87:7b:c2:42:19:65:86:d8:7a:b3:dd:91:57:
                    f5:d2:4e:d4:20:2b:1d:ce:cb:25:e5:45:6e:e1:35:
                    12:7b:bb:d7:23:c2:e9:a6:cf:f6:32:73:cf:e0:5b:
                    75:73:6f:74:b5:7e:87:ce:98:ab:e8:b9:05:f6:f1:
                    6c:94:26:62:f3:8c:cf:e1:ba:17:fc:a9:e4:fb:2f:
                    1f:8f:ce:91:be:72:ba:e3:d0:a6:44:2e:89:7e:92:
                    15:eb:c2:2d:a2:13:0a:83:6b:6c:09:3a:9c:9c:68:
                    63:6b:16:7f:a3:d0:07:f9:8b:c3:bf:43:37:8d:70:
                    bc:a9:cf:a4:0d:c4:72:a1:c6:6b:b9:a9:bd:a9:8f:
                    43:67
                Exponent: 65537 (0x10001)
        X509v3 extensions:
            X509v3 Basic Constraints: critical
                CA:FALSE
            X509v3 Subject Key Identifier: 
                78:F8:09:99:91:78:5B:B0:8B:60:B2:C7:41:B1:0C:26:29:0F:ED:91
            X509v3 Authority Key Identifier: 
                keyid:C2:03:2C:7F:26:8E:42:C0:C9:99:2A:10:75:E6:13:94:12:60:48:E1

            X509v3 Extended Key Usage: 
                TLS Web Server Authentication, TLS Web Client Authentication
            X509v3 Subject Alternative Name: 
                IP Address:127.0.0.1
    Signature Algorithm: sha256WithRSAEncryption
         9c:6a:25:23:9f:10:dd:14:9c:37:d4:71:dd:86:d0:0b:5b:d7:
         d0:2c:fc:a6:ec:c1:7a:aa:86:a4:87:ac:a3:5a:a7:a6:9c:8a:
         57:3d:2a:60:ca:2e:47:47:ce:12:30:1e:59:d5:e7:be:9f:be:
         89:44:8c:2e:ad:2a:62:da:07:13:84:d7:4f:a5:f8:fe:07:51:
         3a:32:6b:28:98:cf:1c:90:6d:26:64:d7:98:e5:c8:0b:03:91:
         3b:48:60:93:5f:67:b0:7a:08:93:b7:37:f9:56:e4:06:4d:fd:
         ff:38:d2:72:d4:15:d4:6d:4f:6a:46:18:d9:24:ae:92:c8:65:
         ef:49:f8:f7:4e:3b:2f:fa:f8:9a:a9:af:29:41:fb:cf:b6:36:
         41:5f:51:bb:40:e6:43:05:fd:ca:5f:b3:91:50:60:48:13:c5:
         bf:f8:30:c5:1d:97:a6:d6:6b:77:0d:ff:9d:01:b1:8a:5e:b4:
         26:fd:42:f8:63:c1:cf:44:d0:09:d1:e4:ff:9a:75:7b:5a:32:
         7e:f9:64:12:f0:10:83:62:81:af:4c:ee:0c:25:c0:a8:b4:26:
         a2:35:15:04:98:52:49:3e:ea:01:90:66:90:04:55:5e:5d:7d:
         f8:4e:40:78:3c:b3:a0:d8:dc:5d:ff:0b:ed:d6:4e:2e:94:f7:
         ac:84:b3:d0
-----BEGIN CERTIFICATE-----
MIIDfDCCAmSgAwIBAgIBATANBgkqhkiG9w0BAQsFADAgMR4wHAYDVQQDDBVUZXN0
IER1cC1IYXNoIFJvb3QgQ0EwHhcNMTUwMzMxMDQyMjQyWhcNMjUwMzI4MDQyMjQy
WjBgMQswCQYDVQQGEwJVUzETMBEGA1UECAwKQ2FsaWZvcm5pYTEWMBQGA1UEBwwN
TW91bnRhaW4gVmlldzEQMA4GA1UECgwHVGVzdCBDQTESMBAGA1UEAwwJMTI3LjAu
MC4xMIIBIjANBgkqhkiG9w0BAQEFAAOCAQ8AMIIBCgKCAQEAsphMQrhKY07gLezr
V7GIn8QT8H9BD8g5sx5ja2dM5weO9aRisEvddV1QFlT+5a6xdqq6xPNVebO0/Fkj
swku6KzrzRZvyVuIxNCUKQUPG2jPzYC5Rcc3S4T/5ahJjV0vWa727rtalHs7JWLE
P6uLnlivMcqeJpoDIId7wkIZZYbYerPdkVf10k7UICsdzssl5UVu4TUSe7vXI8Lp
ps/2MnPP4Ft1c290tX6Hzpir6LkF9vFslCZi84zP4boX/Knk+y8fj86RvnK649Cm
RC6JfpIV68ItohMKg2tsCTqcnGhjaxZ/o9AH+YvDv0M3jXC8qc+kDcRyocZruam9
qY9DZwIDAQABo4GAMH4wDAYDVR0TAQH/BAIwADAdBgNVHQ4EFgQUePgJmZF4W7CL
YLLHQbEMJikP7ZEwHwYDVR0jBBgwFoAUwgMsfyaOQsDJmSoQdeYTlBJgSOEwHQYD
VR0lBBYwFAYIKwYBBQUHAwEGCCsGAQUFBwMCMA8GA1UdEQQIMAaHBH8AAAEwDQYJ
KoZIhvcNAQELBQADggEBAJxqJSOfEN0UnDfUcd2G0Atb19As/KbswXqqhqSHrKNa
p6acilc9KmDKLkdHzhIwHlnV576fvolEjC6tKmLaBxOE10+l+P4HUToyayiYzxyQ
bSZk15jlyAsDkTtIYJNfZ7B6CJO3N/lW5AZN/f840nLUFdRtT2pGGNkkrpLIZe9J
+PdOOy/6+JqprylB+8+2NkFfUbtA5kMF/cpfs5FQYEgTxb/4MMUdl6bWa3cN/50B
sYpetCb9Qvhjwc9E0AnR5P+adXtaMn75ZBLwEINiga9M7gwlwKi0JqI1FQSYUkk+
6gGQZpAEVV5dffhOQHg8s6DY3F3/C+3WTi6U96yEs9A=
-----END CERTIFICATE-----
