Certificate:
    Data:
        Version: 3 (0x2)
        Serial Number: 10718220368358975735 (0x94bec4a33064a8f7)
    Signature Algorithm: md5WithRSAEncryption
        Issuer: CN=Test Dup-Hash Root CA
        Validity
            Not Before: Mar 31 04:22:42 2015 GMT
            Not After : Mar 28 04:22:42 2025 GMT
        Subject: CN=Test Dup-Hash Root CA
        Subject Public Key Info:
            Public Key Algorithm: rsaEncryption
                Public-Key: (2048 bit)
                Modulus:
                    00:bf:c1:3a:b7:c8:7a:cc:0c:62:28:82:1d:5b:8d:
                    ca:14:09:aa:d2:80:fe:07:19:88:ff:1c:42:5f:39:
                    5c:97:5d:34:7a:07:44:4d:78:6c:bf:7f:c3:b2:99:
                    85:cd:21:94:a8:bf:f9:4e:51:5e:37:bf:19:31:30:
                    d4:c7:a3:f4:30:b1:48:c2:c3:b1:1b:ef:cd:0d:1b:
                    7c:6d:3b:0c:18:2b:fe:c7:73:89:d2:15:64:c1:92:
                    2c:23:33:cf:d4:25:71:f4:80:c7:23:4b:6e:68:80:
                    f6:11:c8:19:11:ff:97:6d:f0:d0:37:a2:eb:ff:88:
                    93:60:59:aa:ea:b8:d1:b7:16:50:c1:0e:9a:aa:a1:
                    1d:89:6e:88:0a:4b:fd:3d:69:4b:28:52:d4:4f:d0:
                    d3:47:a6:ca:7e:96:95:15:ca:8f:e1:39:0c:66:d8:
                    87:8f:67:93:61:56:6c:28:ee:09:1f:64:8c:a3:e1:
                    00:ae:d3:97:4a:5c:dd:ba:b0:70:05:5e:81:25:c6:
                    79:05:56:87:d6:bf:cc:07:94:99:97:c7:b1:4b:5e:
                    d4:1c:52:07:dc:55:e5:ad:1c:34:31:41:b0:00:c1:
                    65:22:73:79:35:0f:5d:9c:5b:9f:c9:b4:43:f0:ec:
                    77:c3:8f:93:3d:d3:e2:90:07:5b:e2:51:d4:81:4f:
                    45:85
                Exponent: 65537 (0x10001)
        X509v3 extensions:
            X509v3 Basic Constraints: critical
                CA:TRUE
            X509v3 Subject Key Identifier: 
                C2:03:2C:7F:26:8E:42:C0:C9:99:2A:10:75:E6:13:94:12:60:48:E1
            X509v3 Key Usage: critical
                Certificate Sign, CRL Sign
    Signature Algorithm: md5WithRSAEncryption
         3a:35:20:4c:8b:71:aa:d8:c4:d8:90:55:df:e1:f2:b7:e2:08:
         47:30:65:f4:e9:49:e9:54:20:8d:a9:97:52:70:5e:b5:6f:3e:
         31:12:0c:bc:ea:42:db:38:70:e6:05:03:78:6e:2d:21:a8:04:
         ec:70:6b:c7:aa:ea:e6:ab:26:5b:5a:b2:a5:4a:44:48:fa:20:
         42:99:bb:e3:96:60:a9:1a:09:51:54:72:5c:27:05:59:1a:09:
         f8:94:77:3c:ee:ab:08:68:e2:6d:ec:fb:74:5e:ec:f0:bf:76:
         cd:6e:4a:9c:a1:7b:91:fc:8d:e9:1e:09:7e:60:8e:91:69:84:
         97:52:63:a0:0b:d6:ba:ec:48:c4:b3:c2:e2:fe:2d:0e:ef:48:
         f3:f9:c3:c2:bd:40:e2:95:82:20:c9:63:81:35:b7:1e:18:08:
         c0:38:bd:6c:df:e0:67:64:a4:c6:b2:93:1d:c5:c8:19:59:ab:
         e0:fb:67:bc:dd:bd:4d:18:5f:04:de:a9:a5:c6:7e:fc:41:f6:
         53:07:91:1b:01:3c:cb:41:91:88:af:3f:86:b0:17:ab:40:b3:
         85:4a:88:12:3a:dc:1f:ac:c5:4c:0a:46:22:cb:98:8b:a7:85:
         a7:c7:a4:44:69:82:60:93:dc:22:d5:55:5f:16:8f:ef:4f:ac:
         f8:e6:84:4f
-----BEGIN CERTIFICATE-----
MIIDBTCCAe2gAwIBAgIJAJS+xKMwZKj3MA0GCSqGSIb3DQEBBAUAMCAxHjAcBgNV
BAMMFVRlc3QgRHVwLUhhc2ggUm9vdCBDQTAeFw0xNTAzMzEwNDIyNDJaFw0yNTAz
MjgwNDIyNDJaMCAxHjAcBgNVBAMMFVRlc3QgRHVwLUhhc2ggUm9vdCBDQTCCASIw
DQYJKoZIhvcNAQEBBQADggEPADCCAQoCggEBAL/BOrfIeswMYiiCHVuNyhQJqtKA
/gcZiP8cQl85XJddNHoHRE14bL9/w7KZhc0hlKi/+U5RXje/GTEw1Mej9DCxSMLD
sRvvzQ0bfG07DBgr/sdzidIVZMGSLCMzz9QlcfSAxyNLbmiA9hHIGRH/l23w0Dei
6/+Ik2BZquq40bcWUMEOmqqhHYluiApL/T1pSyhS1E/Q00emyn6WlRXKj+E5DGbY
h49nk2FWbCjuCR9kjKPhAK7Tl0pc3bqwcAVegSXGeQVWh9a/zAeUmZfHsUte1BxS
B9xV5a0cNDFBsADBZSJzeTUPXZxbn8m0Q/Dsd8OPkz3T4pAHW+JR1IFPRYUCAwEA
AaNCMEAwDwYDVR0TAQH/BAUwAwEB/zAdBgNVHQ4EFgQUwgMsfyaOQsDJmSoQdeYT
lBJgSOEwDgYDVR0PAQH/BAQDAgEGMA0GCSqGSIb3DQEBBAUAA4IBAQA6NSBMi3Gq
2MTYkFXf4fK34ghHMGX06UnpVCCNqZdScF61bz4xEgy86kLbOHDmBQN4bi0hqATs
cGvHqurmqyZbWrKlSkRI+iBCmbvjlmCpGglRVHJcJwVZGgn4lHc87qsIaOJt7Pt0
Xuzwv3bNbkqcoXuR/I3pHgl+YI6RaYSXUmOgC9a67EjEs8Li/i0O70jz+cPCvUDi
lYIgyWOBNbceGAjAOL1s3+BnZKTGspMdxcgZWavg+2e83b1NGF8E3qmlxn78QfZT
B5EbATzLQZGIrz+GsBerQLOFSogSOtwfrMVMCkYiy5iLp4Wnx6REaYJgk9wi1VVf
Fo/vT6z45oRP
-----END CERTIFICATE-----
