Certificate:
    Data:
        Version: 3 (0x2)
        Serial Number: 14676396172197038779 (0xcbad088f4ab50abb)
    Signature Algorithm: sha256WithRSAEncryption
        Issuer: CN=Test Dup-Hash Root CA
        Validity
            Not Before: Mar 31 04:22:42 2015 GMT
            Not After : Mar 28 04:22:42 2025 GMT
        Subject: CN=Test Dup-Hash Root CA
        Subject Public Key Info:
            Public Key Algorithm: rsaEncryption
                Public-Key: (2048 bit)
                Modulus:
                    00:bf:c1:3a:b7:c8:7a:cc:0c:62:28:82:1d:5b:8d:
                    ca:14:09:aa:d2:80:fe:07:19:88:ff:1c:42:5f:39:
                    5c:97:5d:34:7a:07:44:4d:78:6c:bf:7f:c3:b2:99:
                    85:cd:21:94:a8:bf:f9:4e:51:5e:37:bf:19:31:30:
                    d4:c7:a3:f4:30:b1:48:c2:c3:b1:1b:ef:cd:0d:1b:
                    7c:6d:3b:0c:18:2b:fe:c7:73:89:d2:15:64:c1:92:
                    2c:23:33:cf:d4:25:71:f4:80:c7:23:4b:6e:68:80:
                    f6:11:c8:19:11:ff:97:6d:f0:d0:37:a2:eb:ff:88:
                    93:60:59:aa:ea:b8:d1:b7:16:50:c1:0e:9a:aa:a1:
                    1d:89:6e:88:0a:4b:fd:3d:69:4b:28:52:d4:4f:d0:
                    d3:47:a6:ca:7e:96:95:15:ca:8f:e1:39:0c:66:d8:
                    87:8f:67:93:61:56:6c:28:ee:09:1f:64:8c:a3:e1:
                    00:ae:d3:97:4a:5c:dd:ba:b0:70:05:5e:81:25:c6:
                    79:05:56:87:d6:bf:cc:07:94:99:97:c7:b1:4b:5e:
                    d4:1c:52:07:dc:55:e5:ad:1c:34:31:41:b0:00:c1:
                    65:22:73:79:35:0f:5d:9c:5b:9f:c9:b4:43:f0:ec:
                    77:c3:8f:93:3d:d3:e2:90:07:5b:e2:51:d4:81:4f:
                    45:85
                Exponent: 65537 (0x10001)
        X509v3 extensions:
            X509v3 Basic Constraints: critical
                CA:TRUE
            X509v3 Subject Key Identifier: 
                C2:03:2C:7F:26:8E:42:C0:C9:99:2A:10:75:E6:13:94:12:60:48:E1
            X509v3 Key Usage: critical
                Certificate Sign, CRL Sign
    Signature Algorithm: sha256WithRSAEncryption
         b9:b4:6f:2a:c5:07:99:6c:be:11:32:7c:17:eb:d7:00:54:25:
         6a:24:65:0a:11:09:ff:d5:25:46:0b:07:f4:8c:f5:63:77:4b:
         5e:12:50:d4:1a:c1:57:44:d4:2b:de:a3:ce:75:29:1b:76:1a:
         ed:5f:86:af:6c:be:aa:a0:66:e2:01:43:c6:0b:f4:2b:65:bc:
         c5:79:83:71:05:d0:d7:57:2a:7f:32:30:4b:9c:18:81:a6:9e:
         a2:02:b9:71:62:fe:f8:f0:86:59:0f:59:42:e7:87:94:29:39:
         7f:1d:bd:b1:b5:76:4e:41:47:9e:20:39:3d:60:c1:2b:7f:ec:
         d6:47:e7:45:df:08:16:fa:f9:ff:90:c9:b1:94:e6:e8:60:b4:
         90:09:e0:a8:0f:96:c6:dc:9e:da:82:2d:d2:19:da:db:14:ec:
         f3:39:20:da:f8:b4:31:45:36:77:c6:07:e9:d6:a1:0c:36:f7:
         c5:66:95:7d:17:10:d2:b4:10:ac:f2:84:f2:81:f9:60:04:cc:
         9e:08:bd:9c:bd:0b:b5:78:8e:f3:5f:fd:7b:8e:e8:82:08:4f:
         64:69:c9:0f:a0:06:50:b8:92:a9:f2:ca:17:2d:19:fe:9a:fd:
         c9:2a:c3:93:58:96:c6:9a:4a:a9:17:c9:ff:c0:3b:02:69:30:
         e4:3a:6d:71
-----BEGIN CERTIFICATE-----
MIIDBTCCAe2gAwIBAgIJAMutCI9KtQq7MA0GCSqGSIb3DQEBCwUAMCAxHjAcBgNV
BAMMFVRlc3QgRHVwLUhhc2ggUm9vdCBDQTAeFw0xNTAzMzEwNDIyNDJaFw0yNTAz
MjgwNDIyNDJaMCAxHjAcBgNVBAMMFVRlc3QgRHVwLUhhc2ggUm9vdCBDQTCCASIw
DQYJKoZIhvcNAQEBBQADggEPADCCAQoCggEBAL/BOrfIeswMYiiCHVuNyhQJqtKA
/gcZiP8cQl85XJddNHoHRE14bL9/w7KZhc0hlKi/+U5RXje/GTEw1Mej9DCxSMLD
sRvvzQ0bfG07DBgr/sdzidIVZMGSLCMzz9QlcfSAxyNLbmiA9hHIGRH/l23w0Dei
6/+Ik2BZquq40bcWUMEOmqqhHYluiApL/T1pSyhS1E/Q00emyn6WlRXKj+E5DGbY
h49nk2FWbCjuCR9kjKPhAK7Tl0pc3bqwcAVegSXGeQVWh9a/zAeUmZfHsUte1BxS
B9xV5a0cNDFBsADBZSJzeTUPXZxbn8m0Q/Dsd8OPkz3T4pAHW+JR1IFPRYUCAwEA
AaNCMEAwDwYDVR0TAQH/BAUwAwEB/zAdBgNVHQ4EFgQUwgMsfyaOQsDJmSoQdeYT
lBJgSOEwDgYDVR0PAQH/BAQDAgEGMA0GCSqGSIb3DQEBCwUAA4IBAQC5tG8qxQeZ
bL4RMnwX69cAVCVqJGUKEQn/1SVGCwf0jPVjd0teElDUGsFXRNQr3qPOdSkbdhrt
X4avbL6qoGbiAUPGC/QrZbzFeYNxBdDXVyp/MjBLnBiBpp6iArlxYv748IZZD1lC
54eUKTl/Hb2xtXZOQUeeIDk9YMErf+zWR+dF3wgW+vn/kMmxlOboYLSQCeCoD5bG
3J7agi3SGdrbFOzzOSDa+LQxRTZ3xgfp1qEMNvfFZpV9FxDStBCs8oTygflgBMye
CL2cvQu1eI7zX/17juiCCE9kackPoAZQuJKp8soXLRn+mv3JKsOTWJbGmkqpF8n/
wDsCaTDkOm1x
-----END CERTIFICATE-----
