Certificate:
    Data:
        Version: 3 (0x2)
        Serial Number: 2 (0x2)
    Signature Algorithm: sha1WithRSAEncryption
        Issuer: C=GB, O=Certificate Transparency Intermediate CA, ST=Wales, L=Erw Wen
        Validity
            Not Before: Jun  1 00:00:00 2012 GMT
            Not After : Jun  1 00:00:00 2022 GMT
        Subject: C=GB, O=Certificate Transparency, ST=Wales, L=Erw Wen
        Subject Public Key Info:
            Public Key Algorithm: rsaEncryption
                Public-Key: (1024 bit)
                Modulus:
                    00:bb:27:2b:26:e5:de:b5:45:9d:4a:cc:a0:27:e8:
                    f1:2a:4d:83:9a:c3:73:0a:6a:10:9f:f7:e2:54:98:
                    dd:bd:3f:18:95:d0:8b:a4:1f:8d:e3:49:67:a3:a0:
                    86:ce:13:a9:0d:d5:ad:bb:54:18:4b:dc:08:e1:ac:
                    78:26:ad:b8:dc:9c:71:7b:fd:7d:a5:b4:1b:4d:b1:
                    73:6e:00:f1:da:c3:ce:c9:81:9c:cb:1a:28:ba:12:
                    0b:02:0a:82:0e:94:0d:d6:1f:95:b5:43:2a:4b:c0:
                    5d:08:18:f1:8c:e2:15:4e:b3:8d:2f:a7:d2:2d:72:
                    b9:76:e5:60:db:0c:7f:c7:7f
                Exponent: 65537 (0x10001)
        X509v3 extensions:
            X509v3 Subject Key Identifier: 
                B1:B1:48:E6:58:E7:03:F5:F7:F3:10:5F:20:B3:C3:84:D7:EF:F1:BF
            X509v3 Authority Key Identifier: 
                keyid:96:55:08:05:02:78:47:9E:87:73:76:41:31:BC:14:3A:47:E2:29:AB
                DirName:/C=GB/O=Certificate Transparency CA/ST=Wales/L=Erw Wen
                serial:09

            X509v3 Basic Constraints: 
                CA:FALSE
            1.3.6.1.4.1.11129.2.4.2: 
                .z.x.v........RG.ah2].\yY..........?t.d...=.'.......G0E.!...E..9-...W.....E.L..8V.......u.. ^&...."...)....4...O.......f...?
    Signature Algorithm: sha1WithRSAEncryption
         0f:95:a5:b4:e1:28:a9:14:b1:e8:8b:e8:b3:29:64:22:1b:58:
         f4:55:84:33:d0:20:a8:e2:46:cc:a6:5a:40:bc:bf:5f:2d:48:
         93:3e:bc:99:be:69:27:ca:75:64:72:fb:0b:dc:7f:50:5f:41:
         f4:62:f2:bc:19:d0:b2:99:c9:90:91:8d:f8:82:0f:3d:31:db:
         37:97:9e:8b:ad:56:3b:17:f0:0a:e6:7b:0f:87:31:c1:06:c9:
         43:a7:3b:f5:36:af:16:8a:fe:21:ef:4a:df:ca:e1:9a:3c:c0:
         74:89:99:92:bf:50:6b:c5:ce:1d:ec:aa:f0:7f:fe:eb:c8:05:
         c0:39
-----BEGIN CERTIFICATE-----
MIIDZjCCAs+gAwIBAgIBAjANBgkqhkiG9w0BAQUFADBiMQswCQYDVQQGEwJHQjEx
MC8GA1UEChMoQ2VydGlmaWNhdGUgVHJhbnNwYXJlbmN5IEludGVybWVkaWF0ZSBD
QTEOMAwGA1UECBMFV2FsZXMxEDAOBgNVBAcTB0VydyBXZW4wHhcNMTIwNjAxMDAw
MDAwWhcNMjIwNjAxMDAwMDAwWjBSMQswCQYDVQQGEwJHQjEhMB8GA1UEChMYQ2Vy
dGlmaWNhdGUgVHJhbnNwYXJlbmN5MQ4wDAYDVQQIEwVXYWxlczEQMA4GA1UEBxMH
RXJ3IFdlbjCBnzANBgkqhkiG9w0BAQEFAAOBjQAwgYkCgYEAuycrJuXetUWdSsyg
J+jxKk2DmsNzCmoQn/fiVJjdvT8YldCLpB+N40lno6CGzhOpDdWtu1QYS9wI4ax4
Jq243Jxxe/19pbQbTbFzbgDx2sPOyYGcyxoouhILAgqCDpQN1h+VtUMqS8BdCBjx
jOIVTrONL6fSLXK5duVg2wx/x38CAwEAAaOCATowggE2MB0GA1UdDgQWBBSxsUjm
WOcD9ffzEF8gs8OE1+/xvzB9BgNVHSMEdjB0gBSWVQgFAnhHnodzdkExvBQ6R+Ip
q6FZpFcwVTELMAkGA1UEBhMCR0IxJDAiBgNVBAoTG0NlcnRpZmljYXRlIFRyYW5z
cGFyZW5jeSBDQTEOMAwGA1UECBMFV2FsZXMxEDAOBgNVBAcTB0VydyBXZW6CAQkw
CQYDVR0TBAIwADCBigYKKwYBBAHWeQIEAgR8BHoAeAB2AN8cLsEVAJRSR6lhaDJd
3Fx5Wej3xtOI/AAuC70/dNdkAAABPdsn4qQAAAQDAEcwRQIhAKbTRRfzOS2exdJX
rfHFl9xFvUzTtzhWxhap+5nlrnWoAiBeJsjRx+Ii/ozaKbrrBKg07pfTT9gXGPGq
4M1m9LipPzANBgkqhkiG9w0BAQUFAAOBgQAPlaW04SipFLHoi+izKWQiG1j0VYQz
0CCo4kbMplpAvL9fLUiTPryZvmknynVkcvsL3H9QX0H0YvK8GdCymcmQkY34gg89
Mds3l56LrVY7F/AK5nsPhzHBBslDpzv1Nq8Wiv4h70rfyuGaPMB0iZmSv1Brxc4d
7Krwf/7ryAXAOQ==
-----END CERTIFICATE-----
Certificate:
    Data:
        Version: 3 (0x2)
        Serial Number: 9 (0x9)
    Signature Algorithm: sha1WithRSAEncryption
        Issuer: C=GB, O=Certificate Transparency CA, ST=Wales, L=Erw Wen
        Validity
            Not Before: Jun  1 00:00:00 2012 GMT
            Not After : Jun  1 00:00:00 2022 GMT
        Subject: C=GB, O=Certificate Transparency Intermediate CA, ST=Wales, L=Erw Wen
        Subject Public Key Info:
            Public Key Algorithm: rsaEncryption
                Public-Key: (1024 bit)
                Modulus:
                    00:d7:6a:67:8d:11:6f:52:2e:55:ff:82:1c:90:64:
                    25:08:b7:07:4b:14:d7:71:15:90:64:f7:92:7e:fd:
                    ed:b8:71:35:a1:36:5e:e7:de:18:cb:d5:ce:86:5f:
                    86:0c:78:f4:33:b4:d0:d3:d3:40:77:02:e7:a3:ef:
                    54:2b:1d:fe:9b:ba:a7:cd:f9:4d:c5:97:5f:c7:29:
                    f8:6f:10:5f:38:1b:24:35:35:cf:9c:80:0f:5c:a7:
                    80:c1:d3:c8:44:00:ee:65:d1:6e:e9:cf:52:db:8a:
                    df:fe:50:f5:c4:93:35:0b:21:90:bf:50:d5:bc:36:
                    f3:ca:c5:a8:da:ae:92:cd:8b
                Exponent: 65537 (0x10001)
        X509v3 extensions:
            X509v3 Subject Key Identifier: 
                96:55:08:05:02:78:47:9E:87:73:76:41:31:BC:14:3A:47:E2:29:AB
            X509v3 Authority Key Identifier: 
                keyid:5F:9D:88:0D:C8:73:E6:54:D4:F8:0D:D8:E6:B0:C1:24:B4:47:C3:55
                DirName:/C=GB/O=Certificate Transparency CA/ST=Wales/L=Erw Wen
                serial:00

            X509v3 Basic Constraints: 
                CA:TRUE
    Signature Algorithm: sha1WithRSAEncryption
         22:06:da:b1:c6:6b:71:dc:e0:95:c3:f6:aa:2e:f7:2c:f7:76:
         1b:e7:ab:d7:fc:39:c3:1a:4c:fe:1b:d9:6d:67:34:ca:82:f2:
         2d:de:5a:0c:8b:bb:dd:82:5d:7b:6f:3e:76:12:ad:8d:b3:00:
         a7:e2:11:69:88:60:23:26:22:84:c3:aa:5d:21:91:ef:da:10:
         bf:92:35:d3:7b:3a:2a:34:0d:59:41:9b:94:a4:85:66:f3:fa:
         c3:cd:8b:53:d5:a4:e9:82:70:ea:d2:97:b0:72:10:f9:ce:4a:
         21:38:b1:88:11:14:3b:93:fa:4e:7a:87:dd:37:e1:38:5f:2c:
         29:08
-----BEGIN CERTIFICATE-----
MIIC3TCCAkagAwIBAgIBCTANBgkqhkiG9w0BAQUFADBVMQswCQYDVQQGEwJHQjEk
MCIGA1UEChMbQ2VydGlmaWNhdGUgVHJhbnNwYXJlbmN5IENBMQ4wDAYDVQQIEwVX
YWxlczEQMA4GA1UEBxMHRXJ3IFdlbjAeFw0xMjA2MDEwMDAwMDBaFw0yMjA2MDEw
MDAwMDBaMGIxCzAJBgNVBAYTAkdCMTEwLwYDVQQKEyhDZXJ0aWZpY2F0ZSBUcmFu
c3BhcmVuY3kgSW50ZXJtZWRpYXRlIENBMQ4wDAYDVQQIEwVXYWxlczEQMA4GA1UE
BxMHRXJ3IFdlbjCBnzANBgkqhkiG9w0BAQEFAAOBjQAwgYkCgYEA12pnjRFvUi5V
/4IckGQlCLcHSxTXcRWQZPeSfv3tuHE1oTZe594Yy9XOhl+GDHj0M7TQ09NAdwLn
o+9UKx3+m7qnzflNxZdfxyn4bxBfOBskNTXPnIAPXKeAwdPIRADuZdFu6c9S24rf
/lD1xJM1CyGQv1DVvDbzysWo2q6SzYsCAwEAAaOBrzCBrDAdBgNVHQ4EFgQUllUI
BQJ4R56Hc3ZBMbwUOkfiKaswfQYDVR0jBHYwdIAUX52IDchz5lTU+A3Y5rDBJLRH
w1WhWaRXMFUxCzAJBgNVBAYTAkdCMSQwIgYDVQQKExtDZXJ0aWZpY2F0ZSBUcmFu
c3BhcmVuY3kgQ0ExDjAMBgNVBAgTBVdhbGVzMRAwDgYDVQQHEwdFcncgV2VuggEA
MAwGA1UdEwQFMAMBAf8wDQYJKoZIhvcNAQEFBQADgYEAIgbascZrcdzglcP2qi73
LPd2G+er1/w5wxpM/hvZbWc0yoLyLd5aDIu73YJde28+dhKtjbMAp+IRaYhgIyYi
hMOqXSGR79oQv5I103s6KjQNWUGblKSFZvP6w82LU9Wk6YJw6tKXsHIQ+c5KITix
iBEUO5P6TnqH3TfhOF8sKQg=
-----END CERTIFICATE-----
Certificate:
    Data:
        Version: 3 (0x2)
        Serial Number: 0 (0x0)
    Signature Algorithm: sha1WithRSAEncryption
        Issuer: C=GB, O=Certificate Transparency CA, ST=Wales, L=Erw Wen
        Validity
            Not Before: Jun  1 00:00:00 2012 GMT
            Not After : Jun  1 00:00:00 2022 GMT
        Subject: C=GB, O=Certificate Transparency CA, ST=Wales, L=Erw Wen
        Subject Public Key Info:
            Public Key Algorithm: rsaEncryption
                Public-Key: (1024 bit)
                Modulus:
                    00:d5:8a:68:53:62:10:a2:71:19:93:6e:77:83:21:
                    18:1c:2a:40:13:c6:d0:7b:8c:76:eb:91:57:d3:d0:
                    fb:4b:3b:51:6e:ce:cb:d1:c9:8d:91:c5:2f:74:3f:
                    ab:63:5d:55:09:9c:d1:3a:ba:f3:1a:e5:41:44:24:
                    51:a7:4c:78:16:f2:24:3c:f8:48:cf:28:31:cc:e6:
                    7b:a0:4a:5a:23:81:9f:3c:ba:37:e6:24:d9:c3:bd:
                    b2:99:b8:39:dd:fe:26:31:d2:cb:3a:84:fc:7b:b2:
                    b5:c5:2f:cf:c1:4f:ff:40:6f:5c:d4:46:69:cb:b2:
                    f7:cf:df:86:fb:6a:b9:d1:b1
                Exponent: 65537 (0x10001)
        X509v3 extensions:
            X509v3 Subject Key Identifier: 
                5F:9D:88:0D:C8:73:E6:54:D4:F8:0D:D8:E6:B0:C1:24:B4:47:C3:55
            X509v3 Authority Key Identifier: 
                keyid:5F:9D:88:0D:C8:73:E6:54:D4:F8:0D:D8:E6:B0:C1:24:B4:47:C3:55
                DirName:/C=GB/O=Certificate Transparency CA/ST=Wales/L=Erw Wen
                serial:00

            X509v3 Basic Constraints: 
                CA:TRUE
    Signature Algorithm: sha1WithRSAEncryption
         06:08:cc:4a:6d:64:f2:20:5e:14:6c:04:b2:76:f9:2b:0e:fa:
         94:a5:da:f2:3a:fc:38:06:60:6d:39:90:d0:a1:ea:23:3d:40:
         29:57:69:46:3b:04:66:61:e7:fa:1d:17:99:15:20:9a:ea:2e:
         0a:77:51:76:41:12:27:d7:c0:03:07:c7:47:0e:61:58:4f:d7:
         33:42:24:72:7f:51:d6:90:bc:47:a9:df:35:4d:b0:f6:eb:25:
         95:5d:e1:89:3c:4d:d5:20:2b:24:a2:f3:e4:40:d2:74:b5:4e:
         1b:d3:76:26:9c:a9:62:89:b7:6e:ca:a4:10:90:e1:4f:3b:0a:
         94:2e
-----BEGIN CERTIFICATE-----
MIIC0DCCAjmgAwIBAgIBADANBgkqhkiG9w0BAQUFADBVMQswCQYDVQQGEwJHQjEk
MCIGA1UEChMbQ2VydGlmaWNhdGUgVHJhbnNwYXJlbmN5IENBMQ4wDAYDVQQIEwVX
YWxlczEQMA4GA1UEBxMHRXJ3IFdlbjAeFw0xMjA2MDEwMDAwMDBaFw0yMjA2MDEw
MDAwMDBaMFUxCzAJBgNVBAYTAkdCMSQwIgYDVQQKExtDZXJ0aWZpY2F0ZSBUcmFu
c3BhcmVuY3kgQ0ExDjAMBgNVBAgTBVdhbGVzMRAwDgYDVQQHEwdFcncgV2VuMIGf
MA0GCSqGSIb3DQEBAQUAA4GNADCBiQKBgQDVimhTYhCicRmTbneDIRgcKkATxtB7
jHbrkVfT0PtLO1FuzsvRyY2RxS90P6tjXVUJnNE6uvMa5UFEJFGnTHgW8iQ8+EjP
KDHM5nugSlojgZ88ujfmJNnDvbKZuDnd/iYx0ss6hPx7srXFL8/BT/9Ab1zURmnL
svfP34b7arnRsQIDAQABo4GvMIGsMB0GA1UdDgQWBBRfnYgNyHPmVNT4DdjmsMEk
tEfDVTB9BgNVHSMEdjB0gBRfnYgNyHPmVNT4DdjmsMEktEfDVaFZpFcwVTELMAkG
A1UEBhMCR0IxJDAiBgNVBAoTG0NlcnRpZmljYXRlIFRyYW5zcGFyZW5jeSBDQTEO
MAwGA1UECBMFV2FsZXMxEDAOBgNVBAcTB0VydyBXZW6CAQAwDAYDVR0TBAUwAwEB
/zANBgkqhkiG9w0BAQUFAAOBgQAGCMxKbWTyIF4UbASydvkrDvqUpdryOvw4BmBt
OZDQoeojPUApV2lGOwRmYef6HReZFSCa6i4Kd1F2QRIn18ADB8dHDmFYT9czQiRy
f1HWkLxHqd81TbD26yWVXeGJPE3VICskovPkQNJ0tU4b03YmnKliibduyqQQkOFP
OwqULg==
-----END CERTIFICATE-----
