Certificate:
    Data:
        Version: 3 (0x2)
        Serial Number: 3 (0x3)
    Signature Algorithm: sha1WithRSAEncryption
        Issuer: C=GB, O=Certificate Transparency Intermediate CA, ST=Wales, L=Erw Wen
        Validity
            Not Before: Jun  1 00:00:00 2012 GMT
            Not After : Jun  1 00:00:00 2022 GMT
        Subject: C=GB, O=Certificate Transparency, ST=Wales, L=Erw Wen
        Subject Public Key Info:
            Public Key Algorithm: rsaEncryption
                Public-Key: (1024 bit)
                Modulus:
                    00:d4:49:70:56:cd:fc:65:e1:34:2c:c3:df:6e:65:
                    4b:8a:f0:10:47:02:ac:d2:27:5c:7d:3f:b1:fc:43:
                    8a:89:b2:12:11:0d:64:19:bc:c1:3a:e4:7d:64:bb:
                    a2:41:e6:70:6b:9e:d6:27:f8:b3:4a:0d:7d:ff:1c:
                    44:b9:62:87:c5:4b:ea:9d:10:dc:01:7b:ce:b6:4f:
                    7b:6a:ff:3c:35:a4:74:af:ec:40:38:ab:36:40:b0:
                    cd:1f:b0:58:2e:c0:3b:17:9a:27:76:c8:c4:35:d1:
                    4a:b4:88:2d:59:d7:b7:24:fa:37:7c:a6:db:08:39:
                    21:73:f9:c6:05:6b:3a:ba:df
                Exponent: 65537 (0x10001)
        X509v3 extensions:
            X509v3 Subject Key Identifier: 
                32:DA:55:18:D8:7F:1D:26:EA:27:67:97:3C:0B:EF:28:6E:78:6A:4A
            X509v3 Authority Key Identifier: 
                keyid:96:55:08:05:02:78:47:9E:87:73:76:41:31:BC:14:3A:47:E2:29:AB
                DirName:/C=GB/O=Certificate Transparency CA/ST=Wales/L=Erw Wen
                serial:09

            X509v3 Basic Constraints: 
                CA:FALSE
            1.3.6.1.4.1.11129.2.4.2: 
                .z.x.v........RG.ah2].\yY..........?t.d...=.'.......G0E.!.......!...<..p.3..7K ...e.^..C.0. .v.GQ8..v.810M..C....n..O..|....
    Signature Algorithm: sha1WithRSAEncryption
         88:ee:4e:9e:5e:ed:6b:11:2c:c7:64:b1:51:ed:92:94:00:e9:
         40:67:89:c1:5f:bb:cf:cd:ab:2f:10:b4:00:23:41:39:e6:ce:
         65:c1:e5:1b:47:bf:7c:89:50:f8:0b:cc:d5:71:68:56:79:54:
         ed:35:b0:ce:93:46:06:5a:5e:ae:5b:f9:5d:41:da:8e:27:ce:
         e9:ee:ac:68:8f:4b:d3:43:f9:c2:88:83:27:ab:d8:b9:f6:8d:
         cb:1e:30:50:04:1d:31:bd:a8:e2:dd:6d:39:b3:66:4d:e5:ce:
         08:70:f5:fc:7e:6a:00:d6:ed:00:52:84:58:d9:53:d2:37:58:
         6d:73
-----BEGIN CERTIFICATE-----
MIIDZjCCAs+gAwIBAgIBAzANBgkqhkiG9w0BAQUFADBiMQswCQYDVQQGEwJHQjEx
MC8GA1UEChMoQ2VydGlmaWNhdGUgVHJhbnNwYXJlbmN5IEludGVybWVkaWF0ZSBD
QTEOMAwGA1UECBMFV2FsZXMxEDAOBgNVBAcTB0VydyBXZW4wHhcNMTIwNjAxMDAw
MDAwWhcNMjIwNjAxMDAwMDAwWjBSMQswCQYDVQQGEwJHQjEhMB8GA1UEChMYQ2Vy
dGlmaWNhdGUgVHJhbnNwYXJlbmN5MQ4wDAYDVQQIEwVXYWxlczEQMA4GA1UEBxMH
RXJ3IFdlbjCBnzANBgkqhkiG9w0BAQEFAAOBjQAwgYkCgYEA1ElwVs38ZeE0LMPf
bmVLivAQRwKs0idcfT+x/EOKibISEQ1kGbzBOuR9ZLuiQeZwa57WJ/izSg19/xxE
uWKHxUvqnRDcAXvOtk97av88NaR0r+xAOKs2QLDNH7BYLsA7F5ondsjENdFKtIgt
Wde3JPo3fKbbCDkhc/nGBWs6ut8CAwEAAaOCATowggE2MB0GA1UdDgQWBBQy2lUY
2H8dJuonZ5c8C+8obnhqSjB9BgNVHSMEdjB0gBSWVQgFAnhHnodzdkExvBQ6R+Ip
q6FZpFcwVTELMAkGA1UEBhMCR0IxJDAiBgNVBAoTG0NlcnRpZmljYXRlIFRyYW5z
cGFyZW5jeSBDQTEOMAwGA1UECBMFV2FsZXMxEDAOBgNVBAcTB0VydyBXZW6CAQkw
CQYDVR0TBAIwADCBigYKKwYBBAHWeQIEAgR8BHoAeAB2AN8cLsEVAJRSR6lhaDJd
3Fx5Wej3xtOI/AAuC70/dNdkAAABPdsn474AAAQDAEcwRQIhANn2Ggf+4CHjFZ88
ovVw2DP/ATdLIJbLpWWMXhb7Q+swAiALdv5HUTjYz3aDODEwTavwQ+sSE8luE/9P
o39808jcHzANBgkqhkiG9w0BAQUFAAOBgQCI7k6eXu1rESzHZLFR7ZKUAOlAZ4nB
X7vPzasvELQAI0E55s5lweUbR798iVD4C8zVcWhWeVTtNbDOk0YGWl6uW/ldQdqO
J87p7qxoj0vTQ/nCiIMnq9i59o3LHjBQBB0xvaji3W05s2ZN5c4IcPX8fmoA1u0A
UoRY2VPSN1htcw==
-----END CERTIFICATE-----
Certificate:
    Data:
        Version: 3 (0x2)
        Serial Number: 9 (0x9)
    Signature Algorithm: sha1WithRSAEncryption
        Issuer: C=GB, O=Certificate Transparency CA, ST=Wales, L=Erw Wen
        Validity
            Not Before: Jun  1 00:00:00 2012 GMT
            Not After : Jun  1 00:00:00 2022 GMT
        Subject: C=GB, O=Certificate Transparency Intermediate CA, ST=Wales, L=Erw Wen
        Subject Public Key Info:
            Public Key Algorithm: rsaEncryption
                Public-Key: (1024 bit)
                Modulus:
                    00:d7:6a:67:8d:11:6f:52:2e:55:ff:82:1c:90:64:
                    25:08:b7:07:4b:14:d7:71:15:90:64:f7:92:7e:fd:
                    ed:b8:71:35:a1:36:5e:e7:de:18:cb:d5:ce:86:5f:
                    86:0c:78:f4:33:b4:d0:d3:d3:40:77:02:e7:a3:ef:
                    54:2b:1d:fe:9b:ba:a7:cd:f9:4d:c5:97:5f:c7:29:
                    f8:6f:10:5f:38:1b:24:35:35:cf:9c:80:0f:5c:a7:
                    80:c1:d3:c8:44:00:ee:65:d1:6e:e9:cf:52:db:8a:
                    df:fe:50:f5:c4:93:35:0b:21:90:bf:50:d5:bc:36:
                    f3:ca:c5:a8:da:ae:92:cd:8b
                Exponent: 65537 (0x10001)
        X509v3 extensions:
            X509v3 Subject Key Identifier: 
                96:55:08:05:02:78:47:9E:87:73:76:41:31:BC:14:3A:47:E2:29:AB
            X509v3 Authority Key Identifier: 
                keyid:5F:9D:88:0D:C8:73:E6:54:D4:F8:0D:D8:E6:B0:C1:24:B4:47:C3:55
                DirName:/C=GB/O=Certificate Transparency CA/ST=Wales/L=Erw Wen
                serial:00

            X509v3 Basic Constraints: 
                CA:TRUE
    Signature Algorithm: sha1WithRSAEncryption
         22:06:da:b1:c6:6b:71:dc:e0:95:c3:f6:aa:2e:f7:2c:f7:76:
         1b:e7:ab:d7:fc:39:c3:1a:4c:fe:1b:d9:6d:67:34:ca:82:f2:
         2d:de:5a:0c:8b:bb:dd:82:5d:7b:6f:3e:76:12:ad:8d:b3:00:
         a7:e2:11:69:88:60:23:26:22:84:c3:aa:5d:21:91:ef:da:10:
         bf:92:35:d3:7b:3a:2a:34:0d:59:41:9b:94:a4:85:66:f3:fa:
         c3:cd:8b:53:d5:a4:e9:82:70:ea:d2:97:b0:72:10:f9:ce:4a:
         21:38:b1:88:11:14:3b:93:fa:4e:7a:87:dd:37:e1:38:5f:2c:
         29:08
-----BEGIN CERTIFICATE-----
MIIC3TCCAkagAwIBAgIBCTANBgkqhkiG9w0BAQUFADBVMQswCQYDVQQGEwJHQjEk
MCIGA1UEChMbQ2VydGlmaWNhdGUgVHJhbnNwYXJlbmN5IENBMQ4wDAYDVQQIEwVX
YWxlczEQMA4GA1UEBxMHRXJ3IFdlbjAeFw0xMjA2MDEwMDAwMDBaFw0yMjA2MDEw
MDAwMDBaMGIxCzAJBgNVBAYTAkdCMTEwLwYDVQQKEyhDZXJ0aWZpY2F0ZSBUcmFu
c3BhcmVuY3kgSW50ZXJtZWRpYXRlIENBMQ4wDAYDVQQIEwVXYWxlczEQMA4GA1UE
BxMHRXJ3IFdlbjCBnzANBgkqhkiG9w0BAQEFAAOBjQAwgYkCgYEA12pnjRFvUi5V
/4IckGQlCLcHSxTXcRWQZPeSfv3tuHE1oTZe594Yy9XOhl+GDHj0M7TQ09NAdwLn
o+9UKx3+m7qnzflNxZdfxyn4bxBfOBskNTXPnIAPXKeAwdPIRADuZdFu6c9S24rf
/lD1xJM1CyGQv1DVvDbzysWo2q6SzYsCAwEAAaOBrzCBrDAdBgNVHQ4EFgQUllUI
BQJ4R56Hc3ZBMbwUOkfiKaswfQYDVR0jBHYwdIAUX52IDchz5lTU+A3Y5rDBJLRH
w1WhWaRXMFUxCzAJBgNVBAYTAkdCMSQwIgYDVQQKExtDZXJ0aWZpY2F0ZSBUcmFu
c3BhcmVuY3kgQ0ExDjAMBgNVBAgTBVdhbGVzMRAwDgYDVQQHEwdFcncgV2VuggEA
MAwGA1UdEwQFMAMBAf8wDQYJKoZIhvcNAQEFBQADgYEAIgbascZrcdzglcP2qi73
LPd2G+er1/w5wxpM/hvZbWc0yoLyLd5aDIu73YJde28+dhKtjbMAp+IRaYhgIyYi
hMOqXSGR79oQv5I103s6KjQNWUGblKSFZvP6w82LU9Wk6YJw6tKXsHIQ+c5KITix
iBEUO5P6TnqH3TfhOF8sKQg=
-----END CERTIFICATE-----
Certificate:
    Data:
        Version: 3 (0x2)
        Serial Number: 0 (0x0)
    Signature Algorithm: sha1WithRSAEncryption
        Issuer: C=GB, O=Certificate Transparency CA, ST=Wales, L=Erw Wen
        Validity
            Not Before: Jun  1 00:00:00 2012 GMT
            Not After : Jun  1 00:00:00 2022 GMT
        Subject: C=GB, O=Certificate Transparency CA, ST=Wales, L=Erw Wen
        Subject Public Key Info:
            Public Key Algorithm: rsaEncryption
                Public-Key: (1024 bit)
                Modulus:
                    00:d5:8a:68:53:62:10:a2:71:19:93:6e:77:83:21:
                    18:1c:2a:40:13:c6:d0:7b:8c:76:eb:91:57:d3:d0:
                    fb:4b:3b:51:6e:ce:cb:d1:c9:8d:91:c5:2f:74:3f:
                    ab:63:5d:55:09:9c:d1:3a:ba:f3:1a:e5:41:44:24:
                    51:a7:4c:78:16:f2:24:3c:f8:48:cf:28:31:cc:e6:
                    7b:a0:4a:5a:23:81:9f:3c:ba:37:e6:24:d9:c3:bd:
                    b2:99:b8:39:dd:fe:26:31:d2:cb:3a:84:fc:7b:b2:
                    b5:c5:2f:cf:c1:4f:ff:40:6f:5c:d4:46:69:cb:b2:
                    f7:cf:df:86:fb:6a:b9:d1:b1
                Exponent: 65537 (0x10001)
        X509v3 extensions:
            X509v3 Subject Key Identifier: 
                5F:9D:88:0D:C8:73:E6:54:D4:F8:0D:D8:E6:B0:C1:24:B4:47:C3:55
            X509v3 Authority Key Identifier: 
                keyid:5F:9D:88:0D:C8:73:E6:54:D4:F8:0D:D8:E6:B0:C1:24:B4:47:C3:55
                DirName:/C=GB/O=Certificate Transparency CA/ST=Wales/L=Erw Wen
                serial:00

            X509v3 Basic Constraints: 
                CA:TRUE
    Signature Algorithm: sha1WithRSAEncryption
         06:08:cc:4a:6d:64:f2:20:5e:14:6c:04:b2:76:f9:2b:0e:fa:
         94:a5:da:f2:3a:fc:38:06:60:6d:39:90:d0:a1:ea:23:3d:40:
         29:57:69:46:3b:04:66:61:e7:fa:1d:17:99:15:20:9a:ea:2e:
         0a:77:51:76:41:12:27:d7:c0:03:07:c7:47:0e:61:58:4f:d7:
         33:42:24:72:7f:51:d6:90:bc:47:a9:df:35:4d:b0:f6:eb:25:
         95:5d:e1:89:3c:4d:d5:20:2b:24:a2:f3:e4:40:d2:74:b5:4e:
         1b:d3:76:26:9c:a9:62:89:b7:6e:ca:a4:10:90:e1:4f:3b:0a:
         94:2e
-----BEGIN CERTIFICATE-----
MIIC0DCCAjmgAwIBAgIBADANBgkqhkiG9w0BAQUFADBVMQswCQYDVQQGEwJHQjEk
MCIGA1UEChMbQ2VydGlmaWNhdGUgVHJhbnNwYXJlbmN5IENBMQ4wDAYDVQQIEwVX
YWxlczEQMA4GA1UEBxMHRXJ3IFdlbjAeFw0xMjA2MDEwMDAwMDBaFw0yMjA2MDEw
MDAwMDBaMFUxCzAJBgNVBAYTAkdCMSQwIgYDVQQKExtDZXJ0aWZpY2F0ZSBUcmFu
c3BhcmVuY3kgQ0ExDjAMBgNVBAgTBVdhbGVzMRAwDgYDVQQHEwdFcncgV2VuMIGf
MA0GCSqGSIb3DQEBAQUAA4GNADCBiQKBgQDVimhTYhCicRmTbneDIRgcKkATxtB7
jHbrkVfT0PtLO1FuzsvRyY2RxS90P6tjXVUJnNE6uvMa5UFEJFGnTHgW8iQ8+EjP
KDHM5nugSlojgZ88ujfmJNnDvbKZuDnd/iYx0ss6hPx7srXFL8/BT/9Ab1zURmnL
svfP34b7arnRsQIDAQABo4GvMIGsMB0GA1UdDgQWBBRfnYgNyHPmVNT4DdjmsMEk
tEfDVTB9BgNVHSMEdjB0gBRfnYgNyHPmVNT4DdjmsMEktEfDVaFZpFcwVTELMAkG
A1UEBhMCR0IxJDAiBgNVBAoTG0NlcnRpZmljYXRlIFRyYW5zcGFyZW5jeSBDQTEO
MAwGA1UECBMFV2FsZXMxEDAOBgNVBAcTB0VydyBXZW6CAQAwDAYDVR0TBAUwAwEB
/zANBgkqhkiG9w0BAQUFAAOBgQAGCMxKbWTyIF4UbASydvkrDvqUpdryOvw4BmBt
OZDQoeojPUApV2lGOwRmYef6HReZFSCa6i4Kd1F2QRIn18ADB8dHDmFYT9czQiRy
f1HWkLxHqd81TbD26yWVXeGJPE3VICskovPkQNJ0tU4b03YmnKliibduyqQQkOFP
OwqULg==
-----END CERTIFICATE-----
