Certificate:
    Data:
        Version: 3 (0x2)
        Serial Number: 8 (0x8)
    Signature Algorithm: sha1WithRSAEncryption
        Issuer: C=GB, O=Certificate Transparency CA, ST=Wales, L=Erw Wen
        Validity
            Not Before: Jun  1 00:00:00 2012 GMT
            Not After : Jun  1 00:00:00 2022 GMT
        Subject: C=GB, O=Certificate Transparency, ST=Wales, L=Erw Wen
        Subject Public Key Info:
            Public Key Algorithm: rsaEncryption
                Public-Key: (1024 bit)
                Modulus:
                    00:af:ae:ea:ca:c5:1a:b7:ce:bd:f9:ea:ca:e7:dd:
                    17:52:95:e1:93:95:5a:17:98:9a:ef:8d:97:ab:7c:
                    df:f7:76:10:93:c0:b8:23:d2:a4:e3:a5:1a:17:b8:
                    6f:28:16:2b:66:a2:53:89:35:eb:ec:dc:10:36:23:
                    3d:a2:dd:65:31:b0:c6:3b:cc:68:76:1e:bd:c8:54:
                    03:7b:77:39:92:46:b8:70:a7:b7:2b:14:c9:b1:66:
                    7d:e0:9a:96:40:ed:9f:3f:3c:72:5d:95:0b:4d:26:
                    55:98:69:fe:7f:1e:91:9a:66:eb:76:d3:5c:01:17:
                    c6:bc:d0:d8:cf:d2:10:28:b1
                Exponent: 65537 (0x10001)
        X509v3 extensions:
            X509v3 Subject Key Identifier: 
                61:2C:64:EF:AC:79:B7:28:39:7C:9D:93:E6:DF:86:46:5F:A7:6A:88
            X509v3 Authority Key Identifier: 
                keyid:5F:9D:88:0D:C8:73:E6:54:D4:F8:0D:D8:E6:B0:C1:24:B4:47:C3:55
                DirName:/C=GB/O=Certificate Transparency CA/ST=Wales/L=Erw Wen
                serial:00

            X509v3 Basic Constraints: 
                CA:FALSE
            1.3.6.1.4.1.11129.2.4.2: 
                .z.x.v........RG.ah2].\yY..........?t.d...=.'.[.....G0E. z....t..r{.O....y......C.*)|.:5\.!......dL..Ri..c..5l.P"O.......#.
    Signature Algorithm: sha1WithRSAEncryption
         a3:a8:6c:41:ad:00:88:a2:5a:ed:c4:e7:b5:29:a2:dd:bf:9e:
         18:7f:fb:36:21:57:e9:30:2d:96:1b:73:b4:3c:ba:0a:e1:e2:
         30:d9:e4:50:49:b7:e8:c9:24:79:2e:bb:e7:d1:75:ba:a8:7b:
         17:0d:fa:d8:ee:78:89:84:59:9d:05:25:79:94:08:4e:2e:0e:
         79:6f:ca:58:36:88:1c:3e:05:35:53:e0:6a:b2:30:f9:19:08:
         9b:91:4e:4a:8e:2d:a4:5f:8a:87:f2:c8:1a:25:a6:1f:04:fe:
         1c:ac:e6:01:55:65:38:27:d4:1f:ad:9f:06:58:f2:87:d0:58:
         19:2c
-----BEGIN CERTIFICATE-----
MIIDWTCCAsKgAwIBAgIBCDANBgkqhkiG9w0BAQUFADBVMQswCQYDVQQGEwJHQjEk
MCIGA1UEChMbQ2VydGlmaWNhdGUgVHJhbnNwYXJlbmN5IENBMQ4wDAYDVQQIEwVX
YWxlczEQMA4GA1UEBxMHRXJ3IFdlbjAeFw0xMjA2MDEwMDAwMDBaFw0yMjA2MDEw
MDAwMDBaMFIxCzAJBgNVBAYTAkdCMSEwHwYDVQQKExhDZXJ0aWZpY2F0ZSBUcmFu
c3BhcmVuY3kxDjAMBgNVBAgTBVdhbGVzMRAwDgYDVQQHEwdFcncgV2VuMIGfMA0G
CSqGSIb3DQEBAQUAA4GNADCBiQKBgQCvrurKxRq3zr356srn3RdSleGTlVoXmJrv
jZerfN/3dhCTwLgj0qTjpRoXuG8oFitmolOJNevs3BA2Iz2i3WUxsMY7zGh2Hr3I
VAN7dzmSRrhwp7crFMmxZn3gmpZA7Z8/PHJdlQtNJlWYaf5/HpGaZut201wBF8a8
0NjP0hAosQIDAQABo4IBOjCCATYwHQYDVR0OBBYEFGEsZO+sebcoOXydk+bfhkZf
p2qIMH0GA1UdIwR2MHSAFF+diA3Ic+ZU1PgN2OawwSS0R8NVoVmkVzBVMQswCQYD
VQQGEwJHQjEkMCIGA1UEChMbQ2VydGlmaWNhdGUgVHJhbnNwYXJlbmN5IENBMQ4w
DAYDVQQIEwVXYWxlczEQMA4GA1UEBxMHRXJ3IFdlboIBADAJBgNVHRMEAjAAMIGK
BgorBgEEAdZ5AgQCBHwEegB4AHYA3xwuwRUAlFJHqWFoMl3cXHlZ6PfG04j8AC4L
vT9012QAAAE92yfgWwAABAMARzBFAiB6p5YExHSA83J7CE+Qs5ifeQkYheAEhEMa
Kil8vzo1XAIhALSf2BILDWRM1+dSabTaYxepNWy5UCJPwRzClrLjmyOGMA0GCSqG
SIb3DQEBBQUAA4GBAKOobEGtAIiiWu3E57Upot2/nhh/+zYhV+kwLZYbc7Q8ugrh
4jDZ5FBJt+jJJHkuu+fRdbqoexcN+tjueImEWZ0FJXmUCE4uDnlvylg2iBw+BTVT
4GqyMPkZCJuRTkqOLaRfiofyyBolph8E/hys5gFVZTgn1B+tnwZY8ofQWBks
-----END CERTIFICATE-----
Certificate:
    Data:
        Version: 3 (0x2)
        Serial Number: 0 (0x0)
    Signature Algorithm: sha1WithRSAEncryption
        Issuer: C=GB, O=Certificate Transparency CA, ST=Wales, L=Erw Wen
        Validity
            Not Before: Jun  1 00:00:00 2012 GMT
            Not After : Jun  1 00:00:00 2022 GMT
        Subject: C=GB, O=Certificate Transparency CA, ST=Wales, L=Erw Wen
        Subject Public Key Info:
            Public Key Algorithm: rsaEncryption
                Public-Key: (1024 bit)
                Modulus:
                    00:d5:8a:68:53:62:10:a2:71:19:93:6e:77:83:21:
                    18:1c:2a:40:13:c6:d0:7b:8c:76:eb:91:57:d3:d0:
                    fb:4b:3b:51:6e:ce:cb:d1:c9:8d:91:c5:2f:74:3f:
                    ab:63:5d:55:09:9c:d1:3a:ba:f3:1a:e5:41:44:24:
                    51:a7:4c:78:16:f2:24:3c:f8:48:cf:28:31:cc:e6:
                    7b:a0:4a:5a:23:81:9f:3c:ba:37:e6:24:d9:c3:bd:
                    b2:99:b8:39:dd:fe:26:31:d2:cb:3a:84:fc:7b:b2:
                    b5:c5:2f:cf:c1:4f:ff:40:6f:5c:d4:46:69:cb:b2:
                    f7:cf:df:86:fb:6a:b9:d1:b1
                Exponent: 65537 (0x10001)
        X509v3 extensions:
            X509v3 Subject Key Identifier: 
                5F:9D:88:0D:C8:73:E6:54:D4:F8:0D:D8:E6:B0:C1:24:B4:47:C3:55
            X509v3 Authority Key Identifier: 
                keyid:5F:9D:88:0D:C8:73:E6:54:D4:F8:0D:D8:E6:B0:C1:24:B4:47:C3:55
                DirName:/C=GB/O=Certificate Transparency CA/ST=Wales/L=Erw Wen
                serial:00

            X509v3 Basic Constraints: 
                CA:TRUE
    Signature Algorithm: sha1WithRSAEncryption
         06:08:cc:4a:6d:64:f2:20:5e:14:6c:04:b2:76:f9:2b:0e:fa:
         94:a5:da:f2:3a:fc:38:06:60:6d:39:90:d0:a1:ea:23:3d:40:
         29:57:69:46:3b:04:66:61:e7:fa:1d:17:99:15:20:9a:ea:2e:
         0a:77:51:76:41:12:27:d7:c0:03:07:c7:47:0e:61:58:4f:d7:
         33:42:24:72:7f:51:d6:90:bc:47:a9:df:35:4d:b0:f6:eb:25:
         95:5d:e1:89:3c:4d:d5:20:2b:24:a2:f3:e4:40:d2:74:b5:4e:
         1b:d3:76:26:9c:a9:62:89:b7:6e:ca:a4:10:90:e1:4f:3b:0a:
         94:2e
-----BEGIN CERTIFICATE-----
MIIC0DCCAjmgAwIBAgIBADANBgkqhkiG9w0BAQUFADBVMQswCQYDVQQGEwJHQjEk
MCIGA1UEChMbQ2VydGlmaWNhdGUgVHJhbnNwYXJlbmN5IENBMQ4wDAYDVQQIEwVX
YWxlczEQMA4GA1UEBxMHRXJ3IFdlbjAeFw0xMjA2MDEwMDAwMDBaFw0yMjA2MDEw
MDAwMDBaMFUxCzAJBgNVBAYTAkdCMSQwIgYDVQQKExtDZXJ0aWZpY2F0ZSBUcmFu
c3BhcmVuY3kgQ0ExDjAMBgNVBAgTBVdhbGVzMRAwDgYDVQQHEwdFcncgV2VuMIGf
MA0GCSqGSIb3DQEBAQUAA4GNADCBiQKBgQDVimhTYhCicRmTbneDIRgcKkATxtB7
jHbrkVfT0PtLO1FuzsvRyY2RxS90P6tjXVUJnNE6uvMa5UFEJFGnTHgW8iQ8+EjP
KDHM5nugSlojgZ88ujfmJNnDvbKZuDnd/iYx0ss6hPx7srXFL8/BT/9Ab1zURmnL
svfP34b7arnRsQIDAQABo4GvMIGsMB0GA1UdDgQWBBRfnYgNyHPmVNT4DdjmsMEk
tEfDVTB9BgNVHSMEdjB0gBRfnYgNyHPmVNT4DdjmsMEktEfDVaFZpFcwVTELMAkG
A1UEBhMCR0IxJDAiBgNVBAoTG0NlcnRpZmljYXRlIFRyYW5zcGFyZW5jeSBDQTEO
MAwGA1UECBMFV2FsZXMxEDAOBgNVBAcTB0VydyBXZW6CAQAwDAYDVR0TBAUwAwEB
/zANBgkqhkiG9w0BAQUFAAOBgQAGCMxKbWTyIF4UbASydvkrDvqUpdryOvw4BmBt
OZDQoeojPUApV2lGOwRmYef6HReZFSCa6i4Kd1F2QRIn18ADB8dHDmFYT9czQiRy
f1HWkLxHqd81TbD26yWVXeGJPE3VICskovPkQNJ0tU4b03YmnKliibduyqQQkOFP
OwqULg==
-----END CERTIFICATE-----
