Certificate:
    Data:
        Version: 3 (0x2)
        Serial Number: 1 (0x1)
    Signature Algorithm: sha256WithRSAEncryption
        Issuer: CN=B Root CA
        Validity
            Not Before: Aug 14 02:46:40 2014 GMT
            Not After : Aug 11 02:46:40 2024 GMT
        Subject: O=Foo, CN=Duplicate
        Subject Public Key Info:
            Public Key Algorithm: rsaEncryption
                Public-Key: (2048 bit)
                Modulus:
                    00:ae:fc:af:a7:fa:a6:12:6f:5d:06:26:96:7c:33:
                    d1:9f:53:a3:6e:e3:ea:e4:ba:d4:28:3c:f5:c3:60:
                    31:80:39:9b:df:ca:4f:08:0b:16:ee:fc:63:06:ae:
                    ad:dd:77:3a:3e:63:28:be:c3:96:f7:9a:64:6f:b9:
                    6e:42:67:5b:12:3d:a3:97:d9:6f:5f:f4:06:a0:58:
                    52:57:34:d3:4e:48:91:a6:89:87:1e:0f:d1:f7:ea:
                    0e:40:67:bb:ac:c2:5f:bf:df:74:7a:55:42:e7:d5:
                    3a:0d:83:15:48:f5:a7:dc:2f:e2:ad:14:32:a4:b0:
                    b0:c2:4f:1b:12:d4:d6:48:74:15:53:37:02:1b:5d:
                    b6:9b:00:2c:2c:5e:0a:38:5c:5b:54:71:05:8e:5c:
                    76:7e:08:96:2f:44:5b:bd:4b:2e:c1:ce:b3:75:ce:
                    87:d8:2c:bb:fa:7d:01:3b:7d:39:e5:c4:7b:98:1a:
                    a8:39:40:6a:f4:e8:5e:b0:f0:6b:3b:0e:5c:35:31:
                    ae:47:d7:f0:5d:a7:92:6d:92:19:03:4c:97:56:fc:
                    ce:7a:96:d6:14:e3:d2:23:53:76:99:2c:4a:5c:af:
                    8b:7d:e0:3e:69:0f:5f:29:84:6d:91:89:10:66:83:
                    03:4b:c2:86:20:95:68:b7:96:98:90:bd:56:ff:c9:
                    84:9b
                Exponent: 65537 (0x10001)
        X509v3 extensions:
            X509v3 Basic Constraints: critical
                CA:FALSE
            X509v3 Subject Key Identifier: 
                D0:52:53:5F:31:41:A7:B9:87:82:9A:D8:41:83:68:CA:C6:09:DA:0E
            X509v3 Authority Key Identifier: 
                keyid:BC:94:98:39:BF:60:C1:09:AB:08:89:D8:FA:2D:82:FF:15:2D:71:EC

            X509v3 Extended Key Usage: 
                TLS Web Server Authentication, TLS Web Client Authentication
    Signature Algorithm: sha256WithRSAEncryption
         48:bc:05:2b:d3:f8:4c:bf:c3:d8:13:73:df:3d:d6:89:61:f5:
         40:61:e8:2a:cf:8d:f4:0e:6f:62:56:b3:66:70:05:11:2b:d9:
         22:b7:6e:5c:d5:a3:00:14:ba:ac:f1:bd:3b:34:58:bc:b5:36:
         8f:46:c6:73:38:3d:b5:52:62:7f:9d:cb:c4:9e:9f:ce:27:50:
         7a:e4:d0:7d:7c:d6:73:ec:da:3a:08:1f:65:85:6c:19:2b:b2:
         8a:09:3a:ba:78:09:73:c0:4f:00:a9:59:a3:11:91:42:9b:a7:
         21:52:2d:69:c3:bd:63:84:52:4d:06:9c:d9:6f:3a:e6:4d:e2:
         aa:6f:e0:de:14:4b:62:33:bf:23:01:4f:68:09:5b:b4:4d:f5:
         5c:f6:c2:2a:40:db:cb:6f:d7:7d:41:5c:a3:49:8f:ff:bc:02:
         c6:34:b2:73:ec:e5:7b:90:dd:ee:2e:82:1d:ea:d8:9c:e9:72:
         cb:1c:9b:fe:1c:b7:61:dd:eb:49:dd:56:f4:f8:b8:b9:13:05:
         9e:ca:91:cb:e6:58:14:b5:69:e8:a7:66:e9:b9:7c:c1:a4:bf:
         c9:4f:09:b1:be:5b:ab:53:6e:99:2a:9d:61:dc:a8:4c:ae:c1:
         40:68:8d:9c:c5:86:e3:bd:5d:78:0f:c0:31:1e:c5:08:b5:85:
         2d:c3:ea:8f
-----BEGIN CERTIFICATE-----
MIIDIDCCAgigAwIBAgIBATANBgkqhkiG9w0BAQsFADAUMRIwEAYDVQQDDAlCIFJv
b3QgQ0EwHhcNMTQwODE0MDI0NjQwWhcNMjQwODExMDI0NjQwWjAiMQwwCgYDVQQK
DANGb28xEjAQBgNVBAMMCUR1cGxpY2F0ZTCCASIwDQYJKoZIhvcNAQEBBQADggEP
ADCCAQoCggEBAK78r6f6phJvXQYmlnwz0Z9To27j6uS61Cg89cNgMYA5m9/KTwgL
Fu78Ywaurd13Oj5jKL7DlveaZG+5bkJnWxI9o5fZb1/0BqBYUlc0005IkaaJhx4P
0ffqDkBnu6zCX7/fdHpVQufVOg2DFUj1p9wv4q0UMqSwsMJPGxLU1kh0FVM3Ahtd
tpsALCxeCjhcW1RxBY5cdn4Ili9EW71LLsHOs3XOh9gsu/p9ATt9OeXEe5gaqDlA
avToXrDwazsOXDUxrkfX8F2nkm2SGQNMl1b8znqW1hTj0iNTdpksSlyvi33gPmkP
XymEbZGJEGaDA0vChiCVaLeWmJC9Vv/JhJsCAwEAAaNvMG0wDAYDVR0TAQH/BAIw
ADAdBgNVHQ4EFgQU0FJTXzFBp7mHgprYQYNoysYJ2g4wHwYDVR0jBBgwFoAUvJSY
Ob9gwQmrCInY+i2C/xUtcewwHQYDVR0lBBYwFAYIKwYBBQUHAwEGCCsGAQUFBwMC
MA0GCSqGSIb3DQEBCwUAA4IBAQBIvAUr0/hMv8PYE3PfPdaJYfVAYegqz430Dm9i
VrNmcAURK9kit25c1aMAFLqs8b07NFi8tTaPRsZzOD21UmJ/ncvEnp/OJ1B65NB9
fNZz7No6CB9lhWwZK7KKCTq6eAlzwE8AqVmjEZFCm6chUi1pw71jhFJNBpzZbzrm
TeKqb+DeFEtiM78jAU9oCVu0TfVc9sIqQNvLb9d9QVyjSY//vALGNLJz7OV7kN3u
LoId6tic6XLLHJv+HLdh3etJ3Vb0+Li5EwWeypHL5lgUtWnop2bpuXzBpL/JTwmx
vlurU26ZKp1h3KhMrsFAaI2cxYbjvV14D8AxHsUItYUtw+qP
-----END CERTIFICATE-----
