Certificate:
    Data:
        Version: 3 (0x2)
        Serial Number: 2 (0x2)
    Signature Algorithm: sha256WithRSAEncryption
        Issuer: CN=B Root CA
        Validity
            Not Before: Aug 14 02:46:40 2014 GMT
            Not After : Aug 11 02:46:40 2024 GMT
        Subject: O=Bar, CN=Duplicate
        Subject Public Key Info:
            Public Key Algorithm: rsaEncryption
                Public-Key: (2048 bit)
                Modulus:
                    00:ae:fc:af:a7:fa:a6:12:6f:5d:06:26:96:7c:33:
                    d1:9f:53:a3:6e:e3:ea:e4:ba:d4:28:3c:f5:c3:60:
                    31:80:39:9b:df:ca:4f:08:0b:16:ee:fc:63:06:ae:
                    ad:dd:77:3a:3e:63:28:be:c3:96:f7:9a:64:6f:b9:
                    6e:42:67:5b:12:3d:a3:97:d9:6f:5f:f4:06:a0:58:
                    52:57:34:d3:4e:48:91:a6:89:87:1e:0f:d1:f7:ea:
                    0e:40:67:bb:ac:c2:5f:bf:df:74:7a:55:42:e7:d5:
                    3a:0d:83:15:48:f5:a7:dc:2f:e2:ad:14:32:a4:b0:
                    b0:c2:4f:1b:12:d4:d6:48:74:15:53:37:02:1b:5d:
                    b6:9b:00:2c:2c:5e:0a:38:5c:5b:54:71:05:8e:5c:
                    76:7e:08:96:2f:44:5b:bd:4b:2e:c1:ce:b3:75:ce:
                    87:d8:2c:bb:fa:7d:01:3b:7d:39:e5:c4:7b:98:1a:
                    a8:39:40:6a:f4:e8:5e:b0:f0:6b:3b:0e:5c:35:31:
                    ae:47:d7:f0:5d:a7:92:6d:92:19:03:4c:97:56:fc:
                    ce:7a:96:d6:14:e3:d2:23:53:76:99:2c:4a:5c:af:
                    8b:7d:e0:3e:69:0f:5f:29:84:6d:91:89:10:66:83:
                    03:4b:c2:86:20:95:68:b7:96:98:90:bd:56:ff:c9:
                    84:9b
                Exponent: 65537 (0x10001)
        X509v3 extensions:
            X509v3 Basic Constraints: critical
                CA:FALSE
            X509v3 Subject Key Identifier: 
                D0:52:53:5F:31:41:A7:B9:87:82:9A:D8:41:83:68:CA:C6:09:DA:0E
            X509v3 Authority Key Identifier: 
                keyid:BC:94:98:39:BF:60:C1:09:AB:08:89:D8:FA:2D:82:FF:15:2D:71:EC

            X509v3 Extended Key Usage: 
                TLS Web Server Authentication, TLS Web Client Authentication
    Signature Algorithm: sha256WithRSAEncryption
         39:4e:04:66:dd:24:5b:71:c4:aa:9b:e2:97:f1:02:63:43:aa:
         3c:b5:a0:cb:9a:da:40:f5:b7:30:6d:04:14:c4:7a:e6:9f:8a:
         89:23:3a:71:60:7e:8a:d8:07:aa:2c:fb:b3:27:1a:e6:cd:78:
         1f:03:7b:6d:be:d1:67:4e:39:77:43:a6:e4:b1:ab:89:31:14:
         b5:b7:b0:88:fd:1f:e2:a8:9e:1f:b6:bf:f2:6e:a1:6b:13:3d:
         57:98:1e:7c:a9:39:c7:27:99:97:3f:d4:e1:11:43:26:aa:05:
         71:c2:9f:3f:92:b9:17:d5:3a:e1:ab:ca:59:06:fb:fd:18:b1:
         a8:b9:76:69:da:40:d7:f9:e9:86:d7:9c:94:bc:5d:5c:4f:9a:
         c6:80:15:05:da:d9:c8:9a:ad:7a:81:3f:a8:1f:63:db:14:04:
         9e:2b:10:4e:14:99:02:6f:72:73:f4:b4:8c:18:3d:52:9f:35:
         6d:48:c7:8d:55:8f:9b:68:c8:7e:a4:56:0b:e6:6a:19:b0:ab:
         ab:76:19:d4:02:01:eb:dd:9b:e1:78:b0:1f:11:83:38:b0:bf:
         25:5a:0b:d7:c8:6f:f0:6f:1e:91:9a:62:8a:22:79:7d:1f:6e:
         b6:e3:1a:5c:f9:aa:8e:f0:a4:d2:55:fc:ea:e5:48:3c:1e:6a:
         e5:a4:4e:01
-----BEGIN CERTIFICATE-----
MIIDIDCCAgigAwIBAgIBAjANBgkqhkiG9w0BAQsFADAUMRIwEAYDVQQDDAlCIFJv
b3QgQ0EwHhcNMTQwODE0MDI0NjQwWhcNMjQwODExMDI0NjQwWjAiMQwwCgYDVQQK
DANCYXIxEjAQBgNVBAMMCUR1cGxpY2F0ZTCCASIwDQYJKoZIhvcNAQEBBQADggEP
ADCCAQoCggEBAK78r6f6phJvXQYmlnwz0Z9To27j6uS61Cg89cNgMYA5m9/KTwgL
Fu78Ywaurd13Oj5jKL7DlveaZG+5bkJnWxI9o5fZb1/0BqBYUlc0005IkaaJhx4P
0ffqDkBnu6zCX7/fdHpVQufVOg2DFUj1p9wv4q0UMqSwsMJPGxLU1kh0FVM3Ahtd
tpsALCxeCjhcW1RxBY5cdn4Ili9EW71LLsHOs3XOh9gsu/p9ATt9OeXEe5gaqDlA
avToXrDwazsOXDUxrkfX8F2nkm2SGQNMl1b8znqW1hTj0iNTdpksSlyvi33gPmkP
XymEbZGJEGaDA0vChiCVaLeWmJC9Vv/JhJsCAwEAAaNvMG0wDAYDVR0TAQH/BAIw
ADAdBgNVHQ4EFgQU0FJTXzFBp7mHgprYQYNoysYJ2g4wHwYDVR0jBBgwFoAUvJSY
Ob9gwQmrCInY+i2C/xUtcewwHQYDVR0lBBYwFAYIKwYBBQUHAwEGCCsGAQUFBwMC
MA0GCSqGSIb3DQEBCwUAA4IBAQA5TgRm3SRbccSqm+KX8QJjQ6o8taDLmtpA9bcw
bQQUxHrmn4qJIzpxYH6K2AeqLPuzJxrmzXgfA3ttvtFnTjl3Q6bksauJMRS1t7CI
/R/iqJ4ftr/ybqFrEz1XmB58qTnHJ5mXP9ThEUMmqgVxwp8/krkX1Trhq8pZBvv9
GLGouXZp2kDX+emG15yUvF1cT5rGgBUF2tnImq16gT+oH2PbFASeKxBOFJkCb3Jz
9LSMGD1SnzVtSMeNVY+baMh+pFYL5moZsKurdhnUAgHr3ZvheLAfEYM4sL8lWgvX
yG/wbx6RmmKKInl9H2624xpc+aqO8KTSVfzq5Ug8HmrlpE4B
-----END CERTIFICATE-----
