Certificate:
    Data:
        Version: 3 (0x2)
        Serial Number:
            ef:6c:2f:57:d9:fd:5a:0f
        Signature Algorithm: sha1WithRSAEncryption
        Issuer: C=US, O=Chromium, DC=Chromium, CN=Multivalue RDN Test, OU=Chromium net_unittests
        Validity
            Not Before: Dec  2 03:47:39 2011 GMT
            Not After : Jan  1 03:47:39 2012 GMT
        Subject: C=US, O=Chromium, DC=Chromium, CN=Multivalue RDN Test, OU=Chromium net_unittests
        Subject Public Key Info:
            Public Key Algorithm: rsaEncryption
            RSA Public Key: (1024 bit)
                Modulus (1024 bit):
                    00:9d:23:10:ed:87:82:b0:eb:a4:fb:49:f5:db:c1:
                    7b:4d:f0:ed:1b:f5:f8:f2:c1:b5:d2:84:de:eb:94:
                    82:f0:de:8b:04:b7:e8:ed:86:22:41:99:56:54:71:
                    33:8e:c1:69:6a:2b:f4:77:1e:24:70:81:5b:56:08:
                    57:02:4c:bf:af:9a:a0:33:55:e2:00:6b:b3:cc:5c:
                    3b:47:6e:dc:05:30:bd:0c:f9:51:c0:70:2b:3f:70:
                    a2:10:a3:b7:8b:3f:22:fa:ab:bd:c7:48:a5:ff:d3:
                    7b:d0:b7:12:48:0b:bf:90:62:f1:8a:40:db:1d:1a:
                    0c:f5:dd:92:2a:1c:b6:2c:6b
                Exponent: 65537 (0x10001)
        X509v3 extensions:
            X509v3 Subject Key Identifier: 
                8D:5E:71:FA:2A:73:BA:9F:8E:63:32:1C:5D:AB:87:D0:AB:47:AB:B7
            X509v3 Authority Key Identifier: 
                keyid:8D:5E:71:FA:2A:73:BA:9F:8E:63:32:1C:5D:AB:87:D0:AB:47:AB:B7

            X509v3 Basic Constraints: 
                CA:TRUE
    Signature Algorithm: sha1WithRSAEncryption
        18:ac:0d:d3:50:38:ee:7c:55:1c:e9:30:c0:57:5b:4f:cb:7d:
        14:59:18:de:92:20:e6:67:a8:a8:ed:da:01:33:5a:48:4c:e4:
        66:85:25:8d:6b:56:81:67:f3:af:e9:f8:12:5c:19:07:17:98:
        bf:d7:0f:ba:b5:64:6b:ec:17:ca:0c:d6:ce:c3:b3:09:43:0a:
        04:8f:da:4b:c8:a3:45:ea:ef:ca:f8:7a:2e:91:a8:8c:f1:a7:
        d4:7b:6d:9d:73:4b:9a:1c:be:04:b1:02:b3:b7:2a:e9:fd:19:
        86:f2:26:ac:45:a1:0f:9b:99:1a:53:b1:69:99:3e:6c:51:23:
        40:70
-----BEGIN CERTIFICATE-----
MIICsDCCAhmgAwIBAgIJAO9sL1fZ/VoPMA0GCSqGSIb3DQEBBQUAMHExbzAJBgNV
BAYTAlVTMA8GA1UECgwIQ2hyb21pdW0wFgYKCZImiZPyLGQBGRYIQ2hyb21pdW0w
GgYDVQQDDBNNdWx0aXZhbHVlIFJETiBUZXN0MB0GA1UECwwWQ2hyb21pdW0gbmV0
X3VuaXR0ZXN0czAeFw0xMTEyMDIwMzQ3MzlaFw0xMjAxMDEwMzQ3MzlaMHExbzAJ
BgNVBAYTAlVTMA8GA1UECgwIQ2hyb21pdW0wFgYKCZImiZPyLGQBGRYIQ2hyb21p
dW0wGgYDVQQDDBNNdWx0aXZhbHVlIFJETiBUZXN0MB0GA1UECwwWQ2hyb21pdW0g
bmV0X3VuaXR0ZXN0czCBnzANBgkqhkiG9w0BAQEFAAOBjQAwgYkCgYEAnSMQ7YeC
sOuk+0n128F7TfDtG/X48sG10oTe65SC8N6LBLfo7YYiQZlWVHEzjsFpaiv0dx4k
cIFbVghXAky/r5qgM1XiAGuzzFw7R27cBTC9DPlRwHArP3CiEKO3iz8i+qu9x0il
/9N70LcSSAu/kGLxikDbHRoM9d2SKhy2LGsCAwEAAaNQME4wHQYDVR0OBBYEFI1e
cfoqc7qfjmMyHF2rh9CrR6u3MB8GA1UdIwQYMBaAFI1ecfoqc7qfjmMyHF2rh9Cr
R6u3MAwGA1UdEwQFMAMBAf8wDQYJKoZIhvcNAQEFBQADgYEAGKwN01A47nxVHOkw
wFdbT8t9FFkY3pIg5meoqO3aATNaSEzkZoUljWtWgWfzr+n4ElwZBxeYv9cPurVk
a+wXygzWzsOzCUMKBI/aS8ijRervyvh6LpGojPGn1HttnXNLmhy+BLECs7cq6f0Z
hvImrEWhD5uZGlOxaZk+bFEjQHA=
-----END CERTIFICATE-----
