Certificate:
    Data:
        Version: 3 (0x2)
        Serial Number: 4096 (0x1000)
    Signature Algorithm: sha256WithRSAEncryption
        Issuer: CN=B CA - Multi-root
        Validity
            Not Before: Feb 28 23:46:47 2017 GMT
            Not After : Feb 26 23:46:47 2027 GMT
        Subject: C=US, ST=California, L=Mountain View, O=Test CA, CN=127.0.0.1
        Subject Public Key Info:
            Public Key Algorithm: rsaEncryption
                Public-Key: (2048 bit)
                Modulus:
                    00:a4:18:86:3f:09:63:9c:d4:c0:06:45:a5:91:7f:
                    e7:a7:b8:3d:c7:ff:0d:e8:39:f5:43:27:a7:44:2a:
                    3b:53:03:e3:cd:13:23:46:5f:e0:27:f0:a3:7a:25:
                    82:b0:52:bb:03:4f:99:e3:2c:1b:6f:54:05:0f:7f:
                    4f:74:f9:ad:b2:88:85:43:63:06:ac:91:f1:19:b7:
                    da:7a:42:68:6a:68:a5:e0:02:44:23:eb:d1:05:0d:
                    3d:58:31:ee:ba:20:9e:16:11:f5:ae:b5:c3:21:cc:
                    84:e7:1a:d2:c2:8c:7e:44:93:36:bd:6c:0c:07:35:
                    f2:4e:57:3f:b3:cf:21:5a:ff:16:02:e9:61:f4:cc:
                    4a:5a:24:da:55:fc:c6:da:44:d6:b7:2a:4e:31:bf:
                    a0:80:24:55:ed:5c:bc:6b:84:12:a4:03:cc:b2:c2:
                    db:ef:1e:08:bd:a3:bf:ef:fc:3d:53:38:b9:00:8a:
                    d6:40:1a:cc:f2:6a:ab:e7:4b:67:1c:ae:ff:6d:43:
                    12:08:c6:97:4b:73:df:85:cf:2a:a5:6e:ce:22:02:
                    cb:63:6c:3f:00:aa:3b:b0:87:9b:d5:13:09:32:4c:
                    bd:71:79:ff:04:b1:9a:8d:2d:a0:0a:65:d5:1e:53:
                    c4:eb:0e:14:c0:b9:f3:8f:6f:64:b4:1d:11:a7:40:
                    e7:61
                Exponent: 65537 (0x10001)
        X509v3 extensions:
            X509v3 Basic Constraints: critical
                CA:FALSE
            X509v3 Subject Key Identifier: 
                28:6F:58:36:8F:1B:C5:99:18:5B:DC:A5:86:AF:89:F2:B4:3E:AF:51
            X509v3 Authority Key Identifier: 
                keyid:D0:8D:1F:B2:BC:29:96:73:EF:0C:7A:C2:A4:06:96:CF:D5:8C:31:DB

            X509v3 Extended Key Usage: 
                TLS Web Server Authentication, TLS Web Client Authentication
            X509v3 Subject Alternative Name: 
                IP Address:127.0.0.1
    Signature Algorithm: sha256WithRSAEncryption
         07:8f:f9:c6:33:3c:bc:74:20:21:92:46:7a:c5:df:76:18:47:
         63:0c:5e:e8:f3:97:ec:37:83:0b:4d:a4:1c:6b:0b:a2:28:db:
         5c:17:d9:91:77:00:4a:db:46:f9:68:ec:2a:f8:b5:82:0c:00:
         d1:88:0c:7c:b4:2d:e9:48:f5:a2:9d:a9:d5:bb:db:9d:56:96:
         c5:6c:46:da:23:a3:66:80:a5:9b:93:d0:df:9c:00:75:ac:48:
         ea:48:b4:22:ee:ff:db:eb:bb:8f:f0:de:16:a1:99:98:85:4c:
         b3:66:dd:22:96:96:97:48:ae:8a:2d:e9:a5:1c:5c:d9:dd:31:
         3f:58:7c:bb:2b:db:86:6a:53:e5:af:6d:85:3a:ca:92:5d:56:
         e2:02:90:d7:eb:98:0f:d8:ba:2a:d1:26:bb:82:5b:80:d5:2d:
         52:d7:40:4d:0d:0d:1e:fe:c2:89:be:e2:80:4d:cd:91:dc:f3:
         fa:19:25:3e:ba:a8:cf:48:d3:b6:35:a5:96:6e:a5:12:d1:65:
         65:a9:92:6b:d0:fc:05:25:7c:fb:76:48:38:15:7e:4f:95:03:
         b0:c3:55:89:bc:59:be:de:3c:fb:4b:5a:f1:3b:00:c1:03:59:
         6c:b3:8b:21:7e:84:75:30:19:8c:19:f6:99:40:ec:87:43:3b:
         89:d0:f5:6d
-----BEGIN CERTIFICATE-----
MIIDeTCCAmGgAwIBAgICEAAwDQYJKoZIhvcNAQELBQAwHDEaMBgGA1UEAwwRQiBD
QSAtIE11bHRpLXJvb3QwHhcNMTcwMjI4MjM0NjQ3WhcNMjcwMjI2MjM0NjQ3WjBg
MQswCQYDVQQGEwJVUzETMBEGA1UECAwKQ2FsaWZvcm5pYTEWMBQGA1UEBwwNTW91
bnRhaW4gVmlldzEQMA4GA1UECgwHVGVzdCBDQTESMBAGA1UEAwwJMTI3LjAuMC4x
MIIBIjANBgkqhkiG9w0BAQEFAAOCAQ8AMIIBCgKCAQEApBiGPwljnNTABkWlkX/n
p7g9x/8N6Dn1QyenRCo7UwPjzRMjRl/gJ/CjeiWCsFK7A0+Z4ywbb1QFD39PdPmt
soiFQ2MGrJHxGbfaekJoamil4AJEI+vRBQ09WDHuuiCeFhH1rrXDIcyE5xrSwox+
RJM2vWwMBzXyTlc/s88hWv8WAulh9MxKWiTaVfzG2kTWtypOMb+ggCRV7Vy8a4QS
pAPMssLb7x4IvaO/7/w9Uzi5AIrWQBrM8mqr50tnHK7/bUMSCMaXS3Pfhc8qpW7O
IgLLY2w/AKo7sIeb1RMJMky9cXn/BLGajS2gCmXVHlPE6w4UwLnzj29ktB0Rp0Dn
YQIDAQABo4GAMH4wDAYDVR0TAQH/BAIwADAdBgNVHQ4EFgQUKG9YNo8bxZkYW9yl
hq+J8rQ+r1EwHwYDVR0jBBgwFoAU0I0fsrwplnPvDHrCpAaWz9WMMdswHQYDVR0l
BBYwFAYIKwYBBQUHAwEGCCsGAQUFBwMCMA8GA1UdEQQIMAaHBH8AAAEwDQYJKoZI
hvcNAQELBQADggEBAAeP+cYzPLx0ICGSRnrF33YYR2MMXujzl+w3gwtNpBxrC6Io
21wX2ZF3AErbRvlo7Cr4tYIMANGIDHy0LelI9aKdqdW7251WlsVsRtojo2aApZuT
0N+cAHWsSOpItCLu/9vru4/w3hahmZiFTLNm3SKWlpdIroot6aUcXNndMT9YfLsr
24ZqU+WvbYU6ypJdVuICkNfrmA/YuirRJruCW4DVLVLXQE0NDR7+wom+4oBNzZHc
8/oZJT66qM9I07Y1pZZupRLRZWWpkmvQ/AUlfPt2SDgVfk+VA7DDVYm8Wb7ePPtL
WvE7AMEDWWyziyF+hHUwGYwZ9plA7IdDO4nQ9W0=
-----END CERTIFICATE-----
Certificate:
    Data:
        Version: 3 (0x2)
        Serial Number: 4096 (0x1000)
    Signature Algorithm: sha256WithRSAEncryption
        Issuer: CN=C CA - Multi-root
        Validity
            Not Before: Jan  4 00:00:00 2016 GMT
            Not After : Jan  2 00:00:00 2026 GMT
        Subject: CN=B CA - Multi-root
        Subject Public Key Info:
            Public Key Algorithm: rsaEncryption
                Public-Key: (2048 bit)
                Modulus:
                    00:ca:6c:54:ab:3c:54:33:6c:d7:04:c4:4b:c4:39:
                    32:db:7a:49:e4:e1:e7:60:c7:35:33:08:59:ba:62:
                    bf:49:d6:05:1f:07:b8:b6:bd:38:2f:6b:a7:e5:8d:
                    de:79:27:d8:36:58:92:69:cc:db:8e:6a:89:b4:79:
                    ab:cf:98:53:08:12:17:9e:51:15:bc:e7:8f:e5:93:
                    d9:1a:2e:68:a9:93:3c:d3:7a:75:a4:5c:c2:fc:16:
                    9b:ba:df:49:5d:73:65:ec:b0:cc:1e:ba:cc:98:39:
                    d1:4e:b2:d6:5f:e8:7f:24:1a:fa:56:b0:0d:33:46:
                    22:56:4f:5c:f3:16:ad:55:8a:62:3c:bc:50:c2:3a:
                    58:3e:70:4d:5a:df:99:ec:c7:a6:2c:8f:2a:a5:2e:
                    11:b8:58:c5:d5:e8:43:2f:40:a5:20:80:32:2a:76:
                    5e:06:07:48:6d:44:60:ba:21:72:61:e2:1a:ec:64:
                    5d:72:72:f1:21:9d:04:2f:61:35:0b:2f:f0:c0:fe:
                    52:b8:c4:41:9c:b6:13:58:21:81:e3:28:27:4d:6c:
                    24:a3:20:fb:0f:9c:d4:4f:34:3a:d0:d1:08:84:c4:
                    40:71:44:4f:e8:be:c5:1f:5d:1c:34:64:0b:6c:1c:
                    24:fa:a9:83:49:c6:f5:4d:7f:63:c0:1a:a9:77:8a:
                    c0:43
                Exponent: 65537 (0x10001)
        X509v3 extensions:
            X509v3 Basic Constraints: critical
                CA:TRUE
            X509v3 Subject Key Identifier: 
                D0:8D:1F:B2:BC:29:96:73:EF:0C:7A:C2:A4:06:96:CF:D5:8C:31:DB
            X509v3 Key Usage: critical
                Certificate Sign, CRL Sign
    Signature Algorithm: sha256WithRSAEncryption
         1e:16:7c:d7:d1:ee:63:a9:a2:b1:87:2c:8b:1e:d3:cf:51:14:
         ed:12:0b:ec:67:2b:7f:3b:0e:8e:3c:50:bb:d1:dc:3b:40:1a:
         ec:44:30:c4:f6:65:c2:c3:5d:d8:cb:c2:6c:13:2e:5a:2d:76:
         c6:6b:5d:65:a5:7e:c2:bf:cb:fc:b1:50:b0:43:47:fc:a3:7b:
         07:d1:77:50:4f:d2:53:98:8f:a2:00:97:13:d9:b7:83:2e:d9:
         c4:2a:e6:b1:fc:2d:6c:ce:d1:61:73:aa:40:e0:ce:87:74:43:
         a2:f7:b5:d9:5f:46:79:97:28:c4:de:15:60:3b:3e:3f:3d:1d:
         14:f4:87:ef:b9:08:09:2a:fb:d0:d5:1b:4f:77:f9:0d:c9:4b:
         23:32:1c:06:04:a6:83:aa:00:9c:70:c2:2b:01:42:1e:f6:d6:
         d3:5c:f9:a8:b7:84:9e:44:12:9a:9f:a8:2a:89:56:69:a6:2f:
         e9:ee:67:e9:7e:32:b5:ef:6b:4e:f0:12:23:fa:85:3e:03:59:
         94:db:88:99:04:55:c4:d1:df:df:c6:e2:fd:61:c5:f6:af:dc:
         4c:e4:52:8f:f2:c8:07:39:dd:99:33:49:85:1e:df:e1:1f:08:
         6b:e0:d2:1b:93:db:32:05:4b:39:ee:b3:f1:b6:af:18:07:a7:
         24:9c:1e:75
-----BEGIN CERTIFICATE-----
MIIC9jCCAd6gAwIBAgICEAAwDQYJKoZIhvcNAQELBQAwHDEaMBgGA1UEAwwRQyBD
QSAtIE11bHRpLXJvb3QwHhcNMTYwMTA0MDAwMDAwWhcNMjYwMTAyMDAwMDAwWjAc
MRowGAYDVQQDDBFCIENBIC0gTXVsdGktcm9vdDCCASIwDQYJKoZIhvcNAQEBBQAD
ggEPADCCAQoCggEBAMpsVKs8VDNs1wTES8Q5Mtt6SeTh52DHNTMIWbpiv0nWBR8H
uLa9OC9rp+WN3nkn2DZYkmnM245qibR5q8+YUwgSF55RFbznj+WT2RouaKmTPNN6
daRcwvwWm7rfSV1zZeywzB66zJg50U6y1l/ofyQa+lawDTNGIlZPXPMWrVWKYjy8
UMI6WD5wTVrfmezHpiyPKqUuEbhYxdXoQy9ApSCAMip2XgYHSG1EYLohcmHiGuxk
XXJy8SGdBC9hNQsv8MD+UrjEQZy2E1ghgeMoJ01sJKMg+w+c1E80OtDRCITEQHFE
T+i+xR9dHDRkC2wcJPqpg0nG9U1/Y8AaqXeKwEMCAwEAAaNCMEAwDwYDVR0TAQH/
BAUwAwEB/zAdBgNVHQ4EFgQU0I0fsrwplnPvDHrCpAaWz9WMMdswDgYDVR0PAQH/
BAQDAgEGMA0GCSqGSIb3DQEBCwUAA4IBAQAeFnzX0e5jqaKxhyyLHtPPURTtEgvs
Zyt/Ow6OPFC70dw7QBrsRDDE9mXCw13Yy8JsEy5aLXbGa11lpX7Cv8v8sVCwQ0f8
o3sH0XdQT9JTmI+iAJcT2beDLtnEKuax/C1sztFhc6pA4M6HdEOi97XZX0Z5lyjE
3hVgOz4/PR0U9IfvuQgJKvvQ1RtPd/kNyUsjMhwGBKaDqgCccMIrAUIe9tbTXPmo
t4SeRBKan6gqiVZppi/p7mfpfjK172tO8BIj+oU+A1mU24iZBFXE0d/fxuL9YcX2
r9xM5FKP8sgHOd2ZM0mFHt/hHwhr4NIbk9syBUs57rPxtq8YB6cknB51
-----END CERTIFICATE-----
Certificate:
    Data:
        Version: 3 (0x2)
        Serial Number: 4097 (0x1001)
    Signature Algorithm: sha256WithRSAEncryption
        Issuer: CN=D Root CA - Multi-root
        Validity
            Not Before: Jan  3 00:00:00 2016 GMT
            Not After : Jan  2 00:00:00 2026 GMT
        Subject: CN=C CA - Multi-root
        Subject Public Key Info:
            Public Key Algorithm: rsaEncryption
                Public-Key: (2048 bit)
                Modulus:
                    00:b2:c4:16:dc:07:88:ec:7e:a6:b3:25:c8:7b:9c:
                    e0:07:1e:40:a9:40:c0:4d:c8:73:27:ea:88:d8:58:
                    1a:1a:12:e3:9a:62:41:4c:a1:e9:b1:ce:c6:b2:f6:
                    3a:f6:89:3f:40:e6:0f:fb:15:4b:cb:d2:8d:8e:b6:
                    44:aa:63:fa:3b:c5:cc:af:86:05:70:aa:ec:f4:b3:
                    79:04:e6:3e:25:ec:ec:29:d6:c9:8b:7b:13:05:a7:
                    ff:51:5b:ab:4c:bc:d0:e4:bd:61:1a:d2:27:f1:2e:
                    5f:f4:51:81:c4:23:ba:20:c3:14:08:b4:be:78:49:
                    b5:13:1f:69:fd:f6:a7:59:91:84:a9:99:10:c8:9c:
                    63:9e:99:c2:f2:3d:61:9d:6a:6e:d4:26:9b:88:aa:
                    da:66:b3:0d:c6:99:03:16:13:3a:a4:9a:ff:08:3e:
                    59:df:a7:44:b7:17:99:3f:63:7f:3a:05:7e:ce:64:
                    78:34:e6:00:77:69:e6:03:24:a7:12:f3:e8:a8:50:
                    2b:55:16:fa:6e:65:c6:28:58:82:a4:20:7e:68:22:
                    e9:81:9e:a2:e8:0f:d6:87:c2:73:dd:c2:0c:cc:a3:
                    47:54:11:f5:3d:dc:51:52:57:b2:ce:77:8b:7a:ac:
                    a7:f0:2a:26:36:e6:26:b9:6a:83:da:b2:6f:c0:f6:
                    1e:f3
                Exponent: 65537 (0x10001)
        X509v3 extensions:
            X509v3 Basic Constraints: critical
                CA:TRUE
            X509v3 Subject Key Identifier: 
                E3:D1:05:98:4C:68:53:C2:DC:00:EE:AC:E5:A8:B8:FC:B9:72:D9:67
            X509v3 Key Usage: critical
                Certificate Sign, CRL Sign
    Signature Algorithm: sha256WithRSAEncryption
         7e:5b:a7:f2:c7:15:33:73:ce:e4:1e:77:ba:35:8b:44:01:57:
         b1:db:55:d3:54:95:c6:44:27:89:3f:e5:46:98:de:4a:7e:d9:
         e7:6c:e8:0d:d5:e2:98:31:07:21:9c:bd:01:47:be:0c:e1:b3:
         22:1e:ea:da:d4:fc:b5:37:5d:94:de:06:9b:69:a5:77:22:d0:
         96:80:35:9f:02:a0:cd:41:35:b3:21:94:ca:9b:03:4f:68:18:
         5e:6d:0d:95:95:17:ab:bd:00:9b:d0:78:f7:38:5e:37:df:33:
         15:2f:3e:64:27:c8:67:5e:c4:14:92:08:90:55:34:8d:73:d9:
         66:0c:30:dd:42:ab:71:73:b4:26:28:b1:13:90:7b:0a:10:f2:
         7c:75:07:36:1f:a5:b6:a5:97:ac:20:c7:83:0c:15:cf:5c:34:
         df:3f:8d:81:3e:c0:43:2a:ca:6f:c4:86:cc:2f:93:e1:5d:18:
         68:a4:bd:cc:5b:39:fa:40:fa:d4:a7:8b:7a:5d:b7:59:77:48:
         9b:ab:e0:71:b2:04:1f:79:ea:d1:cd:d3:24:52:5b:4b:21:2f:
         84:2e:b4:d6:87:1d:4f:fe:e7:6c:94:ff:d0:02:50:6b:bc:2a:
         1e:21:a5:ac:3e:73:b5:2f:ba:11:c5:6f:8f:f7:8e:eb:08:11:
         00:cb:e3:2d
-----BEGIN CERTIFICATE-----
MIIC+zCCAeOgAwIBAgICEAEwDQYJKoZIhvcNAQELBQAwITEfMB0GA1UEAwwWRCBS
b290IENBIC0gTXVsdGktcm9vdDAeFw0xNjAxMDMwMDAwMDBaFw0yNjAxMDIwMDAw
MDBaMBwxGjAYBgNVBAMMEUMgQ0EgLSBNdWx0aS1yb290MIIBIjANBgkqhkiG9w0B
AQEFAAOCAQ8AMIIBCgKCAQEAssQW3AeI7H6msyXIe5zgBx5AqUDATchzJ+qI2Fga
GhLjmmJBTKHpsc7GsvY69ok/QOYP+xVLy9KNjrZEqmP6O8XMr4YFcKrs9LN5BOY+
JezsKdbJi3sTBaf/UVurTLzQ5L1hGtIn8S5f9FGBxCO6IMMUCLS+eEm1Ex9p/fan
WZGEqZkQyJxjnpnC8j1hnWpu1CabiKraZrMNxpkDFhM6pJr/CD5Z36dEtxeZP2N/
OgV+zmR4NOYAd2nmAySnEvPoqFArVRb6bmXGKFiCpCB+aCLpgZ6i6A/Wh8Jz3cIM
zKNHVBH1PdxRUleyzneLeqyn8ComNuYmuWqD2rJvwPYe8wIDAQABo0IwQDAPBgNV
HRMBAf8EBTADAQH/MB0GA1UdDgQWBBTj0QWYTGhTwtwA7qzlqLj8uXLZZzAOBgNV
HQ8BAf8EBAMCAQYwDQYJKoZIhvcNAQELBQADggEBAH5bp/LHFTNzzuQed7o1i0QB
V7HbVdNUlcZEJ4k/5UaY3kp+2eds6A3V4pgxByGcvQFHvgzhsyIe6trU/LU3XZTe
BptppXci0JaANZ8CoM1BNbMhlMqbA09oGF5tDZWVF6u9AJvQePc4XjffMxUvPmQn
yGdexBSSCJBVNI1z2WYMMN1Cq3FztCYosROQewoQ8nx1BzYfpball6wgx4MMFc9c
NN8/jYE+wEMqym/Ehswvk+FdGGikvcxbOfpA+tSni3pdt1l3SJur4HGyBB956tHN
0yRSW0shL4QutNaHHU/+52yU/9ACUGu8Kh4hpaw+c7UvuhHFb4/3jusIEQDL4y0=
-----END CERTIFICATE-----
Certificate:
    Data:
        Version: 3 (0x2)
        Serial Number: 4096 (0x1000)
    Signature Algorithm: sha256WithRSAEncryption
        Issuer: CN=D Root CA - Multi-root
        Validity
            Not Before: Jan  2 00:00:00 2016 GMT
            Not After : Jan  2 00:00:00 2026 GMT
        Subject: CN=D Root CA - Multi-root
        Subject Public Key Info:
            Public Key Algorithm: rsaEncryption
                Public-Key: (2048 bit)
                Modulus:
                    00:b4:b2:8e:83:7f:3b:8b:0f:9f:71:37:18:78:d0:
                    f5:bc:07:ac:d8:eb:bf:f6:7c:c0:65:dc:00:bf:83:
                    f7:e4:5e:97:9f:db:24:e4:c1:f9:31:70:b2:51:44:
                    2c:27:05:6a:1f:1e:35:9c:ea:c4:eb:f8:0a:c4:4b:
                    14:30:89:e8:75:93:fb:96:32:bc:0e:64:ca:11:74:
                    4a:ac:26:a0:9c:09:cd:6e:43:cf:6c:56:03:44:ab:
                    53:81:66:8d:5a:ad:75:1b:31:23:9f:fd:5e:8c:10:
                    cd:e9:e9:05:80:41:5e:b8:f1:96:3d:5b:17:b2:e1:
                    a8:47:44:eb:82:30:5e:7a:fe:8f:11:bb:b8:31:8e:
                    98:4c:a9:f3:2c:91:59:78:f4:63:1c:47:ad:6a:96:
                    5e:87:39:f3:17:9b:d6:9c:e9:e1:3c:0e:ef:8a:d8:
                    7e:c3:2d:33:d9:eb:26:29:1d:8a:66:ef:b9:8d:c3:
                    b1:51:3a:75:56:1b:b8:a9:08:e7:10:db:37:70:c4:
                    6c:32:c0:e1:2b:f4:84:12:a5:cf:49:83:e1:5a:40:
                    ab:db:f9:23:c5:7d:c0:03:ac:0e:3e:be:7c:42:92:
                    fb:b7:71:91:37:04:92:4e:d5:92:31:cf:1b:cd:e4:
                    27:e5:85:98:ac:20:95:5d:6d:4e:90:fa:c7:6c:2b:
                    fd:41
                Exponent: 65537 (0x10001)
        X509v3 extensions:
            X509v3 Basic Constraints: critical
                CA:TRUE
            X509v3 Subject Key Identifier: 
                69:E7:FF:33:A6:6B:A0:AD:5A:F1:D3:15:4F:9E:F7:C5:16:2E:C4:B6
            X509v3 Key Usage: critical
                Certificate Sign, CRL Sign
    Signature Algorithm: sha256WithRSAEncryption
         55:ec:3a:cd:87:dc:96:54:23:68:65:f7:a6:91:3c:37:f0:44:
         94:2e:2f:3a:af:2c:0d:f4:09:f6:52:69:4f:ad:ac:83:6c:76:
         76:72:2b:c0:48:ea:c9:76:c0:f5:7a:1e:73:ba:3c:f3:41:93:
         b4:4b:a5:6a:a3:87:f5:c7:6f:e9:55:ce:e0:8b:8c:83:e6:f0:
         e0:1c:e8:6a:8f:3b:67:b6:cd:35:6d:0b:1c:16:bf:38:fd:9d:
         d8:95:a9:3c:b9:4c:05:19:71:f4:a0:2c:1f:83:18:5a:f3:5a:
         ea:80:49:70:cc:49:84:63:7c:a9:4d:cb:1f:df:96:f2:c4:2c:
         2c:e8:b0:75:69:8c:a9:71:7e:27:6a:fe:22:c6:77:e0:77:f4:
         98:05:29:45:18:75:a3:f0:43:40:b2:8d:52:cb:2e:46:fb:37:
         bb:c6:68:20:c2:2e:01:82:51:f0:00:3a:89:40:9b:ab:9c:c3:
         5c:f2:a3:3b:f7:00:98:4d:bd:a7:74:37:f6:74:c7:6e:42:4b:
         aa:8c:cc:c7:85:b2:4b:78:cb:8c:03:7c:e5:85:75:32:a9:89:
         49:da:ed:3d:9e:5b:a2:c9:b2:2a:08:06:6d:cf:df:83:d4:a9:
         3d:e9:44:de:70:9c:43:e3:35:24:dd:85:ed:7c:37:4e:02:44:
         d2:5d:7a:ad
-----BEGIN CERTIFICATE-----
MIIDADCCAeigAwIBAgICEAAwDQYJKoZIhvcNAQELBQAwITEfMB0GA1UEAwwWRCBS
b290IENBIC0gTXVsdGktcm9vdDAeFw0xNjAxMDIwMDAwMDBaFw0yNjAxMDIwMDAw
MDBaMCExHzAdBgNVBAMMFkQgUm9vdCBDQSAtIE11bHRpLXJvb3QwggEiMA0GCSqG
SIb3DQEBAQUAA4IBDwAwggEKAoIBAQC0so6DfzuLD59xNxh40PW8B6zY67/2fMBl
3AC/g/fkXpef2yTkwfkxcLJRRCwnBWofHjWc6sTr+ArESxQwieh1k/uWMrwOZMoR
dEqsJqCcCc1uQ89sVgNEq1OBZo1arXUbMSOf/V6MEM3p6QWAQV648ZY9Wxey4ahH
ROuCMF56/o8Ru7gxjphMqfMskVl49GMcR61qll6HOfMXm9ac6eE8Du+K2H7DLTPZ
6yYpHYpm77mNw7FROnVWG7ipCOcQ2zdwxGwywOEr9IQSpc9Jg+FaQKvb+SPFfcAD
rA4+vnxCkvu3cZE3BJJO1ZIxzxvN5CflhZisIJVdbU6Q+sdsK/1BAgMBAAGjQjBA
MA8GA1UdEwEB/wQFMAMBAf8wHQYDVR0OBBYEFGnn/zOma6CtWvHTFU+e98UWLsS2
MA4GA1UdDwEB/wQEAwIBBjANBgkqhkiG9w0BAQsFAAOCAQEAVew6zYfcllQjaGX3
ppE8N/BElC4vOq8sDfQJ9lJpT62sg2x2dnIrwEjqyXbA9Xoec7o880GTtEulaqOH
9cdv6VXO4IuMg+bw4Bzoao87Z7bNNW0LHBa/OP2d2JWpPLlMBRlx9KAsH4MYWvNa
6oBJcMxJhGN8qU3LH9+W8sQsLOiwdWmMqXF+J2r+IsZ34Hf0mAUpRRh1o/BDQLKN
UssuRvs3u8ZoIMIuAYJR8AA6iUCbq5zDXPKjO/cAmE29p3Q39nTHbkJLqozMx4Wy
S3jLjAN85YV1MqmJSdrtPZ5bosmyKggGbc/fg9SpPelE3nCcQ+M1JN2F7Xw3TgJE
0l16rQ==
-----END CERTIFICATE-----
