Certificate:
    Data:
        Version: 3 (0x2)
        Serial Number: 4096 (0x1000)
    Signature Algorithm: sha256WithRSAEncryption
        Issuer: CN=B CA - Multi-root
        Validity
            Not Before: Feb 28 23:46:47 2017 GMT
            Not After : Feb 26 23:46:47 2027 GMT
        Subject: C=US, ST=California, L=Mountain View, O=Test CA, CN=127.0.0.1
        Subject Public Key Info:
            Public Key Algorithm: rsaEncryption
                Public-Key: (2048 bit)
                Modulus:
                    00:a4:18:86:3f:09:63:9c:d4:c0:06:45:a5:91:7f:
                    e7:a7:b8:3d:c7:ff:0d:e8:39:f5:43:27:a7:44:2a:
                    3b:53:03:e3:cd:13:23:46:5f:e0:27:f0:a3:7a:25:
                    82:b0:52:bb:03:4f:99:e3:2c:1b:6f:54:05:0f:7f:
                    4f:74:f9:ad:b2:88:85:43:63:06:ac:91:f1:19:b7:
                    da:7a:42:68:6a:68:a5:e0:02:44:23:eb:d1:05:0d:
                    3d:58:31:ee:ba:20:9e:16:11:f5:ae:b5:c3:21:cc:
                    84:e7:1a:d2:c2:8c:7e:44:93:36:bd:6c:0c:07:35:
                    f2:4e:57:3f:b3:cf:21:5a:ff:16:02:e9:61:f4:cc:
                    4a:5a:24:da:55:fc:c6:da:44:d6:b7:2a:4e:31:bf:
                    a0:80:24:55:ed:5c:bc:6b:84:12:a4:03:cc:b2:c2:
                    db:ef:1e:08:bd:a3:bf:ef:fc:3d:53:38:b9:00:8a:
                    d6:40:1a:cc:f2:6a:ab:e7:4b:67:1c:ae:ff:6d:43:
                    12:08:c6:97:4b:73:df:85:cf:2a:a5:6e:ce:22:02:
                    cb:63:6c:3f:00:aa:3b:b0:87:9b:d5:13:09:32:4c:
                    bd:71:79:ff:04:b1:9a:8d:2d:a0:0a:65:d5:1e:53:
                    c4:eb:0e:14:c0:b9:f3:8f:6f:64:b4:1d:11:a7:40:
                    e7:61
                Exponent: 65537 (0x10001)
        X509v3 extensions:
            X509v3 Basic Constraints: critical
                CA:FALSE
            X509v3 Subject Key Identifier: 
                28:6F:58:36:8F:1B:C5:99:18:5B:DC:A5:86:AF:89:F2:B4:3E:AF:51
            X509v3 Authority Key Identifier: 
                keyid:D0:8D:1F:B2:BC:29:96:73:EF:0C:7A:C2:A4:06:96:CF:D5:8C:31:DB

            X509v3 Extended Key Usage: 
                TLS Web Server Authentication, TLS Web Client Authentication
            X509v3 Subject Alternative Name: 
                IP Address:127.0.0.1
    Signature Algorithm: sha256WithRSAEncryption
         07:8f:f9:c6:33:3c:bc:74:20:21:92:46:7a:c5:df:76:18:47:
         63:0c:5e:e8:f3:97:ec:37:83:0b:4d:a4:1c:6b:0b:a2:28:db:
         5c:17:d9:91:77:00:4a:db:46:f9:68:ec:2a:f8:b5:82:0c:00:
         d1:88:0c:7c:b4:2d:e9:48:f5:a2:9d:a9:d5:bb:db:9d:56:96:
         c5:6c:46:da:23:a3:66:80:a5:9b:93:d0:df:9c:00:75:ac:48:
         ea:48:b4:22:ee:ff:db:eb:bb:8f:f0:de:16:a1:99:98:85:4c:
         b3:66:dd:22:96:96:97:48:ae:8a:2d:e9:a5:1c:5c:d9:dd:31:
         3f:58:7c:bb:2b:db:86:6a:53:e5:af:6d:85:3a:ca:92:5d:56:
         e2:02:90:d7:eb:98:0f:d8:ba:2a:d1:26:bb:82:5b:80:d5:2d:
         52:d7:40:4d:0d:0d:1e:fe:c2:89:be:e2:80:4d:cd:91:dc:f3:
         fa:19:25:3e:ba:a8:cf:48:d3:b6:35:a5:96:6e:a5:12:d1:65:
         65:a9:92:6b:d0:fc:05:25:7c:fb:76:48:38:15:7e:4f:95:03:
         b0:c3:55:89:bc:59:be:de:3c:fb:4b:5a:f1:3b:00:c1:03:59:
         6c:b3:8b:21:7e:84:75:30:19:8c:19:f6:99:40:ec:87:43:3b:
         89:d0:f5:6d
-----BEGIN CERTIFICATE-----
MIIDeTCCAmGgAwIBAgICEAAwDQYJKoZIhvcNAQELBQAwHDEaMBgGA1UEAwwRQiBD
QSAtIE11bHRpLXJvb3QwHhcNMTcwMjI4MjM0NjQ3WhcNMjcwMjI2MjM0NjQ3WjBg
MQswCQYDVQQGEwJVUzETMBEGA1UECAwKQ2FsaWZvcm5pYTEWMBQGA1UEBwwNTW91
bnRhaW4gVmlldzEQMA4GA1UECgwHVGVzdCBDQTESMBAGA1UEAwwJMTI3LjAuMC4x
MIIBIjANBgkqhkiG9w0BAQEFAAOCAQ8AMIIBCgKCAQEApBiGPwljnNTABkWlkX/n
p7g9x/8N6Dn1QyenRCo7UwPjzRMjRl/gJ/CjeiWCsFK7A0+Z4ywbb1QFD39PdPmt
soiFQ2MGrJHxGbfaekJoamil4AJEI+vRBQ09WDHuuiCeFhH1rrXDIcyE5xrSwox+
RJM2vWwMBzXyTlc/s88hWv8WAulh9MxKWiTaVfzG2kTWtypOMb+ggCRV7Vy8a4QS
pAPMssLb7x4IvaO/7/w9Uzi5AIrWQBrM8mqr50tnHK7/bUMSCMaXS3Pfhc8qpW7O
IgLLY2w/AKo7sIeb1RMJMky9cXn/BLGajS2gCmXVHlPE6w4UwLnzj29ktB0Rp0Dn
YQIDAQABo4GAMH4wDAYDVR0TAQH/BAIwADAdBgNVHQ4EFgQUKG9YNo8bxZkYW9yl
hq+J8rQ+r1EwHwYDVR0jBBgwFoAU0I0fsrwplnPvDHrCpAaWz9WMMdswHQYDVR0l
BBYwFAYIKwYBBQUHAwEGCCsGAQUFBwMCMA8GA1UdEQQIMAaHBH8AAAEwDQYJKoZI
hvcNAQELBQADggEBAAeP+cYzPLx0ICGSRnrF33YYR2MMXujzl+w3gwtNpBxrC6Io
21wX2ZF3AErbRvlo7Cr4tYIMANGIDHy0LelI9aKdqdW7251WlsVsRtojo2aApZuT
0N+cAHWsSOpItCLu/9vru4/w3hahmZiFTLNm3SKWlpdIroot6aUcXNndMT9YfLsr
24ZqU+WvbYU6ypJdVuICkNfrmA/YuirRJruCW4DVLVLXQE0NDR7+wom+4oBNzZHc
8/oZJT66qM9I07Y1pZZupRLRZWWpkmvQ/AUlfPt2SDgVfk+VA7DDVYm8Wb7ePPtL
WvE7AMEDWWyziyF+hHUwGYwZ9plA7IdDO4nQ9W0=
-----END CERTIFICATE-----
Certificate:
    Data:
        Version: 3 (0x2)
        Serial Number: 4096 (0x1000)
    Signature Algorithm: sha256WithRSAEncryption
        Issuer: CN=C CA - Multi-root
        Validity
            Not Before: Jan  4 00:00:00 2016 GMT
            Not After : Jan  2 00:00:00 2026 GMT
        Subject: CN=B CA - Multi-root
        Subject Public Key Info:
            Public Key Algorithm: rsaEncryption
                Public-Key: (2048 bit)
                Modulus:
                    00:ca:6c:54:ab:3c:54:33:6c:d7:04:c4:4b:c4:39:
                    32:db:7a:49:e4:e1:e7:60:c7:35:33:08:59:ba:62:
                    bf:49:d6:05:1f:07:b8:b6:bd:38:2f:6b:a7:e5:8d:
                    de:79:27:d8:36:58:92:69:cc:db:8e:6a:89:b4:79:
                    ab:cf:98:53:08:12:17:9e:51:15:bc:e7:8f:e5:93:
                    d9:1a:2e:68:a9:93:3c:d3:7a:75:a4:5c:c2:fc:16:
                    9b:ba:df:49:5d:73:65:ec:b0:cc:1e:ba:cc:98:39:
                    d1:4e:b2:d6:5f:e8:7f:24:1a:fa:56:b0:0d:33:46:
                    22:56:4f:5c:f3:16:ad:55:8a:62:3c:bc:50:c2:3a:
                    58:3e:70:4d:5a:df:99:ec:c7:a6:2c:8f:2a:a5:2e:
                    11:b8:58:c5:d5:e8:43:2f:40:a5:20:80:32:2a:76:
                    5e:06:07:48:6d:44:60:ba:21:72:61:e2:1a:ec:64:
                    5d:72:72:f1:21:9d:04:2f:61:35:0b:2f:f0:c0:fe:
                    52:b8:c4:41:9c:b6:13:58:21:81:e3:28:27:4d:6c:
                    24:a3:20:fb:0f:9c:d4:4f:34:3a:d0:d1:08:84:c4:
                    40:71:44:4f:e8:be:c5:1f:5d:1c:34:64:0b:6c:1c:
                    24:fa:a9:83:49:c6:f5:4d:7f:63:c0:1a:a9:77:8a:
                    c0:43
                Exponent: 65537 (0x10001)
        X509v3 extensions:
            X509v3 Basic Constraints: critical
                CA:TRUE
            X509v3 Subject Key Identifier: 
                D0:8D:1F:B2:BC:29:96:73:EF:0C:7A:C2:A4:06:96:CF:D5:8C:31:DB
            X509v3 Key Usage: critical
                Certificate Sign, CRL Sign
    Signature Algorithm: sha256WithRSAEncryption
         1e:16:7c:d7:d1:ee:63:a9:a2:b1:87:2c:8b:1e:d3:cf:51:14:
         ed:12:0b:ec:67:2b:7f:3b:0e:8e:3c:50:bb:d1:dc:3b:40:1a:
         ec:44:30:c4:f6:65:c2:c3:5d:d8:cb:c2:6c:13:2e:5a:2d:76:
         c6:6b:5d:65:a5:7e:c2:bf:cb:fc:b1:50:b0:43:47:fc:a3:7b:
         07:d1:77:50:4f:d2:53:98:8f:a2:00:97:13:d9:b7:83:2e:d9:
         c4:2a:e6:b1:fc:2d:6c:ce:d1:61:73:aa:40:e0:ce:87:74:43:
         a2:f7:b5:d9:5f:46:79:97:28:c4:de:15:60:3b:3e:3f:3d:1d:
         14:f4:87:ef:b9:08:09:2a:fb:d0:d5:1b:4f:77:f9:0d:c9:4b:
         23:32:1c:06:04:a6:83:aa:00:9c:70:c2:2b:01:42:1e:f6:d6:
         d3:5c:f9:a8:b7:84:9e:44:12:9a:9f:a8:2a:89:56:69:a6:2f:
         e9:ee:67:e9:7e:32:b5:ef:6b:4e:f0:12:23:fa:85:3e:03:59:
         94:db:88:99:04:55:c4:d1:df:df:c6:e2:fd:61:c5:f6:af:dc:
         4c:e4:52:8f:f2:c8:07:39:dd:99:33:49:85:1e:df:e1:1f:08:
         6b:e0:d2:1b:93:db:32:05:4b:39:ee:b3:f1:b6:af:18:07:a7:
         24:9c:1e:75
-----BEGIN CERTIFICATE-----
MIIC9jCCAd6gAwIBAgICEAAwDQYJKoZIhvcNAQELBQAwHDEaMBgGA1UEAwwRQyBD
QSAtIE11bHRpLXJvb3QwHhcNMTYwMTA0MDAwMDAwWhcNMjYwMTAyMDAwMDAwWjAc
MRowGAYDVQQDDBFCIENBIC0gTXVsdGktcm9vdDCCASIwDQYJKoZIhvcNAQEBBQAD
ggEPADCCAQoCggEBAMpsVKs8VDNs1wTES8Q5Mtt6SeTh52DHNTMIWbpiv0nWBR8H
uLa9OC9rp+WN3nkn2DZYkmnM245qibR5q8+YUwgSF55RFbznj+WT2RouaKmTPNN6
daRcwvwWm7rfSV1zZeywzB66zJg50U6y1l/ofyQa+lawDTNGIlZPXPMWrVWKYjy8
UMI6WD5wTVrfmezHpiyPKqUuEbhYxdXoQy9ApSCAMip2XgYHSG1EYLohcmHiGuxk
XXJy8SGdBC9hNQsv8MD+UrjEQZy2E1ghgeMoJ01sJKMg+w+c1E80OtDRCITEQHFE
T+i+xR9dHDRkC2wcJPqpg0nG9U1/Y8AaqXeKwEMCAwEAAaNCMEAwDwYDVR0TAQH/
BAUwAwEB/zAdBgNVHQ4EFgQU0I0fsrwplnPvDHrCpAaWz9WMMdswDgYDVR0PAQH/
BAQDAgEGMA0GCSqGSIb3DQEBCwUAA4IBAQAeFnzX0e5jqaKxhyyLHtPPURTtEgvs
Zyt/Ow6OPFC70dw7QBrsRDDE9mXCw13Yy8JsEy5aLXbGa11lpX7Cv8v8sVCwQ0f8
o3sH0XdQT9JTmI+iAJcT2beDLtnEKuax/C1sztFhc6pA4M6HdEOi97XZX0Z5lyjE
3hVgOz4/PR0U9IfvuQgJKvvQ1RtPd/kNyUsjMhwGBKaDqgCccMIrAUIe9tbTXPmo
t4SeRBKan6gqiVZppi/p7mfpfjK172tO8BIj+oU+A1mU24iZBFXE0d/fxuL9YcX2
r9xM5FKP8sgHOd2ZM0mFHt/hHwhr4NIbk9syBUs57rPxtq8YB6cknB51
-----END CERTIFICATE-----
Certificate:
    Data:
        Version: 3 (0x2)
        Serial Number: 4097 (0x1001)
    Signature Algorithm: sha256WithRSAEncryption
        Issuer: CN=E Root CA - Multi-root
        Validity
            Not Before: Jan  5 00:00:00 2016 GMT
            Not After : Jan  2 00:00:00 2026 GMT
        Subject: CN=C CA - Multi-root
        Subject Public Key Info:
            Public Key Algorithm: rsaEncryption
                Public-Key: (2048 bit)
                Modulus:
                    00:b2:c4:16:dc:07:88:ec:7e:a6:b3:25:c8:7b:9c:
                    e0:07:1e:40:a9:40:c0:4d:c8:73:27:ea:88:d8:58:
                    1a:1a:12:e3:9a:62:41:4c:a1:e9:b1:ce:c6:b2:f6:
                    3a:f6:89:3f:40:e6:0f:fb:15:4b:cb:d2:8d:8e:b6:
                    44:aa:63:fa:3b:c5:cc:af:86:05:70:aa:ec:f4:b3:
                    79:04:e6:3e:25:ec:ec:29:d6:c9:8b:7b:13:05:a7:
                    ff:51:5b:ab:4c:bc:d0:e4:bd:61:1a:d2:27:f1:2e:
                    5f:f4:51:81:c4:23:ba:20:c3:14:08:b4:be:78:49:
                    b5:13:1f:69:fd:f6:a7:59:91:84:a9:99:10:c8:9c:
                    63:9e:99:c2:f2:3d:61:9d:6a:6e:d4:26:9b:88:aa:
                    da:66:b3:0d:c6:99:03:16:13:3a:a4:9a:ff:08:3e:
                    59:df:a7:44:b7:17:99:3f:63:7f:3a:05:7e:ce:64:
                    78:34:e6:00:77:69:e6:03:24:a7:12:f3:e8:a8:50:
                    2b:55:16:fa:6e:65:c6:28:58:82:a4:20:7e:68:22:
                    e9:81:9e:a2:e8:0f:d6:87:c2:73:dd:c2:0c:cc:a3:
                    47:54:11:f5:3d:dc:51:52:57:b2:ce:77:8b:7a:ac:
                    a7:f0:2a:26:36:e6:26:b9:6a:83:da:b2:6f:c0:f6:
                    1e:f3
                Exponent: 65537 (0x10001)
        X509v3 extensions:
            X509v3 Basic Constraints: critical
                CA:TRUE
            X509v3 Subject Key Identifier: 
                E3:D1:05:98:4C:68:53:C2:DC:00:EE:AC:E5:A8:B8:FC:B9:72:D9:67
            X509v3 Key Usage: critical
                Certificate Sign, CRL Sign
    Signature Algorithm: sha256WithRSAEncryption
         0d:37:a8:9e:12:c9:fb:45:a2:b9:82:07:4a:2a:34:d2:3b:1d:
         84:70:b1:4a:85:37:7e:64:31:45:c3:02:9d:32:4e:92:a4:97:
         72:ed:1d:f2:c3:26:c8:3f:90:e4:24:f4:6e:4b:33:71:98:bc:
         68:25:26:cc:de:c1:46:a6:a8:83:60:fc:6e:c0:72:98:8f:ce:
         38:6e:69:9d:ab:d1:5a:f0:a6:c8:07:a1:09:b3:8c:03:09:7b:
         44:62:73:15:85:71:5f:2c:0a:33:78:f2:a3:10:85:1e:6b:46:
         d1:a5:f1:9c:13:ba:f7:95:41:a0:fb:de:c9:09:e1:72:a4:92:
         ff:33:e4:81:25:10:af:90:17:79:df:54:ea:b9:87:0e:f8:6d:
         09:55:10:46:4c:87:36:37:2f:c0:86:03:ee:7a:b4:d3:27:22:
         22:d5:9c:2e:e6:38:f0:f4:84:5c:ca:b7:9b:4d:6a:1c:57:7e:
         24:07:35:13:a0:f9:d6:a3:aa:29:cb:e0:8a:b0:86:1c:41:24:
         b1:ed:04:30:71:2b:99:d7:0a:a4:51:53:b1:76:2e:be:63:5b:
         7c:8e:d5:8f:fa:f3:99:58:7d:ce:30:07:5d:1e:ed:e6:bc:0a:
         d1:a7:cc:17:94:e7:d1:67:07:7c:37:6d:3f:c2:8b:04:9e:77:
         fb:5b:9c:2d
-----BEGIN CERTIFICATE-----
MIIC+zCCAeOgAwIBAgICEAEwDQYJKoZIhvcNAQELBQAwITEfMB0GA1UEAwwWRSBS
b290IENBIC0gTXVsdGktcm9vdDAeFw0xNjAxMDUwMDAwMDBaFw0yNjAxMDIwMDAw
MDBaMBwxGjAYBgNVBAMMEUMgQ0EgLSBNdWx0aS1yb290MIIBIjANBgkqhkiG9w0B
AQEFAAOCAQ8AMIIBCgKCAQEAssQW3AeI7H6msyXIe5zgBx5AqUDATchzJ+qI2Fga
GhLjmmJBTKHpsc7GsvY69ok/QOYP+xVLy9KNjrZEqmP6O8XMr4YFcKrs9LN5BOY+
JezsKdbJi3sTBaf/UVurTLzQ5L1hGtIn8S5f9FGBxCO6IMMUCLS+eEm1Ex9p/fan
WZGEqZkQyJxjnpnC8j1hnWpu1CabiKraZrMNxpkDFhM6pJr/CD5Z36dEtxeZP2N/
OgV+zmR4NOYAd2nmAySnEvPoqFArVRb6bmXGKFiCpCB+aCLpgZ6i6A/Wh8Jz3cIM
zKNHVBH1PdxRUleyzneLeqyn8ComNuYmuWqD2rJvwPYe8wIDAQABo0IwQDAPBgNV
HRMBAf8EBTADAQH/MB0GA1UdDgQWBBTj0QWYTGhTwtwA7qzlqLj8uXLZZzAOBgNV
HQ8BAf8EBAMCAQYwDQYJKoZIhvcNAQELBQADggEBAA03qJ4SyftFormCB0oqNNI7
HYRwsUqFN35kMUXDAp0yTpKkl3LtHfLDJsg/kOQk9G5LM3GYvGglJszewUamqINg
/G7AcpiPzjhuaZ2r0VrwpsgHoQmzjAMJe0RicxWFcV8sCjN48qMQhR5rRtGl8ZwT
uveVQaD73skJ4XKkkv8z5IElEK+QF3nfVOq5hw74bQlVEEZMhzY3L8CGA+56tNMn
IiLVnC7mOPD0hFzKt5tNahxXfiQHNROg+dajqinL4IqwhhxBJLHtBDBxK5nXCqRR
U7F2Lr5jW3yO1Y/685lYfc4wB10e7ea8CtGnzBeU59FnB3w3bT/CiwSed/tbnC0=
-----END CERTIFICATE-----
Certificate:
    Data:
        Version: 3 (0x2)
        Serial Number: 4096 (0x1000)
    Signature Algorithm: sha256WithRSAEncryption
        Issuer: CN=E Root CA - Multi-root
        Validity
            Not Before: Jan  2 00:00:00 2016 GMT
            Not After : Jan  2 00:00:00 2026 GMT
        Subject: CN=E Root CA - Multi-root
        Subject Public Key Info:
            Public Key Algorithm: rsaEncryption
                Public-Key: (2048 bit)
                Modulus:
                    00:c0:14:71:12:fe:4f:36:78:5f:3a:b4:1e:d5:bb:
                    22:92:3e:57:bf:4d:e0:cf:1e:a1:fb:19:6d:88:3a:
                    59:93:79:57:42:bc:ab:7c:a0:0d:73:35:db:db:ba:
                    80:ef:a9:80:5b:b0:90:f5:2f:ea:17:7d:2b:92:a4:
                    5e:88:0a:16:f3:dc:f5:25:3d:7a:8d:8e:9b:e9:22:
                    74:dc:49:6e:87:ff:67:ae:3a:b8:09:63:63:e7:c2:
                    bd:77:d7:1b:cb:93:c6:4a:1d:7b:51:25:05:31:cb:
                    32:66:43:ea:2d:54:59:59:cd:de:d2:84:6f:d8:5a:
                    c1:5b:6c:2d:67:d5:57:23:25:a0:04:dc:45:64:02:
                    f0:de:1a:4a:62:c9:76:b5:f6:36:46:74:af:1f:18:
                    6c:f7:38:cf:34:e3:e1:3f:ad:51:41:cf:92:ed:d5:
                    27:f7:4a:e3:3c:d5:42:26:51:e3:b2:69:20:b1:1f:
                    0a:f6:fd:19:3c:8e:98:94:64:eb:fe:e6:67:a0:12:
                    f6:78:98:0f:44:b8:24:60:7c:de:e2:67:b9:0d:6e:
                    8c:06:80:43:8e:41:76:1d:09:40:0e:3b:e7:8d:0a:
                    d9:66:d7:34:6c:ce:7e:f9:25:6a:15:cf:9a:3e:ec:
                    30:e0:a3:b1:d2:a3:b1:31:f1:62:50:5c:b4:fe:dd:
                    54:61
                Exponent: 65537 (0x10001)
        X509v3 extensions:
            X509v3 Basic Constraints: critical
                CA:TRUE
            X509v3 Subject Key Identifier: 
                15:FA:C3:A2:2A:E0:2C:25:C5:BE:D7:BE:91:51:DD:45:F0:F1:5D:64
            X509v3 Key Usage: critical
                Certificate Sign, CRL Sign
    Signature Algorithm: sha256WithRSAEncryption
         bb:14:68:d2:09:0e:65:58:4d:d7:35:a0:a3:9b:e6:b4:2a:b4:
         80:32:3e:61:6d:87:19:a6:a8:d2:01:78:cd:07:0b:09:a9:de:
         5f:aa:86:43:dd:6f:d6:e0:3b:ab:60:71:d2:f0:aa:8f:14:93:
         42:37:12:55:02:e1:a7:ed:8e:db:c0:83:10:19:f0:f5:1e:35:
         77:84:9a:c1:79:9c:60:39:6f:50:00:66:73:6e:f0:b8:f7:75:
         67:3e:fa:3e:0c:d0:d6:54:4a:ae:da:38:06:92:57:39:cc:d9:
         b1:fa:60:5e:99:07:e6:97:3b:69:4d:e3:02:50:8d:60:76:8e:
         7e:e3:60:d4:65:41:9b:6c:b8:cc:b2:c4:7a:61:32:cb:67:49:
         b4:76:25:0c:7e:20:85:24:74:0a:90:0a:ce:73:f9:8e:ba:ce:
         de:6e:0a:cf:6d:1c:50:67:fa:a2:4e:32:d0:ad:91:35:5e:aa:
         b3:75:7e:23:14:29:a8:66:2a:82:ed:6c:ed:a9:9d:f6:77:20:
         3a:e1:0b:ab:1e:ee:1d:8a:20:ff:7f:4f:36:5a:0a:30:5a:c6:
         9c:aa:53:eb:3f:04:28:8a:6d:70:97:2a:99:d6:0c:db:a5:22:
         0b:e5:6b:24:cf:6e:2a:c7:4a:6b:cd:82:8e:13:84:18:b6:47:
         1b:9d:8b:83
-----BEGIN CERTIFICATE-----
MIIDADCCAeigAwIBAgICEAAwDQYJKoZIhvcNAQELBQAwITEfMB0GA1UEAwwWRSBS
b290IENBIC0gTXVsdGktcm9vdDAeFw0xNjAxMDIwMDAwMDBaFw0yNjAxMDIwMDAw
MDBaMCExHzAdBgNVBAMMFkUgUm9vdCBDQSAtIE11bHRpLXJvb3QwggEiMA0GCSqG
SIb3DQEBAQUAA4IBDwAwggEKAoIBAQDAFHES/k82eF86tB7VuyKSPle/TeDPHqH7
GW2IOlmTeVdCvKt8oA1zNdvbuoDvqYBbsJD1L+oXfSuSpF6IChbz3PUlPXqNjpvp
InTcSW6H/2euOrgJY2Pnwr131xvLk8ZKHXtRJQUxyzJmQ+otVFlZzd7ShG/YWsFb
bC1n1VcjJaAE3EVkAvDeGkpiyXa19jZGdK8fGGz3OM804+E/rVFBz5Lt1Sf3SuM8
1UImUeOyaSCxHwr2/Rk8jpiUZOv+5megEvZ4mA9EuCRgfN7iZ7kNbowGgEOOQXYd
CUAOO+eNCtlm1zRszn75JWoVz5o+7DDgo7HSo7Ex8WJQXLT+3VRhAgMBAAGjQjBA
MA8GA1UdEwEB/wQFMAMBAf8wHQYDVR0OBBYEFBX6w6Iq4Cwlxb7XvpFR3UXw8V1k
MA4GA1UdDwEB/wQEAwIBBjANBgkqhkiG9w0BAQsFAAOCAQEAuxRo0gkOZVhN1zWg
o5vmtCq0gDI+YW2HGaao0gF4zQcLCaneX6qGQ91v1uA7q2Bx0vCqjxSTQjcSVQLh
p+2O28CDEBnw9R41d4SawXmcYDlvUABmc27wuPd1Zz76PgzQ1lRKrto4BpJXOczZ
sfpgXpkH5pc7aU3jAlCNYHaOfuNg1GVBm2y4zLLEemEyy2dJtHYlDH4ghSR0CpAK
znP5jrrO3m4Kz20cUGf6ok4y0K2RNV6qs3V+IxQpqGYqgu1s7amd9ncgOuELqx7u
HYog/39PNloKMFrGnKpT6z8EKIptcJcqmdYM26UiC+VrJM9uKsdKa82CjhOEGLZH
G52Lgw==
-----END CERTIFICATE-----
