Certificate:
    Data:
        Version: 3 (0x2)
        Serial Number: 4 (0x4)
    Signature Algorithm: ecdsa-with-SHA256
        Issuer: CN=prime256v1 ecdsa Test intermediate CA
        Validity
            Not Before: Apr 22 20:28:41 2016 GMT
            Not After : Apr 20 20:28:41 2026 GMT
        Subject: C=US, ST=California, L=Mountain View, O=Test CA, CN=127.0.0.1
        Subject Public Key Info:
            Public Key Algorithm: id-ecPublicKey
                Public-Key: (256 bit)
                pub: 
                    04:f5:4f:70:de:c3:d2:11:bb:c8:08:6e:4c:63:d8:
                    13:80:10:b0:b8:e9:df:9c:fa:d0:f4:e3:61:5e:1e:
                    1f:fe:65:8e:4b:a9:3f:d4:47:9f:71:e9:89:82:82:
                    d8:10:63:fa:af:37:5b:3b:d1:da:56:05:da:a2:20:
                    e1:20:37:c3:c0
                ASN1 OID: prime256v1
        X509v3 extensions:
            X509v3 Basic Constraints: critical
                CA:FALSE
            X509v3 Subject Key Identifier: 
                7E:DD:18:69:14:9C:D6:E5:9C:DD:47:DB:87:60:79:AD:01:07:9A:66
            X509v3 Authority Key Identifier: 
                keyid:0D:6B:B6:D7:DD:7F:CD:4E:AD:06:6B:22:E1:11:08:58:10:AB:16:2A

            X509v3 Extended Key Usage: 
                TLS Web Server Authentication, TLS Web Client Authentication
            X509v3 Subject Alternative Name: 
                IP Address:127.0.0.1
    Signature Algorithm: ecdsa-with-SHA256
         30:45:02:20:25:fd:ba:76:81:1b:d3:25:17:82:31:ad:73:72:
         50:94:ac:e3:69:a6:b1:58:fe:b7:5e:48:ed:23:0d:a2:05:40:
         02:21:00:d5:0e:02:63:c9:1c:7a:5a:10:13:1e:b8:05:87:71:
         9c:b5:e2:66:cb:27:c8:17:b3:b1:68:29:c4:5e:b9:ac:5f
-----BEGIN CERTIFICATE-----
MIICADCCAaagAwIBAgIBBDAKBggqhkjOPQQDAjAwMS4wLAYDVQQDDCVwcmltZTI1
NnYxIGVjZHNhIFRlc3QgaW50ZXJtZWRpYXRlIENBMB4XDTE2MDQyMjIwMjg0MVoX
DTI2MDQyMDIwMjg0MVowYDELMAkGA1UEBhMCVVMxEzARBgNVBAgMCkNhbGlmb3Ju
aWExFjAUBgNVBAcMDU1vdW50YWluIFZpZXcxEDAOBgNVBAoMB1Rlc3QgQ0ExEjAQ
BgNVBAMMCTEyNy4wLjAuMTBZMBMGByqGSM49AgEGCCqGSM49AwEHA0IABPVPcN7D
0hG7yAhuTGPYE4AQsLjp35z60PTjYV4eH/5ljkupP9RHn3HpiYKC2BBj+q83WzvR
2lYF2qIg4SA3w8CjgYAwfjAMBgNVHRMBAf8EAjAAMB0GA1UdDgQWBBR+3RhpFJzW
5ZzdR9uHYHmtAQeaZjAfBgNVHSMEGDAWgBQNa7bX3X/NTq0GayLhEQhYEKsWKjAd
BgNVHSUEFjAUBggrBgEFBQcDAQYIKwYBBQUHAwIwDwYDVR0RBAgwBocEfwAAATAK
BggqhkjOPQQDAgNIADBFAiAl/bp2gRvTJReCMa1zclCUrONpprFY/rdeSO0jDaIF
QAIhANUOAmPJHHpaEBMeuAWHcZy14mbLJ8gXs7FoKcReuaxf
-----END CERTIFICATE-----
