Certificate:
    Data:
        Version: 3 (0x2)
        Serial Number: 4 (0x4)
    Signature Algorithm: sha256WithRSAEncryption
        Issuer: CN=2048 rsa Test intermediate CA
        Validity
            Not Before: Apr 22 20:28:41 2016 GMT
            Not After : Apr 20 20:28:41 2026 GMT
        Subject: C=US, ST=California, L=Mountain View, O=Test CA, CN=127.0.0.1
        Subject Public Key Info:
            Public Key Algorithm: id-ecPublicKey
                Public-Key: (256 bit)
                pub: 
                    04:36:60:16:6f:f7:3e:5f:1f:63:7e:43:cb:a5:a9:
                    77:57:77:86:b7:94:b0:83:03:b4:7f:47:25:88:cf:
                    c3:12:53:85:40:65:49:6e:27:e7:93:0e:f9:88:df:
                    8c:ac:1c:07:ef:21:c6:5f:8a:83:ad:de:a3:5a:eb:
                    84:fc:8f:fa:56
                ASN1 OID: prime256v1
        X509v3 extensions:
            X509v3 Basic Constraints: critical
                CA:FALSE
            X509v3 Subject Key Identifier: 
                18:19:4D:A1:C8:87:B6:49:A4:29:F5:DA:95:72:F3:64:41:24:96:C4
            X509v3 Authority Key Identifier: 
                keyid:5C:C2:71:76:C1:26:B1:0C:31:73:C8:92:D3:1E:01:12:4B:CC:5A:14

            X509v3 Extended Key Usage: 
                TLS Web Server Authentication, TLS Web Client Authentication
            X509v3 Subject Alternative Name: 
                IP Address:127.0.0.1
    Signature Algorithm: sha256WithRSAEncryption
         5d:97:40:70:07:0c:8a:2a:f8:5c:10:88:28:7d:a7:1a:db:19:
         2a:d1:dc:04:09:9e:ca:57:30:80:79:4f:81:d7:05:82:39:97:
         69:b8:19:7a:55:26:6f:43:d9:74:42:87:b5:1b:7b:d8:48:b1:
         dd:68:36:a5:2c:04:29:5d:9b:9d:3d:53:98:b1:e9:f4:4d:89:
         8c:24:1a:24:e6:ca:c3:e3:67:a5:8d:19:b6:9b:52:4a:04:79:
         db:ad:47:8c:f9:4f:61:6c:7f:ce:0e:50:1c:a9:d6:b2:a2:77:
         b0:80:e1:f3:d0:a8:8e:e9:20:fa:c5:f5:70:29:3f:a4:0e:f3:
         07:29:94:93:d7:34:17:a3:17:39:50:e7:d9:7d:6c:f3:2c:a8:
         0f:87:19:cb:08:13:d8:e1:40:8c:91:95:4d:44:4b:e2:6b:97:
         74:65:62:fd:53:3b:73:ec:2a:86:f1:05:9e:17:14:60:22:d7:
         64:3f:f1:ff:1f:8b:7d:8e:b1:37:07:5b:a2:03:e1:18:61:89:
         3f:38:d2:07:4e:ae:d4:75:22:df:52:58:18:e1:e9:10:a1:8c:
         76:e3:63:43:96:df:59:74:09:57:54:a7:72:0c:48:d7:52:65:
         ee:eb:bd:62:80:f7:90:12:91:ec:6b:2c:ea:1e:5c:20:77:96:
         f8:2b:25:a5
-----BEGIN CERTIFICATE-----
MIICuTCCAaGgAwIBAgIBBDANBgkqhkiG9w0BAQsFADAoMSYwJAYDVQQDDB0yMDQ4
IHJzYSBUZXN0IGludGVybWVkaWF0ZSBDQTAeFw0xNjA0MjIyMDI4NDFaFw0yNjA0
MjAyMDI4NDFaMGAxCzAJBgNVBAYTAlVTMRMwEQYDVQQIDApDYWxpZm9ybmlhMRYw
FAYDVQQHDA1Nb3VudGFpbiBWaWV3MRAwDgYDVQQKDAdUZXN0IENBMRIwEAYDVQQD
DAkxMjcuMC4wLjEwWTATBgcqhkjOPQIBBggqhkjOPQMBBwNCAAQ2YBZv9z5fH2N+
Q8ulqXdXd4a3lLCDA7R/RyWIz8MSU4VAZUluJ+eTDvmI34ysHAfvIcZfioOt3qNa
64T8j/pWo4GAMH4wDAYDVR0TAQH/BAIwADAdBgNVHQ4EFgQUGBlNociHtkmkKfXa
lXLzZEEklsQwHwYDVR0jBBgwFoAUXMJxdsEmsQwxc8iS0x4BEkvMWhQwHQYDVR0l
BBYwFAYIKwYBBQUHAwEGCCsGAQUFBwMCMA8GA1UdEQQIMAaHBH8AAAEwDQYJKoZI
hvcNAQELBQADggEBAF2XQHAHDIoq+FwQiCh9pxrbGSrR3AQJnspXMIB5T4HXBYI5
l2m4GXpVJm9D2XRCh7Ube9hIsd1oNqUsBCldm509U5ix6fRNiYwkGiTmysPjZ6WN
GbabUkoEedutR4z5T2Fsf84OUByp1rKid7CA4fPQqI7pIPrF9XApP6QO8wcplJPX
NBejFzlQ59l9bPMsqA+HGcsIE9jhQIyRlU1ES+Jrl3RlYv1TO3PsKobxBZ4XFGAi
12Q/8f8fi32OsTcHW6ID4RhhiT840gdOrtR1It9SWBjh6RChjHbjY0OW31l0CVdU
p3IMSNdSZe7rvWKA95ASkexrLOoeXCB3lvgrJaU=
-----END CERTIFICATE-----
