Certificate:
    Data:
        Version: 3 (0x2)
        Serial Number: 4 (0x4)
    Signature Algorithm: sha256WithRSAEncryption
        Issuer: CN=768 rsa Test intermediate CA
        Validity
            Not Before: Apr 22 20:28:41 2016 GMT
            Not After : Apr 20 20:28:41 2026 GMT
        Subject: C=US, ST=California, L=Mountain View, O=Test CA, CN=127.0.0.1
        Subject Public Key Info:
            Public Key Algorithm: id-ecPublicKey
                Public-Key: (256 bit)
                pub: 
                    04:b8:18:a6:f0:2e:2c:00:5c:33:a0:02:29:f4:8e:
                    97:f8:c7:72:82:79:11:09:11:d5:30:95:7e:29:24:
                    68:4b:71:90:3d:74:6b:cb:77:cb:ba:fd:5f:86:91:
                    10:cf:29:28:8f:f1:1c:f6:ac:18:c4:86:ef:15:bb:
                    fb:dd:6d:c7:d7
                ASN1 OID: prime256v1
        X509v3 extensions:
            X509v3 Basic Constraints: critical
                CA:FALSE
            X509v3 Subject Key Identifier: 
                16:7F:A6:9F:9D:78:A2:C0:63:49:1C:FF:FF:30:57:23:90:C1:99:10
            X509v3 Authority Key Identifier: 
                keyid:9E:E3:A7:83:B0:59:6F:91:9F:C7:D5:34:61:4A:1A:B3:66:C7:44:A0

            X509v3 Extended Key Usage: 
                TLS Web Server Authentication, TLS Web Client Authentication
            X509v3 Subject Alternative Name: 
                IP Address:127.0.0.1
    Signature Algorithm: sha256WithRSAEncryption
         bc:f2:7a:f2:cb:90:e4:e5:dc:ed:bb:69:e5:24:cd:a9:46:a4:
         f9:ee:19:d1:73:08:6c:be:cb:90:7f:d1:1e:b8:09:07:83:4a:
         42:b7:12:11:ea:3e:ab:8b:e4:f7:cd:d9:94:db:c5:01:1b:d4:
         f5:f9:be:22:b0:39:72:b6:89:6d:99:cc:43:fd:09:bb:00:a5:
         51:b0:ee:97:94:e9:d2:86:96:e4:52:f7:76:77:d2:40:37:96:
         38:cd:f3:59:38:54
-----BEGIN CERTIFICATE-----
MIICFjCCAaCgAwIBAgIBBDANBgkqhkiG9w0BAQsFADAnMSUwIwYDVQQDDBw3Njgg
cnNhIFRlc3QgaW50ZXJtZWRpYXRlIENBMB4XDTE2MDQyMjIwMjg0MVoXDTI2MDQy
MDIwMjg0MVowYDELMAkGA1UEBhMCVVMxEzARBgNVBAgMCkNhbGlmb3JuaWExFjAU
BgNVBAcMDU1vdW50YWluIFZpZXcxEDAOBgNVBAoMB1Rlc3QgQ0ExEjAQBgNVBAMM
CTEyNy4wLjAuMTBZMBMGByqGSM49AgEGCCqGSM49AwEHA0IABLgYpvAuLABcM6AC
KfSOl/jHcoJ5EQkR1TCVfikkaEtxkD10a8t3y7r9X4aREM8pKI/xHPasGMSG7xW7
+91tx9ejgYAwfjAMBgNVHRMBAf8EAjAAMB0GA1UdDgQWBBQWf6afnXiiwGNJHP//
MFcjkMGZEDAfBgNVHSMEGDAWgBSe46eDsFlvkZ/H1TRhShqzZsdEoDAdBgNVHSUE
FjAUBggrBgEFBQcDAQYIKwYBBQUHAwIwDwYDVR0RBAgwBocEfwAAATANBgkqhkiG
9w0BAQsFAANhALzyevLLkOTl3O27aeUkzalGpPnuGdFzCGy+y5B/0R64CQeDSkK3
EhHqPquL5PfN2ZTbxQEb1PX5viKwOXK2iW2ZzEP9CbsApVGw7peU6dKGluRS93Z3
0kA3ljjN81k4VA==
-----END CERTIFICATE-----
