Certificate:
    Data:
        Version: 3 (0x2)
        Serial Number: 4 (0x4)
    Signature Algorithm: sha256WithRSAEncryption
        Issuer: CN=2048 RSA Test Root CA
        Validity
            Not Before: Apr 22 20:28:41 2016 GMT
            Not After : Apr 20 20:28:41 2026 GMT
        Subject: CN=prime256v1 ecdsa Test intermediate CA
        Subject Public Key Info:
            Public Key Algorithm: id-ecPublicKey
                Public-Key: (256 bit)
                pub: 
                    04:d5:c1:4a:32:95:95:c5:88:fa:01:fa:c5:9e:dc:
                    e2:99:62:eb:13:e5:35:42:b3:7a:fc:46:c0:fa:29:
                    12:c8:2d:ea:30:0f:d2:9a:47:97:2c:7e:89:e6:ef:
                    49:55:06:c9:37:c7:99:56:16:b2:2b:c9:7c:69:8e:
                    10:7a:dd:1f:42
                ASN1 OID: prime256v1
        X509v3 extensions:
            X509v3 Basic Constraints: critical
                CA:TRUE
            X509v3 Subject Key Identifier: 
                0D:6B:B6:D7:DD:7F:CD:4E:AD:06:6B:22:E1:11:08:58:10:AB:16:2A
            X509v3 Key Usage: critical
                Certificate Sign, CRL Sign
    Signature Algorithm: sha256WithRSAEncryption
         58:01:f0:a4:cb:85:85:72:db:7c:15:af:95:9d:b0:8e:a9:1a:
         43:ef:d3:a8:15:1b:37:2c:c3:5b:9a:b3:c2:24:88:1b:58:7e:
         9c:9b:3e:8f:02:06:47:35:85:b7:65:8d:25:72:2d:d3:e9:5f:
         3a:f9:62:b1:af:43:bc:3d:d8:f9:ef:9d:c4:c7:65:96:db:67:
         20:ef:b7:3d:40:a0:d3:a4:ad:3e:f9:d1:2e:d7:fd:9d:25:72:
         82:f5:7f:ce:75:f7:86:77:c7:52:6d:c9:10:13:46:04:88:09:
         cf:1a:f0:f2:e1:9c:2f:d7:c8:17:32:57:8a:5b:78:36:1c:76:
         31:24:be:3d:29:5b:3e:92:ca:d5:e0:2c:3e:1c:72:a9:b6:f3:
         a9:28:72:8c:e4:cf:ea:fe:ca:af:21:8a:dc:6f:f9:84:7c:16:
         34:5b:d8:21:b5:ec:b5:84:dc:b7:ef:41:e8:5b:74:0b:19:c9:
         d5:e1:ef:f2:05:33:de:92:24:27:9b:70:ad:e2:9d:8e:42:ca:
         98:30:5f:f4:32:81:aa:11:bb:10:dc:e6:86:f5:6f:75:70:22:
         62:29:47:84:36:17:e6:ee:ae:e9:7e:86:ae:dc:bf:81:52:7a:
         30:7e:f9:35:31:11:cb:ec:1c:8e:ed:32:9e:96:32:9f:05:6f:
         9c:cb:c9:db
-----BEGIN CERTIFICATE-----
MIICQjCCASqgAwIBAgIBBDANBgkqhkiG9w0BAQsFADAgMR4wHAYDVQQDDBUyMDQ4
IFJTQSBUZXN0IFJvb3QgQ0EwHhcNMTYwNDIyMjAyODQxWhcNMjYwNDIwMjAyODQx
WjAwMS4wLAYDVQQDDCVwcmltZTI1NnYxIGVjZHNhIFRlc3QgaW50ZXJtZWRpYXRl
IENBMFkwEwYHKoZIzj0CAQYIKoZIzj0DAQcDQgAE1cFKMpWVxYj6AfrFntzimWLr
E+U1QrN6/EbA+ikSyC3qMA/SmkeXLH6J5u9JVQbJN8eZVhayK8l8aY4Qet0fQqNC
MEAwDwYDVR0TAQH/BAUwAwEB/zAdBgNVHQ4EFgQUDWu2191/zU6tBmsi4REIWBCr
FiowDgYDVR0PAQH/BAQDAgEGMA0GCSqGSIb3DQEBCwUAA4IBAQBYAfCky4WFctt8
Fa+VnbCOqRpD79OoFRs3LMNbmrPCJIgbWH6cmz6PAgZHNYW3ZY0lci3T6V86+WKx
r0O8Pdj5753Ex2WW22cg77c9QKDTpK0++dEu1/2dJXKC9X/OdfeGd8dSbckQE0YE
iAnPGvDy4Zwv18gXMleKW3g2HHYxJL49KVs+ksrV4Cw+HHKptvOpKHKM5M/q/sqv
IYrcb/mEfBY0W9ghtey1hNy370HoW3QLGcnV4e/yBTPekiQnm3Ct4p2OQsqYMF/0
MoGqEbsQ3OaG9W91cCJiKUeENhfm7q7pfoau3L+BUnowfvk1MRHL7ByO7TKeljKf
BW+cy8nb
-----END CERTIFICATE-----
