Certificate:
    Data:
        Version: 3 (0x2)
        Serial Number: 4 (0x4)
    Signature Algorithm: sha256WithRSAEncryption
        Issuer: CN=1024 rsa Test intermediate CA
        Validity
            Not Before: Apr 22 20:28:41 2016 GMT
            Not After : Apr 20 20:28:41 2026 GMT
        Subject: C=US, ST=California, L=Mountain View, O=Test CA, CN=127.0.0.1
        Subject Public Key Info:
            Public Key Algorithm: id-ecPublicKey
                Public-Key: (256 bit)
                pub: 
                    04:ff:00:45:d3:4d:47:ed:e4:11:26:af:71:52:b5:
                    e5:75:df:a6:54:84:39:14:97:6f:76:af:ef:3f:c3:
                    77:a5:1f:69:30:b8:7b:ce:ef:fc:89:5e:f4:3f:80:
                    77:66:35:24:67:16:bc:0f:94:51:99:e4:47:74:d3:
                    53:5c:df:64:c7
                ASN1 OID: prime256v1
        X509v3 extensions:
            X509v3 Basic Constraints: critical
                CA:FALSE
            X509v3 Subject Key Identifier: 
                2F:C0:D5:37:41:1C:7D:F1:C6:A4:61:44:77:D1:8F:63:EA:00:E2:12
            X509v3 Authority Key Identifier: 
                keyid:AB:91:E6:2B:C9:C1:2E:7B:A0:65:F1:D4:8A:CE:03:4D:F4:7A:18:13

            X509v3 Extended Key Usage: 
                TLS Web Server Authentication, TLS Web Client Authentication
            X509v3 Subject Alternative Name: 
                IP Address:127.0.0.1
    Signature Algorithm: sha256WithRSAEncryption
         10:cc:07:af:a0:dc:50:d7:9e:27:01:1c:39:69:1b:9b:a6:8e:
         c6:18:75:4a:30:49:a8:7f:a7:4e:72:6a:e2:ef:72:b1:b2:40:
         32:11:9d:f0:71:df:64:7e:3d:8c:63:4a:a2:01:f8:4e:e4:15:
         db:e3:5a:03:cf:d2:10:cf:19:36:e0:cd:2c:c3:56:45:78:86:
         5f:4e:54:36:fe:94:00:59:d8:8b:6b:6d:02:8f:f4:4b:d4:98:
         8a:6f:20:4c:5f:b5:72:0c:5f:f4:f8:c4:19:a7:1c:36:de:3b:
         be:de:ef:2e:4f:96:7a:6a:f4:47:23:7f:cc:c6:8f:27:fe:81:
         a6:85
-----BEGIN CERTIFICATE-----
MIICODCCAaGgAwIBAgIBBDANBgkqhkiG9w0BAQsFADAoMSYwJAYDVQQDDB0xMDI0
IHJzYSBUZXN0IGludGVybWVkaWF0ZSBDQTAeFw0xNjA0MjIyMDI4NDFaFw0yNjA0
MjAyMDI4NDFaMGAxCzAJBgNVBAYTAlVTMRMwEQYDVQQIDApDYWxpZm9ybmlhMRYw
FAYDVQQHDA1Nb3VudGFpbiBWaWV3MRAwDgYDVQQKDAdUZXN0IENBMRIwEAYDVQQD
DAkxMjcuMC4wLjEwWTATBgcqhkjOPQIBBggqhkjOPQMBBwNCAAT/AEXTTUft5BEm
r3FSteV136ZUhDkUl292r+8/w3elH2kwuHvO7/yJXvQ/gHdmNSRnFrwPlFGZ5Ed0
01Nc32THo4GAMH4wDAYDVR0TAQH/BAIwADAdBgNVHQ4EFgQUL8DVN0EcffHGpGFE
d9GPY+oA4hIwHwYDVR0jBBgwFoAUq5HmK8nBLnugZfHUis4DTfR6GBMwHQYDVR0l
BBYwFAYIKwYBBQUHAwEGCCsGAQUFBwMCMA8GA1UdEQQIMAaHBH8AAAEwDQYJKoZI
hvcNAQELBQADgYEAEMwHr6DcUNeeJwEcOWkbm6aOxhh1SjBJqH+nTnJq4u9ysbJA
MhGd8HHfZH49jGNKogH4TuQV2+NaA8/SEM8ZNuDNLMNWRXiGX05UNv6UAFnYi2tt
Ao/0S9SYim8gTF+1cgxf9PjEGaccNt47vt7vLk+Wemr0RyN/zMaPJ/6BpoU=
-----END CERTIFICATE-----
