Certificate:
    Data:
        Version: 3 (0x2)
        Serial Number: 1 (0x1)
    Signature Algorithm: sha256WithRSAEncryption
        Issuer: CN=Test Intermediate CA
        Validity
            Not Before: Dec 18 23:44:03 2017 GMT
            Not After : Dec 16 23:44:03 2027 GMT
        Subject: CN=test.example.com
        Subject Public Key Info:
            Public Key Algorithm: rsaEncryption
                Public-Key: (2048 bit)
                Modulus:
                    00:b2:56:6f:7e:d4:b4:b6:4e:e3:15:8e:8a:e9:46:
                    06:15:63:4c:6d:3a:32:67:c7:14:a4:17:fc:b7:04:
                    98:fb:b5:11:ae:93:1c:20:73:15:cd:b3:bc:ee:61:
                    82:8e:cb:b8:78:ca:6d:e6:57:73:f3:45:6e:1e:c3:
                    27:5d:af:5e:52:6d:12:47:44:72:3d:7d:8a:c1:47:
                    50:19:4a:21:a4:08:b4:cc:2e:9c:a2:2a:ce:1b:87:
                    82:ae:3a:23:b0:dd:d2:3e:64:fe:ce:a6:35:34:93:
                    07:f8:88:6e:c8:be:b2:0b:5f:9c:96:0e:79:1c:a3:
                    2b:c9:23:5a:8a:1f:1e:17:e2:a9:d4:3c:49:22:29:
                    43:fa:63:55:3c:72:62:4a:d1:72:5a:ae:75:a8:14:
                    67:eb:58:88:ce:11:0c:bf:09:67:f2:bb:c8:80:3e:
                    4a:f0:35:ad:d2:dc:43:a3:2f:da:c6:3b:1c:6e:76:
                    70:31:73:cc:33:5b:4f:36:dc:f3:8f:9f:a6:07:6d:
                    61:e0:66:6f:2c:76:bd:85:a3:8b:d0:8a:ce:c4:bc:
                    97:e0:ed:e1:29:df:a1:62:b9:ad:d8:0f:1a:f8:ae:
                    44:fe:a6:28:95:c4:cc:df:b5:f7:6d:46:ae:ef:9b:
                    af:73:50:1d:9f:f0:c7:a0:ef:37:4b:13:73:96:24:
                    95:0f
                Exponent: 65537 (0x10001)
        X509v3 extensions:
            X509v3 Basic Constraints: critical
                CA:FALSE
            X509v3 Extended Key Usage: 
                TLS Web Server Authentication, TLS Web Client Authentication
            X509v3 Subject Alternative Name: 
                DNS:test.example.com
    Signature Algorithm: sha256WithRSAEncryption
         bd:55:54:e5:ac:2b:e6:6f:c9:45:b7:77:97:af:37:e6:6b:60:
         cb:51:0f:b0:2c:40:71:39:73:7a:0b:6f:37:a5:cc:40:4f:d1:
         43:3d:8e:1d:37:ba:ff:2d:7b:80:21:fd:ec:e4:7c:20:6a:ce:
         6e:28:9b:c1:4e:9e:1e:17:1f:cb:04:61:c1:d0:72:0c:31:f6:
         ee:2b:a9:9c:29:6b:45:bd:97:57:a6:25:f3:f0:6b:08:3f:4e:
         00:33:cf:47:3b:50:4a:15:a7:a0:c8:e0:8b:86:7b:48:3e:39:
         15:00:0a:aa:79:3c:8d:fd:d7:4a:68:2f:05:2b:60:2a:d1:7e:
         1c:bc:06:e9:b7:51:35:71:d7:6b:f4:b8:f3:17:d7:f1:d4:8d:
         f8:0e:4a:11:34:4d:d9:19:70:33:0a:66:e6:4c:11:93:90:5c:
         5d:a1:f3:8a:1c:ce:0c:12:5e:a9:6b:e1:1f:eb:b3:65:b8:bc:
         1a:48:af:cc:af:fc:db:3e:0b:32:47:8d:fc:ed:b3:50:9a:65:
         b8:19:eb:db:18:21:5f:e4:1d:c5:87:57:9b:5a:8a:59:16:84:
         8d:27:3e:f9:7a:c0:fa:e7:84:90:da:1a:03:98:b5:c6:a9:52:
         ed:df:0e:7a:02:c7:e6:82:d2:06:cb:97:75:90:89:d6:d1:cf:
         43:74:09:f7
-----BEGIN CERTIFICATE-----
MIIDATCCAemgAwIBAgIBATANBgkqhkiG9w0BAQsFADAfMR0wGwYDVQQDDBRUZXN0
IEludGVybWVkaWF0ZSBDQTAeFw0xNzEyMTgyMzQ0MDNaFw0yNzEyMTYyMzQ0MDNa
MBsxGTAXBgNVBAMMEHRlc3QuZXhhbXBsZS5jb20wggEiMA0GCSqGSIb3DQEBAQUA
A4IBDwAwggEKAoIBAQCyVm9+1LS2TuMVjorpRgYVY0xtOjJnxxSkF/y3BJj7tRGu
kxwgcxXNs7zuYYKOy7h4ym3mV3PzRW4ewyddr15SbRJHRHI9fYrBR1AZSiGkCLTM
LpyiKs4bh4KuOiOw3dI+ZP7OpjU0kwf4iG7IvrILX5yWDnkcoyvJI1qKHx4X4qnU
PEkiKUP6Y1U8cmJK0XJarnWoFGfrWIjOEQy/CWfyu8iAPkrwNa3S3EOjL9rGOxxu
dnAxc8wzW0823POPn6YHbWHgZm8sdr2Fo4vQis7EvJfg7eEp36Fiua3YDxr4rkT+
piiVxMzftfdtRq7vm69zUB2f8Meg7zdLE3OWJJUPAgMBAAGjTDBKMAwGA1UdEwEB
/wQCMAAwHQYDVR0lBBYwFAYIKwYBBQUHAwEGCCsGAQUFBwMCMBsGA1UdEQQUMBKC
EHRlc3QuZXhhbXBsZS5jb20wDQYJKoZIhvcNAQELBQADggEBAL1VVOWsK+ZvyUW3
d5evN+ZrYMtRD7AsQHE5c3oLbzelzEBP0UM9jh03uv8te4Ah/ezkfCBqzm4om8FO
nh4XH8sEYcHQcgwx9u4rqZwpa0W9l1emJfPwawg/TgAzz0c7UEoVp6DI4IuGe0g+
ORUACqp5PI3910poLwUrYCrRfhy8Bum3UTVx12v0uPMX1/HUjfgOShE0TdkZcDMK
ZuZMEZOQXF2h84oczgwSXqlr4R/rs2W4vBpIr8yv/Ns+CzJHjfzts1CaZbgZ69sY
IV/kHcWHV5tailkWhI0nPvl6wPrnhJDaGgOYtcapUu3fDnoCx+aC0gbLl3WQidbR
z0N0Cfc=
-----END CERTIFICATE-----
Certificate:
    Data:
        Version: 3 (0x2)
        Serial Number: 1 (0x1)
    Signature Algorithm: sha256WithRSAEncryption
        Issuer: CN=Test Root CA
        Validity
            Not Before: Dec 18 23:44:03 2017 GMT
            Not After : Dec 16 23:44:03 2027 GMT
        Subject: CN=Test Intermediate CA
        Subject Public Key Info:
            Public Key Algorithm: rsaEncryption
                Public-Key: (2048 bit)
                Modulus:
                    00:e4:cd:89:4c:65:4f:4d:68:bd:2a:7a:4f:0b:10:
                    3f:02:d6:2a:5b:5b:76:c8:97:59:67:19:6e:95:45:
                    c3:38:a4:c7:29:f5:f7:95:52:97:a3:01:19:b2:b3:
                    ec:09:97:08:4f:f1:db:43:67:50:59:ac:ca:9a:05:
                    56:fc:73:42:f3:90:e1:e5:3e:03:75:35:33:d2:df:
                    aa:3d:f8:ca:16:5e:7e:ef:01:9c:2a:30:eb:c7:cc:
                    06:04:90:14:c0:54:f5:96:22:26:30:39:73:c5:c0:
                    9d:0d:b0:9f:b0:e5:cf:f6:b1:0c:10:ab:f0:c9:54:
                    a6:30:d5:b4:fd:a7:23:7f:1e:57:7b:72:d7:af:0d:
                    a2:3e:4d:b2:c5:51:70:2a:06:2f:66:21:ca:7f:7d:
                    6b:60:24:5e:ed:5f:74:ee:4b:b1:f1:ec:54:a0:fb:
                    89:05:69:94:78:9b:a4:85:8c:ea:e6:b5:d6:fd:c5:
                    6d:98:28:e4:1d:81:1b:26:3b:21:c2:e4:df:bd:a1:
                    0d:51:35:40:43:a0:a4:00:66:fa:97:46:d6:9d:95:
                    ca:da:62:f8:c7:60:6c:e4:89:c2:d0:74:30:fe:2a:
                    db:54:95:5b:68:5f:ca:bd:e9:af:27:13:fc:c4:6f:
                    e6:5d:05:92:cc:bc:e4:76:8a:2e:34:0b:5e:39:11:
                    75:57
                Exponent: 65537 (0x10001)
        X509v3 extensions:
            X509v3 Basic Constraints: critical
                CA:TRUE
            X509v3 Key Usage: critical
                Certificate Sign, CRL Sign
    Signature Algorithm: sha256WithRSAEncryption
         60:4e:38:f3:7b:00:46:75:8f:d0:4e:08:76:2d:ed:9f:bf:cc:
         50:1b:bf:e4:6d:76:50:fe:fa:7d:46:90:1c:75:f1:3f:47:19:
         eb:02:38:cb:3e:56:0f:8f:09:ae:a8:42:d0:e6:5a:31:54:24:
         b2:fe:4b:a2:e4:44:14:64:44:d8:50:12:62:4a:06:60:29:22:
         95:bb:c8:7e:dd:d4:7d:a6:dd:3c:0d:fb:71:67:6f:9b:49:05:
         09:7c:5c:63:2b:df:71:aa:ae:92:28:98:73:c2:60:b6:54:10:
         f6:f5:54:d6:93:0a:22:56:0a:fd:45:8a:a4:d7:a7:21:df:f5:
         53:07:1c:3b:63:c1:7c:4e:f0:3d:5c:c4:c9:cc:55:ae:ec:fb:
         2e:4f:b0:f9:5b:1d:c3:46:ba:38:f6:ff:8d:b3:3b:d0:7d:15:
         3f:fd:6a:bd:a1:59:18:ff:57:fc:d6:c0:3d:7e:75:61:ff:13:
         09:81:5f:38:82:22:78:78:97:5e:e6:7c:fb:16:a8:92:40:97:
         eb:7c:a5:37:da:ca:5f:28:69:e4:63:b7:07:61:ad:e8:5a:e8:
         06:55:c0:34:7c:30:66:1e:9a:7e:ed:cb:c8:14:c1:e3:b3:ac:
         8d:89:9c:6b:b1:ea:eb:71:94:c0:1d:63:b7:d9:82:74:13:0c:
         ee:8a:ca:dc
-----BEGIN CERTIFICATE-----
MIIC1DCCAbygAwIBAgIBATANBgkqhkiG9w0BAQsFADAXMRUwEwYDVQQDDAxUZXN0
IFJvb3QgQ0EwHhcNMTcxMjE4MjM0NDAzWhcNMjcxMjE2MjM0NDAzWjAfMR0wGwYD
VQQDDBRUZXN0IEludGVybWVkaWF0ZSBDQTCCASIwDQYJKoZIhvcNAQEBBQADggEP
ADCCAQoCggEBAOTNiUxlT01ovSp6TwsQPwLWKltbdsiXWWcZbpVFwzikxyn195VS
l6MBGbKz7AmXCE/x20NnUFmsypoFVvxzQvOQ4eU+A3U1M9Lfqj34yhZefu8BnCow
68fMBgSQFMBU9ZYiJjA5c8XAnQ2wn7Dlz/axDBCr8MlUpjDVtP2nI38eV3ty168N
oj5NssVRcCoGL2Yhyn99a2AkXu1fdO5LsfHsVKD7iQVplHibpIWM6ua11v3FbZgo
5B2BGyY7IcLk372hDVE1QEOgpABm+pdG1p2Vytpi+MdgbOSJwtB0MP4q21SVW2hf
yr3prycT/MRv5l0Fksy85HaKLjQLXjkRdVcCAwEAAaMjMCEwDwYDVR0TAQH/BAUw
AwEB/zAOBgNVHQ8BAf8EBAMCAQYwDQYJKoZIhvcNAQELBQADggEBAGBOOPN7AEZ1
j9BOCHYt7Z+/zFAbv+RtdlD++n1GkBx18T9HGesCOMs+Vg+PCa6oQtDmWjFUJLL+
S6LkRBRkRNhQEmJKBmApIpW7yH7d1H2m3TwN+3Fnb5tJBQl8XGMr33GqrpIomHPC
YLZUEPb1VNaTCiJWCv1FiqTXpyHf9VMHHDtjwXxO8D1cxMnMVa7s+y5PsPlbHcNG
ujj2/42zO9B9FT/9ar2hWRj/V/zWwD1+dWH/EwmBXziCInh4l17mfPsWqJJAl+t8
pTfayl8oaeRjtwdhreha6AZVwDR8MGYemn7ty8gUweOzrI2JnGux6utxlMAdY7fZ
gnQTDO6Kytw=
-----END CERTIFICATE-----
