Certificate:
    Data:
        Version: 3 (0x2)
        Serial Number:
            30:88:41:0a:28:b4:3e:3d:9a:f3:b3:90:a0:24:bc:d6
        Signature Algorithm: sha1WithRSAEncryption
        Issuer: O=VeriSign Trust Network, OU=VeriSign, Inc., OU=VeriSign International Server CA - Class 3, OU=www.verisign.com/CPS Incorp.by Ref. LIABILITY LTD.(c)97 VeriSign
        Validity
            Not Before: Sep 18 00:00:00 2010 GMT
            Not After : Sep 18 23:59:59 2012 GMT
        Subject: C=US, ST=California, L=San Francisco, O=Salesforce.com, Inc., OU=Applications, CN=prerelna1.pre.salesforce.com
        Subject Public Key Info:
            Public Key Algorithm: rsaEncryption
            RSA Public Key: (1024 bit)
                Modulus (1024 bit):
                    00:b8:0d:04:b7:23:60:d2:ff:12:bb:29:43:81:30:
                    0f:dd:8b:cd:cc:2c:8d:d0:14:de:5c:7b:a3:33:ea:
                    f2:7e:88:6e:04:42:17:70:67:91:a8:20:87:81:a8:
                    be:c4:57:d5:f5:3c:cf:34:96:cb:fb:7c:c3:db:ba:
                    36:c2:08:9f:c1:1d:91:fa:b7:21:03:50:32:bb:30:
                    be:ff:f8:bf:8d:c0:7d:16:e4:d2:81:ef:e2:1a:89:
                    13:7c:40:6d:dd:1f:32:9d:3f:ca:a2:ab:e6:ae:9f:
                    96:91:66:32:e9:e5:ca:e3:9d:fc:62:31:aa:de:a6:
                    50:21:ba:e2:8e:77:00:41:17
                Exponent: 65537 (0x10001)
        X509v3 extensions:
            X509v3 Basic Constraints: 
                CA:FALSE
            X509v3 Key Usage: 
                Digital Signature, Key Encipherment
            X509v3 CRL Distribution Points: 
                URI:http://SVRIntl-crl.verisign.com/SVRIntl.crl

            X509v3 Certificate Policies: 
                Policy: 2.16.840.1.113733.1.7.23.3
                  CPS: https://www.verisign.com/rpa

            X509v3 Extended Key Usage: 
                Netscape Server Gated Crypto, TLS Web Server Authentication, TLS Web Client Authentication
            Authority Information Access: 
                OCSP - URI:http://ocsp.verisign.com
                CA Issuers - URI:http://SVRIntl-aia.verisign.com/SVRIntl-aia.cer

            1.3.6.1.5.5.7.1.12: 
                0`.^.\0Z0X0V..image/gif0!0.0...+......Kk.(.....R8.).K..!..0&.$http://logo.verisign.com/vslogo1.gif
    Signature Algorithm: sha1WithRSAEncryption
        b8:e3:37:ba:5a:37:37:bf:e5:bc:88:fe:1e:fa:b4:4f:7d:52:
        ca:26:b6:83:a1:de:28:6b:01:a8:cd:5d:f2:9a:2c:f0:6e:89:
        69:ab:94:b5:14:f2:c3:ca:d8:5d:2f:6d:13:9a:83:f1:ed:4e:
        85:87:93:69:19:53:3a:a4:f1:98:96:b7:28:13:32:7e:d2:e4:
        7a:7a:f2:8d:80:7d:af:89:64:43:7b:f6:05:3d:16:7c:f1:2a:
        6f:bb:9b:3a:57:a5:f1:f7:77:a0:07:68:92:39:bd:45:c7:c8:
        75:ed:ac:c6:ac:45:02:18:0b:41:ba:01:68:3e:c2:3b:f6:8b:
        4e:50
-----BEGIN CERTIFICATE-----
MIIEhzCCA/CgAwIBAgIQMIhBCii0Pj2a87OQoCS81jANBgkqhkiG9w0BAQUFADCB
ujEfMB0GA1UEChMWVmVyaVNpZ24gVHJ1c3QgTmV0d29yazEXMBUGA1UECxMOVmVy
aVNpZ24sIEluYy4xMzAxBgNVBAsTKlZlcmlTaWduIEludGVybmF0aW9uYWwgU2Vy
dmVyIENBIC0gQ2xhc3MgMzFJMEcGA1UECxNAd3d3LnZlcmlzaWduLmNvbS9DUFMg
SW5jb3JwLmJ5IFJlZi4gTElBQklMSVRZIExURC4oYyk5NyBWZXJpU2lnbjAeFw0x
MDA5MTgwMDAwMDBaFw0xMjA5MTgyMzU5NTlaMIGXMQswCQYDVQQGEwJVUzETMBEG
A1UECBMKQ2FsaWZvcm5pYTEWMBQGA1UEBxQNU2FuIEZyYW5jaXNjbzEdMBsGA1UE
ChQUU2FsZXNmb3JjZS5jb20sIEluYy4xFTATBgNVBAsUDEFwcGxpY2F0aW9uczEl
MCMGA1UEAxQccHJlcmVsbmExLnByZS5zYWxlc2ZvcmNlLmNvbTCBnzANBgkqhkiG
9w0BAQEFAAOBjQAwgYkCgYEAuA0EtyNg0v8SuylDgTAP3YvNzCyN0BTeXHujM+ry
fohuBEIXcGeRqCCHgai+xFfV9TzPNJbL+3zD27o2wgifwR2R+rchA1AyuzC+//i/
jcB9FuTSge/iGokTfEBt3R8ynT/Koqvmrp+WkWYy6eXK4538YjGq3qZQIbrijncA
QRcCAwEAAaOCAa0wggGpMAkGA1UdEwQCMAAwCwYDVR0PBAQDAgWgMDwGA1UdHwQ1
MDMwMaAvoC2GK2h0dHA6Ly9TVlJJbnRsLWNybC52ZXJpc2lnbi5jb20vU1ZSSW50
bC5jcmwwRAYDVR0gBD0wOzA5BgtghkgBhvhFAQcXAzAqMCgGCCsGAQUFBwIBFhxo
dHRwczovL3d3dy52ZXJpc2lnbi5jb20vcnBhMCgGA1UdJQQhMB8GCWCGSAGG+EIE
AQYIKwYBBQUHAwEGCCsGAQUFBwMCMHEGCCsGAQUFBwEBBGUwYzAkBggrBgEFBQcw
AYYYaHR0cDovL29jc3AudmVyaXNpZ24uY29tMDsGCCsGAQUFBzAChi9odHRwOi8v
U1ZSSW50bC1haWEudmVyaXNpZ24uY29tL1NWUkludGwtYWlhLmNlcjBuBggrBgEF
BQcBDARiMGChXqBcMFowWDBWFglpbWFnZS9naWYwITAfMAcGBSsOAwIaBBRLa7ko
lgYMu9BSOJsprEsHiyEFGDAmFiRodHRwOi8vbG9nby52ZXJpc2lnbi5jb20vdnNs
b2dvMS5naWYwDQYJKoZIhvcNAQEFBQADgYEAuOM3ulo3N7/lvIj+Hvq0T31Syia2
g6HeKGsBqM1d8pos8G6JaauUtRTyw8rYXS9tE5qD8e1OhYeTaRlTOqTxmJa3KBMy
ftLkenryjYB9r4lkQ3v2BT0WfPEqb7ubOlel8fd3oAdokjm9RcfIde2sxqxFAhgL
QboBaD7CO/aLTlA=
-----END CERTIFICATE-----
