Certificate:
    Data:
        Version: 1 (0x0)
        Serial Number: 18181326976980170770 (0xfc510c8e88213812)
    Signature Algorithm: sha256WithRSAEncryption
        Issuer: C=US, ST=Michigan, L=Ann Arbor, O=Test Self-Signed, CN=SS A
        Validity
            Not Before: May 27 18:37:25 2016 GMT
            Not After : May 25 18:37:25 2026 GMT
        Subject: C=US, ST=Michigan, L=Ann Arbor, O=Test Self-Signed, CN=SS B
        Subject Public Key Info:
            Public Key Algorithm: rsaEncryption
                Public-Key: (2048 bit)
                Modulus:
                    00:b0:5a:83:9c:fe:1b:46:24:0b:d9:b0:0a:f2:f1:
                    47:bf:05:f1:68:49:6b:d2:50:f7:29:f5:f1:59:a8:
                    28:04:e2:7e:c9:d5:e0:86:b5:8f:2f:f9:45:a5:88:
                    02:04:cb:9a:c3:19:56:68:c8:eb:fe:c3:46:1a:44:
                    be:e2:c5:e5:34:5a:18:66:1b:8e:d7:d9:19:f2:22:
                    43:6d:4c:28:56:25:48:42:b5:76:e5:d9:c0:86:40:
                    f7:e7:87:0c:2d:07:e6:bd:84:9e:60:36:97:a8:d3:
                    de:8a:37:a6:70:68:de:f1:d3:0a:db:fe:11:e8:f9:
                    0b:bc:56:47:d3:d4:5a:e5:ce:af:e6:d8:30:de:11:
                    a3:7a:4d:c7:b5:0a:9c:9a:f6:4d:df:a1:46:6c:91:
                    03:e3:c6:be:61:38:b5:cb:1a:b5:82:6d:4d:d2:c6:
                    8b:32:25:b3:6d:01:d7:e7:da:2e:fe:a0:95:cf:9c:
                    a1:e0:89:9e:2b:2b:f3:3a:98:7b:2e:b1:77:b3:88:
                    12:71:63:53:bf:b1:df:1e:de:da:13:e8:bd:d4:30:
                    ec:c2:c4:e7:f9:0a:31:b2:b4:5e:36:9a:90:74:ef:
                    6a:45:e5:77:f3:97:8b:68:81:43:05:bc:e5:07:a6:
                    2f:9b:b1:c0:59:43:ac:28:bb:36:6c:98:02:72:c4:
                    77:3b
                Exponent: 65537 (0x10001)
    Signature Algorithm: sha256WithRSAEncryption
         9d:33:a4:6d:41:ba:9c:83:24:92:be:82:61:d0:fd:d8:f6:3d:
         68:38:49:80:15:09:56:27:8b:ad:ef:7b:b4:43:1f:bf:9a:cd:
         72:da:6c:99:5c:c9:65:88:fd:8e:fa:65:df:27:80:22:ae:85:
         15:b8:ec:b4:e1:92:57:f0:19:7c:8a:79:d4:54:87:97:a8:4f:
         64:18:7c:89:0d:85:3b:6b:db:21:90:00:0c:17:32:19:11:a5:
         79:1f:ec:43:3e:3e:ce:96:53:d1:c1:eb:96:c6:05:3d:52:19:
         6c:a1:9f:a7:96:6e:a1:6f:d5:f9:37:04:89:99:a5:55:59:83:
         1a:6a:e7:08:5e:20:41:13:9c:86:0f:b6:ae:5c:9f:e9:5b:41:
         ad:9e:af:96:1b:5c:37:d0:88:45:a0:35:d0:10:e7:9e:f6:38:
         cc:c2:4f:65:70:e7:cb:73:ae:6b:e6:60:73:be:31:ef:d6:24:
         3f:12:e5:24:8f:2b:db:e2:b1:de:3d:b4:c5:8b:1b:88:2c:ac:
         a3:e2:f3:34:15:df:ca:e5:25:8a:0c:96:a9:16:28:0a:a7:48:
         4a:95:00:3a:45:d1:0c:ad:58:10:71:0d:2a:77:99:78:4d:a0:
         fb:ba:36:8b:62:54:53:7d:81:21:11:46:fc:46:a4:99:42:32:
         c8:1f:ed:6f
-----BEGIN CERTIFICATE-----
MIIDODCCAiACCQD8UQyOiCE4EjANBgkqhkiG9w0BAQsFADBeMQswCQYDVQQGEwJV
UzERMA8GA1UECAwITWljaGlnYW4xEjAQBgNVBAcMCUFubiBBcmJvcjEZMBcGA1UE
CgwQVGVzdCBTZWxmLVNpZ25lZDENMAsGA1UEAwwEU1MgQTAeFw0xNjA1MjcxODM3
MjVaFw0yNjA1MjUxODM3MjVaMF4xCzAJBgNVBAYTAlVTMREwDwYDVQQIDAhNaWNo
aWdhbjESMBAGA1UEBwwJQW5uIEFyYm9yMRkwFwYDVQQKDBBUZXN0IFNlbGYtU2ln
bmVkMQ0wCwYDVQQDDARTUyBCMIIBIjANBgkqhkiG9w0BAQEFAAOCAQ8AMIIBCgKC
AQEAsFqDnP4bRiQL2bAK8vFHvwXxaElr0lD3KfXxWagoBOJ+ydXghrWPL/lFpYgC
BMuawxlWaMjr/sNGGkS+4sXlNFoYZhuO19kZ8iJDbUwoViVIQrV25dnAhkD354cM
LQfmvYSeYDaXqNPeijemcGje8dMK2/4R6PkLvFZH09Ra5c6v5tgw3hGjek3HtQqc
mvZN36FGbJED48a+YTi1yxq1gm1N0saLMiWzbQHX59ou/qCVz5yh4ImeKyvzOph7
LrF3s4gScWNTv7HfHt7aE+i91DDswsTn+QoxsrReNpqQdO9qReV385eLaIFDBbzl
B6Yvm7HAWUOsKLs2bJgCcsR3OwIDAQABMA0GCSqGSIb3DQEBCwUAA4IBAQCdM6Rt
QbqcgySSvoJh0P3Y9j1oOEmAFQlWJ4ut73u0Qx+/ms1y2myZXMlliP2O+mXfJ4Ai
roUVuOy04ZJX8Bl8innUVIeXqE9kGHyJDYU7a9shkAAMFzIZEaV5H+xDPj7OllPR
weuWxgU9UhlsoZ+nlm6hb9X5NwSJmaVVWYMaaucIXiBBE5yGD7auXJ/pW0Gtnq+W
G1w30IhFoDXQEOee9jjMwk9lcOfLc65r5mBzvjHv1iQ/EuUkjyvb4rHePbTFixuI
LKyj4vM0Fd/K5SWKDJapFigKp0hKlQA6RdEMrVgQcQ0qd5l4TaD7ujaLYlRTfYEh
EUb8RqSZQjLIH+1v
-----END CERTIFICATE-----
