Certificate:
    Data:
        Version: 1 (0x0)
        Serial Number: 14998008630224366850 (0xd023a162e6c42d02)
    Signature Algorithm: sha256WithRSAEncryption
        Issuer: C=US, ST=Michigan, L=Ann Arbor, O=Test Self-Signed, CN=SS A
        Validity
            Not Before: May 27 18:37:25 2016 GMT
            Not After : May 25 18:37:25 2026 GMT
        Subject: C=US, ST=Michigan, L=Ann Arbor, O=Test Self-Signed, CN=SS A
        Subject Public Key Info:
            Public Key Algorithm: rsaEncryption
                Public-Key: (2048 bit)
                Modulus:
                    00:b0:5a:83:9c:fe:1b:46:24:0b:d9:b0:0a:f2:f1:
                    47:bf:05:f1:68:49:6b:d2:50:f7:29:f5:f1:59:a8:
                    28:04:e2:7e:c9:d5:e0:86:b5:8f:2f:f9:45:a5:88:
                    02:04:cb:9a:c3:19:56:68:c8:eb:fe:c3:46:1a:44:
                    be:e2:c5:e5:34:5a:18:66:1b:8e:d7:d9:19:f2:22:
                    43:6d:4c:28:56:25:48:42:b5:76:e5:d9:c0:86:40:
                    f7:e7:87:0c:2d:07:e6:bd:84:9e:60:36:97:a8:d3:
                    de:8a:37:a6:70:68:de:f1:d3:0a:db:fe:11:e8:f9:
                    0b:bc:56:47:d3:d4:5a:e5:ce:af:e6:d8:30:de:11:
                    a3:7a:4d:c7:b5:0a:9c:9a:f6:4d:df:a1:46:6c:91:
                    03:e3:c6:be:61:38:b5:cb:1a:b5:82:6d:4d:d2:c6:
                    8b:32:25:b3:6d:01:d7:e7:da:2e:fe:a0:95:cf:9c:
                    a1:e0:89:9e:2b:2b:f3:3a:98:7b:2e:b1:77:b3:88:
                    12:71:63:53:bf:b1:df:1e:de:da:13:e8:bd:d4:30:
                    ec:c2:c4:e7:f9:0a:31:b2:b4:5e:36:9a:90:74:ef:
                    6a:45:e5:77:f3:97:8b:68:81:43:05:bc:e5:07:a6:
                    2f:9b:b1:c0:59:43:ac:28:bb:36:6c:98:02:72:c4:
                    77:3b
                Exponent: 65537 (0x10001)
    Signature Algorithm: sha256WithRSAEncryption
         aa:73:51:c6:c4:9b:8e:2d:a1:04:08:19:f9:c5:58:62:58:55:
         c8:71:9c:4b:af:01:cd:c6:34:6d:02:36:d8:34:0d:7b:6b:e6:
         41:f6:eb:6c:be:a5:42:85:a9:fd:38:ee:a3:21:ba:b0:97:e6:
         f1:8e:2f:8e:68:ac:87:94:bb:90:8c:e5:b7:02:04:a2:75:35:
         df:1b:ea:51:ec:df:85:fb:9f:46:a2:03:5b:f0:02:92:72:f0:
         a6:d3:c7:d5:84:78:3a:c2:77:82:eb:ed:e0:59:37:c7:f6:6e:
         2c:34:3a:4e:3c:7a:f2:71:92:51:81:1b:77:0b:27:67:cd:33:
         a6:59:a8:c8:c3:38:cd:ad:e3:48:bb:fd:e4:92:4a:e5:73:93:
         15:1a:c9:fd:94:eb:11:6b:cd:45:dd:04:92:da:bb:e8:53:1d:
         65:76:13:ea:a9:3a:e2:7b:f7:a6:66:f7:02:fb:d4:7a:ac:2f:
         72:32:66:0e:b5:97:a0:10:d2:0e:31:fc:e5:3a:74:79:bc:cc:
         97:85:31:85:f3:89:8f:f5:7a:66:53:eb:77:98:51:c3:3f:ed:
         29:b7:e6:bc:30:83:b2:aa:b0:82:98:50:32:a1:4c:da:1e:6f:
         a8:c8:49:51:f5:6b:c4:15:18:e6:32:33:d6:31:f6:0d:62:f6:
         d2:db:de:ad
-----BEGIN CERTIFICATE-----
MIIDODCCAiACCQDQI6Fi5sQtAjANBgkqhkiG9w0BAQsFADBeMQswCQYDVQQGEwJV
UzERMA8GA1UECAwITWljaGlnYW4xEjAQBgNVBAcMCUFubiBBcmJvcjEZMBcGA1UE
CgwQVGVzdCBTZWxmLVNpZ25lZDENMAsGA1UEAwwEU1MgQTAeFw0xNjA1MjcxODM3
MjVaFw0yNjA1MjUxODM3MjVaMF4xCzAJBgNVBAYTAlVTMREwDwYDVQQIDAhNaWNo
aWdhbjESMBAGA1UEBwwJQW5uIEFyYm9yMRkwFwYDVQQKDBBUZXN0IFNlbGYtU2ln
bmVkMQ0wCwYDVQQDDARTUyBBMIIBIjANBgkqhkiG9w0BAQEFAAOCAQ8AMIIBCgKC
AQEAsFqDnP4bRiQL2bAK8vFHvwXxaElr0lD3KfXxWagoBOJ+ydXghrWPL/lFpYgC
BMuawxlWaMjr/sNGGkS+4sXlNFoYZhuO19kZ8iJDbUwoViVIQrV25dnAhkD354cM
LQfmvYSeYDaXqNPeijemcGje8dMK2/4R6PkLvFZH09Ra5c6v5tgw3hGjek3HtQqc
mvZN36FGbJED48a+YTi1yxq1gm1N0saLMiWzbQHX59ou/qCVz5yh4ImeKyvzOph7
LrF3s4gScWNTv7HfHt7aE+i91DDswsTn+QoxsrReNpqQdO9qReV385eLaIFDBbzl
B6Yvm7HAWUOsKLs2bJgCcsR3OwIDAQABMA0GCSqGSIb3DQEBCwUAA4IBAQCqc1HG
xJuOLaEECBn5xVhiWFXIcZxLrwHNxjRtAjbYNA17a+ZB9utsvqVChan9OO6jIbqw
l+bxji+OaKyHlLuQjOW3AgSidTXfG+pR7N+F+59GogNb8AKScvCm08fVhHg6wneC
6+3gWTfH9m4sNDpOPHrycZJRgRt3CydnzTOmWajIwzjNreNIu/3kkkrlc5MVGsn9
lOsRa81F3QSS2rvoUx1ldhPqqTrie/emZvcC+9R6rC9yMmYOtZegENIOMfzlOnR5
vMyXhTGF84mP9XpmU+t3mFHDP+0pt+a8MIOyqrCCmFAyoUzaHm+oyElR9WvEFRjm
MjPWMfYNYvbS296t
-----END CERTIFICATE-----
