Certificate:
    Data:
        Version: 3 (0x2)
        Serial Number:
            ed:cd:27:0f:4c:ca:cc:fc
        Signature Algorithm: sha1WithRSAEncryption
        Issuer: CN=127.0.0.1, L=Mountain View, ST=California/streetAddress=1600 Amphitheatre Parkway, C=US, O=Chromium = "net_unittests", OU=net_unittests, OU=Chromium
        Validity
            Not Before: Dec  2 03:56:43 2011 GMT
            Not After : Jan  1 03:56:43 2012 GMT
        Subject: CN=127.0.0.1, L=Mountain View, ST=California/streetAddress=1600 Amphitheatre Parkway, C=US, O=Chromium = "net_unittests", OU=net_unittests, OU=Chromium
        Subject Public Key Info:
            Public Key Algorithm: rsaEncryption
            RSA Public Key: (1024 bit)
                Modulus (1024 bit):
                    00:ac:25:6c:de:22:4f:be:77:07:3a:6c:f9:5f:e6:
                    0a:ce:69:f7:ca:c5:b8:08:2b:b8:b0:04:12:55:fe:
                    65:4c:c2:aa:b9:3d:b2:87:f5:59:c3:72:ac:a9:d4:
                    1e:0b:ec:7f:2e:df:4c:ad:e7:cc:52:93:b4:ed:0a:
                    99:40:7e:6a:35:c3:b0:8b:93:c7:e5:97:54:b9:7f:
                    68:26:04:17:a6:b4:50:9e:d6:d7:6b:19:a1:ce:0b:
                    5e:73:80:a6:b9:ef:5d:34:8e:6f:f7:8c:de:cf:78:
                    cd:16:93:30:23:c3:5c:8c:9f:78:ce:18:c6:0f:e1:
                    32:76:8a:c4:c4:54:30:56:39
                Exponent: 65537 (0x10001)
        X509v3 extensions:
            X509v3 Subject Key Identifier: 
                38:85:CF:3E:10:D5:47:FC:08:81:FA:85:7F:84:7A:2F:3D:69:2B:A6
            X509v3 Authority Key Identifier: 
                keyid:38:85:CF:3E:10:D5:47:FC:08:81:FA:85:7F:84:7A:2F:3D:69:2B:A6

            X509v3 Basic Constraints: 
                CA:TRUE
    Signature Algorithm: sha1WithRSAEncryption
        32:0a:90:29:b1:9f:c0:c7:55:da:37:8f:5b:b8:09:a0:97:65:
        15:3a:79:d1:3e:24:f4:44:ad:3f:eb:84:b4:ae:e3:7a:ba:43:
        8c:d4:df:ef:ca:46:c5:99:c4:99:b5:ae:7e:2c:a9:85:05:d0:
        8f:07:d2:ee:9e:72:b0:e0:87:51:5c:e8:f4:5a:a1:44:25:a5:
        47:6a:67:b3:79:2e:66:7d:93:7d:f7:cf:31:13:c1:fc:af:62:
        c6:ec:22:14:50:7f:d2:38:ff:5d:11:d5:58:c8:5e:43:08:bb:
        ca:9c:45:78:f4:28:08:cc:98:75:1d:4c:d2:43:a5:34:f0:86:
        56:37
-----BEGIN CERTIFICATE-----
MIIDVDCCAr2gAwIBAgIJAO3NJw9Mysz8MA0GCSqGSIb3DQEBBQUAMIHCMRIwEAYD
VQQDDAkxMjcuMC4wLjExFjAUBgNVBAcMDU1vdW50YWluIFZpZXcxEzARBgNVBAgM
CkNhbGlmb3JuaWExIjAgBgNVBAkMGTE2MDAgQW1waGl0aGVhdHJlIFBhcmt3YXkx
CzAJBgNVBAYTAlVTMSMwIQYDVQQKDBpDaHJvbWl1bSA9ICJuZXRfdW5pdHRlc3Rz
IjEWMBQGA1UECwwNbmV0X3VuaXR0ZXN0czERMA8GA1UECwwIQ2hyb21pdW0wHhcN
MTExMjAyMDM1NjQzWhcNMTIwMTAxMDM1NjQzWjCBwjESMBAGA1UEAwwJMTI3LjAu
MC4xMRYwFAYDVQQHDA1Nb3VudGFpbiBWaWV3MRMwEQYDVQQIDApDYWxpZm9ybmlh
MSIwIAYDVQQJDBkxNjAwIEFtcGhpdGhlYXRyZSBQYXJrd2F5MQswCQYDVQQGEwJV
UzEjMCEGA1UECgwaQ2hyb21pdW0gPSAibmV0X3VuaXR0ZXN0cyIxFjAUBgNVBAsM
DW5ldF91bml0dGVzdHMxETAPBgNVBAsMCENocm9taXVtMIGfMA0GCSqGSIb3DQEB
AQUAA4GNADCBiQKBgQCsJWzeIk++dwc6bPlf5grOaffKxbgIK7iwBBJV/mVMwqq5
PbKH9VnDcqyp1B4L7H8u30yt58xSk7TtCplAfmo1w7CLk8fll1S5f2gmBBemtFCe
1tdrGaHOC15zgKa57100jm/3jN7PeM0WkzAjw1yMn3jOGMYP4TJ2isTEVDBWOQID
AQABo1AwTjAdBgNVHQ4EFgQUOIXPPhDVR/wIgfqFf4R6Lz1pK6YwHwYDVR0jBBgw
FoAUOIXPPhDVR/wIgfqFf4R6Lz1pK6YwDAYDVR0TBAUwAwEB/zANBgkqhkiG9w0B
AQUFAAOBgQAyCpApsZ/Ax1XaN49buAmgl2UVOnnRPiT0RK0/64S0ruN6ukOM1N/v
ykbFmcSZta5+LKmFBdCPB9LunnKw4IdRXOj0WqFEJaVHamezeS5mfZN9988xE8H8
r2LG7CIUUH/SOP9dEdVYyF5DCLvKnEV49CgIzJh1HUzSQ6U08IZWNw==
-----END CERTIFICATE-----
