Certificate:
    Data:
        Version: 3 (0x2)
        Serial Number:
            46:fc:eb:ba:b4:d0:2f:0f:92:60:98:23:3f:93:07:8f
        Signature Algorithm: sha1WithRSAEncryption
        Issuer: C=US, O=VeriSign, Inc., OU=Class 3 Public Primary Certification Authority
        Validity
            Not Before: Apr 17 00:00:00 1997 GMT
            Not After : Oct 24 23:59:59 2016 GMT
        Subject: O=VeriSign Trust Network, OU=VeriSign, Inc., OU=VeriSign International Server CA - Class 3, OU=www.verisign.com/CPS Incorp.by Ref. LIABILITY LTD.(c)97 VeriSign
        Subject Public Key Info:
            Public Key Algorithm: rsaEncryption
            RSA Public Key: (1024 bit)
                Modulus (1024 bit):
                    00:d8:82:80:e8:d6:19:02:7d:1f:85:18:39:25:a2:
                    65:2b:e1:bf:d4:05:d3:bc:e6:36:3b:aa:f0:4c:6c:
                    5b:b6:e7:aa:3c:73:45:55:b2:f1:bd:ea:97:42:ed:
                    9a:34:0a:15:d4:a9:5c:f5:40:25:dd:d9:07:c1:32:
                    b2:75:6c:c4:ca:bb:a3:fe:56:27:71:43:aa:63:f5:
                    30:3e:93:28:e5:fa:f1:09:3b:f3:b7:4d:4e:39:f7:
                    5c:49:5a:b8:c1:1d:d3:b2:8a:fe:70:30:95:42:cb:
                    fe:2b:51:8b:5a:3c:3a:f9:22:4f:90:b2:02:a7:53:
                    9c:4f:34:e7:ab:04:b2:7b:6f
                Exponent: 65537 (0x10001)
        X509v3 extensions:
            X509v3 Basic Constraints: 
                CA:TRUE, pathlen:0
            X509v3 Certificate Policies: 
                Policy: 2.16.840.1.113733.1.7.1.1
                  CPS: https://www.verisign.com/CPS

            X509v3 Extended Key Usage: 
                TLS Web Server Authentication, TLS Web Client Authentication, Netscape Server Gated Crypto, 2.16.840.1.113733.1.8.1
            X509v3 Key Usage: 
                Certificate Sign, CRL Sign
            Netscape Cert Type: 
                SSL CA, S/MIME CA
            X509v3 CRL Distribution Points: 
                URI:http://crl.verisign.com/pca3.crl

    Signature Algorithm: sha1WithRSAEncryption
        40:8e:49:97:96:8a:73:dd:8e:4d:ef:3e:61:b7:ca:a0:62:ad:
        f4:0e:0a:bb:75:3d:e2:6e:d8:2c:c7:bf:f4:b9:8c:36:9b:ca:
        a2:d0:9c:72:46:39:f6:a6:82:03:65:11:c4:bc:bf:2d:a6:f5:
        d9:3b:0a:b5:98:fa:b3:78:b9:1e:f2:2b:4c:62:d5:fd:b2:7a:
        1d:df:33:fd:73:f9:a5:d8:2d:8c:2a:ea:d1:fc:b0:28:b6:e9:
        49:48:13:4b:83:8a:1b:48:7b:24:f7:38:de:6f:41:54:b8:ab:
        57:6b:06:df:c7:a2:d4:a9:f6:f1:36:62:80:88:f2:8b:75:d6:
        80:71
-----BEGIN CERTIFICATE-----
MIIDgzCCAuygAwIBAgIQRvzrurTQLw+SYJgjP5MHjzANBgkqhkiG9w0BAQUFADBf
MQswCQYDVQQGEwJVUzEXMBUGA1UEChMOVmVyaVNpZ24sIEluYy4xNzA1BgNVBAsT
LkNsYXNzIDMgUHVibGljIFByaW1hcnkgQ2VydGlmaWNhdGlvbiBBdXRob3JpdHkw
HhcNOTcwNDE3MDAwMDAwWhcNMTYxMDI0MjM1OTU5WjCBujEfMB0GA1UEChMWVmVy
aVNpZ24gVHJ1c3QgTmV0d29yazEXMBUGA1UECxMOVmVyaVNpZ24sIEluYy4xMzAx
BgNVBAsTKlZlcmlTaWduIEludGVybmF0aW9uYWwgU2VydmVyIENBIC0gQ2xhc3Mg
MzFJMEcGA1UECxNAd3d3LnZlcmlzaWduLmNvbS9DUFMgSW5jb3JwLmJ5IFJlZi4g
TElBQklMSVRZIExURC4oYyk5NyBWZXJpU2lnbjCBnzANBgkqhkiG9w0BAQEFAAOB
jQAwgYkCgYEA2IKA6NYZAn0fhRg5JaJlK+G/1AXTvOY2O6rwTGxbtueqPHNFVbLx
veqXQu2aNAoV1Klc9UAl3dkHwTKydWzEyruj/lYncUOqY/UwPpMo5frxCTvzt01O
OfdcSVq4wR3Tsor+cDCVQsv+K1GLWjw6+SJPkLICp1OcTzTnqwSye28CAwEAAaOB
4zCB4DAPBgNVHRMECDAGAQH/AgEAMEQGA1UdIAQ9MDswOQYLYIZIAYb4RQEHAQEw
KjAoBggrBgEFBQcCARYcaHR0cHM6Ly93d3cudmVyaXNpZ24uY29tL0NQUzA0BgNV
HSUELTArBggrBgEFBQcDAQYIKwYBBQUHAwIGCWCGSAGG+EIEAQYKYIZIAYb4RQEI
ATALBgNVHQ8EBAMCAQYwEQYJYIZIAYb4QgEBBAQDAgEGMDEGA1UdHwQqMCgwJqAk
oCKGIGh0dHA6Ly9jcmwudmVyaXNpZ24uY29tL3BjYTMuY3JsMA0GCSqGSIb3DQEB
BQUAA4GBAECOSZeWinPdjk3vPmG3yqBirfQOCrt1PeJu2CzHv/S5jDabyqLQnHJG
OfamggNlEcS8vy2m9dk7CrWY+rN4uR7yK0xi1f2yeh3fM/1z+aXYLYwq6tH8sCi2
6UlIE0uDihtIeyT3ON5vQVS4q1drBt/HotSp9vE2YoCI8ot11oBx
-----END CERTIFICATE-----
