Certificate:
    Data:
        Version: 3 (0x2)
        Serial Number: 1 (0x1)
        Signature Algorithm: sha1WithRSAEncryption
        Issuer: CN=Test Deprecated Digest Root CA
        Validity
            Not Before: Oct 26 03:46:48 2011 GMT
            Not After : Oct 23 03:46:48 2021 GMT
        Subject: CN=Test Deprecated Digest Intermediate CA
        Subject Public Key Info:
            Public Key Algorithm: rsaEncryption
            RSA Public Key: (1024 bit)
                Modulus (1024 bit):
                    00:ac:9b:c0:4b:fc:59:45:7a:d6:3f:a3:89:23:30:
                    5b:70:ad:ab:78:62:4b:53:85:9f:f9:7d:7f:c1:26:
                    08:23:80:61:0c:ba:6d:36:06:14:df:29:d4:9c:63:
                    94:04:ee:14:b6:b9:81:06:2f:33:d8:35:9a:1a:89:
                    17:ad:21:61:fa:24:75:b9:0c:ef:c1:15:6a:02:bd:
                    b2:a5:29:df:d8:5f:80:7c:4e:c9:c1:b4:bb:fd:78:
                    44:63:34:b5:a5:51:aa:e9:23:77:44:53:f9:fa:58:
                    f6:46:6e:9d:d2:cd:00:a3:28:fe:51:e4:30:7e:49:
                    62:d4:53:b0:d8:9c:34:47:07
                Exponent: 65537 (0x10001)
        X509v3 extensions:
            X509v3 Basic Constraints: critical
                CA:TRUE
            X509v3 Subject Key Identifier: 
                A8:1D:06:8D:AD:3F:25:51:00:F0:3B:E9:35:C6:65:74:12:51:20:19
            X509v3 Authority Key Identifier: 
                keyid:79:82:C5:B4:EB:60:12:4B:B5:87:79:1B:E2:3A:9C:17:76:81:CB:43

            X509v3 Key Usage: critical
                Certificate Sign, CRL Sign
    Signature Algorithm: sha1WithRSAEncryption
        4e:30:a8:25:da:ac:90:a9:5e:6c:23:7f:76:1e:2d:64:79:78:
        61:84:dc:06:12:43:72:a6:18:f1:f2:23:fa:e9:1f:de:3a:52:
        1c:ce:cd:f7:7e:3c:92:ce:7f:f3:1f:f5:bc:18:17:95:cb:57:
        34:f1:88:b1:c8:1f:51:e1:d3:3d:dd:17:c6:d4:af:f1:42:ec:
        85:d7:bf:16:22:e0:88:82:92:cc:94:89:e5:eb:9d:cc:fe:31:
        50:6f:ea:d8:70:f9:ef:6b:ca:3e:af:bd:61:42:33:ce:23:bf:
        50:5f:55:14:64:2b:f7:fd:a6:29:41:a8:65:c3:fa:c4:f0:c7:
        71:a5
-----BEGIN CERTIFICATE-----
MIICMzCCAZygAwIBAgIBATANBgkqhkiG9w0BAQUFADApMScwJQYDVQQDDB5UZXN0
IERlcHJlY2F0ZWQgRGlnZXN0IFJvb3QgQ0EwHhcNMTExMDI2MDM0NjQ4WhcNMjEx
MDIzMDM0NjQ4WjAxMS8wLQYDVQQDDCZUZXN0IERlcHJlY2F0ZWQgRGlnZXN0IElu
dGVybWVkaWF0ZSBDQTCBnzANBgkqhkiG9w0BAQEFAAOBjQAwgYkCgYEArJvAS/xZ
RXrWP6OJIzBbcK2reGJLU4Wf+X1/wSYII4BhDLptNgYU3ynUnGOUBO4UtrmBBi8z
2DWaGokXrSFh+iR1uQzvwRVqAr2ypSnf2F+AfE7JwbS7/XhEYzS1pVGq6SN3RFP5
+lj2Rm6d0s0Aoyj+UeQwfkli1FOw2Jw0RwcCAwEAAaNjMGEwDwYDVR0TAQH/BAUw
AwEB/zAdBgNVHQ4EFgQUqB0Gja0/JVEA8DvpNcZldBJRIBkwHwYDVR0jBBgwFoAU
eYLFtOtgEku1h3kb4jqcF3aBy0MwDgYDVR0PAQH/BAQDAgEGMA0GCSqGSIb3DQEB
BQUAA4GBAE4wqCXarJCpXmwjf3YeLWR5eGGE3AYSQ3KmGPHyI/rpH946UhzOzfd+
PJLOf/Mf9bwYF5XLVzTxiLHIH1Hh0z3dF8bUr/FC7IXXvxYi4IiCksyUieXrncz+
MVBv6thw+e9ryj6vvWFCM84jv1BfVRRkK/f9pilBqGXD+sTwx3Gl
-----END CERTIFICATE-----
