Certificate:
    Data:
        Version: 3 (0x2)
        Serial Number: 2 (0x2)
        Signature Algorithm: md5WithRSAEncryption
        Issuer: CN=Test Deprecated Digest Intermediate CA
        Validity
            Not Before: Oct 26 03:46:48 2011 GMT
            Not After : Oct 23 03:46:48 2021 GMT
        Subject: C=US, ST=California, L=Mountain View, O=Test CA, CN=127.0.0.1
        Subject Public Key Info:
            Public Key Algorithm: rsaEncryption
            RSA Public Key: (1024 bit)
                Modulus (1024 bit):
                    00:c7:48:eb:5c:00:17:94:01:09:d3:bd:47:41:38:
                    74:b8:4f:cb:ea:f1:15:eb:cb:e7:b5:6c:bd:fe:d9:
                    97:6d:1e:1b:ee:75:9e:c1:6f:4a:5c:8c:d7:19:cf:
                    51:89:48:e8:7d:79:41:ab:e3:a7:77:d1:de:f2:13:
                    be:36:e7:44:c2:10:dd:56:83:03:f1:cd:e1:13:8d:
                    fe:45:d6:1a:98:d8:8d:08:b9:32:10:36:0d:ec:ee:
                    2d:66:22:eb:6a:0d:0e:f4:15:91:dd:9d:3e:92:db:
                    9e:26:c8:af:4b:b7:fb:93:f8:68:07:c3:53:02:57:
                    dc:d0:de:df:29:72:45:6f:e3
                Exponent: 65537 (0x10001)
        X509v3 extensions:
            X509v3 Basic Constraints: critical
                CA:FALSE
            X509v3 Subject Key Identifier: 
                35:5C:C8:0F:21:D0:A2:F5:69:44:5C:9E:B0:DC:0F:75:74:24:7A:FD
            X509v3 Authority Key Identifier: 
                keyid:A8:1D:06:8D:AD:3F:25:51:00:F0:3B:E9:35:C6:65:74:12:51:20:19

            X509v3 Extended Key Usage: 
                TLS Web Server Authentication, TLS Web Client Authentication
            X509v3 Subject Alternative Name: 
                IP Address:127.0.0.1
    Signature Algorithm: md5WithRSAEncryption
        5c:36:ba:dd:8c:ae:4c:2d:00:32:d9:ed:4d:1d:4b:07:52:28:
        9c:16:18:3f:38:02:9d:d7:8e:16:e6:4b:2d:8c:84:cc:b1:90:
        6c:b4:42:55:56:7c:e6:ec:15:2b:90:0b:7e:89:08:15:5a:11:
        0e:5d:1b:a3:cc:81:79:1e:ea:96:82:75:d8:14:96:0f:17:a5:
        cd:50:fd:50:f0:5b:7f:03:54:b3:e3:b5:66:03:c8:00:1d:61:
        36:f3:78:2d:07:82:61:0a:fd:d9:7c:8a:fe:cb:e1:09:df:fb:
        b6:2f:09:7b:0b:62:d8:27:18:4e:6e:fe:92:1b:1a:2b:7d:56:
        e0:87
-----BEGIN CERTIFICATE-----
MIICiDCCAfGgAwIBAgIBAjANBgkqhkiG9w0BAQQFADAxMS8wLQYDVQQDDCZUZXN0
IERlcHJlY2F0ZWQgRGlnZXN0IEludGVybWVkaWF0ZSBDQTAeFw0xMTEwMjYwMzQ2
NDhaFw0yMTEwMjMwMzQ2NDhaMGAxCzAJBgNVBAYTAlVTMRMwEQYDVQQIDApDYWxp
Zm9ybmlhMRYwFAYDVQQHDA1Nb3VudGFpbiBWaWV3MRAwDgYDVQQKDAdUZXN0IENB
MRIwEAYDVQQDDAkxMjcuMC4wLjEwgZ8wDQYJKoZIhvcNAQEBBQADgY0AMIGJAoGB
AMdI61wAF5QBCdO9R0E4dLhPy+rxFevL57Vsvf7Zl20eG+51nsFvSlyM1xnPUYlI
6H15Qavjp3fR3vITvjbnRMIQ3VaDA/HN4RON/kXWGpjYjQi5MhA2DezuLWYi62oN
DvQVkd2dPpLbnibIr0u3+5P4aAfDUwJX3NDe3ylyRW/jAgMBAAGjgYAwfjAMBgNV
HRMBAf8EAjAAMB0GA1UdDgQWBBQ1XMgPIdCi9WlEXJ6w3A91dCR6/TAfBgNVHSME
GDAWgBSoHQaNrT8lUQDwO+k1xmV0ElEgGTAdBgNVHSUEFjAUBggrBgEFBQcDAQYI
KwYBBQUHAwIwDwYDVR0RBAgwBocEfwAAATANBgkqhkiG9w0BAQQFAAOBgQBcNrrd
jK5MLQAy2e1NHUsHUiicFhg/OAKd144W5kstjITMsZBstEJVVnzm7BUrkAt+iQgV
WhEOXRujzIF5HuqWgnXYFJYPF6XNUP1Q8Ft/A1Sz47VmA8gAHWE283gtB4JhCv3Z
fIr+y+EJ3/u2Lwl7C2LYJxhObv6SGxorfVbghw==
-----END CERTIFICATE-----
