Certificate:
    Data:
        Version: 3 (0x2)
        Serial Number:
            94:72:cf:87:d6:a3:b4:82
        Signature Algorithm: sha1WithRSAEncryption
        Issuer: C=JP, ST=Tokyo, O=pywebsocket, CN=pywebsocket
        Validity
            Not Before: Oct 16 04:53:09 2012 GMT
            Not After : Apr 29 04:53:09 2033 GMT
        Subject: C=JP, ST=Tokyo, O=pywebsocket, CN=pywebsocket
        Subject Public Key Info:
            Public Key Algorithm: rsaEncryption
            RSA Public Key: (1024 bit)
                Modulus (1024 bit):
                    00:d8:f9:57:61:4a:d3:22:96:91:79:c5:1b:fa:43:
                    e1:f6:ac:ef:16:ca:5e:a3:b2:9e:11:3c:c7:bc:f7:
                    e3:86:2f:ef:1b:52:a0:86:79:b0:0e:89:b3:8b:f1:
                    54:98:7c:b8:18:44:d5:0b:26:da:b7:31:de:9e:f1:
                    ba:01:99:f8:b1:e9:5c:aa:d9:ea:7f:46:6f:2d:03:
                    8d:64:bb:e4:bc:c2:61:9b:47:bc:56:d1:aa:d1:b4:
                    e8:7c:7b:ad:83:c8:48:ef:56:c5:cf:01:22:56:75:
                    48:07:a3:15:82:32:59:08:44:d1:eb:04:ea:02:34:
                    22:7b:2b:41:6f:14:03:4e:07
                Exponent: 65537 (0x10001)
        X509v3 extensions:
            X509v3 Subject Key Identifier: 
                33:BB:11:3D:8D:AF:1C:27:2B:F6:67:36:A7:53:4E:49:94:22:17:EB
            X509v3 Authority Key Identifier: 
                keyid:33:BB:11:3D:8D:AF:1C:27:2B:F6:67:36:A7:53:4E:49:94:22:17:EB
                DirName:/C=JP/ST=Tokyo/O=pywebsocket/CN=pywebsocket
                serial:94:72:CF:87:D6:A3:B4:82

            X509v3 Basic Constraints: 
                CA:TRUE
    Signature Algorithm: sha1WithRSAEncryption
        4f:be:f4:12:fe:89:ff:bb:3b:1b:f3:78:6a:8b:ae:9c:da:31:
        f0:76:b9:22:19:8d:4c:89:be:59:97:ff:0f:9f:0d:74:88:e2:
        ca:4d:b2:d7:8e:9f:1d:3e:86:9d:40:84:fe:1a:57:53:ba:4b:
        35:91:f4:49:ba:16:3f:a1:bf:b1:a3:d8:55:f6:4d:5c:a7:2a:
        2d:e0:e1:ca:2b:44:67:c4:33:4f:31:0b:8d:3e:83:99:79:d1:
        e3:50:4d:30:ab:29:d7:46:83:07:b5:9a:84:e5:3d:cb:92:05:
        49:93:2d:4e:92:a6:4b:a3:af:24:03:42:82:c6:26:76:f7:91:
        c9:02
-----BEGIN CERTIFICATE-----
MIICvDCCAiWgAwIBAgIJAJRyz4fWo7SCMA0GCSqGSIb3DQEBBQUAMEkxCzAJBgNV
BAYTAkpQMQ4wDAYDVQQIEwVUb2t5bzEUMBIGA1UEChMLcHl3ZWJzb2NrZXQxFDAS
BgNVBAMTC3B5d2Vic29ja2V0MB4XDTEyMTAxNjA0NTMwOVoXDTMzMDQyOTA0NTMw
OVowSTELMAkGA1UEBhMCSlAxDjAMBgNVBAgTBVRva3lvMRQwEgYDVQQKEwtweXdl
YnNvY2tldDEUMBIGA1UEAxMLcHl3ZWJzb2NrZXQwgZ8wDQYJKoZIhvcNAQEBBQAD
gY0AMIGJAoGBANj5V2FK0yKWkXnFG/pD4fas7xbKXqOynhE8x7z344Yv7xtSoIZ5
sA6Js4vxVJh8uBhE1Qsm2rcx3p7xugGZ+LHpXKrZ6n9Gby0DjWS75LzCYZtHvFbR
qtG06Hx7rYPISO9Wxc8BIlZ1SAejFYIyWQhE0esE6gI0InsrQW8UA04HAgMBAAGj
gaswgagwHQYDVR0OBBYEFDO7ET2NrxwnK/ZnNqdTTkmUIhfrMHkGA1UdIwRyMHCA
FDO7ET2NrxwnK/ZnNqdTTkmUIhfroU2kSzBJMQswCQYDVQQGEwJKUDEOMAwGA1UE
CBMFVG9reW8xFDASBgNVBAoTC3B5d2Vic29ja2V0MRQwEgYDVQQDEwtweXdlYnNv
Y2tldIIJAJRyz4fWo7SCMAwGA1UdEwQFMAMBAf8wDQYJKoZIhvcNAQEFBQADgYEA
T770Ev6J/7s7G/N4aouunNox8Ha5IhmNTIm+WZf/D58NdIjiyk2y146fHT6GnUCE
/hpXU7pLNZH0SboWP6G/saPYVfZNXKcqLeDhyitEZ8QzTzELjT6DmXnR41BNMKsp
10aDB7WahOU9y5IFSZMtTpKmS6OvJANCgsYmdveRyQI=
-----END CERTIFICATE-----
